ARM GAS  C:\Users\danielpi\AppData\Local\Temp\ccwIrVvL.s 			page 1


   1              		.cpu cortex-m0
   2              		.fpu softvfp
   3              		.eabi_attribute 20, 1
   4              		.eabi_attribute 21, 1
   5              		.eabi_attribute 23, 3
   6              		.eabi_attribute 24, 1
   7              		.eabi_attribute 25, 1
   8              		.eabi_attribute 26, 1
   9              		.eabi_attribute 30, 1
  10              		.eabi_attribute 34, 0
  11              		.eabi_attribute 18, 4
  12              		.code	16
  13              		.file	"BLE_1_eventHandler.c"
  14              		.text
  15              	.Ltext0:
  16              		.cfi_sections	.debug_frame
  17              		.section	.text.CyBle_GattDisconnectEventHandler,"ax",%progbits
  18              		.align	2
  19              		.code	16
  20              		.thumb_func
  21              		.type	CyBle_GattDisconnectEventHandler, %function
  22              	CyBle_GattDisconnectEventHandler:
  23              	.LFB4:
  24              		.file 1 ".\\Generated_Source\\PSoC4\\BLE_1_eventHandler.c"
   1:.\Generated_Source\PSoC4/BLE_1_eventHandler.c **** /*******************************************************************************
   2:.\Generated_Source\PSoC4/BLE_1_eventHandler.c **** File Name: CYBLE_eventHandler.c
   3:.\Generated_Source\PSoC4/BLE_1_eventHandler.c **** Version 2.10
   4:.\Generated_Source\PSoC4/BLE_1_eventHandler.c **** 
   5:.\Generated_Source\PSoC4/BLE_1_eventHandler.c **** Description:
   6:.\Generated_Source\PSoC4/BLE_1_eventHandler.c ****  This file contains the source code for the Event Handler State Machine
   7:.\Generated_Source\PSoC4/BLE_1_eventHandler.c ****  of the BLE Component.
   8:.\Generated_Source\PSoC4/BLE_1_eventHandler.c **** 
   9:.\Generated_Source\PSoC4/BLE_1_eventHandler.c **** ********************************************************************************
  10:.\Generated_Source\PSoC4/BLE_1_eventHandler.c **** Copyright 2014-2015, Cypress Semiconductor Corporation.  All rights reserved.
  11:.\Generated_Source\PSoC4/BLE_1_eventHandler.c **** You may use this file only in accordance with the license, terms, conditions,
  12:.\Generated_Source\PSoC4/BLE_1_eventHandler.c **** disclaimers, and limitations in the end user license agreement accompanying
  13:.\Generated_Source\PSoC4/BLE_1_eventHandler.c **** the software package with which this file was provided.
  14:.\Generated_Source\PSoC4/BLE_1_eventHandler.c **** *******************************************************************************/
  15:.\Generated_Source\PSoC4/BLE_1_eventHandler.c **** 
  16:.\Generated_Source\PSoC4/BLE_1_eventHandler.c **** #include "BLE_1_eventHandler.h"
  17:.\Generated_Source\PSoC4/BLE_1_eventHandler.c **** 
  18:.\Generated_Source\PSoC4/BLE_1_eventHandler.c **** 
  19:.\Generated_Source\PSoC4/BLE_1_eventHandler.c **** /***************************************
  20:.\Generated_Source\PSoC4/BLE_1_eventHandler.c **** ##Private Function Prototypes
  21:.\Generated_Source\PSoC4/BLE_1_eventHandler.c **** ***************************************/
  22:.\Generated_Source\PSoC4/BLE_1_eventHandler.c **** 
  23:.\Generated_Source\PSoC4/BLE_1_eventHandler.c **** #if (CYBLE_GATT_ROLE_SERVER || CYBLE_GATT_ROLE_CLIENT)
  24:.\Generated_Source\PSoC4/BLE_1_eventHandler.c **** 
  25:.\Generated_Source\PSoC4/BLE_1_eventHandler.c **** static uint8 CyBle_IsDeviceAddressValid(const CYBLE_GAP_BD_ADDR_T *sflashDeviceAddress);
  26:.\Generated_Source\PSoC4/BLE_1_eventHandler.c **** 
  27:.\Generated_Source\PSoC4/BLE_1_eventHandler.c **** #endif /* CYBLE_GATT_ROLE_SERVER || CYBLE_GATT_ROLE_CLIENT */
  28:.\Generated_Source\PSoC4/BLE_1_eventHandler.c **** 
  29:.\Generated_Source\PSoC4/BLE_1_eventHandler.c **** static void CyBle_GattDisconnectEventHandler(void);
  30:.\Generated_Source\PSoC4/BLE_1_eventHandler.c **** static void CyBle_TimeOutEventHandler(const CYBLE_TO_REASON_CODE_T *eventParam);
  31:.\Generated_Source\PSoC4/BLE_1_eventHandler.c **** static void CyBle_GattConnectReqHandler(void);
  32:.\Generated_Source\PSoC4/BLE_1_eventHandler.c **** static void CyBle_L2Cap_ConnParamUpdateRspEventHandler(uint16 response);
  33:.\Generated_Source\PSoC4/BLE_1_eventHandler.c **** static void CyBle_GapConnUpdateCompleteEventHandler(const CYBLE_GAP_CONN_PARAM_UPDATED_IN_CONTROLLE
ARM GAS  C:\Users\danielpi\AppData\Local\Temp\ccwIrVvL.s 			page 2


  34:.\Generated_Source\PSoC4/BLE_1_eventHandler.c **** 
  35:.\Generated_Source\PSoC4/BLE_1_eventHandler.c **** 
  36:.\Generated_Source\PSoC4/BLE_1_eventHandler.c **** #if (CYBLE_GATT_ROLE_SERVER)
  37:.\Generated_Source\PSoC4/BLE_1_eventHandler.c **** 
  38:.\Generated_Source\PSoC4/BLE_1_eventHandler.c **** static void CyBle_WriteReqHandler(CYBLE_GATTS_WRITE_REQ_PARAM_T *eventParam);
  39:.\Generated_Source\PSoC4/BLE_1_eventHandler.c **** static void CyBle_ValueConfirmation(const CYBLE_CONN_HANDLE_T *eventParam);
  40:.\Generated_Source\PSoC4/BLE_1_eventHandler.c **** 
  41:.\Generated_Source\PSoC4/BLE_1_eventHandler.c **** #endif /* CYBLE_GATT_ROLE_SERVER */
  42:.\Generated_Source\PSoC4/BLE_1_eventHandler.c **** 
  43:.\Generated_Source\PSoC4/BLE_1_eventHandler.c **** #if (CYBLE_GATT_ROLE_CLIENT)
  44:.\Generated_Source\PSoC4/BLE_1_eventHandler.c **** 
  45:.\Generated_Source\PSoC4/BLE_1_eventHandler.c **** static void CyBle_GapcDiscoverCharacteristicsEventHandler(CYBLE_DISC_CHAR_INFO_T *discCharInfo);
  46:.\Generated_Source\PSoC4/BLE_1_eventHandler.c **** static CYBLE_GATT_ATTR_HANDLE_RANGE_T CyBle_GetCharRange(void);
  47:.\Generated_Source\PSoC4/BLE_1_eventHandler.c **** static void CyBle_GattcWriteResponseEventHandler(const CYBLE_CONN_HANDLE_T *eventParam);
  48:.\Generated_Source\PSoC4/BLE_1_eventHandler.c **** static void CyBle_NotificationEventHandler(CYBLE_GATTC_HANDLE_VALUE_NTF_PARAM_T *eventParam);
  49:.\Generated_Source\PSoC4/BLE_1_eventHandler.c **** static void CyBle_IndicationEventHandler(CYBLE_GATTC_HANDLE_VALUE_IND_PARAM_T *eventParam);
  50:.\Generated_Source\PSoC4/BLE_1_eventHandler.c **** static void CyBle_ReadResponseEventHandler(CYBLE_GATTC_READ_RSP_PARAM_T *eventParam);
  51:.\Generated_Source\PSoC4/BLE_1_eventHandler.c **** 
  52:.\Generated_Source\PSoC4/BLE_1_eventHandler.c **** #endif /* CYBLE_GATT_ROLE_CLIENT */
  53:.\Generated_Source\PSoC4/BLE_1_eventHandler.c **** 
  54:.\Generated_Source\PSoC4/BLE_1_eventHandler.c **** 
  55:.\Generated_Source\PSoC4/BLE_1_eventHandler.c **** /***************************************
  56:.\Generated_Source\PSoC4/BLE_1_eventHandler.c **** ##Global Variables
  57:.\Generated_Source\PSoC4/BLE_1_eventHandler.c **** ***************************************/
  58:.\Generated_Source\PSoC4/BLE_1_eventHandler.c **** 
  59:.\Generated_Source\PSoC4/BLE_1_eventHandler.c **** /* This global variable is initialized after connection with peer device, 
  60:.\Generated_Source\PSoC4/BLE_1_eventHandler.c ****    after CYBLE_EVT_GATT_CONNECT_IND event, and could be used by application code
  61:.\Generated_Source\PSoC4/BLE_1_eventHandler.c ****    to send data to peer device. 
  62:.\Generated_Source\PSoC4/BLE_1_eventHandler.c **** */
  63:.\Generated_Source\PSoC4/BLE_1_eventHandler.c **** CYBLE_CONN_HANDLE_T cyBle_connHandle;
  64:.\Generated_Source\PSoC4/BLE_1_eventHandler.c **** 
  65:.\Generated_Source\PSoC4/BLE_1_eventHandler.c **** volatile uint8 cyBle_eventHandlerFlag;
  66:.\Generated_Source\PSoC4/BLE_1_eventHandler.c **** volatile uint8 cyBle_busyStatus;
  67:.\Generated_Source\PSoC4/BLE_1_eventHandler.c **** 
  68:.\Generated_Source\PSoC4/BLE_1_eventHandler.c **** #if(CYBLE_GAP_ROLE_PERIPHERAL || CYBLE_GAP_ROLE_BROADCASTER) 
  69:.\Generated_Source\PSoC4/BLE_1_eventHandler.c ****     uint8 cyBle_advertisingIntervalType;
  70:.\Generated_Source\PSoC4/BLE_1_eventHandler.c **** #endif /* CYBLE_GAP_ROLE_PERIPHERAL || CYBLE_GAP_ROLE_BROADCASTER) */
  71:.\Generated_Source\PSoC4/BLE_1_eventHandler.c **** 
  72:.\Generated_Source\PSoC4/BLE_1_eventHandler.c **** #if(CYBLE_GAP_ROLE_CENTRAL || CYBLE_GAP_ROLE_OBSERVER) 
  73:.\Generated_Source\PSoC4/BLE_1_eventHandler.c ****     uint8 cyBle_scanningIntervalType;
  74:.\Generated_Source\PSoC4/BLE_1_eventHandler.c **** #endif /* CYBLE_GAP_ROLE_CENTRAL || CYBLE_GAP_ROLE_OBSERVER */
  75:.\Generated_Source\PSoC4/BLE_1_eventHandler.c **** 
  76:.\Generated_Source\PSoC4/BLE_1_eventHandler.c **** #if(CYBLE_GATT_ROLE_SERVER)
  77:.\Generated_Source\PSoC4/BLE_1_eventHandler.c **** #if defined CYBLE_CTS_SERVER || defined CYBLE_ESS_SERVER
  78:.\Generated_Source\PSoC4/BLE_1_eventHandler.c **** CYBLE_GATT_ERR_CODE_T cyBle_gattError;
  79:.\Generated_Source\PSoC4/BLE_1_eventHandler.c **** #endif /* defined CYBLE_CTS_SERVER || defined CYBLE_ESS_SERVER */
  80:.\Generated_Source\PSoC4/BLE_1_eventHandler.c **** #endif /* CYBLE_GATT_ROLE_SERVER */
  81:.\Generated_Source\PSoC4/BLE_1_eventHandler.c **** 
  82:.\Generated_Source\PSoC4/BLE_1_eventHandler.c **** #if(CYBLE_GATT_ROLE_CLIENT)
  83:.\Generated_Source\PSoC4/BLE_1_eventHandler.c **** uint8 cyBle_disCount; /* Counter for discovery procedures */
  84:.\Generated_Source\PSoC4/BLE_1_eventHandler.c **** static CYBLE_GATT_DB_ATTR_HANDLE_T cyBle_charEndHandle;
  85:.\Generated_Source\PSoC4/BLE_1_eventHandler.c **** /* Discovery included service information, used for 128-bit UUID read response handle 
  86:.\Generated_Source\PSoC4/BLE_1_eventHandler.c ****    and for continue discovery. 
  87:.\Generated_Source\PSoC4/BLE_1_eventHandler.c **** */
  88:.\Generated_Source\PSoC4/BLE_1_eventHandler.c **** static CYBLE_DISC_INCL_INFO_T cyBle_discInclInfo;
  89:.\Generated_Source\PSoC4/BLE_1_eventHandler.c **** #ifdef CYBLE_HIDS_CLIENT
  90:.\Generated_Source\PSoC4/BLE_1_eventHandler.c ****     static uint8 disServiceIndex;      /* To discovery descriptors for multiple HID service instanc
ARM GAS  C:\Users\danielpi\AppData\Local\Temp\ccwIrVvL.s 			page 3


  91:.\Generated_Source\PSoC4/BLE_1_eventHandler.c **** #endif /* CYBLE_HIDS_CLIENT */
  92:.\Generated_Source\PSoC4/BLE_1_eventHandler.c **** 
  93:.\Generated_Source\PSoC4/BLE_1_eventHandler.c **** CYBLE_DISC_SRVC_INFO_T cyBle_serverInfo[CYBLE_SRVI_COUNT] = /*4*/
  94:.\Generated_Source\PSoC4/BLE_1_eventHandler.c **** {
  95:.\Generated_Source\PSoC4/BLE_1_eventHandler.c ****     {{CYBLE_GATT_INVALID_ATTR_HANDLE_VALUE, CYBLE_GATT_INVALID_ATTR_HANDLE_VALUE}, CYBLE_UUID_GAP_S
  96:.\Generated_Source\PSoC4/BLE_1_eventHandler.c ****     {{CYBLE_GATT_INVALID_ATTR_HANDLE_VALUE, CYBLE_GATT_INVALID_ATTR_HANDLE_VALUE}, CYBLE_UUID_GATT_
  97:.\Generated_Source\PSoC4/BLE_1_eventHandler.c **** #ifdef CYBLE_ANCS_CLIENT
  98:.\Generated_Source\PSoC4/BLE_1_eventHandler.c ****     {{CYBLE_GATT_INVALID_ATTR_HANDLE_VALUE, CYBLE_GATT_INVALID_ATTR_HANDLE_VALUE}, 0x0000u},
  99:.\Generated_Source\PSoC4/BLE_1_eventHandler.c **** #endif /* CYBLE_ANCS_CLIENT */
 100:.\Generated_Source\PSoC4/BLE_1_eventHandler.c **** #ifdef CYBLE_ANS_CLIENT
 101:.\Generated_Source\PSoC4/BLE_1_eventHandler.c ****     {{CYBLE_GATT_INVALID_ATTR_HANDLE_VALUE, CYBLE_GATT_INVALID_ATTR_HANDLE_VALUE}, 
 102:.\Generated_Source\PSoC4/BLE_1_eventHandler.c ****         CYBLE_UUID_ALERT_NOTIFICATION_SERVICE},
 103:.\Generated_Source\PSoC4/BLE_1_eventHandler.c **** #endif /* CYBLE_ANS_CLIENT */
 104:.\Generated_Source\PSoC4/BLE_1_eventHandler.c **** #ifdef CYBLE_BAS_CLIENT
 105:.\Generated_Source\PSoC4/BLE_1_eventHandler.c ****     {{CYBLE_GATT_INVALID_ATTR_HANDLE_VALUE, CYBLE_GATT_INVALID_ATTR_HANDLE_VALUE}, CYBLE_UUID_BAS_S
 106:.\Generated_Source\PSoC4/BLE_1_eventHandler.c ****     #if(CYBLE_BASC_SERVICE_COUNT > 1u) /* Generate it by GUI */
 107:.\Generated_Source\PSoC4/BLE_1_eventHandler.c ****         
 108:.\Generated_Source\PSoC4/BLE_1_eventHandler.c ****     #endif /* CYBLE_BASC_SERVICE_COUNT > 1u */
 109:.\Generated_Source\PSoC4/BLE_1_eventHandler.c **** #endif /* CYBLE_BAS_CLIENT */
 110:.\Generated_Source\PSoC4/BLE_1_eventHandler.c **** #ifdef CYBLE_BLS_CLIENT
 111:.\Generated_Source\PSoC4/BLE_1_eventHandler.c ****     {{CYBLE_GATT_INVALID_ATTR_HANDLE_VALUE, CYBLE_GATT_INVALID_ATTR_HANDLE_VALUE}, CYBLE_UUID_BLOOD
 112:.\Generated_Source\PSoC4/BLE_1_eventHandler.c **** #endif /* CYBLE_BLS_CLIENT */
 113:.\Generated_Source\PSoC4/BLE_1_eventHandler.c **** #ifdef CYBLE_BMS_CLIENT
 114:.\Generated_Source\PSoC4/BLE_1_eventHandler.c ****     {{CYBLE_GATT_INVALID_ATTR_HANDLE_VALUE, CYBLE_GATT_INVALID_ATTR_HANDLE_VALUE}, CYBLE_UUID_BOND_
 115:.\Generated_Source\PSoC4/BLE_1_eventHandler.c **** #endif /* CYBLE_BMS_CLIENT */
 116:.\Generated_Source\PSoC4/BLE_1_eventHandler.c **** #ifdef CYBLE_CGMS_CLIENT
 117:.\Generated_Source\PSoC4/BLE_1_eventHandler.c ****     {{CYBLE_GATT_INVALID_ATTR_HANDLE_VALUE, CYBLE_GATT_INVALID_ATTR_HANDLE_VALUE}, CYBLE_UUID_CGM_S
 118:.\Generated_Source\PSoC4/BLE_1_eventHandler.c **** #endif /* CYBLE_CGMS_CLIENT */
 119:.\Generated_Source\PSoC4/BLE_1_eventHandler.c **** #ifdef CYBLE_CPS_CLIENT
 120:.\Generated_Source\PSoC4/BLE_1_eventHandler.c ****     {{CYBLE_GATT_INVALID_ATTR_HANDLE_VALUE, CYBLE_GATT_INVALID_ATTR_HANDLE_VALUE}, CYBLE_UUID_CPS_S
 121:.\Generated_Source\PSoC4/BLE_1_eventHandler.c **** #endif /* CYBLE_CPS_CLIENT */
 122:.\Generated_Source\PSoC4/BLE_1_eventHandler.c **** #ifdef CYBLE_CSCS_CLIENT
 123:.\Generated_Source\PSoC4/BLE_1_eventHandler.c ****     {{CYBLE_GATT_INVALID_ATTR_HANDLE_VALUE, CYBLE_GATT_INVALID_ATTR_HANDLE_VALUE}, 
 124:.\Generated_Source\PSoC4/BLE_1_eventHandler.c ****         CYBLE_UUID_CYCLING_SPEED_AND_CADENCE_SERVICE},
 125:.\Generated_Source\PSoC4/BLE_1_eventHandler.c **** #endif /* CYBLE_CSCS_CLIENT */
 126:.\Generated_Source\PSoC4/BLE_1_eventHandler.c **** #ifdef CYBLE_CTS_CLIENT
 127:.\Generated_Source\PSoC4/BLE_1_eventHandler.c ****     {{CYBLE_GATT_INVALID_ATTR_HANDLE_VALUE, CYBLE_GATT_INVALID_ATTR_HANDLE_VALUE}, CYBLE_UUID_CURRE
 128:.\Generated_Source\PSoC4/BLE_1_eventHandler.c **** #endif /* CYBLE_CTS_CLIENT */
 129:.\Generated_Source\PSoC4/BLE_1_eventHandler.c **** #ifdef CYBLE_CUSTOM_CLIENT
 130:.\Generated_Source\PSoC4/BLE_1_eventHandler.c ****     
 131:.\Generated_Source\PSoC4/BLE_1_eventHandler.c **** #endif /* CYBLE_CUSTOM_CLIENT */
 132:.\Generated_Source\PSoC4/BLE_1_eventHandler.c **** #ifdef CYBLE_DIS_CLIENT
 133:.\Generated_Source\PSoC4/BLE_1_eventHandler.c ****     {{CYBLE_GATT_INVALID_ATTR_HANDLE_VALUE, CYBLE_GATT_INVALID_ATTR_HANDLE_VALUE}, CYBLE_UUID_DEVIC
 134:.\Generated_Source\PSoC4/BLE_1_eventHandler.c **** #endif /* CYBLE_DIS_CLIENT */
 135:.\Generated_Source\PSoC4/BLE_1_eventHandler.c **** #ifdef CYBLE_ESS_CLIENT
 136:.\Generated_Source\PSoC4/BLE_1_eventHandler.c ****     {{CYBLE_GATT_INVALID_ATTR_HANDLE_VALUE, CYBLE_GATT_INVALID_ATTR_HANDLE_VALUE}, 
 137:.\Generated_Source\PSoC4/BLE_1_eventHandler.c ****         CYBLE_UUID_ENVIRONMENTAL_SENSING_SERVICE},
 138:.\Generated_Source\PSoC4/BLE_1_eventHandler.c **** #endif /* CYBLE_ESS_CLIENT */
 139:.\Generated_Source\PSoC4/BLE_1_eventHandler.c **** #ifdef CYBLE_GLS_CLIENT
 140:.\Generated_Source\PSoC4/BLE_1_eventHandler.c ****     {{CYBLE_GATT_INVALID_ATTR_HANDLE_VALUE, CYBLE_GATT_INVALID_ATTR_HANDLE_VALUE}, CYBLE_UUID_GLUCO
 141:.\Generated_Source\PSoC4/BLE_1_eventHandler.c **** #endif /* CYBLE_GLS_CLIENT */
 142:.\Generated_Source\PSoC4/BLE_1_eventHandler.c **** #ifdef CYBLE_HIDS_CLIENT
 143:.\Generated_Source\PSoC4/BLE_1_eventHandler.c ****     {{CYBLE_GATT_INVALID_ATTR_HANDLE_VALUE, CYBLE_GATT_INVALID_ATTR_HANDLE_VALUE}, CYBLE_UUID_HIDS_
 144:.\Generated_Source\PSoC4/BLE_1_eventHandler.c ****     #if(CYBLE_HIDSC_SERVICE_COUNT > 1u) /* Generate it by GUI */
 145:.\Generated_Source\PSoC4/BLE_1_eventHandler.c ****         
 146:.\Generated_Source\PSoC4/BLE_1_eventHandler.c ****     #endif /* CYBLE_HIDSC_SERVICE_COUNT > 1u */
 147:.\Generated_Source\PSoC4/BLE_1_eventHandler.c **** #endif /* CYBLE_HIDS_CLIENT */
ARM GAS  C:\Users\danielpi\AppData\Local\Temp\ccwIrVvL.s 			page 4


 148:.\Generated_Source\PSoC4/BLE_1_eventHandler.c **** #ifdef CYBLE_HRS_CLIENT
 149:.\Generated_Source\PSoC4/BLE_1_eventHandler.c ****     {{CYBLE_GATT_INVALID_ATTR_HANDLE_VALUE, CYBLE_GATT_INVALID_ATTR_HANDLE_VALUE}, CYBLE_UUID_HEART
 150:.\Generated_Source\PSoC4/BLE_1_eventHandler.c **** #endif /* CYBLE_HRS_CLIENT */
 151:.\Generated_Source\PSoC4/BLE_1_eventHandler.c **** #ifdef CYBLE_HTS_CLIENT
 152:.\Generated_Source\PSoC4/BLE_1_eventHandler.c ****     {{CYBLE_GATT_INVALID_ATTR_HANDLE_VALUE, CYBLE_GATT_INVALID_ATTR_HANDLE_VALUE}, CYBLE_UUID_HEALT
 153:.\Generated_Source\PSoC4/BLE_1_eventHandler.c **** #endif /* CYBLE_HTS_CLIENT */
 154:.\Generated_Source\PSoC4/BLE_1_eventHandler.c **** #ifdef CYBLE_IAS_CLIENT
 155:.\Generated_Source\PSoC4/BLE_1_eventHandler.c ****     {{CYBLE_GATT_INVALID_ATTR_HANDLE_VALUE, CYBLE_GATT_INVALID_ATTR_HANDLE_VALUE}, CYBLE_UUID_IMMED
 156:.\Generated_Source\PSoC4/BLE_1_eventHandler.c **** #endif /* CYBLE_IAS_CLIENT */
 157:.\Generated_Source\PSoC4/BLE_1_eventHandler.c **** #ifdef CYBLE_LLS_CLIENT
 158:.\Generated_Source\PSoC4/BLE_1_eventHandler.c ****     {{CYBLE_GATT_INVALID_ATTR_HANDLE_VALUE, CYBLE_GATT_INVALID_ATTR_HANDLE_VALUE}, CYBLE_UUID_LINK_
 159:.\Generated_Source\PSoC4/BLE_1_eventHandler.c **** #endif /* CYBLE_LLS_CLIENT */
 160:.\Generated_Source\PSoC4/BLE_1_eventHandler.c **** #ifdef CYBLE_LNS_CLIENT
 161:.\Generated_Source\PSoC4/BLE_1_eventHandler.c ****     {{CYBLE_GATT_INVALID_ATTR_HANDLE_VALUE, CYBLE_GATT_INVALID_ATTR_HANDLE_VALUE}, CYBLE_UUID_LOCAT
 162:.\Generated_Source\PSoC4/BLE_1_eventHandler.c **** #endif /* CYBLE_LNS_CLIENT */
 163:.\Generated_Source\PSoC4/BLE_1_eventHandler.c **** #ifdef CYBLE_NDCS_CLIENT
 164:.\Generated_Source\PSoC4/BLE_1_eventHandler.c ****     {{CYBLE_GATT_INVALID_ATTR_HANDLE_VALUE, CYBLE_GATT_INVALID_ATTR_HANDLE_VALUE}, CYBLE_UUID_NEXT_
 165:.\Generated_Source\PSoC4/BLE_1_eventHandler.c **** #endif /* CYBLE_NDCS_CLIENT */
 166:.\Generated_Source\PSoC4/BLE_1_eventHandler.c **** #ifdef CYBLE_IPSS_CLIENT
 167:.\Generated_Source\PSoC4/BLE_1_eventHandler.c ****     {{CYBLE_GATT_INVALID_ATTR_HANDLE_VALUE, CYBLE_GATT_INVALID_ATTR_HANDLE_VALUE}, CYBLE_UUID_INTER
 168:.\Generated_Source\PSoC4/BLE_1_eventHandler.c **** #endif /* CYBLE_IPSS_CLIENT */
 169:.\Generated_Source\PSoC4/BLE_1_eventHandler.c **** #ifdef CYBLE_PASS_CLIENT
 170:.\Generated_Source\PSoC4/BLE_1_eventHandler.c ****     {{CYBLE_GATT_INVALID_ATTR_HANDLE_VALUE, CYBLE_GATT_INVALID_ATTR_HANDLE_VALUE}, CYBLE_UUID_PHONE
 171:.\Generated_Source\PSoC4/BLE_1_eventHandler.c **** #endif /* CYBLE_PASS_CLIENT */
 172:.\Generated_Source\PSoC4/BLE_1_eventHandler.c **** #ifdef CYBLE_RSCS_CLIENT
 173:.\Generated_Source\PSoC4/BLE_1_eventHandler.c ****     {{CYBLE_GATT_INVALID_ATTR_HANDLE_VALUE, CYBLE_GATT_INVALID_ATTR_HANDLE_VALUE}, CYBLE_UUID_RUNNI
 174:.\Generated_Source\PSoC4/BLE_1_eventHandler.c **** #endif /* CYBLE_RSCS_CLIENT */
 175:.\Generated_Source\PSoC4/BLE_1_eventHandler.c **** #ifdef CYBLE_RTUS_CLIENT
 176:.\Generated_Source\PSoC4/BLE_1_eventHandler.c ****     {{CYBLE_GATT_INVALID_ATTR_HANDLE_VALUE, CYBLE_GATT_INVALID_ATTR_HANDLE_VALUE}, CYBLE_UUID_REF_T
 177:.\Generated_Source\PSoC4/BLE_1_eventHandler.c **** #endif /* CYBLE_RTUS_CLIENT */
 178:.\Generated_Source\PSoC4/BLE_1_eventHandler.c **** #ifdef CYBLE_SCPS_CLIENT
 179:.\Generated_Source\PSoC4/BLE_1_eventHandler.c ****     {{CYBLE_GATT_INVALID_ATTR_HANDLE_VALUE, CYBLE_GATT_INVALID_ATTR_HANDLE_VALUE}, CYBLE_UUID_SCAN_
 180:.\Generated_Source\PSoC4/BLE_1_eventHandler.c **** #endif /* CYBLE_SCPS_CLIENT */
 181:.\Generated_Source\PSoC4/BLE_1_eventHandler.c **** #ifdef CYBLE_TPS_CLIENT
 182:.\Generated_Source\PSoC4/BLE_1_eventHandler.c ****     {{CYBLE_GATT_INVALID_ATTR_HANDLE_VALUE, CYBLE_GATT_INVALID_ATTR_HANDLE_VALUE}, CYBLE_UUID_TX_PO
 183:.\Generated_Source\PSoC4/BLE_1_eventHandler.c **** #endif /* CYBLE_TPS_CLIENT */
 184:.\Generated_Source\PSoC4/BLE_1_eventHandler.c **** #ifdef CYBLE_UDS_CLIENT
 185:.\Generated_Source\PSoC4/BLE_1_eventHandler.c ****     {{CYBLE_GATT_INVALID_ATTR_HANDLE_VALUE, CYBLE_GATT_INVALID_ATTR_HANDLE_VALUE}, CYBLE_UUID_USER_
 186:.\Generated_Source\PSoC4/BLE_1_eventHandler.c **** #endif /* CYBLE_UDS_CLIENT */
 187:.\Generated_Source\PSoC4/BLE_1_eventHandler.c **** #ifdef CYBLE_WPTS_CLIENT
 188:.\Generated_Source\PSoC4/BLE_1_eventHandler.c ****     {{CYBLE_GATT_INVALID_ATTR_HANDLE_VALUE, CYBLE_GATT_INVALID_ATTR_HANDLE_VALUE}, CYBLE_UUID_WIREL
 189:.\Generated_Source\PSoC4/BLE_1_eventHandler.c **** #endif /* CYBLE_WPTS_CLIENT */
 190:.\Generated_Source\PSoC4/BLE_1_eventHandler.c **** };
 191:.\Generated_Source\PSoC4/BLE_1_eventHandler.c **** 
 192:.\Generated_Source\PSoC4/BLE_1_eventHandler.c **** CYBLE_GAPC_T cyBle_gapc;
 193:.\Generated_Source\PSoC4/BLE_1_eventHandler.c **** 
 194:.\Generated_Source\PSoC4/BLE_1_eventHandler.c **** #endif /* CYBLE_GATT_ROLE_CLIENT */
 195:.\Generated_Source\PSoC4/BLE_1_eventHandler.c **** 
 196:.\Generated_Source\PSoC4/BLE_1_eventHandler.c **** /* Default device security */
 197:.\Generated_Source\PSoC4/BLE_1_eventHandler.c **** CYBLE_GAP_AUTH_INFO_T cyBle_authInfo =
 198:.\Generated_Source\PSoC4/BLE_1_eventHandler.c **** {
 199:.\Generated_Source\PSoC4/BLE_1_eventHandler.c ****     (CYBLE_GAP_SEC_MODE_1 | CYBLE_GAP_SEC_LEVEL_1 ), /* uint8 security */
 200:.\Generated_Source\PSoC4/BLE_1_eventHandler.c ****     CYBLE_GAP_BONDING, /* uint8 bonding */
 201:.\Generated_Source\PSoC4/BLE_1_eventHandler.c ****     0x10u,      /* uint8 ekeySize */
 202:.\Generated_Source\PSoC4/BLE_1_eventHandler.c ****     CYBLE_GAP_AUTH_ERROR_NONE, /* CYBLE_AUTH_FAILED_REASON_T authErr */
 203:.\Generated_Source\PSoC4/BLE_1_eventHandler.c **** };
 204:.\Generated_Source\PSoC4/BLE_1_eventHandler.c **** 
ARM GAS  C:\Users\danielpi\AppData\Local\Temp\ccwIrVvL.s 			page 5


 205:.\Generated_Source\PSoC4/BLE_1_eventHandler.c **** #if(CYBLE_GATT_ROLE_SERVER)
 206:.\Generated_Source\PSoC4/BLE_1_eventHandler.c **** 
 207:.\Generated_Source\PSoC4/BLE_1_eventHandler.c **** 
 208:.\Generated_Source\PSoC4/BLE_1_eventHandler.c **** /******************************************************************************    
 209:.\Generated_Source\PSoC4/BLE_1_eventHandler.c **** ##Function Name: CyBle_WriteReqHandler
 210:.\Generated_Source\PSoC4/BLE_1_eventHandler.c **** *******************************************************************************
 211:.\Generated_Source\PSoC4/BLE_1_eventHandler.c **** 
 212:.\Generated_Source\PSoC4/BLE_1_eventHandler.c **** Summary:
 213:.\Generated_Source\PSoC4/BLE_1_eventHandler.c ****  Handles the Write Request event from BLE stack.
 214:.\Generated_Source\PSoC4/BLE_1_eventHandler.c **** 
 215:.\Generated_Source\PSoC4/BLE_1_eventHandler.c **** Parameters:
 216:.\Generated_Source\PSoC4/BLE_1_eventHandler.c ****  CYBLE_GATTS_WRITE_REQ_PARAM_T * eventParam - event parameter
 217:.\Generated_Source\PSoC4/BLE_1_eventHandler.c **** 
 218:.\Generated_Source\PSoC4/BLE_1_eventHandler.c **** Return:
 219:.\Generated_Source\PSoC4/BLE_1_eventHandler.c ****  None
 220:.\Generated_Source\PSoC4/BLE_1_eventHandler.c **** 
 221:.\Generated_Source\PSoC4/BLE_1_eventHandler.c **** ******************************************************************************/
 222:.\Generated_Source\PSoC4/BLE_1_eventHandler.c **** static void CyBle_WriteReqHandler(CYBLE_GATTS_WRITE_REQ_PARAM_T *eventParam)
 223:.\Generated_Source\PSoC4/BLE_1_eventHandler.c **** {
 224:.\Generated_Source\PSoC4/BLE_1_eventHandler.c ****     CYBLE_GATT_ERR_CODE_T gattErr;
 225:.\Generated_Source\PSoC4/BLE_1_eventHandler.c **** #if defined CYBLE_CTS_SERVER || defined CYBLE_ESS_SERVER
 226:.\Generated_Source\PSoC4/BLE_1_eventHandler.c ****     cyBle_gattError = CYBLE_GATT_ERR_NONE;
 227:.\Generated_Source\PSoC4/BLE_1_eventHandler.c **** #endif /* defined CYBLE_CTS_SERVER || defined CYBLE_ESS_SERVER */
 228:.\Generated_Source\PSoC4/BLE_1_eventHandler.c ****     
 229:.\Generated_Source\PSoC4/BLE_1_eventHandler.c ****     gattErr = CyBle_GattsWriteEventHandler(eventParam);
 230:.\Generated_Source\PSoC4/BLE_1_eventHandler.c **** #ifdef CYBLE_ANCS_SERVER
 231:.\Generated_Source\PSoC4/BLE_1_eventHandler.c ****     if(((cyBle_eventHandlerFlag & CYBLE_CALLBACK) != 0u) && (gattErr == CYBLE_GATT_ERR_NONE))
 232:.\Generated_Source\PSoC4/BLE_1_eventHandler.c ****     {
 233:.\Generated_Source\PSoC4/BLE_1_eventHandler.c ****         gattErr = CyBle_AncssWriteEventHandler(eventParam);
 234:.\Generated_Source\PSoC4/BLE_1_eventHandler.c ****     }
 235:.\Generated_Source\PSoC4/BLE_1_eventHandler.c **** #endif /* CYBLE_ANCS_SERVER */
 236:.\Generated_Source\PSoC4/BLE_1_eventHandler.c **** #ifdef CYBLE_ANS_SERVER
 237:.\Generated_Source\PSoC4/BLE_1_eventHandler.c ****     if(((cyBle_eventHandlerFlag & CYBLE_CALLBACK) != 0u) && (gattErr == CYBLE_GATT_ERR_NONE))
 238:.\Generated_Source\PSoC4/BLE_1_eventHandler.c ****     {
 239:.\Generated_Source\PSoC4/BLE_1_eventHandler.c ****         gattErr = CyBle_AnssWriteEventHandler(eventParam);
 240:.\Generated_Source\PSoC4/BLE_1_eventHandler.c ****     }
 241:.\Generated_Source\PSoC4/BLE_1_eventHandler.c **** #endif /* CYBLE_ANS_SERVER */
 242:.\Generated_Source\PSoC4/BLE_1_eventHandler.c **** #ifdef CYBLE_BAS_SERVER
 243:.\Generated_Source\PSoC4/BLE_1_eventHandler.c ****     if(((cyBle_eventHandlerFlag & CYBLE_CALLBACK) != 0u) && (gattErr == CYBLE_GATT_ERR_NONE))
 244:.\Generated_Source\PSoC4/BLE_1_eventHandler.c ****     {
 245:.\Generated_Source\PSoC4/BLE_1_eventHandler.c ****         gattErr = CyBle_BassWriteEventHandler(eventParam);
 246:.\Generated_Source\PSoC4/BLE_1_eventHandler.c ****     }
 247:.\Generated_Source\PSoC4/BLE_1_eventHandler.c **** #endif /* CYBLE_BAS_SERVER */
 248:.\Generated_Source\PSoC4/BLE_1_eventHandler.c **** #ifdef CYBLE_BCS_SERVER
 249:.\Generated_Source\PSoC4/BLE_1_eventHandler.c ****     if(((cyBle_eventHandlerFlag & CYBLE_CALLBACK) != 0u) && (gattErr == CYBLE_GATT_ERR_NONE))
 250:.\Generated_Source\PSoC4/BLE_1_eventHandler.c ****     {
 251:.\Generated_Source\PSoC4/BLE_1_eventHandler.c ****         gattErr = CyBle_BcssWriteEventHandler(eventParam);
 252:.\Generated_Source\PSoC4/BLE_1_eventHandler.c ****     }
 253:.\Generated_Source\PSoC4/BLE_1_eventHandler.c **** #endif /* CYBLE_BCS_SERVER */
 254:.\Generated_Source\PSoC4/BLE_1_eventHandler.c **** #ifdef CYBLE_BLS_SERVER
 255:.\Generated_Source\PSoC4/BLE_1_eventHandler.c ****     if(((cyBle_eventHandlerFlag & CYBLE_CALLBACK) != 0u) && (gattErr == CYBLE_GATT_ERR_NONE))
 256:.\Generated_Source\PSoC4/BLE_1_eventHandler.c ****     {
 257:.\Generated_Source\PSoC4/BLE_1_eventHandler.c ****         gattErr = CyBle_BlssWriteEventHandler(eventParam);
 258:.\Generated_Source\PSoC4/BLE_1_eventHandler.c ****     }
 259:.\Generated_Source\PSoC4/BLE_1_eventHandler.c **** #endif /* CYBLE_BLS_SERVER */
 260:.\Generated_Source\PSoC4/BLE_1_eventHandler.c **** #ifdef CYBLE_BMS_SERVER
 261:.\Generated_Source\PSoC4/BLE_1_eventHandler.c ****     if(((cyBle_eventHandlerFlag & CYBLE_CALLBACK) != 0u) && (gattErr == CYBLE_GATT_ERR_NONE))
ARM GAS  C:\Users\danielpi\AppData\Local\Temp\ccwIrVvL.s 			page 6


 262:.\Generated_Source\PSoC4/BLE_1_eventHandler.c ****     {
 263:.\Generated_Source\PSoC4/BLE_1_eventHandler.c ****         gattErr = CyBle_BmssWriteEventHandler(eventParam);
 264:.\Generated_Source\PSoC4/BLE_1_eventHandler.c ****     }
 265:.\Generated_Source\PSoC4/BLE_1_eventHandler.c **** #endif /* CYBLE_BMS_SERVER */
 266:.\Generated_Source\PSoC4/BLE_1_eventHandler.c **** #ifdef CYBLE_BTS_SERVER
 267:.\Generated_Source\PSoC4/BLE_1_eventHandler.c ****     if((cyBle_eventHandlerFlag & CYBLE_CALLBACK) != 0u)
 268:.\Generated_Source\PSoC4/BLE_1_eventHandler.c ****     {
 269:.\Generated_Source\PSoC4/BLE_1_eventHandler.c ****         gattErr = CyBle_BtsWriteEventHandler(eventParam);
 270:.\Generated_Source\PSoC4/BLE_1_eventHandler.c ****     }
 271:.\Generated_Source\PSoC4/BLE_1_eventHandler.c **** #endif /* CYBLE_BTS_SERVER */
 272:.\Generated_Source\PSoC4/BLE_1_eventHandler.c **** #ifdef CYBLE_CGMS_SERVER
 273:.\Generated_Source\PSoC4/BLE_1_eventHandler.c ****     if(((cyBle_eventHandlerFlag & CYBLE_CALLBACK) != 0u) && (gattErr == CYBLE_GATT_ERR_NONE))
 274:.\Generated_Source\PSoC4/BLE_1_eventHandler.c ****     {
 275:.\Generated_Source\PSoC4/BLE_1_eventHandler.c ****         gattErr = CyBle_CgmssWriteEventHandler(eventParam);
 276:.\Generated_Source\PSoC4/BLE_1_eventHandler.c ****     }
 277:.\Generated_Source\PSoC4/BLE_1_eventHandler.c **** #endif /* CYBLE_CGMS_SERVER */
 278:.\Generated_Source\PSoC4/BLE_1_eventHandler.c **** #ifdef CYBLE_CPS_SERVER
 279:.\Generated_Source\PSoC4/BLE_1_eventHandler.c ****     if(((cyBle_eventHandlerFlag & CYBLE_CALLBACK) != 0u) && (gattErr == CYBLE_GATT_ERR_NONE))
 280:.\Generated_Source\PSoC4/BLE_1_eventHandler.c ****     {
 281:.\Generated_Source\PSoC4/BLE_1_eventHandler.c ****         gattErr = CyBle_CpssWriteEventHandler(eventParam);
 282:.\Generated_Source\PSoC4/BLE_1_eventHandler.c ****     }
 283:.\Generated_Source\PSoC4/BLE_1_eventHandler.c **** #endif /* CYBLE_CPS_SERVER */
 284:.\Generated_Source\PSoC4/BLE_1_eventHandler.c **** #ifdef CYBLE_CSCS_SERVER
 285:.\Generated_Source\PSoC4/BLE_1_eventHandler.c ****     if(((cyBle_eventHandlerFlag & CYBLE_CALLBACK) != 0u) && (gattErr == CYBLE_GATT_ERR_NONE))
 286:.\Generated_Source\PSoC4/BLE_1_eventHandler.c ****     {
 287:.\Generated_Source\PSoC4/BLE_1_eventHandler.c ****         gattErr = CyBle_CscssWriteEventHandler(eventParam);
 288:.\Generated_Source\PSoC4/BLE_1_eventHandler.c ****     }
 289:.\Generated_Source\PSoC4/BLE_1_eventHandler.c **** #endif /* CYBLE_CSCS_SERVER */
 290:.\Generated_Source\PSoC4/BLE_1_eventHandler.c **** #ifdef CYBLE_CTS_SERVER
 291:.\Generated_Source\PSoC4/BLE_1_eventHandler.c ****     if(((cyBle_eventHandlerFlag & CYBLE_CALLBACK) != 0u) && (gattErr == CYBLE_GATT_ERR_NONE))
 292:.\Generated_Source\PSoC4/BLE_1_eventHandler.c ****     {
 293:.\Generated_Source\PSoC4/BLE_1_eventHandler.c ****         gattErr = CyBle_CtssWriteEventHandler(eventParam);
 294:.\Generated_Source\PSoC4/BLE_1_eventHandler.c ****     }
 295:.\Generated_Source\PSoC4/BLE_1_eventHandler.c **** #endif /* CYBLE_CTS_SERVER */
 296:.\Generated_Source\PSoC4/BLE_1_eventHandler.c **** #ifdef CYBLE_ESS_SERVER
 297:.\Generated_Source\PSoC4/BLE_1_eventHandler.c ****     if(((cyBle_eventHandlerFlag & CYBLE_CALLBACK) != 0u) && (gattErr == CYBLE_GATT_ERR_NONE))
 298:.\Generated_Source\PSoC4/BLE_1_eventHandler.c ****     {
 299:.\Generated_Source\PSoC4/BLE_1_eventHandler.c ****         gattErr = CyBle_EsssWriteEventHandler(eventParam);
 300:.\Generated_Source\PSoC4/BLE_1_eventHandler.c ****     }
 301:.\Generated_Source\PSoC4/BLE_1_eventHandler.c **** #endif /* CYBLE_ESS_SERVER */
 302:.\Generated_Source\PSoC4/BLE_1_eventHandler.c **** #ifdef CYBLE_GLS_SERVER
 303:.\Generated_Source\PSoC4/BLE_1_eventHandler.c ****     if(((cyBle_eventHandlerFlag & CYBLE_CALLBACK) != 0u) && (gattErr == CYBLE_GATT_ERR_NONE))
 304:.\Generated_Source\PSoC4/BLE_1_eventHandler.c ****     {
 305:.\Generated_Source\PSoC4/BLE_1_eventHandler.c ****         gattErr = CyBle_GlssWriteEventHandler(eventParam);
 306:.\Generated_Source\PSoC4/BLE_1_eventHandler.c ****     }
 307:.\Generated_Source\PSoC4/BLE_1_eventHandler.c **** #endif /* CYBLE_GLS_SERVER */
 308:.\Generated_Source\PSoC4/BLE_1_eventHandler.c **** #ifdef CYBLE_HIDS_SERVER
 309:.\Generated_Source\PSoC4/BLE_1_eventHandler.c ****     if(((cyBle_eventHandlerFlag & CYBLE_CALLBACK) != 0u) && (gattErr == CYBLE_GATT_ERR_NONE))
 310:.\Generated_Source\PSoC4/BLE_1_eventHandler.c ****     {
 311:.\Generated_Source\PSoC4/BLE_1_eventHandler.c ****         gattErr = CyBle_HidssWriteEventHandler(eventParam);
 312:.\Generated_Source\PSoC4/BLE_1_eventHandler.c ****     }
 313:.\Generated_Source\PSoC4/BLE_1_eventHandler.c **** #endif /* CYBLE_HIDS_SERVER */
 314:.\Generated_Source\PSoC4/BLE_1_eventHandler.c **** #ifdef CYBLE_HRS_SERVER
 315:.\Generated_Source\PSoC4/BLE_1_eventHandler.c ****     if(((cyBle_eventHandlerFlag & CYBLE_CALLBACK) != 0u) && (gattErr == CYBLE_GATT_ERR_NONE))
 316:.\Generated_Source\PSoC4/BLE_1_eventHandler.c ****     {
 317:.\Generated_Source\PSoC4/BLE_1_eventHandler.c ****         gattErr = CyBle_HrssWriteEventHandler(eventParam);
 318:.\Generated_Source\PSoC4/BLE_1_eventHandler.c ****     }
ARM GAS  C:\Users\danielpi\AppData\Local\Temp\ccwIrVvL.s 			page 7


 319:.\Generated_Source\PSoC4/BLE_1_eventHandler.c **** #endif /* CYBLE_HRS_SERVER */
 320:.\Generated_Source\PSoC4/BLE_1_eventHandler.c **** #ifdef CYBLE_HTS_SERVER
 321:.\Generated_Source\PSoC4/BLE_1_eventHandler.c ****     if(((cyBle_eventHandlerFlag & CYBLE_CALLBACK) != 0u) && (gattErr == CYBLE_GATT_ERR_NONE))
 322:.\Generated_Source\PSoC4/BLE_1_eventHandler.c ****     {
 323:.\Generated_Source\PSoC4/BLE_1_eventHandler.c ****         gattErr = CyBle_HtssWriteEventHandler(eventParam);
 324:.\Generated_Source\PSoC4/BLE_1_eventHandler.c ****     }
 325:.\Generated_Source\PSoC4/BLE_1_eventHandler.c **** #endif /* CYBLE_HTS_SERVER */
 326:.\Generated_Source\PSoC4/BLE_1_eventHandler.c **** #ifdef CYBLE_LLS_SERVER
 327:.\Generated_Source\PSoC4/BLE_1_eventHandler.c ****     if(((cyBle_eventHandlerFlag & CYBLE_CALLBACK) != 0u) && (gattErr == CYBLE_GATT_ERR_NONE))
 328:.\Generated_Source\PSoC4/BLE_1_eventHandler.c ****     {
 329:.\Generated_Source\PSoC4/BLE_1_eventHandler.c ****         gattErr = CyBle_LlssWriteEventHandler(eventParam);
 330:.\Generated_Source\PSoC4/BLE_1_eventHandler.c ****     }
 331:.\Generated_Source\PSoC4/BLE_1_eventHandler.c **** #endif /* CYBLE_LLS_SERVER */
 332:.\Generated_Source\PSoC4/BLE_1_eventHandler.c **** #ifdef CYBLE_LNS_SERVER
 333:.\Generated_Source\PSoC4/BLE_1_eventHandler.c ****     if(((cyBle_eventHandlerFlag & CYBLE_CALLBACK) != 0u) && (gattErr == CYBLE_GATT_ERR_NONE))
 334:.\Generated_Source\PSoC4/BLE_1_eventHandler.c ****     {
 335:.\Generated_Source\PSoC4/BLE_1_eventHandler.c ****         gattErr = CyBle_LnssWriteEventHandler(eventParam);
 336:.\Generated_Source\PSoC4/BLE_1_eventHandler.c ****     }
 337:.\Generated_Source\PSoC4/BLE_1_eventHandler.c **** #endif /* CYBLE_LNS_SERVER */
 338:.\Generated_Source\PSoC4/BLE_1_eventHandler.c **** #ifdef CYBLE_PASS_SERVER
 339:.\Generated_Source\PSoC4/BLE_1_eventHandler.c ****     if(((cyBle_eventHandlerFlag & CYBLE_CALLBACK) != 0u) && (gattErr == CYBLE_GATT_ERR_NONE))
 340:.\Generated_Source\PSoC4/BLE_1_eventHandler.c ****     {
 341:.\Generated_Source\PSoC4/BLE_1_eventHandler.c ****         gattErr = CyBle_PasssWriteEventHandler(eventParam);
 342:.\Generated_Source\PSoC4/BLE_1_eventHandler.c ****     }
 343:.\Generated_Source\PSoC4/BLE_1_eventHandler.c **** #endif /* CYBLE_PASS_SERVER */
 344:.\Generated_Source\PSoC4/BLE_1_eventHandler.c **** #ifdef CYBLE_RSCS_SERVER
 345:.\Generated_Source\PSoC4/BLE_1_eventHandler.c ****     if(((cyBle_eventHandlerFlag & CYBLE_CALLBACK) != 0u) && (gattErr == CYBLE_GATT_ERR_NONE))
 346:.\Generated_Source\PSoC4/BLE_1_eventHandler.c ****     {
 347:.\Generated_Source\PSoC4/BLE_1_eventHandler.c ****         gattErr = CyBle_RscssWriteEventHandler(eventParam);
 348:.\Generated_Source\PSoC4/BLE_1_eventHandler.c ****     }
 349:.\Generated_Source\PSoC4/BLE_1_eventHandler.c **** #endif /* CYBLE_RSCS_SERVER */
 350:.\Generated_Source\PSoC4/BLE_1_eventHandler.c **** #ifdef CYBLE_SCPS_SERVER
 351:.\Generated_Source\PSoC4/BLE_1_eventHandler.c ****     if(((cyBle_eventHandlerFlag & CYBLE_CALLBACK) != 0u) && (gattErr == CYBLE_GATT_ERR_NONE))
 352:.\Generated_Source\PSoC4/BLE_1_eventHandler.c ****     {
 353:.\Generated_Source\PSoC4/BLE_1_eventHandler.c ****         gattErr = CyBle_ScpssWriteEventHandler(eventParam);
 354:.\Generated_Source\PSoC4/BLE_1_eventHandler.c ****     }
 355:.\Generated_Source\PSoC4/BLE_1_eventHandler.c **** #endif /* CYBLE_SCPS_SERVER */
 356:.\Generated_Source\PSoC4/BLE_1_eventHandler.c **** #ifdef CYBLE_TPS_SERVER
 357:.\Generated_Source\PSoC4/BLE_1_eventHandler.c ****     if(((cyBle_eventHandlerFlag & CYBLE_CALLBACK) != 0u) && (gattErr == CYBLE_GATT_ERR_NONE))
 358:.\Generated_Source\PSoC4/BLE_1_eventHandler.c ****     {
 359:.\Generated_Source\PSoC4/BLE_1_eventHandler.c ****         gattErr = CyBle_TpssWriteEventHandler(eventParam);
 360:.\Generated_Source\PSoC4/BLE_1_eventHandler.c ****     }
 361:.\Generated_Source\PSoC4/BLE_1_eventHandler.c **** #endif /* CYBLE_TPS_SERVER */
 362:.\Generated_Source\PSoC4/BLE_1_eventHandler.c **** #ifdef CYBLE_UDS_SERVER
 363:.\Generated_Source\PSoC4/BLE_1_eventHandler.c ****     if(((cyBle_eventHandlerFlag & CYBLE_CALLBACK) != 0u) && (gattErr == CYBLE_GATT_ERR_NONE))
 364:.\Generated_Source\PSoC4/BLE_1_eventHandler.c ****     {
 365:.\Generated_Source\PSoC4/BLE_1_eventHandler.c ****         gattErr = CyBle_UdssWriteEventHandler(eventParam);
 366:.\Generated_Source\PSoC4/BLE_1_eventHandler.c ****     }
 367:.\Generated_Source\PSoC4/BLE_1_eventHandler.c **** #endif /* CYBLE_UDS_SERVER */
 368:.\Generated_Source\PSoC4/BLE_1_eventHandler.c **** #ifdef CYBLE_WPTS_SERVER
 369:.\Generated_Source\PSoC4/BLE_1_eventHandler.c ****     if(((cyBle_eventHandlerFlag & CYBLE_CALLBACK) != 0u) && (gattErr == CYBLE_GATT_ERR_NONE))
 370:.\Generated_Source\PSoC4/BLE_1_eventHandler.c ****     {
 371:.\Generated_Source\PSoC4/BLE_1_eventHandler.c ****         gattErr = CyBle_WptssWriteEventHandler(eventParam);
 372:.\Generated_Source\PSoC4/BLE_1_eventHandler.c ****     }
 373:.\Generated_Source\PSoC4/BLE_1_eventHandler.c **** #endif /* CYBLE_WPTS_SERVER */
 374:.\Generated_Source\PSoC4/BLE_1_eventHandler.c **** #ifdef CYBLE_WSS_SERVER
 375:.\Generated_Source\PSoC4/BLE_1_eventHandler.c ****     if(((cyBle_eventHandlerFlag & CYBLE_CALLBACK) != 0u) && (gattErr == CYBLE_GATT_ERR_NONE))
ARM GAS  C:\Users\danielpi\AppData\Local\Temp\ccwIrVvL.s 			page 8


 376:.\Generated_Source\PSoC4/BLE_1_eventHandler.c ****     {
 377:.\Generated_Source\PSoC4/BLE_1_eventHandler.c ****         gattErr = CyBle_WsssWriteEventHandler(eventParam);
 378:.\Generated_Source\PSoC4/BLE_1_eventHandler.c ****     }
 379:.\Generated_Source\PSoC4/BLE_1_eventHandler.c **** #endif /* CYBLE_WSS_SERVER */
 380:.\Generated_Source\PSoC4/BLE_1_eventHandler.c **** 
 381:.\Generated_Source\PSoC4/BLE_1_eventHandler.c ****     /* Send response when event was handled by service */
 382:.\Generated_Source\PSoC4/BLE_1_eventHandler.c ****     if((cyBle_eventHandlerFlag & CYBLE_CALLBACK) == 0u)
 383:.\Generated_Source\PSoC4/BLE_1_eventHandler.c ****     {
 384:.\Generated_Source\PSoC4/BLE_1_eventHandler.c ****         if(gattErr != CYBLE_GATT_ERR_NONE)
 385:.\Generated_Source\PSoC4/BLE_1_eventHandler.c ****         {
 386:.\Generated_Source\PSoC4/BLE_1_eventHandler.c ****             CYBLE_GATTS_ERR_PARAM_T err_param;
 387:.\Generated_Source\PSoC4/BLE_1_eventHandler.c ****             
 388:.\Generated_Source\PSoC4/BLE_1_eventHandler.c ****             err_param.opcode = (uint8) CYBLE_GATT_WRITE_REQ;
 389:.\Generated_Source\PSoC4/BLE_1_eventHandler.c ****             err_param.attrHandle = eventParam->handleValPair.attrHandle;
 390:.\Generated_Source\PSoC4/BLE_1_eventHandler.c ****             err_param.errorCode = gattErr;
 391:.\Generated_Source\PSoC4/BLE_1_eventHandler.c **** 
 392:.\Generated_Source\PSoC4/BLE_1_eventHandler.c ****             /* Send Error Response */
 393:.\Generated_Source\PSoC4/BLE_1_eventHandler.c ****             (void)CyBle_GattsErrorRsp(eventParam->connHandle, &err_param);
 394:.\Generated_Source\PSoC4/BLE_1_eventHandler.c ****         }
 395:.\Generated_Source\PSoC4/BLE_1_eventHandler.c ****         else
 396:.\Generated_Source\PSoC4/BLE_1_eventHandler.c ****         {
 397:.\Generated_Source\PSoC4/BLE_1_eventHandler.c ****             (void)CyBle_GattsWriteRsp(eventParam->connHandle);
 398:.\Generated_Source\PSoC4/BLE_1_eventHandler.c ****         }
 399:.\Generated_Source\PSoC4/BLE_1_eventHandler.c ****     }
 400:.\Generated_Source\PSoC4/BLE_1_eventHandler.c **** }
 401:.\Generated_Source\PSoC4/BLE_1_eventHandler.c **** 
 402:.\Generated_Source\PSoC4/BLE_1_eventHandler.c **** 
 403:.\Generated_Source\PSoC4/BLE_1_eventHandler.c **** /****************************************************************************** 
 404:.\Generated_Source\PSoC4/BLE_1_eventHandler.c **** ##Function Name: CyBle_ValueConfirmation
 405:.\Generated_Source\PSoC4/BLE_1_eventHandler.c **** *******************************************************************************
 406:.\Generated_Source\PSoC4/BLE_1_eventHandler.c **** 
 407:.\Generated_Source\PSoC4/BLE_1_eventHandler.c **** Summary:
 408:.\Generated_Source\PSoC4/BLE_1_eventHandler.c ****  Handles the Value Confirmation request event from the BLE stack.
 409:.\Generated_Source\PSoC4/BLE_1_eventHandler.c **** 
 410:.\Generated_Source\PSoC4/BLE_1_eventHandler.c **** Parameters:
 411:.\Generated_Source\PSoC4/BLE_1_eventHandler.c ****  CYBLE_CONN_HANDLE_T *eventParam - Pointer to a structure
 412:.\Generated_Source\PSoC4/BLE_1_eventHandler.c ****     of type 'CYBLE_CONN_HANDLE_T'
 413:.\Generated_Source\PSoC4/BLE_1_eventHandler.c **** 
 414:.\Generated_Source\PSoC4/BLE_1_eventHandler.c **** Return:
 415:.\Generated_Source\PSoC4/BLE_1_eventHandler.c ****  None
 416:.\Generated_Source\PSoC4/BLE_1_eventHandler.c **** 
 417:.\Generated_Source\PSoC4/BLE_1_eventHandler.c **** ******************************************************************************/
 418:.\Generated_Source\PSoC4/BLE_1_eventHandler.c **** static void CyBle_ValueConfirmation(const CYBLE_CONN_HANDLE_T *eventParam)
 419:.\Generated_Source\PSoC4/BLE_1_eventHandler.c **** {
 420:.\Generated_Source\PSoC4/BLE_1_eventHandler.c ****     if(eventParam != NULL)
 421:.\Generated_Source\PSoC4/BLE_1_eventHandler.c ****     {
 422:.\Generated_Source\PSoC4/BLE_1_eventHandler.c ****     #ifdef CYBLE_BCS_SERVER
 423:.\Generated_Source\PSoC4/BLE_1_eventHandler.c ****         CyBle_BcssConfirmationEventHandler(eventParam);
 424:.\Generated_Source\PSoC4/BLE_1_eventHandler.c ****     #endif /* CYBLE_BCS_SERVER */
 425:.\Generated_Source\PSoC4/BLE_1_eventHandler.c ****     #ifdef CYBLE_BLS_SERVER
 426:.\Generated_Source\PSoC4/BLE_1_eventHandler.c ****         if((cyBle_eventHandlerFlag & CYBLE_CALLBACK) != 0u)
 427:.\Generated_Source\PSoC4/BLE_1_eventHandler.c ****         {
 428:.\Generated_Source\PSoC4/BLE_1_eventHandler.c ****             CyBle_BlssConfirmationEventHandler(eventParam);
 429:.\Generated_Source\PSoC4/BLE_1_eventHandler.c ****         }
 430:.\Generated_Source\PSoC4/BLE_1_eventHandler.c ****     #endif /* CYBLE_BLS_SERVER */
 431:.\Generated_Source\PSoC4/BLE_1_eventHandler.c ****     
 432:.\Generated_Source\PSoC4/BLE_1_eventHandler.c ****     #ifdef CYBLE_CGMS_SERVER
ARM GAS  C:\Users\danielpi\AppData\Local\Temp\ccwIrVvL.s 			page 9


 433:.\Generated_Source\PSoC4/BLE_1_eventHandler.c ****         if((cyBle_eventHandlerFlag & CYBLE_CALLBACK) != 0u)
 434:.\Generated_Source\PSoC4/BLE_1_eventHandler.c ****         {
 435:.\Generated_Source\PSoC4/BLE_1_eventHandler.c ****             CyBle_CgmssConfirmationEventHandler(eventParam);
 436:.\Generated_Source\PSoC4/BLE_1_eventHandler.c ****         }
 437:.\Generated_Source\PSoC4/BLE_1_eventHandler.c ****     #endif /* CYBLE_CGMS_SERVER */
 438:.\Generated_Source\PSoC4/BLE_1_eventHandler.c ****     
 439:.\Generated_Source\PSoC4/BLE_1_eventHandler.c ****     #ifdef CYBLE_CPS_SERVER
 440:.\Generated_Source\PSoC4/BLE_1_eventHandler.c ****         if((cyBle_eventHandlerFlag & CYBLE_CALLBACK) != 0u)
 441:.\Generated_Source\PSoC4/BLE_1_eventHandler.c ****         {
 442:.\Generated_Source\PSoC4/BLE_1_eventHandler.c ****             CyBle_CpssConfirmationEventHandler(eventParam);
 443:.\Generated_Source\PSoC4/BLE_1_eventHandler.c ****         }
 444:.\Generated_Source\PSoC4/BLE_1_eventHandler.c ****     #endif /* CYBLE_CPS_SERVER */
 445:.\Generated_Source\PSoC4/BLE_1_eventHandler.c ****     
 446:.\Generated_Source\PSoC4/BLE_1_eventHandler.c ****     #ifdef CYBLE_CSCS_SERVER
 447:.\Generated_Source\PSoC4/BLE_1_eventHandler.c ****         if((cyBle_eventHandlerFlag & CYBLE_CALLBACK) != 0u)
 448:.\Generated_Source\PSoC4/BLE_1_eventHandler.c ****         {
 449:.\Generated_Source\PSoC4/BLE_1_eventHandler.c ****             CyBle_CscssConfirmationEventHandler(eventParam);
 450:.\Generated_Source\PSoC4/BLE_1_eventHandler.c ****         }
 451:.\Generated_Source\PSoC4/BLE_1_eventHandler.c ****     #endif /* CYBLE_CSCS_SERVER */
 452:.\Generated_Source\PSoC4/BLE_1_eventHandler.c ****     
 453:.\Generated_Source\PSoC4/BLE_1_eventHandler.c ****     #ifdef CYBLE_ESS_SERVER
 454:.\Generated_Source\PSoC4/BLE_1_eventHandler.c ****         if((cyBle_eventHandlerFlag & CYBLE_CALLBACK) != 0u)
 455:.\Generated_Source\PSoC4/BLE_1_eventHandler.c ****         {
 456:.\Generated_Source\PSoC4/BLE_1_eventHandler.c ****             CyBle_EsssConfirmationEventHandler(eventParam);
 457:.\Generated_Source\PSoC4/BLE_1_eventHandler.c ****         }
 458:.\Generated_Source\PSoC4/BLE_1_eventHandler.c ****     #endif /* CYBLE_ESS_SERVER */
 459:.\Generated_Source\PSoC4/BLE_1_eventHandler.c ****     
 460:.\Generated_Source\PSoC4/BLE_1_eventHandler.c ****     #ifdef CYBLE_GLS_SERVER
 461:.\Generated_Source\PSoC4/BLE_1_eventHandler.c ****         if((cyBle_eventHandlerFlag & CYBLE_CALLBACK) != 0u)
 462:.\Generated_Source\PSoC4/BLE_1_eventHandler.c ****         {
 463:.\Generated_Source\PSoC4/BLE_1_eventHandler.c ****             CyBle_GlssConfirmationEventHandler(eventParam);
 464:.\Generated_Source\PSoC4/BLE_1_eventHandler.c ****         }
 465:.\Generated_Source\PSoC4/BLE_1_eventHandler.c ****     #endif /* CYBLE_GLS_SERVER */
 466:.\Generated_Source\PSoC4/BLE_1_eventHandler.c ****     
 467:.\Generated_Source\PSoC4/BLE_1_eventHandler.c ****     #ifdef CYBLE_HTS_SERVER
 468:.\Generated_Source\PSoC4/BLE_1_eventHandler.c ****         if((cyBle_eventHandlerFlag & CYBLE_CALLBACK) != 0u)
 469:.\Generated_Source\PSoC4/BLE_1_eventHandler.c ****         {
 470:.\Generated_Source\PSoC4/BLE_1_eventHandler.c ****             CyBle_HtssConfirmationEventHandler(eventParam);
 471:.\Generated_Source\PSoC4/BLE_1_eventHandler.c ****         }
 472:.\Generated_Source\PSoC4/BLE_1_eventHandler.c ****     #endif /* CYBLE_HTS_SERVER */
 473:.\Generated_Source\PSoC4/BLE_1_eventHandler.c **** 
 474:.\Generated_Source\PSoC4/BLE_1_eventHandler.c ****     #ifdef CYBLE_LNS_SERVER
 475:.\Generated_Source\PSoC4/BLE_1_eventHandler.c ****         if((cyBle_eventHandlerFlag & CYBLE_CALLBACK) != 0u)
 476:.\Generated_Source\PSoC4/BLE_1_eventHandler.c ****         {
 477:.\Generated_Source\PSoC4/BLE_1_eventHandler.c ****             CyBle_LnssConfirmationEventHandler(eventParam);
 478:.\Generated_Source\PSoC4/BLE_1_eventHandler.c ****         }
 479:.\Generated_Source\PSoC4/BLE_1_eventHandler.c ****     #endif /* CYBLE_LNS_SERVER */
 480:.\Generated_Source\PSoC4/BLE_1_eventHandler.c ****     
 481:.\Generated_Source\PSoC4/BLE_1_eventHandler.c ****     #ifdef CYBLE_RSCS_SERVER
 482:.\Generated_Source\PSoC4/BLE_1_eventHandler.c ****         if((cyBle_eventHandlerFlag & CYBLE_CALLBACK) != 0u)
 483:.\Generated_Source\PSoC4/BLE_1_eventHandler.c ****         {
 484:.\Generated_Source\PSoC4/BLE_1_eventHandler.c ****             CyBle_RscssConfirmationEventHandler(eventParam);
 485:.\Generated_Source\PSoC4/BLE_1_eventHandler.c ****         }
 486:.\Generated_Source\PSoC4/BLE_1_eventHandler.c ****     #endif /* CYBLE_RSCS_SERVER */
 487:.\Generated_Source\PSoC4/BLE_1_eventHandler.c ****     
 488:.\Generated_Source\PSoC4/BLE_1_eventHandler.c ****     #ifdef CYBLE_UDS_SERVER
 489:.\Generated_Source\PSoC4/BLE_1_eventHandler.c ****         if((cyBle_eventHandlerFlag & CYBLE_CALLBACK) != 0u)
ARM GAS  C:\Users\danielpi\AppData\Local\Temp\ccwIrVvL.s 			page 10


 490:.\Generated_Source\PSoC4/BLE_1_eventHandler.c ****         {
 491:.\Generated_Source\PSoC4/BLE_1_eventHandler.c ****             CyBle_UdssConfirmationEventHandler(eventParam);
 492:.\Generated_Source\PSoC4/BLE_1_eventHandler.c ****         }
 493:.\Generated_Source\PSoC4/BLE_1_eventHandler.c ****     #endif /* CYBLE_UDS_SERVER */
 494:.\Generated_Source\PSoC4/BLE_1_eventHandler.c ****     
 495:.\Generated_Source\PSoC4/BLE_1_eventHandler.c ****     #ifdef CYBLE_WPTS_SERVER
 496:.\Generated_Source\PSoC4/BLE_1_eventHandler.c ****         if((cyBle_eventHandlerFlag & CYBLE_CALLBACK) != 0u)
 497:.\Generated_Source\PSoC4/BLE_1_eventHandler.c ****         {
 498:.\Generated_Source\PSoC4/BLE_1_eventHandler.c ****             CyBle_WptssConfirmationEventHandler(eventParam);
 499:.\Generated_Source\PSoC4/BLE_1_eventHandler.c ****         }
 500:.\Generated_Source\PSoC4/BLE_1_eventHandler.c ****     #endif /* CYBLE_WPTS_SERVER */
 501:.\Generated_Source\PSoC4/BLE_1_eventHandler.c ****     
 502:.\Generated_Source\PSoC4/BLE_1_eventHandler.c ****     #ifdef CYBLE_WSS_SERVER
 503:.\Generated_Source\PSoC4/BLE_1_eventHandler.c ****         if((cyBle_eventHandlerFlag & CYBLE_CALLBACK) != 0u)
 504:.\Generated_Source\PSoC4/BLE_1_eventHandler.c ****         {
 505:.\Generated_Source\PSoC4/BLE_1_eventHandler.c ****             CyBle_WsssConfirmationEventHandler(eventParam);
 506:.\Generated_Source\PSoC4/BLE_1_eventHandler.c ****         }
 507:.\Generated_Source\PSoC4/BLE_1_eventHandler.c ****     #endif /* CYBLE_WSS_SERVER */
 508:.\Generated_Source\PSoC4/BLE_1_eventHandler.c ****     }
 509:.\Generated_Source\PSoC4/BLE_1_eventHandler.c **** }
 510:.\Generated_Source\PSoC4/BLE_1_eventHandler.c **** 
 511:.\Generated_Source\PSoC4/BLE_1_eventHandler.c **** #endif /* CYBLE_GATT_ROLE_SERVER */
 512:.\Generated_Source\PSoC4/BLE_1_eventHandler.c **** 
 513:.\Generated_Source\PSoC4/BLE_1_eventHandler.c **** 
 514:.\Generated_Source\PSoC4/BLE_1_eventHandler.c **** #if (CYBLE_GATT_ROLE_CLIENT)
 515:.\Generated_Source\PSoC4/BLE_1_eventHandler.c **** 
 516:.\Generated_Source\PSoC4/BLE_1_eventHandler.c **** /****************************************************************************** 
 517:.\Generated_Source\PSoC4/BLE_1_eventHandler.c **** ##Function Name: CyBle_GattcWriteResponseEventHandler
 518:.\Generated_Source\PSoC4/BLE_1_eventHandler.c **** *******************************************************************************
 519:.\Generated_Source\PSoC4/BLE_1_eventHandler.c **** 
 520:.\Generated_Source\PSoC4/BLE_1_eventHandler.c **** Summary:
 521:.\Generated_Source\PSoC4/BLE_1_eventHandler.c ****  Handles the Write response event from the BLE stack.
 522:.\Generated_Source\PSoC4/BLE_1_eventHandler.c **** 
 523:.\Generated_Source\PSoC4/BLE_1_eventHandler.c **** Parameters:
 524:.\Generated_Source\PSoC4/BLE_1_eventHandler.c ****  CYBLE_CONN_HANDLE_T *eventParam - Pointer to a structure
 525:.\Generated_Source\PSoC4/BLE_1_eventHandler.c ****     of type 'CYBLE_CONN_HANDLE_T'
 526:.\Generated_Source\PSoC4/BLE_1_eventHandler.c **** 
 527:.\Generated_Source\PSoC4/BLE_1_eventHandler.c **** Return:
 528:.\Generated_Source\PSoC4/BLE_1_eventHandler.c ****  None
 529:.\Generated_Source\PSoC4/BLE_1_eventHandler.c **** 
 530:.\Generated_Source\PSoC4/BLE_1_eventHandler.c **** ******************************************************************************/
 531:.\Generated_Source\PSoC4/BLE_1_eventHandler.c **** static void CyBle_GattcWriteResponseEventHandler(const CYBLE_CONN_HANDLE_T *eventParam)
 532:.\Generated_Source\PSoC4/BLE_1_eventHandler.c **** {
 533:.\Generated_Source\PSoC4/BLE_1_eventHandler.c **** #ifdef CYBLE_ANCS_CLIENT
 534:.\Generated_Source\PSoC4/BLE_1_eventHandler.c ****     CyBle_AncscWriteResponseEventHandler(eventParam);
 535:.\Generated_Source\PSoC4/BLE_1_eventHandler.c **** #endif /* CYBLE_ANCS_CLIENT */
 536:.\Generated_Source\PSoC4/BLE_1_eventHandler.c **** 
 537:.\Generated_Source\PSoC4/BLE_1_eventHandler.c **** #ifdef CYBLE_ANS_CLIENT
 538:.\Generated_Source\PSoC4/BLE_1_eventHandler.c ****     if((cyBle_eventHandlerFlag & CYBLE_CALLBACK) != 0u)
 539:.\Generated_Source\PSoC4/BLE_1_eventHandler.c ****     {
 540:.\Generated_Source\PSoC4/BLE_1_eventHandler.c ****         CyBle_AnscWriteResponseEventHandler(eventParam);
 541:.\Generated_Source\PSoC4/BLE_1_eventHandler.c ****     }
 542:.\Generated_Source\PSoC4/BLE_1_eventHandler.c **** #endif /* CYBLE_ANS_CLIENT */
 543:.\Generated_Source\PSoC4/BLE_1_eventHandler.c **** 
 544:.\Generated_Source\PSoC4/BLE_1_eventHandler.c **** #ifdef CYBLE_BAS_CLIENT
 545:.\Generated_Source\PSoC4/BLE_1_eventHandler.c ****     if((cyBle_eventHandlerFlag & CYBLE_CALLBACK) != 0u)
 546:.\Generated_Source\PSoC4/BLE_1_eventHandler.c ****     {
ARM GAS  C:\Users\danielpi\AppData\Local\Temp\ccwIrVvL.s 			page 11


 547:.\Generated_Source\PSoC4/BLE_1_eventHandler.c ****         CyBle_BascWriteResponseEventHandler(eventParam);
 548:.\Generated_Source\PSoC4/BLE_1_eventHandler.c ****     }
 549:.\Generated_Source\PSoC4/BLE_1_eventHandler.c **** #endif /* CYBLE_BAS_CLIENT */
 550:.\Generated_Source\PSoC4/BLE_1_eventHandler.c **** 
 551:.\Generated_Source\PSoC4/BLE_1_eventHandler.c **** #ifdef CYBLE_BLS_CLIENT
 552:.\Generated_Source\PSoC4/BLE_1_eventHandler.c ****     if((cyBle_eventHandlerFlag & CYBLE_CALLBACK) != 0u)
 553:.\Generated_Source\PSoC4/BLE_1_eventHandler.c ****     {
 554:.\Generated_Source\PSoC4/BLE_1_eventHandler.c ****         CyBle_BlscWriteResponseEventHandler(eventParam);
 555:.\Generated_Source\PSoC4/BLE_1_eventHandler.c ****     }
 556:.\Generated_Source\PSoC4/BLE_1_eventHandler.c **** #endif /* CYBLE_BLS_CLIENT */
 557:.\Generated_Source\PSoC4/BLE_1_eventHandler.c **** 
 558:.\Generated_Source\PSoC4/BLE_1_eventHandler.c **** #ifdef CYBLE_BMS_CLIENT
 559:.\Generated_Source\PSoC4/BLE_1_eventHandler.c ****     if((cyBle_eventHandlerFlag & CYBLE_CALLBACK) != 0u)
 560:.\Generated_Source\PSoC4/BLE_1_eventHandler.c ****     {
 561:.\Generated_Source\PSoC4/BLE_1_eventHandler.c ****         CyBle_BmscWriteResponseEventHandler(eventParam);
 562:.\Generated_Source\PSoC4/BLE_1_eventHandler.c ****     }
 563:.\Generated_Source\PSoC4/BLE_1_eventHandler.c **** #endif /* CYBLE_BMS_CLIENT */
 564:.\Generated_Source\PSoC4/BLE_1_eventHandler.c **** 
 565:.\Generated_Source\PSoC4/BLE_1_eventHandler.c **** #ifdef CYBLE_CGMS_CLIENT
 566:.\Generated_Source\PSoC4/BLE_1_eventHandler.c ****     if((cyBle_eventHandlerFlag & CYBLE_CALLBACK) != 0u)
 567:.\Generated_Source\PSoC4/BLE_1_eventHandler.c ****     {
 568:.\Generated_Source\PSoC4/BLE_1_eventHandler.c ****         CyBle_CgmscWriteResponseEventHandler(eventParam);
 569:.\Generated_Source\PSoC4/BLE_1_eventHandler.c ****     }
 570:.\Generated_Source\PSoC4/BLE_1_eventHandler.c **** #endif /* CYBLE_CGMS_CLIENT */
 571:.\Generated_Source\PSoC4/BLE_1_eventHandler.c **** 
 572:.\Generated_Source\PSoC4/BLE_1_eventHandler.c **** #ifdef CYBLE_CPS_CLIENT
 573:.\Generated_Source\PSoC4/BLE_1_eventHandler.c ****     if((cyBle_eventHandlerFlag & CYBLE_CALLBACK) != 0u)
 574:.\Generated_Source\PSoC4/BLE_1_eventHandler.c ****     {
 575:.\Generated_Source\PSoC4/BLE_1_eventHandler.c ****         CyBle_CpscWriteResponseEventHandler(eventParam);
 576:.\Generated_Source\PSoC4/BLE_1_eventHandler.c ****     }
 577:.\Generated_Source\PSoC4/BLE_1_eventHandler.c **** #endif /* CYBLE_CPS_CLIENT */
 578:.\Generated_Source\PSoC4/BLE_1_eventHandler.c **** 
 579:.\Generated_Source\PSoC4/BLE_1_eventHandler.c **** #ifdef CYBLE_CSCS_CLIENT
 580:.\Generated_Source\PSoC4/BLE_1_eventHandler.c ****     if((cyBle_eventHandlerFlag & CYBLE_CALLBACK) != 0u)
 581:.\Generated_Source\PSoC4/BLE_1_eventHandler.c ****     {
 582:.\Generated_Source\PSoC4/BLE_1_eventHandler.c ****         CyBle_CscscWriteResponseEventHandler(eventParam);
 583:.\Generated_Source\PSoC4/BLE_1_eventHandler.c ****     }
 584:.\Generated_Source\PSoC4/BLE_1_eventHandler.c **** #endif /* CYBLE_CSCS_CLIENT */
 585:.\Generated_Source\PSoC4/BLE_1_eventHandler.c **** 
 586:.\Generated_Source\PSoC4/BLE_1_eventHandler.c **** #ifdef CYBLE_CTS_CLIENT
 587:.\Generated_Source\PSoC4/BLE_1_eventHandler.c ****     if((cyBle_eventHandlerFlag & CYBLE_CALLBACK) != 0u)
 588:.\Generated_Source\PSoC4/BLE_1_eventHandler.c ****     {
 589:.\Generated_Source\PSoC4/BLE_1_eventHandler.c ****         CyBle_CtscWriteResponseEventHandler(eventParam);
 590:.\Generated_Source\PSoC4/BLE_1_eventHandler.c ****     }
 591:.\Generated_Source\PSoC4/BLE_1_eventHandler.c **** #endif /* CYBLE_CTS_CLIENT */
 592:.\Generated_Source\PSoC4/BLE_1_eventHandler.c **** 
 593:.\Generated_Source\PSoC4/BLE_1_eventHandler.c **** #ifdef CYBLE_ESS_CLIENT
 594:.\Generated_Source\PSoC4/BLE_1_eventHandler.c ****     if((cyBle_eventHandlerFlag & CYBLE_CALLBACK) != 0u)
 595:.\Generated_Source\PSoC4/BLE_1_eventHandler.c ****     {
 596:.\Generated_Source\PSoC4/BLE_1_eventHandler.c ****         CyBle_EsscWriteResponseEventHandler(eventParam);
 597:.\Generated_Source\PSoC4/BLE_1_eventHandler.c ****     }
 598:.\Generated_Source\PSoC4/BLE_1_eventHandler.c **** #endif /* CYBLE_ESS_CLIENT */
 599:.\Generated_Source\PSoC4/BLE_1_eventHandler.c **** 
 600:.\Generated_Source\PSoC4/BLE_1_eventHandler.c **** #ifdef CYBLE_GLS_CLIENT
 601:.\Generated_Source\PSoC4/BLE_1_eventHandler.c ****     if((cyBle_eventHandlerFlag & CYBLE_CALLBACK) != 0u)
 602:.\Generated_Source\PSoC4/BLE_1_eventHandler.c ****     {
 603:.\Generated_Source\PSoC4/BLE_1_eventHandler.c ****         CyBle_GlscWriteResponseEventHandler(eventParam);
ARM GAS  C:\Users\danielpi\AppData\Local\Temp\ccwIrVvL.s 			page 12


 604:.\Generated_Source\PSoC4/BLE_1_eventHandler.c ****     }
 605:.\Generated_Source\PSoC4/BLE_1_eventHandler.c **** #endif /* CYBLE_GLS_CLIENT */
 606:.\Generated_Source\PSoC4/BLE_1_eventHandler.c **** 
 607:.\Generated_Source\PSoC4/BLE_1_eventHandler.c **** #ifdef CYBLE_HIDS_CLIENT
 608:.\Generated_Source\PSoC4/BLE_1_eventHandler.c ****     if((cyBle_eventHandlerFlag & CYBLE_CALLBACK) != 0u)
 609:.\Generated_Source\PSoC4/BLE_1_eventHandler.c ****     {
 610:.\Generated_Source\PSoC4/BLE_1_eventHandler.c ****         CyBle_HidscWriteResponseEventHandler(eventParam);
 611:.\Generated_Source\PSoC4/BLE_1_eventHandler.c ****     }
 612:.\Generated_Source\PSoC4/BLE_1_eventHandler.c **** #endif /* CYBLE_HIDS_CLIENT */
 613:.\Generated_Source\PSoC4/BLE_1_eventHandler.c **** 
 614:.\Generated_Source\PSoC4/BLE_1_eventHandler.c **** #ifdef CYBLE_HRS_CLIENT
 615:.\Generated_Source\PSoC4/BLE_1_eventHandler.c ****     if((cyBle_eventHandlerFlag & CYBLE_CALLBACK) != 0u)
 616:.\Generated_Source\PSoC4/BLE_1_eventHandler.c ****     {
 617:.\Generated_Source\PSoC4/BLE_1_eventHandler.c ****         CyBle_HrscWriteResponseEventHandler(eventParam);
 618:.\Generated_Source\PSoC4/BLE_1_eventHandler.c ****     }
 619:.\Generated_Source\PSoC4/BLE_1_eventHandler.c **** #endif /* CYBLE_HRS_CLIENT */
 620:.\Generated_Source\PSoC4/BLE_1_eventHandler.c **** 
 621:.\Generated_Source\PSoC4/BLE_1_eventHandler.c **** #ifdef CYBLE_HTS_CLIENT
 622:.\Generated_Source\PSoC4/BLE_1_eventHandler.c ****     if((cyBle_eventHandlerFlag & CYBLE_CALLBACK) != 0u)
 623:.\Generated_Source\PSoC4/BLE_1_eventHandler.c ****     {
 624:.\Generated_Source\PSoC4/BLE_1_eventHandler.c ****         CyBle_HtscWriteResponseEventHandler(eventParam);
 625:.\Generated_Source\PSoC4/BLE_1_eventHandler.c ****     }
 626:.\Generated_Source\PSoC4/BLE_1_eventHandler.c **** #endif /* CYBLE_HTS_CLIENT */
 627:.\Generated_Source\PSoC4/BLE_1_eventHandler.c **** 
 628:.\Generated_Source\PSoC4/BLE_1_eventHandler.c **** #ifdef CYBLE_LLS_CLIENT
 629:.\Generated_Source\PSoC4/BLE_1_eventHandler.c ****     if((cyBle_eventHandlerFlag & CYBLE_CALLBACK) != 0u)
 630:.\Generated_Source\PSoC4/BLE_1_eventHandler.c ****     {
 631:.\Generated_Source\PSoC4/BLE_1_eventHandler.c ****         CyBle_LlscWriteResponseEventHandler(eventParam);
 632:.\Generated_Source\PSoC4/BLE_1_eventHandler.c ****     }
 633:.\Generated_Source\PSoC4/BLE_1_eventHandler.c **** #endif /* CYBLE_LLS_CLIENT */
 634:.\Generated_Source\PSoC4/BLE_1_eventHandler.c **** 
 635:.\Generated_Source\PSoC4/BLE_1_eventHandler.c **** #ifdef CYBLE_LNS_CLIENT
 636:.\Generated_Source\PSoC4/BLE_1_eventHandler.c ****     if((cyBle_eventHandlerFlag & CYBLE_CALLBACK) != 0u)
 637:.\Generated_Source\PSoC4/BLE_1_eventHandler.c ****     {
 638:.\Generated_Source\PSoC4/BLE_1_eventHandler.c ****         CyBle_LnscWriteResponseEventHandler(eventParam);
 639:.\Generated_Source\PSoC4/BLE_1_eventHandler.c ****     }
 640:.\Generated_Source\PSoC4/BLE_1_eventHandler.c **** #endif /* CYBLE_LNS_CLIENT */
 641:.\Generated_Source\PSoC4/BLE_1_eventHandler.c **** 
 642:.\Generated_Source\PSoC4/BLE_1_eventHandler.c **** #ifdef CYBLE_PASS_CLIENT
 643:.\Generated_Source\PSoC4/BLE_1_eventHandler.c ****     if((cyBle_eventHandlerFlag & CYBLE_CALLBACK) != 0u)
 644:.\Generated_Source\PSoC4/BLE_1_eventHandler.c ****     {
 645:.\Generated_Source\PSoC4/BLE_1_eventHandler.c ****         CyBle_PasscWriteResponseEventHandler(eventParam);
 646:.\Generated_Source\PSoC4/BLE_1_eventHandler.c ****     }
 647:.\Generated_Source\PSoC4/BLE_1_eventHandler.c **** #endif /* CYBLE_PASS_CLIENT */
 648:.\Generated_Source\PSoC4/BLE_1_eventHandler.c **** 
 649:.\Generated_Source\PSoC4/BLE_1_eventHandler.c **** #ifdef CYBLE_RSCS_CLIENT
 650:.\Generated_Source\PSoC4/BLE_1_eventHandler.c ****     if((cyBle_eventHandlerFlag & CYBLE_CALLBACK) != 0u)
 651:.\Generated_Source\PSoC4/BLE_1_eventHandler.c ****     {
 652:.\Generated_Source\PSoC4/BLE_1_eventHandler.c ****         CyBle_RscscWriteResponseEventHandler(eventParam);
 653:.\Generated_Source\PSoC4/BLE_1_eventHandler.c ****     }
 654:.\Generated_Source\PSoC4/BLE_1_eventHandler.c **** #endif /* CYBLE_RSCS_CLIENT */
 655:.\Generated_Source\PSoC4/BLE_1_eventHandler.c **** 
 656:.\Generated_Source\PSoC4/BLE_1_eventHandler.c **** #ifdef CYBLE_SCPS_CLIENT
 657:.\Generated_Source\PSoC4/BLE_1_eventHandler.c ****     if((cyBle_eventHandlerFlag & CYBLE_CALLBACK) != 0u)
 658:.\Generated_Source\PSoC4/BLE_1_eventHandler.c ****     {
 659:.\Generated_Source\PSoC4/BLE_1_eventHandler.c ****         CyBle_ScpscWriteResponseEventHandler(eventParam);
 660:.\Generated_Source\PSoC4/BLE_1_eventHandler.c ****     }
ARM GAS  C:\Users\danielpi\AppData\Local\Temp\ccwIrVvL.s 			page 13


 661:.\Generated_Source\PSoC4/BLE_1_eventHandler.c **** #endif /* CYBLE_SCPS_CLIENT */
 662:.\Generated_Source\PSoC4/BLE_1_eventHandler.c **** 
 663:.\Generated_Source\PSoC4/BLE_1_eventHandler.c **** #ifdef CYBLE_TPS_CLIENT
 664:.\Generated_Source\PSoC4/BLE_1_eventHandler.c ****     if((cyBle_eventHandlerFlag & CYBLE_CALLBACK) != 0u)
 665:.\Generated_Source\PSoC4/BLE_1_eventHandler.c ****     {
 666:.\Generated_Source\PSoC4/BLE_1_eventHandler.c ****         CyBle_TpscWriteResponseEventHandler(eventParam);
 667:.\Generated_Source\PSoC4/BLE_1_eventHandler.c ****     }
 668:.\Generated_Source\PSoC4/BLE_1_eventHandler.c **** #endif /* CYBLE_TPS_CLIENT */
 669:.\Generated_Source\PSoC4/BLE_1_eventHandler.c **** 
 670:.\Generated_Source\PSoC4/BLE_1_eventHandler.c **** #ifdef CYBLE_UDS_CLIENT
 671:.\Generated_Source\PSoC4/BLE_1_eventHandler.c ****     if((cyBle_eventHandlerFlag & CYBLE_CALLBACK) != 0u)
 672:.\Generated_Source\PSoC4/BLE_1_eventHandler.c ****     {
 673:.\Generated_Source\PSoC4/BLE_1_eventHandler.c ****         CyBle_UdscWriteResponseEventHandler(eventParam);
 674:.\Generated_Source\PSoC4/BLE_1_eventHandler.c ****     }
 675:.\Generated_Source\PSoC4/BLE_1_eventHandler.c **** #endif /* CYBLE_UDS_CLIENT */
 676:.\Generated_Source\PSoC4/BLE_1_eventHandler.c **** #ifdef CYBLE_WPTS_CLIENT
 677:.\Generated_Source\PSoC4/BLE_1_eventHandler.c ****     if((cyBle_eventHandlerFlag & CYBLE_CALLBACK) != 0u)
 678:.\Generated_Source\PSoC4/BLE_1_eventHandler.c ****     {
 679:.\Generated_Source\PSoC4/BLE_1_eventHandler.c ****         CyBle_WptscWriteResponseEventHandler(eventParam);
 680:.\Generated_Source\PSoC4/BLE_1_eventHandler.c ****     }
 681:.\Generated_Source\PSoC4/BLE_1_eventHandler.c **** #endif /* CYBLE_WPTS_CLIENT */
 682:.\Generated_Source\PSoC4/BLE_1_eventHandler.c **** #ifdef CYBLE_WSS_CLIENT
 683:.\Generated_Source\PSoC4/BLE_1_eventHandler.c ****     if((cyBle_eventHandlerFlag & CYBLE_CALLBACK) != 0u)
 684:.\Generated_Source\PSoC4/BLE_1_eventHandler.c ****     {
 685:.\Generated_Source\PSoC4/BLE_1_eventHandler.c ****         CyBle_WsscWriteResponseEventHandler(eventParam);
 686:.\Generated_Source\PSoC4/BLE_1_eventHandler.c ****     }
 687:.\Generated_Source\PSoC4/BLE_1_eventHandler.c **** #endif /* CYBLE_WSS_CLIENT */
 688:.\Generated_Source\PSoC4/BLE_1_eventHandler.c **** }
 689:.\Generated_Source\PSoC4/BLE_1_eventHandler.c **** 
 690:.\Generated_Source\PSoC4/BLE_1_eventHandler.c **** 
 691:.\Generated_Source\PSoC4/BLE_1_eventHandler.c **** /******************************************************************************    
 692:.\Generated_Source\PSoC4/BLE_1_eventHandler.c **** ##Function Name: CyBle_NotificationEventHandler
 693:.\Generated_Source\PSoC4/BLE_1_eventHandler.c **** *******************************************************************************
 694:.\Generated_Source\PSoC4/BLE_1_eventHandler.c **** 
 695:.\Generated_Source\PSoC4/BLE_1_eventHandler.c **** Summary:
 696:.\Generated_Source\PSoC4/BLE_1_eventHandler.c ****  Handles the Notification event from BLE stack.
 697:.\Generated_Source\PSoC4/BLE_1_eventHandler.c **** 
 698:.\Generated_Source\PSoC4/BLE_1_eventHandler.c **** Parameters:
 699:.\Generated_Source\PSoC4/BLE_1_eventHandler.c ****  CYBLE_GATTC_HANDLE_VALUE_NTF_PARAM_T * eventParam - event parameter
 700:.\Generated_Source\PSoC4/BLE_1_eventHandler.c **** 
 701:.\Generated_Source\PSoC4/BLE_1_eventHandler.c **** Return:
 702:.\Generated_Source\PSoC4/BLE_1_eventHandler.c ****  None
 703:.\Generated_Source\PSoC4/BLE_1_eventHandler.c **** 
 704:.\Generated_Source\PSoC4/BLE_1_eventHandler.c **** ******************************************************************************/
 705:.\Generated_Source\PSoC4/BLE_1_eventHandler.c **** static void CyBle_NotificationEventHandler(CYBLE_GATTC_HANDLE_VALUE_NTF_PARAM_T *eventParam)
 706:.\Generated_Source\PSoC4/BLE_1_eventHandler.c **** {
 707:.\Generated_Source\PSoC4/BLE_1_eventHandler.c **** #ifdef CYBLE_ANCS_CLIENT
 708:.\Generated_Source\PSoC4/BLE_1_eventHandler.c ****     CyBle_AncscNotificationEventHandler(eventParam);
 709:.\Generated_Source\PSoC4/BLE_1_eventHandler.c **** #endif /* CYBLE_ANCS_CLIENT */
 710:.\Generated_Source\PSoC4/BLE_1_eventHandler.c **** #ifdef CYBLE_ANS_CLIENT
 711:.\Generated_Source\PSoC4/BLE_1_eventHandler.c ****     if((cyBle_eventHandlerFlag & CYBLE_CALLBACK) != 0u)
 712:.\Generated_Source\PSoC4/BLE_1_eventHandler.c ****     {
 713:.\Generated_Source\PSoC4/BLE_1_eventHandler.c ****         CyBle_AnscNotificationEventHandler(eventParam);
 714:.\Generated_Source\PSoC4/BLE_1_eventHandler.c ****     }
 715:.\Generated_Source\PSoC4/BLE_1_eventHandler.c **** #endif /* CYBLE_ANS_CLIENT */
 716:.\Generated_Source\PSoC4/BLE_1_eventHandler.c **** #ifdef CYBLE_BAS_CLIENT
 717:.\Generated_Source\PSoC4/BLE_1_eventHandler.c ****     if((cyBle_eventHandlerFlag & CYBLE_CALLBACK) != 0u)
ARM GAS  C:\Users\danielpi\AppData\Local\Temp\ccwIrVvL.s 			page 14


 718:.\Generated_Source\PSoC4/BLE_1_eventHandler.c ****     {
 719:.\Generated_Source\PSoC4/BLE_1_eventHandler.c ****         CyBle_BascNotificationEventHandler(eventParam);
 720:.\Generated_Source\PSoC4/BLE_1_eventHandler.c ****     }
 721:.\Generated_Source\PSoC4/BLE_1_eventHandler.c **** #endif /* CYBLE_BAS_CLIENT */
 722:.\Generated_Source\PSoC4/BLE_1_eventHandler.c **** #ifdef CYBLE_BLS_CLIENT
 723:.\Generated_Source\PSoC4/BLE_1_eventHandler.c ****     if((cyBle_eventHandlerFlag & CYBLE_CALLBACK) != 0u)
 724:.\Generated_Source\PSoC4/BLE_1_eventHandler.c ****     {
 725:.\Generated_Source\PSoC4/BLE_1_eventHandler.c ****         CyBle_BlscNotificationEventHandler(eventParam);
 726:.\Generated_Source\PSoC4/BLE_1_eventHandler.c ****     }
 727:.\Generated_Source\PSoC4/BLE_1_eventHandler.c **** #endif /* CYBLE_BLS_CLIENT */
 728:.\Generated_Source\PSoC4/BLE_1_eventHandler.c **** #ifdef CYBLE_CGMS_CLIENT
 729:.\Generated_Source\PSoC4/BLE_1_eventHandler.c ****     if((cyBle_eventHandlerFlag & CYBLE_CALLBACK) != 0u)
 730:.\Generated_Source\PSoC4/BLE_1_eventHandler.c ****     {
 731:.\Generated_Source\PSoC4/BLE_1_eventHandler.c ****         CyBle_CgmscNotificationEventHandler(eventParam);
 732:.\Generated_Source\PSoC4/BLE_1_eventHandler.c ****     }
 733:.\Generated_Source\PSoC4/BLE_1_eventHandler.c **** #endif /* CYBLE_CGMS_CLIENT */
 734:.\Generated_Source\PSoC4/BLE_1_eventHandler.c **** #ifdef CYBLE_CPS_CLIENT
 735:.\Generated_Source\PSoC4/BLE_1_eventHandler.c ****     if((cyBle_eventHandlerFlag & CYBLE_CALLBACK) != 0u)
 736:.\Generated_Source\PSoC4/BLE_1_eventHandler.c ****     {
 737:.\Generated_Source\PSoC4/BLE_1_eventHandler.c ****         CyBle_CpscNotificationEventHandler(eventParam);
 738:.\Generated_Source\PSoC4/BLE_1_eventHandler.c ****     }
 739:.\Generated_Source\PSoC4/BLE_1_eventHandler.c **** #endif /* CYBLE_CPS_CLIENT */
 740:.\Generated_Source\PSoC4/BLE_1_eventHandler.c **** #ifdef CYBLE_CSCS_CLIENT
 741:.\Generated_Source\PSoC4/BLE_1_eventHandler.c ****     if((cyBle_eventHandlerFlag & CYBLE_CALLBACK) != 0u)
 742:.\Generated_Source\PSoC4/BLE_1_eventHandler.c ****     {
 743:.\Generated_Source\PSoC4/BLE_1_eventHandler.c ****         CyBle_CscscNotificationEventHandler(eventParam);
 744:.\Generated_Source\PSoC4/BLE_1_eventHandler.c ****     }
 745:.\Generated_Source\PSoC4/BLE_1_eventHandler.c **** #endif /* CYBLE_CSCS_CLIENT */
 746:.\Generated_Source\PSoC4/BLE_1_eventHandler.c **** #ifdef CYBLE_CTS_CLIENT
 747:.\Generated_Source\PSoC4/BLE_1_eventHandler.c ****     if((cyBle_eventHandlerFlag & CYBLE_CALLBACK) != 0u)
 748:.\Generated_Source\PSoC4/BLE_1_eventHandler.c ****     {
 749:.\Generated_Source\PSoC4/BLE_1_eventHandler.c ****         CyBle_CtscNotificationEventHandler(eventParam);
 750:.\Generated_Source\PSoC4/BLE_1_eventHandler.c ****     }
 751:.\Generated_Source\PSoC4/BLE_1_eventHandler.c **** #endif /* CYBLE_CTS_CLIENT */
 752:.\Generated_Source\PSoC4/BLE_1_eventHandler.c **** #ifdef CYBLE_ESS_CLIENT
 753:.\Generated_Source\PSoC4/BLE_1_eventHandler.c ****     if((cyBle_eventHandlerFlag & CYBLE_CALLBACK) != 0u)
 754:.\Generated_Source\PSoC4/BLE_1_eventHandler.c ****     {
 755:.\Generated_Source\PSoC4/BLE_1_eventHandler.c ****         CyBle_EsscNotificationEventHandler(eventParam);
 756:.\Generated_Source\PSoC4/BLE_1_eventHandler.c ****     }
 757:.\Generated_Source\PSoC4/BLE_1_eventHandler.c **** #endif /* CYBLE_ESS_CLIENT */
 758:.\Generated_Source\PSoC4/BLE_1_eventHandler.c **** #ifdef CYBLE_GLS_CLIENT
 759:.\Generated_Source\PSoC4/BLE_1_eventHandler.c ****     if((cyBle_eventHandlerFlag & CYBLE_CALLBACK) != 0u)
 760:.\Generated_Source\PSoC4/BLE_1_eventHandler.c ****     {
 761:.\Generated_Source\PSoC4/BLE_1_eventHandler.c ****         CyBle_GlscNotificationEventHandler(eventParam);
 762:.\Generated_Source\PSoC4/BLE_1_eventHandler.c ****     }
 763:.\Generated_Source\PSoC4/BLE_1_eventHandler.c **** #endif /* CYBLE_GLS_CLIENT */
 764:.\Generated_Source\PSoC4/BLE_1_eventHandler.c **** #ifdef CYBLE_HIDS_CLIENT
 765:.\Generated_Source\PSoC4/BLE_1_eventHandler.c ****     if((cyBle_eventHandlerFlag & CYBLE_CALLBACK) != 0u)
 766:.\Generated_Source\PSoC4/BLE_1_eventHandler.c ****     {
 767:.\Generated_Source\PSoC4/BLE_1_eventHandler.c ****         CyBle_HidscNotificationEventHandler(eventParam);
 768:.\Generated_Source\PSoC4/BLE_1_eventHandler.c ****     }
 769:.\Generated_Source\PSoC4/BLE_1_eventHandler.c **** #endif /* CYBLE_HIDS_CLIENT */
 770:.\Generated_Source\PSoC4/BLE_1_eventHandler.c **** #ifdef CYBLE_HRS_CLIENT
 771:.\Generated_Source\PSoC4/BLE_1_eventHandler.c ****     if((cyBle_eventHandlerFlag & CYBLE_CALLBACK) != 0u)
 772:.\Generated_Source\PSoC4/BLE_1_eventHandler.c ****     {
 773:.\Generated_Source\PSoC4/BLE_1_eventHandler.c ****         CyBle_HrscNotificationEventHandler(eventParam);
 774:.\Generated_Source\PSoC4/BLE_1_eventHandler.c ****     }
ARM GAS  C:\Users\danielpi\AppData\Local\Temp\ccwIrVvL.s 			page 15


 775:.\Generated_Source\PSoC4/BLE_1_eventHandler.c **** #endif /* CYBLE_HRS_CLIENT */
 776:.\Generated_Source\PSoC4/BLE_1_eventHandler.c **** #ifdef CYBLE_HTS_CLIENT
 777:.\Generated_Source\PSoC4/BLE_1_eventHandler.c ****     if((cyBle_eventHandlerFlag & CYBLE_CALLBACK) != 0u)
 778:.\Generated_Source\PSoC4/BLE_1_eventHandler.c ****     {
 779:.\Generated_Source\PSoC4/BLE_1_eventHandler.c ****         CyBle_HtscNotificationEventHandler(eventParam);
 780:.\Generated_Source\PSoC4/BLE_1_eventHandler.c ****     }
 781:.\Generated_Source\PSoC4/BLE_1_eventHandler.c **** #endif /* CYBLE_HTS_CLIENT */
 782:.\Generated_Source\PSoC4/BLE_1_eventHandler.c **** #ifdef CYBLE_LNS_CLIENT
 783:.\Generated_Source\PSoC4/BLE_1_eventHandler.c ****     if((cyBle_eventHandlerFlag & CYBLE_CALLBACK) != 0u)
 784:.\Generated_Source\PSoC4/BLE_1_eventHandler.c ****     {
 785:.\Generated_Source\PSoC4/BLE_1_eventHandler.c ****         CyBle_LnscNotificationEventHandler(eventParam);
 786:.\Generated_Source\PSoC4/BLE_1_eventHandler.c ****     }
 787:.\Generated_Source\PSoC4/BLE_1_eventHandler.c **** #endif /* CYBLE_LNS_CLIENT */
 788:.\Generated_Source\PSoC4/BLE_1_eventHandler.c **** #ifdef CYBLE_PASS_CLIENT
 789:.\Generated_Source\PSoC4/BLE_1_eventHandler.c ****     if((cyBle_eventHandlerFlag & CYBLE_CALLBACK) != 0u)
 790:.\Generated_Source\PSoC4/BLE_1_eventHandler.c ****     {
 791:.\Generated_Source\PSoC4/BLE_1_eventHandler.c ****         CyBle_PasscNotificationEventHandler(eventParam);
 792:.\Generated_Source\PSoC4/BLE_1_eventHandler.c ****     }
 793:.\Generated_Source\PSoC4/BLE_1_eventHandler.c **** #endif /* CYBLE_PASS_CLIENT */
 794:.\Generated_Source\PSoC4/BLE_1_eventHandler.c **** #ifdef CYBLE_RSCS_CLIENT
 795:.\Generated_Source\PSoC4/BLE_1_eventHandler.c ****     if((cyBle_eventHandlerFlag & CYBLE_CALLBACK) != 0u)
 796:.\Generated_Source\PSoC4/BLE_1_eventHandler.c ****     {
 797:.\Generated_Source\PSoC4/BLE_1_eventHandler.c ****         CyBle_RscscNotificationEventHandler(eventParam);
 798:.\Generated_Source\PSoC4/BLE_1_eventHandler.c ****     }
 799:.\Generated_Source\PSoC4/BLE_1_eventHandler.c **** #endif /* CYBLE_RSCS_CLIENT */
 800:.\Generated_Source\PSoC4/BLE_1_eventHandler.c **** #ifdef CYBLE_SCPS_CLIENT
 801:.\Generated_Source\PSoC4/BLE_1_eventHandler.c ****     if((cyBle_eventHandlerFlag & CYBLE_CALLBACK) != 0u)
 802:.\Generated_Source\PSoC4/BLE_1_eventHandler.c ****     {
 803:.\Generated_Source\PSoC4/BLE_1_eventHandler.c ****         CyBle_ScpscNotificationEventHandler(eventParam);
 804:.\Generated_Source\PSoC4/BLE_1_eventHandler.c ****     }
 805:.\Generated_Source\PSoC4/BLE_1_eventHandler.c **** #endif /* CYBLE_SCPS_CLIENT */
 806:.\Generated_Source\PSoC4/BLE_1_eventHandler.c **** #ifdef CYBLE_TPS_CLIENT
 807:.\Generated_Source\PSoC4/BLE_1_eventHandler.c ****     if((cyBle_eventHandlerFlag & CYBLE_CALLBACK) != 0u)
 808:.\Generated_Source\PSoC4/BLE_1_eventHandler.c ****     {
 809:.\Generated_Source\PSoC4/BLE_1_eventHandler.c ****         CyBle_TpscNotificationEventHandler(eventParam);
 810:.\Generated_Source\PSoC4/BLE_1_eventHandler.c ****     }
 811:.\Generated_Source\PSoC4/BLE_1_eventHandler.c **** #endif /* CYBLE_TPS_CLIENT */
 812:.\Generated_Source\PSoC4/BLE_1_eventHandler.c **** #ifdef CYBLE_UDS_CLIENT
 813:.\Generated_Source\PSoC4/BLE_1_eventHandler.c ****     if((cyBle_eventHandlerFlag & CYBLE_CALLBACK) != 0u)
 814:.\Generated_Source\PSoC4/BLE_1_eventHandler.c ****     {
 815:.\Generated_Source\PSoC4/BLE_1_eventHandler.c ****         CyBle_UdscNotificationEventHandler(eventParam);
 816:.\Generated_Source\PSoC4/BLE_1_eventHandler.c ****     }
 817:.\Generated_Source\PSoC4/BLE_1_eventHandler.c **** #endif /* CYBLE_UDS_CLIENT */
 818:.\Generated_Source\PSoC4/BLE_1_eventHandler.c **** #ifdef CYBLE_WPTS_CLIENT
 819:.\Generated_Source\PSoC4/BLE_1_eventHandler.c ****     if((cyBle_eventHandlerFlag & CYBLE_CALLBACK) != 0u)
 820:.\Generated_Source\PSoC4/BLE_1_eventHandler.c ****     {
 821:.\Generated_Source\PSoC4/BLE_1_eventHandler.c ****         CyBle_WptscNotificationEventHandler(eventParam);
 822:.\Generated_Source\PSoC4/BLE_1_eventHandler.c ****     }
 823:.\Generated_Source\PSoC4/BLE_1_eventHandler.c **** #endif /* CYBLE_WPTS_CLIENT */
 824:.\Generated_Source\PSoC4/BLE_1_eventHandler.c **** }
 825:.\Generated_Source\PSoC4/BLE_1_eventHandler.c **** 
 826:.\Generated_Source\PSoC4/BLE_1_eventHandler.c **** 
 827:.\Generated_Source\PSoC4/BLE_1_eventHandler.c **** /******************************************************************************    
 828:.\Generated_Source\PSoC4/BLE_1_eventHandler.c **** ##Function Name: CyBle_IndicationEventHandler
 829:.\Generated_Source\PSoC4/BLE_1_eventHandler.c **** *******************************************************************************
 830:.\Generated_Source\PSoC4/BLE_1_eventHandler.c **** 
 831:.\Generated_Source\PSoC4/BLE_1_eventHandler.c **** Summary:
ARM GAS  C:\Users\danielpi\AppData\Local\Temp\ccwIrVvL.s 			page 16


 832:.\Generated_Source\PSoC4/BLE_1_eventHandler.c ****  Handles the Indication event from BLE stack.
 833:.\Generated_Source\PSoC4/BLE_1_eventHandler.c **** 
 834:.\Generated_Source\PSoC4/BLE_1_eventHandler.c **** Parameters:
 835:.\Generated_Source\PSoC4/BLE_1_eventHandler.c ****  CYBLE_GATTC_HANDLE_VALUE_IND_PARAM_T * eventParam - event parameter
 836:.\Generated_Source\PSoC4/BLE_1_eventHandler.c **** 
 837:.\Generated_Source\PSoC4/BLE_1_eventHandler.c **** Return:
 838:.\Generated_Source\PSoC4/BLE_1_eventHandler.c ****  None
 839:.\Generated_Source\PSoC4/BLE_1_eventHandler.c **** 
 840:.\Generated_Source\PSoC4/BLE_1_eventHandler.c **** ******************************************************************************/
 841:.\Generated_Source\PSoC4/BLE_1_eventHandler.c **** static void CyBle_IndicationEventHandler(CYBLE_GATTC_HANDLE_VALUE_IND_PARAM_T *eventParam)
 842:.\Generated_Source\PSoC4/BLE_1_eventHandler.c **** {
 843:.\Generated_Source\PSoC4/BLE_1_eventHandler.c **** #ifdef CYBLE_BLS_CLIENT
 844:.\Generated_Source\PSoC4/BLE_1_eventHandler.c ****     if((cyBle_eventHandlerFlag & CYBLE_CALLBACK) != 0u)
 845:.\Generated_Source\PSoC4/BLE_1_eventHandler.c ****     {
 846:.\Generated_Source\PSoC4/BLE_1_eventHandler.c ****         CyBle_BlscIndicationEventHandler(eventParam);
 847:.\Generated_Source\PSoC4/BLE_1_eventHandler.c ****     }
 848:.\Generated_Source\PSoC4/BLE_1_eventHandler.c **** #endif /* CYBLE_BLS_CLIENT */
 849:.\Generated_Source\PSoC4/BLE_1_eventHandler.c **** #ifdef CYBLE_CGMS_CLIENT
 850:.\Generated_Source\PSoC4/BLE_1_eventHandler.c ****     if((cyBle_eventHandlerFlag & CYBLE_CALLBACK) != 0u)
 851:.\Generated_Source\PSoC4/BLE_1_eventHandler.c ****     {
 852:.\Generated_Source\PSoC4/BLE_1_eventHandler.c ****         CyBle_CgmscIndicationEventHandler(eventParam);
 853:.\Generated_Source\PSoC4/BLE_1_eventHandler.c ****     }
 854:.\Generated_Source\PSoC4/BLE_1_eventHandler.c **** #endif /* CYBLE_CGMS_CLIENT */
 855:.\Generated_Source\PSoC4/BLE_1_eventHandler.c **** #ifdef CYBLE_CPS_CLIENT
 856:.\Generated_Source\PSoC4/BLE_1_eventHandler.c ****     if((cyBle_eventHandlerFlag & CYBLE_CALLBACK) != 0u)
 857:.\Generated_Source\PSoC4/BLE_1_eventHandler.c ****     {
 858:.\Generated_Source\PSoC4/BLE_1_eventHandler.c ****         CyBle_CpscIndicationEventHandler(eventParam);
 859:.\Generated_Source\PSoC4/BLE_1_eventHandler.c ****     }
 860:.\Generated_Source\PSoC4/BLE_1_eventHandler.c **** #endif /* CYBLE_CPS_CLIENT */
 861:.\Generated_Source\PSoC4/BLE_1_eventHandler.c **** #ifdef CYBLE_CSCS_CLIENT
 862:.\Generated_Source\PSoC4/BLE_1_eventHandler.c ****     if((cyBle_eventHandlerFlag & CYBLE_CALLBACK) != 0u)
 863:.\Generated_Source\PSoC4/BLE_1_eventHandler.c ****     {
 864:.\Generated_Source\PSoC4/BLE_1_eventHandler.c ****         CyBle_CscscIndicationEventHandler(eventParam);
 865:.\Generated_Source\PSoC4/BLE_1_eventHandler.c ****     }
 866:.\Generated_Source\PSoC4/BLE_1_eventHandler.c **** #endif /* CYBLE_CSCS_CLIENT */
 867:.\Generated_Source\PSoC4/BLE_1_eventHandler.c **** #ifdef CYBLE_ESS_CLIENT
 868:.\Generated_Source\PSoC4/BLE_1_eventHandler.c ****     if((cyBle_eventHandlerFlag & CYBLE_CALLBACK) != 0u)
 869:.\Generated_Source\PSoC4/BLE_1_eventHandler.c ****     {
 870:.\Generated_Source\PSoC4/BLE_1_eventHandler.c ****         CyBle_EsscIndicationEventHandler(eventParam);
 871:.\Generated_Source\PSoC4/BLE_1_eventHandler.c ****     }
 872:.\Generated_Source\PSoC4/BLE_1_eventHandler.c **** #endif /* CYBLE_ESS_CLIENT */
 873:.\Generated_Source\PSoC4/BLE_1_eventHandler.c **** #ifdef CYBLE_GLS_CLIENT
 874:.\Generated_Source\PSoC4/BLE_1_eventHandler.c ****     if((cyBle_eventHandlerFlag & CYBLE_CALLBACK) != 0u)
 875:.\Generated_Source\PSoC4/BLE_1_eventHandler.c ****     {
 876:.\Generated_Source\PSoC4/BLE_1_eventHandler.c ****         CyBle_GlscIndicationEventHandler(eventParam);
 877:.\Generated_Source\PSoC4/BLE_1_eventHandler.c ****     }
 878:.\Generated_Source\PSoC4/BLE_1_eventHandler.c **** #endif /* CYBLE_GLS_CLIENT */
 879:.\Generated_Source\PSoC4/BLE_1_eventHandler.c **** #ifdef CYBLE_HTS_CLIENT
 880:.\Generated_Source\PSoC4/BLE_1_eventHandler.c ****     if((cyBle_eventHandlerFlag & CYBLE_CALLBACK) != 0u)
 881:.\Generated_Source\PSoC4/BLE_1_eventHandler.c ****     {
 882:.\Generated_Source\PSoC4/BLE_1_eventHandler.c ****         CyBle_HtscIndicationEventHandler(eventParam);
 883:.\Generated_Source\PSoC4/BLE_1_eventHandler.c ****     }
 884:.\Generated_Source\PSoC4/BLE_1_eventHandler.c **** #endif /* CYBLE_HTS_CLIENT */
 885:.\Generated_Source\PSoC4/BLE_1_eventHandler.c **** #ifdef CYBLE_LNS_CLIENT
 886:.\Generated_Source\PSoC4/BLE_1_eventHandler.c ****     if((cyBle_eventHandlerFlag & CYBLE_CALLBACK) != 0u)
 887:.\Generated_Source\PSoC4/BLE_1_eventHandler.c ****     {
 888:.\Generated_Source\PSoC4/BLE_1_eventHandler.c ****         CyBle_LnscIndicationEventHandler(eventParam);
ARM GAS  C:\Users\danielpi\AppData\Local\Temp\ccwIrVvL.s 			page 17


 889:.\Generated_Source\PSoC4/BLE_1_eventHandler.c ****     }
 890:.\Generated_Source\PSoC4/BLE_1_eventHandler.c **** #endif /* CYBLE_LNS_CLIENT */
 891:.\Generated_Source\PSoC4/BLE_1_eventHandler.c **** #ifdef CYBLE_RSCS_CLIENT
 892:.\Generated_Source\PSoC4/BLE_1_eventHandler.c ****     if((cyBle_eventHandlerFlag & CYBLE_CALLBACK) != 0u)
 893:.\Generated_Source\PSoC4/BLE_1_eventHandler.c ****     {
 894:.\Generated_Source\PSoC4/BLE_1_eventHandler.c ****         CyBle_RscscIndicationEventHandler(eventParam);
 895:.\Generated_Source\PSoC4/BLE_1_eventHandler.c ****     }
 896:.\Generated_Source\PSoC4/BLE_1_eventHandler.c **** #endif /* CYBLE_RSCS_CLIENT */
 897:.\Generated_Source\PSoC4/BLE_1_eventHandler.c **** #ifdef CYBLE_UDS_CLIENT
 898:.\Generated_Source\PSoC4/BLE_1_eventHandler.c ****     if((cyBle_eventHandlerFlag & CYBLE_CALLBACK) != 0u)
 899:.\Generated_Source\PSoC4/BLE_1_eventHandler.c ****     {
 900:.\Generated_Source\PSoC4/BLE_1_eventHandler.c ****         CyBle_UdscIndicationEventHandler(eventParam);
 901:.\Generated_Source\PSoC4/BLE_1_eventHandler.c ****     }
 902:.\Generated_Source\PSoC4/BLE_1_eventHandler.c **** #endif /* CYBLE_UDS_CLIENT */
 903:.\Generated_Source\PSoC4/BLE_1_eventHandler.c **** #ifdef CYBLE_WPTS_CLIENT
 904:.\Generated_Source\PSoC4/BLE_1_eventHandler.c ****     if((cyBle_eventHandlerFlag & CYBLE_CALLBACK) != 0u)
 905:.\Generated_Source\PSoC4/BLE_1_eventHandler.c ****     {
 906:.\Generated_Source\PSoC4/BLE_1_eventHandler.c ****         CyBle_WptscIndicationEventHandler(eventParam);
 907:.\Generated_Source\PSoC4/BLE_1_eventHandler.c ****     }
 908:.\Generated_Source\PSoC4/BLE_1_eventHandler.c **** #endif /* CYBLE_WPTS_CLIENT */
 909:.\Generated_Source\PSoC4/BLE_1_eventHandler.c **** #ifdef CYBLE_WSS_CLIENT
 910:.\Generated_Source\PSoC4/BLE_1_eventHandler.c ****     if((cyBle_eventHandlerFlag & CYBLE_CALLBACK) != 0u)
 911:.\Generated_Source\PSoC4/BLE_1_eventHandler.c ****     {
 912:.\Generated_Source\PSoC4/BLE_1_eventHandler.c ****         CyBle_WsscIndicationEventHandler(eventParam);
 913:.\Generated_Source\PSoC4/BLE_1_eventHandler.c ****     }
 914:.\Generated_Source\PSoC4/BLE_1_eventHandler.c **** #endif /* CYBLE_WSS_CLIENT */
 915:.\Generated_Source\PSoC4/BLE_1_eventHandler.c **** }
 916:.\Generated_Source\PSoC4/BLE_1_eventHandler.c **** 
 917:.\Generated_Source\PSoC4/BLE_1_eventHandler.c **** 
 918:.\Generated_Source\PSoC4/BLE_1_eventHandler.c **** 
 919:.\Generated_Source\PSoC4/BLE_1_eventHandler.c **** /******************************************************************************    
 920:.\Generated_Source\PSoC4/BLE_1_eventHandler.c **** ##Function Name: CyBle_ReadResponseEventHandler
 921:.\Generated_Source\PSoC4/BLE_1_eventHandler.c **** *******************************************************************************
 922:.\Generated_Source\PSoC4/BLE_1_eventHandler.c **** 
 923:.\Generated_Source\PSoC4/BLE_1_eventHandler.c **** Summary:
 924:.\Generated_Source\PSoC4/BLE_1_eventHandler.c ****  Handles the Read Response event from BLE stack.
 925:.\Generated_Source\PSoC4/BLE_1_eventHandler.c **** 
 926:.\Generated_Source\PSoC4/BLE_1_eventHandler.c **** Parameters:
 927:.\Generated_Source\PSoC4/BLE_1_eventHandler.c ****  CYBLE_GATTC_READ_RSP_PARAM_T * eventParam - event parameter
 928:.\Generated_Source\PSoC4/BLE_1_eventHandler.c **** 
 929:.\Generated_Source\PSoC4/BLE_1_eventHandler.c **** Return:
 930:.\Generated_Source\PSoC4/BLE_1_eventHandler.c ****  None
 931:.\Generated_Source\PSoC4/BLE_1_eventHandler.c **** 
 932:.\Generated_Source\PSoC4/BLE_1_eventHandler.c **** ******************************************************************************/
 933:.\Generated_Source\PSoC4/BLE_1_eventHandler.c **** static void CyBle_ReadResponseEventHandler(CYBLE_GATTC_READ_RSP_PARAM_T *eventParam)
 934:.\Generated_Source\PSoC4/BLE_1_eventHandler.c **** {
 935:.\Generated_Source\PSoC4/BLE_1_eventHandler.c **** #ifdef CYBLE_CUSTOM_CLIENT
 936:.\Generated_Source\PSoC4/BLE_1_eventHandler.c ****     /* Read response with 128-bit included service uuid */
 937:.\Generated_Source\PSoC4/BLE_1_eventHandler.c ****     if((CYBLE_CLIENT_STATE_INCL_DISCOVERING == CyBle_GetClientState()) &&
 938:.\Generated_Source\PSoC4/BLE_1_eventHandler.c ****        (cyBle_discInclInfo.inclDefHandle != 0u))
 939:.\Generated_Source\PSoC4/BLE_1_eventHandler.c ****     {
 940:.\Generated_Source\PSoC4/BLE_1_eventHandler.c ****         CYBLE_DISC_SRVC128_INFO_T discServInfo;
 941:.\Generated_Source\PSoC4/BLE_1_eventHandler.c **** 
 942:.\Generated_Source\PSoC4/BLE_1_eventHandler.c ****         /* Store service range */
 943:.\Generated_Source\PSoC4/BLE_1_eventHandler.c ****         discServInfo.range = cyBle_discInclInfo.inclHandleRange;
 944:.\Generated_Source\PSoC4/BLE_1_eventHandler.c ****         (void)memcpy((void *) discServInfo.uuid.uuid128.value, (void *)eventParam->value.val, event
 945:.\Generated_Source\PSoC4/BLE_1_eventHandler.c ****         CyBle_CustomcDiscoverServiceEventHandler(&discServInfo);
ARM GAS  C:\Users\danielpi\AppData\Local\Temp\ccwIrVvL.s 			page 18


 946:.\Generated_Source\PSoC4/BLE_1_eventHandler.c ****         
 947:.\Generated_Source\PSoC4/BLE_1_eventHandler.c ****         /* Re-initiate CyBle_GattcFindIncludedServices function, setting the start
 948:.\Generated_Source\PSoC4/BLE_1_eventHandler.c ****            handle to the attribute handle which is placed next to the one used in
 949:.\Generated_Source\PSoC4/BLE_1_eventHandler.c ****            the above step.
 950:.\Generated_Source\PSoC4/BLE_1_eventHandler.c ****         */
 951:.\Generated_Source\PSoC4/BLE_1_eventHandler.c ****         discServInfo.range.startHandle = cyBle_discInclInfo.inclDefHandle + 1;
 952:.\Generated_Source\PSoC4/BLE_1_eventHandler.c ****         discServInfo.range.endHandle = cyBle_serverInfo[cyBle_disCount].range.endHandle;
 953:.\Generated_Source\PSoC4/BLE_1_eventHandler.c ****         if(discServInfo.range.startHandle <= discServInfo.range.endHandle)
 954:.\Generated_Source\PSoC4/BLE_1_eventHandler.c ****         {
 955:.\Generated_Source\PSoC4/BLE_1_eventHandler.c ****             if(CYBLE_ERROR_OK != CyBle_GattcFindIncludedServices(cyBle_connHandle, &discServInfo.ra
 956:.\Generated_Source\PSoC4/BLE_1_eventHandler.c ****             {
 957:.\Generated_Source\PSoC4/BLE_1_eventHandler.c ****                 CyBle_ApplCallback(CYBLE_EVT_GATTC_INCL_DISCOVERY_FAILED, NULL);
 958:.\Generated_Source\PSoC4/BLE_1_eventHandler.c ****                 cyBle_eventHandlerFlag &= (uint8)~CYBLE_AUTO_DISCOVERY;
 959:.\Generated_Source\PSoC4/BLE_1_eventHandler.c ****             }
 960:.\Generated_Source\PSoC4/BLE_1_eventHandler.c ****         }
 961:.\Generated_Source\PSoC4/BLE_1_eventHandler.c ****         else /* Continue discovery of the following service */
 962:.\Generated_Source\PSoC4/BLE_1_eventHandler.c ****         {
 963:.\Generated_Source\PSoC4/BLE_1_eventHandler.c ****             CyBle_NextInclDiscovery(CYBLE_DISCOVERY_CONTINUE);
 964:.\Generated_Source\PSoC4/BLE_1_eventHandler.c ****         }
 965:.\Generated_Source\PSoC4/BLE_1_eventHandler.c ****         
 966:.\Generated_Source\PSoC4/BLE_1_eventHandler.c ****         cyBle_eventHandlerFlag &= (uint8)~CYBLE_CALLBACK;
 967:.\Generated_Source\PSoC4/BLE_1_eventHandler.c ****         cyBle_discInclInfo.inclDefHandle = 0u;
 968:.\Generated_Source\PSoC4/BLE_1_eventHandler.c ****         
 969:.\Generated_Source\PSoC4/BLE_1_eventHandler.c ****     }
 970:.\Generated_Source\PSoC4/BLE_1_eventHandler.c **** #endif /* CYBLE_CUSTOM_CLIENT */
 971:.\Generated_Source\PSoC4/BLE_1_eventHandler.c **** #ifdef CYBLE_ANS_CLIENT
 972:.\Generated_Source\PSoC4/BLE_1_eventHandler.c ****     if((cyBle_eventHandlerFlag & CYBLE_CALLBACK) != 0u)
 973:.\Generated_Source\PSoC4/BLE_1_eventHandler.c ****     {
 974:.\Generated_Source\PSoC4/BLE_1_eventHandler.c ****         CyBle_AnscReadResponseEventHandler(eventParam);
 975:.\Generated_Source\PSoC4/BLE_1_eventHandler.c ****     }
 976:.\Generated_Source\PSoC4/BLE_1_eventHandler.c **** #endif /* CYBLE_ANS_CLIENT */
 977:.\Generated_Source\PSoC4/BLE_1_eventHandler.c **** #ifdef CYBLE_BAS_CLIENT
 978:.\Generated_Source\PSoC4/BLE_1_eventHandler.c ****     if((cyBle_eventHandlerFlag & CYBLE_CALLBACK) != 0u)
 979:.\Generated_Source\PSoC4/BLE_1_eventHandler.c ****     {
 980:.\Generated_Source\PSoC4/BLE_1_eventHandler.c ****         CyBle_BascReadResponseEventHandler(eventParam);
 981:.\Generated_Source\PSoC4/BLE_1_eventHandler.c ****     }
 982:.\Generated_Source\PSoC4/BLE_1_eventHandler.c **** #endif /* CYBLE_BAS_CLIENT */
 983:.\Generated_Source\PSoC4/BLE_1_eventHandler.c **** #ifdef CYBLE_BLS_CLIENT
 984:.\Generated_Source\PSoC4/BLE_1_eventHandler.c ****     if((cyBle_eventHandlerFlag & CYBLE_CALLBACK) != 0u)
 985:.\Generated_Source\PSoC4/BLE_1_eventHandler.c ****     {
 986:.\Generated_Source\PSoC4/BLE_1_eventHandler.c ****         CyBle_BlscReadResponseEventHandler(eventParam);
 987:.\Generated_Source\PSoC4/BLE_1_eventHandler.c ****     }
 988:.\Generated_Source\PSoC4/BLE_1_eventHandler.c **** #endif /* CYBLE_BLS_CLIENT */
 989:.\Generated_Source\PSoC4/BLE_1_eventHandler.c **** #ifdef CYBLE_BMS_CLIENT
 990:.\Generated_Source\PSoC4/BLE_1_eventHandler.c ****     if((cyBle_eventHandlerFlag & CYBLE_CALLBACK) != 0u)
 991:.\Generated_Source\PSoC4/BLE_1_eventHandler.c ****     {
 992:.\Generated_Source\PSoC4/BLE_1_eventHandler.c ****         CyBle_BmscReadResponseEventHandler(eventParam);
 993:.\Generated_Source\PSoC4/BLE_1_eventHandler.c ****     }
 994:.\Generated_Source\PSoC4/BLE_1_eventHandler.c **** #endif /* CYBLE_BMS_CLIENT */
 995:.\Generated_Source\PSoC4/BLE_1_eventHandler.c **** #ifdef CYBLE_CGMS_CLIENT
 996:.\Generated_Source\PSoC4/BLE_1_eventHandler.c ****     if((cyBle_eventHandlerFlag & CYBLE_CALLBACK) != 0u)
 997:.\Generated_Source\PSoC4/BLE_1_eventHandler.c ****     {
 998:.\Generated_Source\PSoC4/BLE_1_eventHandler.c ****         CyBle_CgmscReadResponseEventHandler(eventParam);
 999:.\Generated_Source\PSoC4/BLE_1_eventHandler.c ****     }
1000:.\Generated_Source\PSoC4/BLE_1_eventHandler.c **** #endif /* CYBLE_CGMS_CLIENT */
1001:.\Generated_Source\PSoC4/BLE_1_eventHandler.c **** #ifdef CYBLE_CPS_CLIENT
1002:.\Generated_Source\PSoC4/BLE_1_eventHandler.c ****     if((cyBle_eventHandlerFlag & CYBLE_CALLBACK) != 0u)
ARM GAS  C:\Users\danielpi\AppData\Local\Temp\ccwIrVvL.s 			page 19


1003:.\Generated_Source\PSoC4/BLE_1_eventHandler.c ****     {
1004:.\Generated_Source\PSoC4/BLE_1_eventHandler.c ****         CyBle_CpscReadResponseEventHandler(eventParam);
1005:.\Generated_Source\PSoC4/BLE_1_eventHandler.c ****     }
1006:.\Generated_Source\PSoC4/BLE_1_eventHandler.c **** #endif /* CYBLE_CPS_CLIENT */
1007:.\Generated_Source\PSoC4/BLE_1_eventHandler.c **** #ifdef CYBLE_CSCS_CLIENT
1008:.\Generated_Source\PSoC4/BLE_1_eventHandler.c ****     if((cyBle_eventHandlerFlag & CYBLE_CALLBACK) != 0u)
1009:.\Generated_Source\PSoC4/BLE_1_eventHandler.c ****     {
1010:.\Generated_Source\PSoC4/BLE_1_eventHandler.c ****         CyBle_CscscReadResponseEventHandler(eventParam);
1011:.\Generated_Source\PSoC4/BLE_1_eventHandler.c ****     }
1012:.\Generated_Source\PSoC4/BLE_1_eventHandler.c **** #endif /* CYBLE_CSCS_CLIENT */
1013:.\Generated_Source\PSoC4/BLE_1_eventHandler.c **** #ifdef CYBLE_CTS_CLIENT
1014:.\Generated_Source\PSoC4/BLE_1_eventHandler.c ****     if((cyBle_eventHandlerFlag & CYBLE_CALLBACK) != 0u)
1015:.\Generated_Source\PSoC4/BLE_1_eventHandler.c ****     {
1016:.\Generated_Source\PSoC4/BLE_1_eventHandler.c ****         CyBle_CtscReadResponseEventHandler(eventParam);
1017:.\Generated_Source\PSoC4/BLE_1_eventHandler.c ****     }
1018:.\Generated_Source\PSoC4/BLE_1_eventHandler.c **** #endif /* CYBLE_BAS_CLIENT */
1019:.\Generated_Source\PSoC4/BLE_1_eventHandler.c **** #ifdef CYBLE_DIS_CLIENT
1020:.\Generated_Source\PSoC4/BLE_1_eventHandler.c ****     if((cyBle_eventHandlerFlag & CYBLE_CALLBACK) != 0u)
1021:.\Generated_Source\PSoC4/BLE_1_eventHandler.c ****     {
1022:.\Generated_Source\PSoC4/BLE_1_eventHandler.c ****         CyBle_DiscReadResponseEventHandler(eventParam);
1023:.\Generated_Source\PSoC4/BLE_1_eventHandler.c ****     }
1024:.\Generated_Source\PSoC4/BLE_1_eventHandler.c **** #endif /* CYBLE_DIS_CLIENT */
1025:.\Generated_Source\PSoC4/BLE_1_eventHandler.c **** #ifdef CYBLE_ESS_CLIENT
1026:.\Generated_Source\PSoC4/BLE_1_eventHandler.c ****     if((cyBle_eventHandlerFlag & CYBLE_CALLBACK) != 0u)
1027:.\Generated_Source\PSoC4/BLE_1_eventHandler.c ****     {
1028:.\Generated_Source\PSoC4/BLE_1_eventHandler.c ****         CyBle_EsscReadResponseEventHandler(eventParam);
1029:.\Generated_Source\PSoC4/BLE_1_eventHandler.c ****     }
1030:.\Generated_Source\PSoC4/BLE_1_eventHandler.c **** #endif /* CYBLE_ESS_CLIENT */
1031:.\Generated_Source\PSoC4/BLE_1_eventHandler.c **** #ifdef CYBLE_GLS_CLIENT
1032:.\Generated_Source\PSoC4/BLE_1_eventHandler.c ****     if((cyBle_eventHandlerFlag & CYBLE_CALLBACK) != 0u)
1033:.\Generated_Source\PSoC4/BLE_1_eventHandler.c ****     {
1034:.\Generated_Source\PSoC4/BLE_1_eventHandler.c ****         CyBle_GlscReadResponseEventHandler(eventParam);
1035:.\Generated_Source\PSoC4/BLE_1_eventHandler.c ****     }
1036:.\Generated_Source\PSoC4/BLE_1_eventHandler.c **** #endif /* CYBLE_GLS_CLIENT */
1037:.\Generated_Source\PSoC4/BLE_1_eventHandler.c **** #ifdef CYBLE_HIDS_CLIENT
1038:.\Generated_Source\PSoC4/BLE_1_eventHandler.c ****     if((cyBle_eventHandlerFlag & CYBLE_CALLBACK) != 0u)
1039:.\Generated_Source\PSoC4/BLE_1_eventHandler.c ****     {
1040:.\Generated_Source\PSoC4/BLE_1_eventHandler.c ****         CyBle_HidscReadResponseEventHandler(eventParam);
1041:.\Generated_Source\PSoC4/BLE_1_eventHandler.c ****     }
1042:.\Generated_Source\PSoC4/BLE_1_eventHandler.c **** #endif /* CYBLE_HIDS_CLIENT */
1043:.\Generated_Source\PSoC4/BLE_1_eventHandler.c **** #ifdef CYBLE_HRS_CLIENT
1044:.\Generated_Source\PSoC4/BLE_1_eventHandler.c ****     if((cyBle_eventHandlerFlag & CYBLE_CALLBACK) != 0u)
1045:.\Generated_Source\PSoC4/BLE_1_eventHandler.c ****     {
1046:.\Generated_Source\PSoC4/BLE_1_eventHandler.c ****         CyBle_HrscReadResponseEventHandler(eventParam);
1047:.\Generated_Source\PSoC4/BLE_1_eventHandler.c ****     }
1048:.\Generated_Source\PSoC4/BLE_1_eventHandler.c **** #endif /* CYBLE_HRS_CLIENT */
1049:.\Generated_Source\PSoC4/BLE_1_eventHandler.c **** #ifdef CYBLE_HTS_CLIENT
1050:.\Generated_Source\PSoC4/BLE_1_eventHandler.c ****     if((cyBle_eventHandlerFlag & CYBLE_CALLBACK) != 0u)
1051:.\Generated_Source\PSoC4/BLE_1_eventHandler.c ****     {
1052:.\Generated_Source\PSoC4/BLE_1_eventHandler.c ****         CyBle_HtscReadResponseEventHandler(eventParam);
1053:.\Generated_Source\PSoC4/BLE_1_eventHandler.c ****     }
1054:.\Generated_Source\PSoC4/BLE_1_eventHandler.c **** #endif /* CYBLE_HTS_CLIENT */
1055:.\Generated_Source\PSoC4/BLE_1_eventHandler.c **** #ifdef CYBLE_LLS_CLIENT
1056:.\Generated_Source\PSoC4/BLE_1_eventHandler.c ****     if((cyBle_eventHandlerFlag & CYBLE_CALLBACK) != 0u)
1057:.\Generated_Source\PSoC4/BLE_1_eventHandler.c ****     {
1058:.\Generated_Source\PSoC4/BLE_1_eventHandler.c ****         CyBle_LlscReadResponseEventHandler(eventParam);
1059:.\Generated_Source\PSoC4/BLE_1_eventHandler.c ****     }
ARM GAS  C:\Users\danielpi\AppData\Local\Temp\ccwIrVvL.s 			page 20


1060:.\Generated_Source\PSoC4/BLE_1_eventHandler.c **** #endif /* CYBLE_LLS_CLIENT */
1061:.\Generated_Source\PSoC4/BLE_1_eventHandler.c **** #ifdef CYBLE_LNS_CLIENT
1062:.\Generated_Source\PSoC4/BLE_1_eventHandler.c ****     if((cyBle_eventHandlerFlag & CYBLE_CALLBACK) != 0u)
1063:.\Generated_Source\PSoC4/BLE_1_eventHandler.c ****     {
1064:.\Generated_Source\PSoC4/BLE_1_eventHandler.c ****         CyBle_LnscReadResponseEventHandler(eventParam);
1065:.\Generated_Source\PSoC4/BLE_1_eventHandler.c ****     }
1066:.\Generated_Source\PSoC4/BLE_1_eventHandler.c **** #endif /* CYBLE_LNS_CLIENT */
1067:.\Generated_Source\PSoC4/BLE_1_eventHandler.c **** #ifdef CYBLE_NDCS_CLIENT
1068:.\Generated_Source\PSoC4/BLE_1_eventHandler.c ****     if((cyBle_eventHandlerFlag & CYBLE_CALLBACK) != 0u)
1069:.\Generated_Source\PSoC4/BLE_1_eventHandler.c ****     {
1070:.\Generated_Source\PSoC4/BLE_1_eventHandler.c ****         CyBle_NdcscReadResponseEventHandler(eventParam);
1071:.\Generated_Source\PSoC4/BLE_1_eventHandler.c ****     }
1072:.\Generated_Source\PSoC4/BLE_1_eventHandler.c **** #endif /* CYBLE_NDCS_CLIENT */
1073:.\Generated_Source\PSoC4/BLE_1_eventHandler.c **** #ifdef CYBLE_PASS_CLIENT
1074:.\Generated_Source\PSoC4/BLE_1_eventHandler.c ****     if((cyBle_eventHandlerFlag & CYBLE_CALLBACK) != 0u)
1075:.\Generated_Source\PSoC4/BLE_1_eventHandler.c ****     {
1076:.\Generated_Source\PSoC4/BLE_1_eventHandler.c ****         CyBle_PasscReadResponseEventHandler(eventParam);
1077:.\Generated_Source\PSoC4/BLE_1_eventHandler.c ****     }
1078:.\Generated_Source\PSoC4/BLE_1_eventHandler.c **** #endif /* CYBLE_PASS_CLIENT */
1079:.\Generated_Source\PSoC4/BLE_1_eventHandler.c **** #ifdef CYBLE_RSCS_CLIENT
1080:.\Generated_Source\PSoC4/BLE_1_eventHandler.c ****     if((cyBle_eventHandlerFlag & CYBLE_CALLBACK) != 0u)
1081:.\Generated_Source\PSoC4/BLE_1_eventHandler.c ****     {
1082:.\Generated_Source\PSoC4/BLE_1_eventHandler.c ****         CyBle_RscscReadResponseEventHandler(eventParam);
1083:.\Generated_Source\PSoC4/BLE_1_eventHandler.c ****     }
1084:.\Generated_Source\PSoC4/BLE_1_eventHandler.c **** #endif /* CYBLE_RSCS_CLIENT */
1085:.\Generated_Source\PSoC4/BLE_1_eventHandler.c **** #ifdef CYBLE_RTUS_CLIENT
1086:.\Generated_Source\PSoC4/BLE_1_eventHandler.c ****     if((cyBle_eventHandlerFlag & CYBLE_CALLBACK) != 0u)
1087:.\Generated_Source\PSoC4/BLE_1_eventHandler.c ****     {
1088:.\Generated_Source\PSoC4/BLE_1_eventHandler.c ****         CyBle_RtuscReadResponseEventHandler(eventParam);
1089:.\Generated_Source\PSoC4/BLE_1_eventHandler.c ****     }
1090:.\Generated_Source\PSoC4/BLE_1_eventHandler.c **** #endif /* CYBLE_RTUS_CLIENT */
1091:.\Generated_Source\PSoC4/BLE_1_eventHandler.c **** #ifdef CYBLE_SCPS_CLIENT
1092:.\Generated_Source\PSoC4/BLE_1_eventHandler.c ****     if((cyBle_eventHandlerFlag & CYBLE_CALLBACK) != 0u)
1093:.\Generated_Source\PSoC4/BLE_1_eventHandler.c ****     {
1094:.\Generated_Source\PSoC4/BLE_1_eventHandler.c ****         CyBle_ScpscReadResponseEventHandler(eventParam);
1095:.\Generated_Source\PSoC4/BLE_1_eventHandler.c ****     }
1096:.\Generated_Source\PSoC4/BLE_1_eventHandler.c **** #endif /* CYBLE_SCPS_CLIENT */
1097:.\Generated_Source\PSoC4/BLE_1_eventHandler.c **** #ifdef CYBLE_TPS_CLIENT
1098:.\Generated_Source\PSoC4/BLE_1_eventHandler.c ****     if((cyBle_eventHandlerFlag & CYBLE_CALLBACK) != 0u)
1099:.\Generated_Source\PSoC4/BLE_1_eventHandler.c ****     {
1100:.\Generated_Source\PSoC4/BLE_1_eventHandler.c ****         CyBle_TpscReadResponseEventHandler(eventParam);
1101:.\Generated_Source\PSoC4/BLE_1_eventHandler.c ****     }
1102:.\Generated_Source\PSoC4/BLE_1_eventHandler.c **** #endif /* CYBLE_TPS_CLIENT */
1103:.\Generated_Source\PSoC4/BLE_1_eventHandler.c **** #ifdef CYBLE_UDS_CLIENT
1104:.\Generated_Source\PSoC4/BLE_1_eventHandler.c ****     if((cyBle_eventHandlerFlag & CYBLE_CALLBACK) != 0u)
1105:.\Generated_Source\PSoC4/BLE_1_eventHandler.c ****     {
1106:.\Generated_Source\PSoC4/BLE_1_eventHandler.c ****         CyBle_UdscReadResponseEventHandler(eventParam);
1107:.\Generated_Source\PSoC4/BLE_1_eventHandler.c ****     }
1108:.\Generated_Source\PSoC4/BLE_1_eventHandler.c **** #endif /* CYBLE_UDS_CLIENT */
1109:.\Generated_Source\PSoC4/BLE_1_eventHandler.c **** #ifdef CYBLE_WPTS_CLIENT
1110:.\Generated_Source\PSoC4/BLE_1_eventHandler.c ****     if((cyBle_eventHandlerFlag & CYBLE_CALLBACK) != 0u)
1111:.\Generated_Source\PSoC4/BLE_1_eventHandler.c ****     {
1112:.\Generated_Source\PSoC4/BLE_1_eventHandler.c ****         CyBle_WptscReadResponseEventHandler(eventParam);
1113:.\Generated_Source\PSoC4/BLE_1_eventHandler.c ****     }
1114:.\Generated_Source\PSoC4/BLE_1_eventHandler.c **** #endif /* CYBLE_WPTS_CLIENT */
1115:.\Generated_Source\PSoC4/BLE_1_eventHandler.c **** #ifdef CYBLE_WSS_CLIENT
1116:.\Generated_Source\PSoC4/BLE_1_eventHandler.c ****     if((cyBle_eventHandlerFlag & CYBLE_CALLBACK) != 0u)
ARM GAS  C:\Users\danielpi\AppData\Local\Temp\ccwIrVvL.s 			page 21


1117:.\Generated_Source\PSoC4/BLE_1_eventHandler.c ****     {
1118:.\Generated_Source\PSoC4/BLE_1_eventHandler.c ****         CyBle_WsscReadResponseEventHandler(eventParam);
1119:.\Generated_Source\PSoC4/BLE_1_eventHandler.c ****     }
1120:.\Generated_Source\PSoC4/BLE_1_eventHandler.c **** #endif /* CYBLE_WSS_CLIENT */
1121:.\Generated_Source\PSoC4/BLE_1_eventHandler.c **** }
1122:.\Generated_Source\PSoC4/BLE_1_eventHandler.c **** #endif /* CYBLE_GATT_ROLE_CLIENT */
1123:.\Generated_Source\PSoC4/BLE_1_eventHandler.c **** 
1124:.\Generated_Source\PSoC4/BLE_1_eventHandler.c **** 
1125:.\Generated_Source\PSoC4/BLE_1_eventHandler.c **** /****************************************************************************** 
1126:.\Generated_Source\PSoC4/BLE_1_eventHandler.c **** ##Function Name: CyBle_DisconnectEventHandler
1127:.\Generated_Source\PSoC4/BLE_1_eventHandler.c **** *******************************************************************************
1128:.\Generated_Source\PSoC4/BLE_1_eventHandler.c **** 
1129:.\Generated_Source\PSoC4/BLE_1_eventHandler.c **** Summary:
1130:.\Generated_Source\PSoC4/BLE_1_eventHandler.c ****  Handles the GATT Disconnection event from the BLE stack.
1131:.\Generated_Source\PSoC4/BLE_1_eventHandler.c **** 
1132:.\Generated_Source\PSoC4/BLE_1_eventHandler.c **** Parameters:
1133:.\Generated_Source\PSoC4/BLE_1_eventHandler.c ****  None
1134:.\Generated_Source\PSoC4/BLE_1_eventHandler.c **** 
1135:.\Generated_Source\PSoC4/BLE_1_eventHandler.c **** Return:
1136:.\Generated_Source\PSoC4/BLE_1_eventHandler.c ****  None
1137:.\Generated_Source\PSoC4/BLE_1_eventHandler.c **** 
1138:.\Generated_Source\PSoC4/BLE_1_eventHandler.c **** ******************************************************************************/
1139:.\Generated_Source\PSoC4/BLE_1_eventHandler.c **** static void CyBle_GattDisconnectEventHandler(void)
1140:.\Generated_Source\PSoC4/BLE_1_eventHandler.c **** {
  25              		.loc 1 1140 0
  26              		.cfi_startproc
1141:.\Generated_Source\PSoC4/BLE_1_eventHandler.c ****     cyBle_connHandle.attId = 0u;
  27              		.loc 1 1141 0
  28 0000 024B     		ldr	r3, .L2
  29 0002 0022     		mov	r2, #0
  30 0004 5A70     		strb	r2, [r3, #1]
1142:.\Generated_Source\PSoC4/BLE_1_eventHandler.c ****     cyBle_connHandle.bdHandle = 0u;
  31              		.loc 1 1142 0
  32 0006 1A70     		strb	r2, [r3]
1143:.\Generated_Source\PSoC4/BLE_1_eventHandler.c ****     
1144:.\Generated_Source\PSoC4/BLE_1_eventHandler.c ****     #if (CYBLE_GATT_ROLE_CLIENT)
1145:.\Generated_Source\PSoC4/BLE_1_eventHandler.c ****         if(CYBLE_CLIENT_STATE_DISCOVERED == CyBle_GetClientState())
1146:.\Generated_Source\PSoC4/BLE_1_eventHandler.c ****         {
1147:.\Generated_Source\PSoC4/BLE_1_eventHandler.c ****             CyBle_SetClientState(CYBLE_CLIENT_STATE_DISCONNECTED_DISCOVERED);
1148:.\Generated_Source\PSoC4/BLE_1_eventHandler.c ****         }
1149:.\Generated_Source\PSoC4/BLE_1_eventHandler.c ****         else
1150:.\Generated_Source\PSoC4/BLE_1_eventHandler.c ****         {
1151:.\Generated_Source\PSoC4/BLE_1_eventHandler.c ****             CyBle_SetClientState(CYBLE_CLIENT_STATE_DISCONNECTED);
1152:.\Generated_Source\PSoC4/BLE_1_eventHandler.c ****         }
1153:.\Generated_Source\PSoC4/BLE_1_eventHandler.c ****     #endif /* CYBLE_GATT_ROLE_CLIENT */
1154:.\Generated_Source\PSoC4/BLE_1_eventHandler.c ****         
1155:.\Generated_Source\PSoC4/BLE_1_eventHandler.c ****     #ifdef CYBLE_CPS_SERVER
1156:.\Generated_Source\PSoC4/BLE_1_eventHandler.c ****         #if CYBLE_GAP_ROLE_BROADCASTER
1157:.\Generated_Source\PSoC4/BLE_1_eventHandler.c ****             CyBle_CpssDisconnectEventHandler();
1158:.\Generated_Source\PSoC4/BLE_1_eventHandler.c ****         #endif /* CYBLE_GAP_ROLE_BROADCASTER */
1159:.\Generated_Source\PSoC4/BLE_1_eventHandler.c ****     #endif /* CYBLE_CPS_SERVER */
1160:.\Generated_Source\PSoC4/BLE_1_eventHandler.c **** 
1161:.\Generated_Source\PSoC4/BLE_1_eventHandler.c ****     #ifdef CYBLE_CPS_CLIENT
1162:.\Generated_Source\PSoC4/BLE_1_eventHandler.c ****         CyBle_CpscDisconnectEventHandler();
1163:.\Generated_Source\PSoC4/BLE_1_eventHandler.c ****     #endif /* CYBLE_CPS_CLIENT */
1164:.\Generated_Source\PSoC4/BLE_1_eventHandler.c **** 
1165:.\Generated_Source\PSoC4/BLE_1_eventHandler.c ****     #ifdef CYBLE_IAS_SERVER
ARM GAS  C:\Users\danielpi\AppData\Local\Temp\ccwIrVvL.s 			page 22


1166:.\Generated_Source\PSoC4/BLE_1_eventHandler.c ****         CyBle_IassDisconnectEventHandler();
1167:.\Generated_Source\PSoC4/BLE_1_eventHandler.c ****     #endif /* CYBLE_IAS_SERVER */
1168:.\Generated_Source\PSoC4/BLE_1_eventHandler.c ****     
1169:.\Generated_Source\PSoC4/BLE_1_eventHandler.c ****     #ifdef CYBLE_GLS_SERVER
1170:.\Generated_Source\PSoC4/BLE_1_eventHandler.c ****         CyBle_GlsInit();
1171:.\Generated_Source\PSoC4/BLE_1_eventHandler.c ****     #endif /* CYBLE_GLS_SERVER */
1172:.\Generated_Source\PSoC4/BLE_1_eventHandler.c ****     
1173:.\Generated_Source\PSoC4/BLE_1_eventHandler.c ****     #ifdef CYBLE_LNS_SERVER
1174:.\Generated_Source\PSoC4/BLE_1_eventHandler.c ****         CyBle_LnsInit();
1175:.\Generated_Source\PSoC4/BLE_1_eventHandler.c ****     #endif /* CYBLE_LNS_SERVER */
1176:.\Generated_Source\PSoC4/BLE_1_eventHandler.c ****     
1177:.\Generated_Source\PSoC4/BLE_1_eventHandler.c ****     #ifdef CYBLE_UDS_SERVER
1178:.\Generated_Source\PSoC4/BLE_1_eventHandler.c ****         CyBle_UdsInit();
1179:.\Generated_Source\PSoC4/BLE_1_eventHandler.c ****     #endif /* CYBLE_UDS_SERVER */
1180:.\Generated_Source\PSoC4/BLE_1_eventHandler.c **** }
  33              		.loc 1 1180 0
  34              		@ sp needed
  35 0008 7047     		bx	lr
  36              	.L3:
  37 000a C046     		.align	2
  38              	.L2:
  39 000c 00000000 		.word	cyBle_connHandle
  40              		.cfi_endproc
  41              	.LFE4:
  42              		.size	CyBle_GattDisconnectEventHandler, .-CyBle_GattDisconnectEventHandler
  43              		.section	.text.CyBle_IsDeviceAddressValid,"ax",%progbits
  44              		.align	2
  45              		.code	16
  46              		.thumb_func
  47              		.type	CyBle_IsDeviceAddressValid, %function
  48              	CyBle_IsDeviceAddressValid:
  49              	.LFB7:
1181:.\Generated_Source\PSoC4/BLE_1_eventHandler.c **** 
1182:.\Generated_Source\PSoC4/BLE_1_eventHandler.c **** 
1183:.\Generated_Source\PSoC4/BLE_1_eventHandler.c **** /****************************************************************************** 
1184:.\Generated_Source\PSoC4/BLE_1_eventHandler.c **** ##Function Name: CyBle_TimeOutEventHandler
1185:.\Generated_Source\PSoC4/BLE_1_eventHandler.c **** *******************************************************************************
1186:.\Generated_Source\PSoC4/BLE_1_eventHandler.c **** 
1187:.\Generated_Source\PSoC4/BLE_1_eventHandler.c **** Summary:
1188:.\Generated_Source\PSoC4/BLE_1_eventHandler.c ****  Handles the CYBLE_EVT_TIMEOUT event from the BLE stack.
1189:.\Generated_Source\PSoC4/BLE_1_eventHandler.c **** 
1190:.\Generated_Source\PSoC4/BLE_1_eventHandler.c **** Parameters:
1191:.\Generated_Source\PSoC4/BLE_1_eventHandler.c ****  *eventParam - The pointer to a structure of type CYBLE_TO_REASON_CODE_T.
1192:.\Generated_Source\PSoC4/BLE_1_eventHandler.c **** 
1193:.\Generated_Source\PSoC4/BLE_1_eventHandler.c **** Return:
1194:.\Generated_Source\PSoC4/BLE_1_eventHandler.c ****  None
1195:.\Generated_Source\PSoC4/BLE_1_eventHandler.c **** 
1196:.\Generated_Source\PSoC4/BLE_1_eventHandler.c **** ******************************************************************************/
1197:.\Generated_Source\PSoC4/BLE_1_eventHandler.c **** static void CyBle_TimeOutEventHandler(const CYBLE_TO_REASON_CODE_T *eventParam)
1198:.\Generated_Source\PSoC4/BLE_1_eventHandler.c **** {
1199:.\Generated_Source\PSoC4/BLE_1_eventHandler.c ****     if(*eventParam == CYBLE_GATT_RSP_TO)
1200:.\Generated_Source\PSoC4/BLE_1_eventHandler.c ****     {
1201:.\Generated_Source\PSoC4/BLE_1_eventHandler.c ****     #if (CYBLE_GATT_ROLE_CLIENT)
1202:.\Generated_Source\PSoC4/BLE_1_eventHandler.c ****         if(0u != (cyBle_eventHandlerFlag & CYBLE_AUTO_DISCOVERY))
1203:.\Generated_Source\PSoC4/BLE_1_eventHandler.c ****         {
1204:.\Generated_Source\PSoC4/BLE_1_eventHandler.c ****             switch(CyBle_GetClientState())
1205:.\Generated_Source\PSoC4/BLE_1_eventHandler.c ****             {
ARM GAS  C:\Users\danielpi\AppData\Local\Temp\ccwIrVvL.s 			page 23


1206:.\Generated_Source\PSoC4/BLE_1_eventHandler.c ****                 case CYBLE_CLIENT_STATE_SRVC_DISCOVERING:
1207:.\Generated_Source\PSoC4/BLE_1_eventHandler.c ****                     CyBle_ApplCallback(CYBLE_EVT_GATTC_SRVC_DISCOVERY_FAILED, NULL);
1208:.\Generated_Source\PSoC4/BLE_1_eventHandler.c ****                     break;
1209:.\Generated_Source\PSoC4/BLE_1_eventHandler.c ****                 case CYBLE_CLIENT_STATE_INCL_DISCOVERING:
1210:.\Generated_Source\PSoC4/BLE_1_eventHandler.c ****                     CyBle_ApplCallback(CYBLE_EVT_GATTC_INCL_DISCOVERY_FAILED, NULL);
1211:.\Generated_Source\PSoC4/BLE_1_eventHandler.c ****                     break;
1212:.\Generated_Source\PSoC4/BLE_1_eventHandler.c ****                 case CYBLE_CLIENT_STATE_CHAR_DISCOVERING:
1213:.\Generated_Source\PSoC4/BLE_1_eventHandler.c ****                     CyBle_ApplCallback(CYBLE_EVT_GATTC_CHAR_DISCOVERY_FAILED, NULL);
1214:.\Generated_Source\PSoC4/BLE_1_eventHandler.c ****                     break;
1215:.\Generated_Source\PSoC4/BLE_1_eventHandler.c ****                 case CYBLE_CLIENT_STATE_DESCR_DISCOVERING:
1216:.\Generated_Source\PSoC4/BLE_1_eventHandler.c ****                     CyBle_ApplCallback(CYBLE_EVT_GATTC_DESCR_DISCOVERY_FAILED, NULL);
1217:.\Generated_Source\PSoC4/BLE_1_eventHandler.c ****                     break;
1218:.\Generated_Source\PSoC4/BLE_1_eventHandler.c ****                 default:        /* Other states should not be set in Auto discovery mode */
1219:.\Generated_Source\PSoC4/BLE_1_eventHandler.c ****                     break;
1220:.\Generated_Source\PSoC4/BLE_1_eventHandler.c ****             }
1221:.\Generated_Source\PSoC4/BLE_1_eventHandler.c ****             cyBle_eventHandlerFlag &= (uint8)~CYBLE_AUTO_DISCOVERY;
1222:.\Generated_Source\PSoC4/BLE_1_eventHandler.c ****             CyBle_SetClientState(CYBLE_CLIENT_STATE_CONNECTED);
1223:.\Generated_Source\PSoC4/BLE_1_eventHandler.c ****         }
1224:.\Generated_Source\PSoC4/BLE_1_eventHandler.c ****     #endif /* CYBLE_GATT_ROLE_CLIENT */
1225:.\Generated_Source\PSoC4/BLE_1_eventHandler.c ****     #ifdef CYBLE_CPS_SERVER
1226:.\Generated_Source\PSoC4/BLE_1_eventHandler.c ****         CyBle_CpssTimeOutEventHandler();
1227:.\Generated_Source\PSoC4/BLE_1_eventHandler.c ****     #endif /* CYBLE_CPS_SERVER */
1228:.\Generated_Source\PSoC4/BLE_1_eventHandler.c ****     }
1229:.\Generated_Source\PSoC4/BLE_1_eventHandler.c ****     
1230:.\Generated_Source\PSoC4/BLE_1_eventHandler.c ****     /* Connection procedure timeout */
1231:.\Generated_Source\PSoC4/BLE_1_eventHandler.c ****     if(*eventParam == CYBLE_GENERIC_TO)
1232:.\Generated_Source\PSoC4/BLE_1_eventHandler.c ****     {
1233:.\Generated_Source\PSoC4/BLE_1_eventHandler.c ****     #if(CYBLE_GAP_ROLE_CENTRAL)
1234:.\Generated_Source\PSoC4/BLE_1_eventHandler.c ****         if(CYBLE_STATE_CONNECTING == CyBle_GetState())
1235:.\Generated_Source\PSoC4/BLE_1_eventHandler.c ****         {
1236:.\Generated_Source\PSoC4/BLE_1_eventHandler.c ****             (void)CyBle_GapcCancelDeviceConnection();
1237:.\Generated_Source\PSoC4/BLE_1_eventHandler.c ****         }
1238:.\Generated_Source\PSoC4/BLE_1_eventHandler.c ****     #endif /* CYBLE_GAP_ROLE_CENTRAL */
1239:.\Generated_Source\PSoC4/BLE_1_eventHandler.c ****     }
1240:.\Generated_Source\PSoC4/BLE_1_eventHandler.c **** }
1241:.\Generated_Source\PSoC4/BLE_1_eventHandler.c **** 
1242:.\Generated_Source\PSoC4/BLE_1_eventHandler.c **** 
1243:.\Generated_Source\PSoC4/BLE_1_eventHandler.c **** /****************************************************************************** 
1244:.\Generated_Source\PSoC4/BLE_1_eventHandler.c **** ##Function Name: CyBle_GattConnectReqHandler
1245:.\Generated_Source\PSoC4/BLE_1_eventHandler.c **** *******************************************************************************
1246:.\Generated_Source\PSoC4/BLE_1_eventHandler.c **** 
1247:.\Generated_Source\PSoC4/BLE_1_eventHandler.c **** Summary:
1248:.\Generated_Source\PSoC4/BLE_1_eventHandler.c ****  Handles the GATT connect event from the BLE stack.
1249:.\Generated_Source\PSoC4/BLE_1_eventHandler.c **** 
1250:.\Generated_Source\PSoC4/BLE_1_eventHandler.c **** Parameters:
1251:.\Generated_Source\PSoC4/BLE_1_eventHandler.c ****  None
1252:.\Generated_Source\PSoC4/BLE_1_eventHandler.c **** 
1253:.\Generated_Source\PSoC4/BLE_1_eventHandler.c **** Return:
1254:.\Generated_Source\PSoC4/BLE_1_eventHandler.c ****  None
1255:.\Generated_Source\PSoC4/BLE_1_eventHandler.c **** 
1256:.\Generated_Source\PSoC4/BLE_1_eventHandler.c **** ******************************************************************************/
1257:.\Generated_Source\PSoC4/BLE_1_eventHandler.c **** static void CyBle_GattConnectReqHandler(void)
1258:.\Generated_Source\PSoC4/BLE_1_eventHandler.c **** {
1259:.\Generated_Source\PSoC4/BLE_1_eventHandler.c ****     #ifdef CYBLE_CGMS_SERVER
1260:.\Generated_Source\PSoC4/BLE_1_eventHandler.c ****         CyBle_CgmsInit();
1261:.\Generated_Source\PSoC4/BLE_1_eventHandler.c ****     #endif /* CYBLE_CGMS_SERVER */
1262:.\Generated_Source\PSoC4/BLE_1_eventHandler.c ****     
ARM GAS  C:\Users\danielpi\AppData\Local\Temp\ccwIrVvL.s 			page 24


1263:.\Generated_Source\PSoC4/BLE_1_eventHandler.c ****     #ifdef CYBLE_CPS_SERVER
1264:.\Generated_Source\PSoC4/BLE_1_eventHandler.c ****         CyBle_CpssConnectEventHandler();
1265:.\Generated_Source\PSoC4/BLE_1_eventHandler.c ****     #endif /* CYBLE_CPS_SERVER */
1266:.\Generated_Source\PSoC4/BLE_1_eventHandler.c ****     
1267:.\Generated_Source\PSoC4/BLE_1_eventHandler.c ****     #ifdef CYBLE_CSCS_SERVER
1268:.\Generated_Source\PSoC4/BLE_1_eventHandler.c ****             CyBle_CscsInit();
1269:.\Generated_Source\PSoC4/BLE_1_eventHandler.c ****     #endif /* CYBLE_CSCS_SERVER */
1270:.\Generated_Source\PSoC4/BLE_1_eventHandler.c ****     
1271:.\Generated_Source\PSoC4/BLE_1_eventHandler.c ****     #ifdef CYBLE_LLS_SERVER
1272:.\Generated_Source\PSoC4/BLE_1_eventHandler.c ****         CyBle_LlssConnectEventHandler();
1273:.\Generated_Source\PSoC4/BLE_1_eventHandler.c ****     #endif /* CYBLE_LLS_SERVER */
1274:.\Generated_Source\PSoC4/BLE_1_eventHandler.c ****     
1275:.\Generated_Source\PSoC4/BLE_1_eventHandler.c ****     #ifdef CYBLE_HIDS_SERVER
1276:.\Generated_Source\PSoC4/BLE_1_eventHandler.c ****         CyBle_HidssOnDeviceConnected();
1277:.\Generated_Source\PSoC4/BLE_1_eventHandler.c ****     #endif /* CYBLE_HIDS_SERVER */
1278:.\Generated_Source\PSoC4/BLE_1_eventHandler.c **** 
1279:.\Generated_Source\PSoC4/BLE_1_eventHandler.c ****     #ifdef CYBLE_RSCS_SERVER
1280:.\Generated_Source\PSoC4/BLE_1_eventHandler.c ****         CyBle_RscsInit();
1281:.\Generated_Source\PSoC4/BLE_1_eventHandler.c ****     #endif /* CYBLE_RSCS_SERVER */
1282:.\Generated_Source\PSoC4/BLE_1_eventHandler.c **** }
1283:.\Generated_Source\PSoC4/BLE_1_eventHandler.c **** 
1284:.\Generated_Source\PSoC4/BLE_1_eventHandler.c **** 
1285:.\Generated_Source\PSoC4/BLE_1_eventHandler.c **** #if (CYBLE_GATT_ROLE_SERVER || CYBLE_GATT_ROLE_CLIENT)
1286:.\Generated_Source\PSoC4/BLE_1_eventHandler.c **** 
1287:.\Generated_Source\PSoC4/BLE_1_eventHandler.c **** /****************************************************************************** 
1288:.\Generated_Source\PSoC4/BLE_1_eventHandler.c **** ##Function Name: CyBle_IsDeviceAddressValid
1289:.\Generated_Source\PSoC4/BLE_1_eventHandler.c **** *******************************************************************************
1290:.\Generated_Source\PSoC4/BLE_1_eventHandler.c **** 
1291:.\Generated_Source\PSoC4/BLE_1_eventHandler.c **** Summary:
1292:.\Generated_Source\PSoC4/BLE_1_eventHandler.c ****  This function verifies that BLE public address has been programmed to SFLASH 
1293:.\Generated_Source\PSoC4/BLE_1_eventHandler.c ****  during manufacture.
1294:.\Generated_Source\PSoC4/BLE_1_eventHandler.c **** 
1295:.\Generated_Source\PSoC4/BLE_1_eventHandler.c **** Parameters:
1296:.\Generated_Source\PSoC4/BLE_1_eventHandler.c ****  CYBLE_GAP_BD_ADDR_T *sflashDeviceAddress: the pointer to the BD address of 
1297:.\Generated_Source\PSoC4/BLE_1_eventHandler.c ****                                            type CYBLE_GAP_BD_ADDR_T. 
1298:.\Generated_Source\PSoC4/BLE_1_eventHandler.c **** 
1299:.\Generated_Source\PSoC4/BLE_1_eventHandler.c **** Return:
1300:.\Generated_Source\PSoC4/BLE_1_eventHandler.c ****  Non zero value when a device address differs from the default SFLASH content.
1301:.\Generated_Source\PSoC4/BLE_1_eventHandler.c **** 
1302:.\Generated_Source\PSoC4/BLE_1_eventHandler.c **** ******************************************************************************/
1303:.\Generated_Source\PSoC4/BLE_1_eventHandler.c **** static uint8 CyBle_IsDeviceAddressValid(const CYBLE_GAP_BD_ADDR_T *sflashDeviceAddress)
1304:.\Generated_Source\PSoC4/BLE_1_eventHandler.c **** {
  50              		.loc 1 1304 0
  51              		.cfi_startproc
  52              	.LVL0:
1305:.\Generated_Source\PSoC4/BLE_1_eventHandler.c ****     uint8 i;
1306:.\Generated_Source\PSoC4/BLE_1_eventHandler.c ****     uint8 sflashAddressValid = 0u;
1307:.\Generated_Source\PSoC4/BLE_1_eventHandler.c ****     
1308:.\Generated_Source\PSoC4/BLE_1_eventHandler.c ****     if(sflashDeviceAddress -> type == CYBLE_GAP_ADDR_TYPE_PUBLIC)  
  53              		.loc 1 1308 0
  54 0000 8379     		ldrb	r3, [r0, #6]
  55 0002 002B     		cmp	r3, #0
  56 0004 07D0     		beq	.L8
1306:.\Generated_Source\PSoC4/BLE_1_eventHandler.c ****     uint8 sflashAddressValid = 0u;
  57              		.loc 1 1306 0
  58 0006 0020     		mov	r0, #0
  59              	.LVL1:
ARM GAS  C:\Users\danielpi\AppData\Local\Temp\ccwIrVvL.s 			page 25


  60 0008 0BE0     		b	.L6
  61              	.LVL2:
  62              	.L7:
1309:.\Generated_Source\PSoC4/BLE_1_eventHandler.c ****     {
1310:.\Generated_Source\PSoC4/BLE_1_eventHandler.c ****         for(i = 0u; i < CYBLE_GAP_BD_ADDR_SIZE; i++)
1311:.\Generated_Source\PSoC4/BLE_1_eventHandler.c ****         {
1312:.\Generated_Source\PSoC4/BLE_1_eventHandler.c ****             if(sflashDeviceAddress->bdAddr[i] != 0u)
  63              		.loc 1 1312 0
  64 000a C25C     		ldrb	r2, [r0, r3]
  65 000c 002A     		cmp	r2, #0
  66 000e 07D1     		bne	.L9
1310:.\Generated_Source\PSoC4/BLE_1_eventHandler.c ****         for(i = 0u; i < CYBLE_GAP_BD_ADDR_SIZE; i++)
  67              		.loc 1 1310 0
  68 0010 0133     		add	r3, r3, #1
  69              	.LVL3:
  70 0012 DBB2     		uxtb	r3, r3
  71              	.LVL4:
  72 0014 00E0     		b	.L5
  73              	.LVL5:
  74              	.L8:
  75 0016 0023     		mov	r3, #0
  76              	.L5:
  77              	.LVL6:
1310:.\Generated_Source\PSoC4/BLE_1_eventHandler.c ****         for(i = 0u; i < CYBLE_GAP_BD_ADDR_SIZE; i++)
  78              		.loc 1 1310 0 is_stmt 0 discriminator 1
  79 0018 052B     		cmp	r3, #5
  80 001a F6D9     		bls	.L7
1306:.\Generated_Source\PSoC4/BLE_1_eventHandler.c ****     uint8 sflashAddressValid = 0u;
  81              		.loc 1 1306 0 is_stmt 1
  82 001c 0020     		mov	r0, #0
  83              	.LVL7:
  84 001e 00E0     		b	.L6
  85              	.LVL8:
  86              	.L9:
1313:.\Generated_Source\PSoC4/BLE_1_eventHandler.c ****             {
1314:.\Generated_Source\PSoC4/BLE_1_eventHandler.c ****                 sflashAddressValid = 1u;
  87              		.loc 1 1314 0
  88 0020 0120     		mov	r0, #1
  89              	.LVL9:
  90              	.L6:
1315:.\Generated_Source\PSoC4/BLE_1_eventHandler.c ****                 break;
1316:.\Generated_Source\PSoC4/BLE_1_eventHandler.c ****             }
1317:.\Generated_Source\PSoC4/BLE_1_eventHandler.c ****         }
1318:.\Generated_Source\PSoC4/BLE_1_eventHandler.c ****     }
1319:.\Generated_Source\PSoC4/BLE_1_eventHandler.c ****     return (sflashAddressValid);
1320:.\Generated_Source\PSoC4/BLE_1_eventHandler.c **** }
  91              		.loc 1 1320 0
  92              		@ sp needed
  93 0022 7047     		bx	lr
  94              		.cfi_endproc
  95              	.LFE7:
  96              		.size	CyBle_IsDeviceAddressValid, .-CyBle_IsDeviceAddressValid
  97              		.section	.text.CyBle_WriteReqHandler,"ax",%progbits
  98              		.align	2
  99              		.code	16
 100              		.thumb_func
 101              		.type	CyBle_WriteReqHandler, %function
ARM GAS  C:\Users\danielpi\AppData\Local\Temp\ccwIrVvL.s 			page 26


 102              	CyBle_WriteReqHandler:
 103              	.LFB2:
 223:.\Generated_Source\PSoC4/BLE_1_eventHandler.c **** {
 104              		.loc 1 223 0
 105              		.cfi_startproc
 106              	.LVL10:
 107 0000 10B5     		push	{r4, lr}
 108              		.cfi_def_cfa_offset 8
 109              		.cfi_offset 4, -8
 110              		.cfi_offset 14, -4
 111 0002 82B0     		sub	sp, sp, #8
 112              		.cfi_def_cfa_offset 16
 113 0004 041C     		mov	r4, r0
 229:.\Generated_Source\PSoC4/BLE_1_eventHandler.c ****     gattErr = CyBle_GattsWriteEventHandler(eventParam);
 114              		.loc 1 229 0
 115 0006 FFF7FEFF 		bl	CyBle_GattsWriteEventHandler
 116              	.LVL11:
 315:.\Generated_Source\PSoC4/BLE_1_eventHandler.c ****     if(((cyBle_eventHandlerFlag & CYBLE_CALLBACK) != 0u) && (gattErr == CYBLE_GATT_ERR_NONE))
 117              		.loc 1 315 0
 118 000a 0F4B     		ldr	r3, .L14
 119 000c 1B78     		ldrb	r3, [r3]
 120 000e DA07     		lsl	r2, r3, #31
 121 0010 04D5     		bpl	.L11
 315:.\Generated_Source\PSoC4/BLE_1_eventHandler.c ****     if(((cyBle_eventHandlerFlag & CYBLE_CALLBACK) != 0u) && (gattErr == CYBLE_GATT_ERR_NONE))
 122              		.loc 1 315 0 is_stmt 0 discriminator 1
 123 0012 0028     		cmp	r0, #0
 124 0014 02D1     		bne	.L11
 317:.\Generated_Source\PSoC4/BLE_1_eventHandler.c ****         gattErr = CyBle_HrssWriteEventHandler(eventParam);
 125              		.loc 1 317 0 is_stmt 1
 126 0016 201C     		mov	r0, r4
 127              	.LVL12:
 128 0018 FFF7FEFF 		bl	CyBle_HrssWriteEventHandler
 129              	.LVL13:
 130              	.L11:
 382:.\Generated_Source\PSoC4/BLE_1_eventHandler.c ****     if((cyBle_eventHandlerFlag & CYBLE_CALLBACK) == 0u)
 131              		.loc 1 382 0
 132 001c 0A4B     		ldr	r3, .L14
 133 001e 1B78     		ldrb	r3, [r3]
 134 0020 DA07     		lsl	r2, r3, #31
 135 0022 0ED4     		bmi	.L10
 384:.\Generated_Source\PSoC4/BLE_1_eventHandler.c ****         if(gattErr != CYBLE_GATT_ERR_NONE)
 136              		.loc 1 384 0
 137 0024 0028     		cmp	r0, #0
 138 0026 09D0     		beq	.L13
 139              	.LBB2:
 388:.\Generated_Source\PSoC4/BLE_1_eventHandler.c ****             err_param.opcode = (uint8) CYBLE_GATT_WRITE_REQ;
 140              		.loc 1 388 0
 141 0028 01A9     		add	r1, sp, #4
 142 002a 1223     		mov	r3, #18
 143 002c 8B70     		strb	r3, [r1, #2]
 389:.\Generated_Source\PSoC4/BLE_1_eventHandler.c ****             err_param.attrHandle = eventParam->handleValPair.attrHandle;
 144              		.loc 1 389 0
 145 002e A389     		ldrh	r3, [r4, #12]
 146 0030 0B80     		strh	r3, [r1]
 390:.\Generated_Source\PSoC4/BLE_1_eventHandler.c ****             err_param.errorCode = gattErr;
 147              		.loc 1 390 0
 148 0032 C870     		strb	r0, [r1, #3]
ARM GAS  C:\Users\danielpi\AppData\Local\Temp\ccwIrVvL.s 			page 27


 393:.\Generated_Source\PSoC4/BLE_1_eventHandler.c ****             (void)CyBle_GattsErrorRsp(eventParam->connHandle, &err_param);
 149              		.loc 1 393 0
 150 0034 2068     		ldr	r0, [r4]
 151              	.LVL14:
 152 0036 FFF7FEFF 		bl	CyBle_GattsErrorRsp
 153              	.LVL15:
 154              	.LBE2:
 155 003a 02E0     		b	.L10
 156              	.LVL16:
 157              	.L13:
 397:.\Generated_Source\PSoC4/BLE_1_eventHandler.c ****             (void)CyBle_GattsWriteRsp(eventParam->connHandle);
 158              		.loc 1 397 0
 159 003c 2068     		ldr	r0, [r4]
 160              	.LVL17:
 161 003e FFF7FEFF 		bl	CyBle_GattsWriteRsp
 162              	.LVL18:
 163              	.L10:
 400:.\Generated_Source\PSoC4/BLE_1_eventHandler.c **** }
 164              		.loc 1 400 0
 165 0042 02B0     		add	sp, sp, #8
 166              		@ sp needed
 167              	.LVL19:
 168 0044 10BD     		pop	{r4, pc}
 169              	.L15:
 170 0046 C046     		.align	2
 171              	.L14:
 172 0048 00000000 		.word	cyBle_eventHandlerFlag
 173              		.cfi_endproc
 174              	.LFE2:
 175              		.size	CyBle_WriteReqHandler, .-CyBle_WriteReqHandler
 176              		.section	.text.CyBle_EventHandler,"ax",%progbits
 177              		.align	2
 178              		.global	CyBle_EventHandler
 179              		.code	16
 180              		.thumb_func
 181              		.type	CyBle_EventHandler, %function
 182              	CyBle_EventHandler:
 183              	.LFB10:
1321:.\Generated_Source\PSoC4/BLE_1_eventHandler.c **** #endif /* CYBLE_GATT_ROLE_SERVER || CYBLE_GATT_ROLE_CLIENT */
1322:.\Generated_Source\PSoC4/BLE_1_eventHandler.c **** 
1323:.\Generated_Source\PSoC4/BLE_1_eventHandler.c **** 
1324:.\Generated_Source\PSoC4/BLE_1_eventHandler.c **** /****************************************************************************** 
1325:.\Generated_Source\PSoC4/BLE_1_eventHandler.c **** ##Function Name: CyBle_L2Cap_ConnParamUpdateRspHandler
1326:.\Generated_Source\PSoC4/BLE_1_eventHandler.c **** *******************************************************************************
1327:.\Generated_Source\PSoC4/BLE_1_eventHandler.c **** 
1328:.\Generated_Source\PSoC4/BLE_1_eventHandler.c **** Summary:
1329:.\Generated_Source\PSoC4/BLE_1_eventHandler.c ****  Handles the L2CAP connection parameter response event from
1330:.\Generated_Source\PSoC4/BLE_1_eventHandler.c ****  the BLE stack.
1331:.\Generated_Source\PSoC4/BLE_1_eventHandler.c **** 
1332:.\Generated_Source\PSoC4/BLE_1_eventHandler.c **** Parameters:
1333:.\Generated_Source\PSoC4/BLE_1_eventHandler.c ****  uint16 response:
1334:.\Generated_Source\PSoC4/BLE_1_eventHandler.c ****      * Accepted = 0x0000
1335:.\Generated_Source\PSoC4/BLE_1_eventHandler.c ****      * Rejected = 0x0001
1336:.\Generated_Source\PSoC4/BLE_1_eventHandler.c **** 
1337:.\Generated_Source\PSoC4/BLE_1_eventHandler.c **** Return:
1338:.\Generated_Source\PSoC4/BLE_1_eventHandler.c ****  None
1339:.\Generated_Source\PSoC4/BLE_1_eventHandler.c **** 
ARM GAS  C:\Users\danielpi\AppData\Local\Temp\ccwIrVvL.s 			page 28


1340:.\Generated_Source\PSoC4/BLE_1_eventHandler.c **** ******************************************************************************/
1341:.\Generated_Source\PSoC4/BLE_1_eventHandler.c **** static void CyBle_L2Cap_ConnParamUpdateRspEventHandler(uint16 response)
1342:.\Generated_Source\PSoC4/BLE_1_eventHandler.c **** {
1343:.\Generated_Source\PSoC4/BLE_1_eventHandler.c ****     #ifdef CYBLE_CPS_SERVER
1344:.\Generated_Source\PSoC4/BLE_1_eventHandler.c ****         CyBle_CpssConnParamUpdateRspEventHandler(response);
1345:.\Generated_Source\PSoC4/BLE_1_eventHandler.c ****     #endif /* CYBLE_CPS_SERVER */
1346:.\Generated_Source\PSoC4/BLE_1_eventHandler.c ****     
1347:.\Generated_Source\PSoC4/BLE_1_eventHandler.c ****     /* Unreferenced variable warning workaround */
1348:.\Generated_Source\PSoC4/BLE_1_eventHandler.c ****     if(response != 0u)
1349:.\Generated_Source\PSoC4/BLE_1_eventHandler.c ****     {
1350:.\Generated_Source\PSoC4/BLE_1_eventHandler.c ****     }
1351:.\Generated_Source\PSoC4/BLE_1_eventHandler.c **** }
1352:.\Generated_Source\PSoC4/BLE_1_eventHandler.c **** 
1353:.\Generated_Source\PSoC4/BLE_1_eventHandler.c **** 
1354:.\Generated_Source\PSoC4/BLE_1_eventHandler.c **** /****************************************************************************** 
1355:.\Generated_Source\PSoC4/BLE_1_eventHandler.c **** ##Function Name: CyBle_GapConnUpdateCompleteEventHandler
1356:.\Generated_Source\PSoC4/BLE_1_eventHandler.c **** *******************************************************************************
1357:.\Generated_Source\PSoC4/BLE_1_eventHandler.c **** 
1358:.\Generated_Source\PSoC4/BLE_1_eventHandler.c **** Summary:
1359:.\Generated_Source\PSoC4/BLE_1_eventHandler.c ****  Handles the CYBLE_EVT_GAP_CONNECTION_UPDATE_COMPLETE event from
1360:.\Generated_Source\PSoC4/BLE_1_eventHandler.c ****  the BLE stack.
1361:.\Generated_Source\PSoC4/BLE_1_eventHandler.c **** 
1362:.\Generated_Source\PSoC4/BLE_1_eventHandler.c **** Parameters:
1363:.\Generated_Source\PSoC4/BLE_1_eventHandler.c ****  *eventParam: The pointer to the data structure specified by the event.
1364:.\Generated_Source\PSoC4/BLE_1_eventHandler.c **** 
1365:.\Generated_Source\PSoC4/BLE_1_eventHandler.c **** Return:
1366:.\Generated_Source\PSoC4/BLE_1_eventHandler.c ****  None
1367:.\Generated_Source\PSoC4/BLE_1_eventHandler.c **** 
1368:.\Generated_Source\PSoC4/BLE_1_eventHandler.c **** ******************************************************************************/
1369:.\Generated_Source\PSoC4/BLE_1_eventHandler.c **** static void CyBle_GapConnUpdateCompleteEventHandler(const CYBLE_GAP_CONN_PARAM_UPDATED_IN_CONTROLLE
1370:.\Generated_Source\PSoC4/BLE_1_eventHandler.c **** {
1371:.\Generated_Source\PSoC4/BLE_1_eventHandler.c ****     #ifdef CYBLE_CPS_SERVER
1372:.\Generated_Source\PSoC4/BLE_1_eventHandler.c ****         CyBle_CpssConnUpdateCompleteEventHandler(eventParam);
1373:.\Generated_Source\PSoC4/BLE_1_eventHandler.c ****     #endif /* CYBLE_CPS_SERVER */
1374:.\Generated_Source\PSoC4/BLE_1_eventHandler.c ****     
1375:.\Generated_Source\PSoC4/BLE_1_eventHandler.c ****     /* Unreferenced variable warning workaround */
1376:.\Generated_Source\PSoC4/BLE_1_eventHandler.c ****     if(eventParam != 0u)
1377:.\Generated_Source\PSoC4/BLE_1_eventHandler.c ****     {
1378:.\Generated_Source\PSoC4/BLE_1_eventHandler.c ****     }
1379:.\Generated_Source\PSoC4/BLE_1_eventHandler.c **** }
1380:.\Generated_Source\PSoC4/BLE_1_eventHandler.c **** 
1381:.\Generated_Source\PSoC4/BLE_1_eventHandler.c **** 
1382:.\Generated_Source\PSoC4/BLE_1_eventHandler.c **** /****************************************************************************** 
1383:.\Generated_Source\PSoC4/BLE_1_eventHandler.c **** ##Function Name: CyBle_EventHandler
1384:.\Generated_Source\PSoC4/BLE_1_eventHandler.c **** *******************************************************************************
1385:.\Generated_Source\PSoC4/BLE_1_eventHandler.c **** 
1386:.\Generated_Source\PSoC4/BLE_1_eventHandler.c **** Summary:
1387:.\Generated_Source\PSoC4/BLE_1_eventHandler.c ****  Handles the events from the BLE stack
1388:.\Generated_Source\PSoC4/BLE_1_eventHandler.c **** 
1389:.\Generated_Source\PSoC4/BLE_1_eventHandler.c **** Parameters:
1390:.\Generated_Source\PSoC4/BLE_1_eventHandler.c ****  eventCode:    the event code
1391:.\Generated_Source\PSoC4/BLE_1_eventHandler.c ****  *eventParam:  the event parameters
1392:.\Generated_Source\PSoC4/BLE_1_eventHandler.c **** 
1393:.\Generated_Source\PSoC4/BLE_1_eventHandler.c **** Return:
1394:.\Generated_Source\PSoC4/BLE_1_eventHandler.c ****  None.
1395:.\Generated_Source\PSoC4/BLE_1_eventHandler.c **** 
1396:.\Generated_Source\PSoC4/BLE_1_eventHandler.c **** ******************************************************************************/
ARM GAS  C:\Users\danielpi\AppData\Local\Temp\ccwIrVvL.s 			page 29


1397:.\Generated_Source\PSoC4/BLE_1_eventHandler.c **** void CyBle_EventHandler(uint8 eventCode, void *eventParam)
1398:.\Generated_Source\PSoC4/BLE_1_eventHandler.c **** {
 184              		.loc 1 1398 0
 185              		.cfi_startproc
 186              	.LVL20:
 187 0000 F0B5     		push	{r4, r5, r6, r7, lr}
 188              		.cfi_def_cfa_offset 20
 189              		.cfi_offset 4, -20
 190              		.cfi_offset 5, -16
 191              		.cfi_offset 6, -12
 192              		.cfi_offset 7, -8
 193              		.cfi_offset 14, -4
 194 0002 83B0     		sub	sp, sp, #12
 195              		.cfi_def_cfa_offset 32
 196 0004 041C     		mov	r4, r0
 197 0006 0E1C     		mov	r6, r1
1399:.\Generated_Source\PSoC4/BLE_1_eventHandler.c ****     cyBle_eventHandlerFlag |= CYBLE_CALLBACK;
 198              		.loc 1 1399 0
 199 0008 744B     		ldr	r3, .L39
 200 000a 1D78     		ldrb	r5, [r3]
 201 000c 0122     		mov	r2, #1
 202 000e 2A43     		orr	r2, r5
 203 0010 1A70     		strb	r2, [r3]
1400:.\Generated_Source\PSoC4/BLE_1_eventHandler.c **** 
1401:.\Generated_Source\PSoC4/BLE_1_eventHandler.c ****     /* Common Profile event handling */
1402:.\Generated_Source\PSoC4/BLE_1_eventHandler.c ****     switch(eventCode)
 204              		.loc 1 1402 0
 205 0012 2828     		cmp	r0, #40
 206 0014 76D0     		beq	.L18
 207 0016 0CD8     		bhi	.L19
 208 0018 2128     		cmp	r0, #33
 209 001a 5ED0     		beq	.L20
 210 001c 04D8     		bhi	.L21
 211 001e 0128     		cmp	r0, #1
 212 0020 19D0     		beq	.L22
 213 0022 0528     		cmp	r0, #5
 214 0024 55D0     		beq	.L23
 215 0026 C7E0     		b	.L17
 216              	.L21:
 217 0028 2628     		cmp	r0, #38
 218 002a 6FD0     		beq	.L24
 219 002c 2728     		cmp	r0, #39
 220 002e 65D0     		beq	.L25
 221 0030 C2E0     		b	.L17
 222              	.L19:
 223 0032 4328     		cmp	r0, #67
 224 0034 00D1     		bne	.LCB214
 225 0036 AEE0     		b	.L26	@long jump
 226              	.LCB214:
 227 0038 06D8     		bhi	.L27
 228 003a 4128     		cmp	r0, #65
 229 003c 00D1     		bne	.LCB218
 230 003e 99E0     		b	.L28	@long jump
 231              	.LCB218:
 232 0040 4228     		cmp	r0, #66
 233 0042 00D1     		bne	.LCB220
 234 0044 A4E0     		b	.L29	@long jump
ARM GAS  C:\Users\danielpi\AppData\Local\Temp\ccwIrVvL.s 			page 30


 235              	.LCB220:
 236 0046 B7E0     		b	.L17
 237              	.L27:
 238 0048 4C28     		cmp	r0, #76
 239 004a 00D1     		bne	.LCB226
 240 004c ABE0     		b	.L30	@long jump
 241              	.LCB226:
 242 004e FA28     		cmp	r0, #250
 243 0050 00D1     		bne	.LCB228
 244 0052 ACE0     		b	.L31	@long jump
 245              	.LCB228:
 246 0054 B0E0     		b	.L17
 247              	.L22:
 248              	.LBB3:
1403:.\Generated_Source\PSoC4/BLE_1_eventHandler.c ****     {
1404:.\Generated_Source\PSoC4/BLE_1_eventHandler.c ****         /**********************************************************
1405:.\Generated_Source\PSoC4/BLE_1_eventHandler.c ****         ##General events
1406:.\Generated_Source\PSoC4/BLE_1_eventHandler.c ****         ***********************************************************/
1407:.\Generated_Source\PSoC4/BLE_1_eventHandler.c ****         case CYBLE_EVT_STACK_ON:
1408:.\Generated_Source\PSoC4/BLE_1_eventHandler.c ****         #if(CYBLE_MODE_PROFILE)
1409:.\Generated_Source\PSoC4/BLE_1_eventHandler.c ****         {
1410:.\Generated_Source\PSoC4/BLE_1_eventHandler.c ****             CYBLE_BLESS_PWR_IN_DB_T bleSsPowerLevel;
1411:.\Generated_Source\PSoC4/BLE_1_eventHandler.c ****             
1412:.\Generated_Source\PSoC4/BLE_1_eventHandler.c ****             /* Set Tx Power Level for advertising and connection channels */
1413:.\Generated_Source\PSoC4/BLE_1_eventHandler.c ****             bleSsPowerLevel.blePwrLevelInDbm = CYBLE_TX_POWER_LEVEL_ADV;
 249              		.loc 1 1413 0
 250 0056 01AD     		add	r5, sp, #4
 251 0058 0727     		mov	r7, #7
 252 005a 2F70     		strb	r7, [r5]
1414:.\Generated_Source\PSoC4/BLE_1_eventHandler.c ****             bleSsPowerLevel.bleSsChId = CYBLE_LL_ADV_CH_TYPE;
 253              		.loc 1 1414 0
 254 005c 0023     		mov	r3, #0
 255 005e 6B70     		strb	r3, [r5, #1]
1415:.\Generated_Source\PSoC4/BLE_1_eventHandler.c ****             (void) CyBle_SetTxPowerLevel (&bleSsPowerLevel);
 256              		.loc 1 1415 0
 257 0060 281C     		mov	r0, r5
 258              	.LVL21:
 259 0062 FFF7FEFF 		bl	CyBle_SetTxPowerLevel
 260              	.LVL22:
1416:.\Generated_Source\PSoC4/BLE_1_eventHandler.c ****             bleSsPowerLevel.blePwrLevelInDbm = CYBLE_TX_POWER_LEVEL_CONN;
 261              		.loc 1 1416 0
 262 0066 2F70     		strb	r7, [r5]
1417:.\Generated_Source\PSoC4/BLE_1_eventHandler.c ****             bleSsPowerLevel.bleSsChId = CYBLE_LL_CONN_CH_TYPE;
 263              		.loc 1 1417 0
 264 0068 0123     		mov	r3, #1
 265 006a 6B70     		strb	r3, [r5, #1]
1418:.\Generated_Source\PSoC4/BLE_1_eventHandler.c ****             (void) CyBle_SetTxPowerLevel (&bleSsPowerLevel);
 266              		.loc 1 1418 0
 267 006c 281C     		mov	r0, r5
 268 006e FFF7FEFF 		bl	CyBle_SetTxPowerLevel
 269              	.LVL23:
 270              	.LBE3:
1419:.\Generated_Source\PSoC4/BLE_1_eventHandler.c ****         }
1420:.\Generated_Source\PSoC4/BLE_1_eventHandler.c ****         #endif /* CYBLE_MODE_PROFILE */
1421:.\Generated_Source\PSoC4/BLE_1_eventHandler.c ****         #if (CYBLE_GATT_ROLE_SERVER || CYBLE_GATT_ROLE_CLIENT)
1422:.\Generated_Source\PSoC4/BLE_1_eventHandler.c ****             /* Set device Address  */
1423:.\Generated_Source\PSoC4/BLE_1_eventHandler.c ****             if(CyBle_IsDeviceAddressValid(cyBle_sflashDeviceAddress) != 0u)
ARM GAS  C:\Users\danielpi\AppData\Local\Temp\ccwIrVvL.s 			page 31


 271              		.loc 1 1423 0
 272 0072 5B4B     		ldr	r3, .L39+4
 273 0074 1D68     		ldr	r5, [r3]
 274 0076 281C     		mov	r0, r5
 275 0078 FFF7FEFF 		bl	CyBle_IsDeviceAddressValid
 276              	.LVL24:
 277 007c 0028     		cmp	r0, #0
 278 007e 0CD0     		beq	.L32
1424:.\Generated_Source\PSoC4/BLE_1_eventHandler.c ****             {
1425:.\Generated_Source\PSoC4/BLE_1_eventHandler.c ****                 (void) CyBle_SetDeviceAddress(cyBle_sflashDeviceAddress);
 279              		.loc 1 1425 0
 280 0080 281C     		mov	r0, r5
 281 0082 FFF7FEFF 		bl	CyBle_SetDeviceAddress
 282              	.LVL25:
1426:.\Generated_Source\PSoC4/BLE_1_eventHandler.c ****                 #if(CYBLE_GAP_ROLE_PERIPHERAL || CYBLE_GAP_ROLE_BROADCASTER)
1427:.\Generated_Source\PSoC4/BLE_1_eventHandler.c ****                     CyBle_ChangeAdDeviceAddress(cyBle_sflashDeviceAddress, 0u);
 283              		.loc 1 1427 0
 284 0086 564D     		ldr	r5, .L39+4
 285 0088 2868     		ldr	r0, [r5]
 286 008a 0021     		mov	r1, #0
 287 008c FFF7FEFF 		bl	CyBle_ChangeAdDeviceAddress
 288              	.LVL26:
1428:.\Generated_Source\PSoC4/BLE_1_eventHandler.c ****                     CyBle_ChangeAdDeviceAddress(cyBle_sflashDeviceAddress, 1u);
 289              		.loc 1 1428 0
 290 0090 2868     		ldr	r0, [r5]
 291 0092 0121     		mov	r1, #1
 292 0094 FFF7FEFF 		bl	CyBle_ChangeAdDeviceAddress
 293              	.LVL27:
 294 0098 14E0     		b	.L33
 295              	.L32:
1429:.\Generated_Source\PSoC4/BLE_1_eventHandler.c ****                 #endif /* CYBLE_GAP_ROLE_PERIPHERAL || CYBLE_GAP_ROLE_BROADCASTER */    
1430:.\Generated_Source\PSoC4/BLE_1_eventHandler.c ****             }
1431:.\Generated_Source\PSoC4/BLE_1_eventHandler.c ****             else
1432:.\Generated_Source\PSoC4/BLE_1_eventHandler.c ****             {
1433:.\Generated_Source\PSoC4/BLE_1_eventHandler.c ****             #if (SILICON_GENERATED_DEVICE_ADDRESS != 0u)
1434:.\Generated_Source\PSoC4/BLE_1_eventHandler.c ****                 cyBle_deviceAddress.bdAddr[0] = CYBLE_SFLASH_DIE_X_REG;
 296              		.loc 1 1434 0
 297 009a 524B     		ldr	r3, .L39+8
 298 009c 1B78     		ldrb	r3, [r3]
 299 009e 524D     		ldr	r5, .L39+12
 300 00a0 2B70     		strb	r3, [r5]
1435:.\Generated_Source\PSoC4/BLE_1_eventHandler.c ****                 cyBle_deviceAddress.bdAddr[1] = CYBLE_SFLASH_DIE_Y_REG;
 301              		.loc 1 1435 0
 302 00a2 524B     		ldr	r3, .L39+16
 303 00a4 1B78     		ldrb	r3, [r3]
 304 00a6 6B70     		strb	r3, [r5, #1]
1436:.\Generated_Source\PSoC4/BLE_1_eventHandler.c ****                 cyBle_deviceAddress.bdAddr[2] = CYBLE_SFLASH_DIE_WAFER_REG;
 305              		.loc 1 1436 0
 306 00a8 514B     		ldr	r3, .L39+20
 307 00aa 1B78     		ldrb	r3, [r3]
 308 00ac AB70     		strb	r3, [r5, #2]
1437:.\Generated_Source\PSoC4/BLE_1_eventHandler.c ****             #endif /* SILICON_GENERATED_DEVICE_ADDRESS != 0u */
1438:.\Generated_Source\PSoC4/BLE_1_eventHandler.c ****                 (void) CyBle_SetDeviceAddress(&cyBle_deviceAddress);
 309              		.loc 1 1438 0
 310 00ae 281C     		mov	r0, r5
 311 00b0 FFF7FEFF 		bl	CyBle_SetDeviceAddress
 312              	.LVL28:
ARM GAS  C:\Users\danielpi\AppData\Local\Temp\ccwIrVvL.s 			page 32


1439:.\Generated_Source\PSoC4/BLE_1_eventHandler.c ****                 #if(CYBLE_GAP_ROLE_PERIPHERAL || CYBLE_GAP_ROLE_BROADCASTER)
1440:.\Generated_Source\PSoC4/BLE_1_eventHandler.c ****                     CyBle_ChangeAdDeviceAddress(&cyBle_deviceAddress, 0u);
 313              		.loc 1 1440 0
 314 00b4 281C     		mov	r0, r5
 315 00b6 0021     		mov	r1, #0
 316 00b8 FFF7FEFF 		bl	CyBle_ChangeAdDeviceAddress
 317              	.LVL29:
1441:.\Generated_Source\PSoC4/BLE_1_eventHandler.c ****                     CyBle_ChangeAdDeviceAddress(&cyBle_deviceAddress, 1u);
 318              		.loc 1 1441 0
 319 00bc 281C     		mov	r0, r5
 320 00be 0121     		mov	r1, #1
 321 00c0 FFF7FEFF 		bl	CyBle_ChangeAdDeviceAddress
 322              	.LVL30:
 323              	.L33:
1442:.\Generated_Source\PSoC4/BLE_1_eventHandler.c ****                 #endif /* CYBLE_GAP_ROLE_PERIPHERAL || CYBLE_GAP_ROLE_BROADCASTER */    
1443:.\Generated_Source\PSoC4/BLE_1_eventHandler.c ****             }
1444:.\Generated_Source\PSoC4/BLE_1_eventHandler.c ****             /* Set device IO Capability  */
1445:.\Generated_Source\PSoC4/BLE_1_eventHandler.c ****             (void) CyBle_GapSetIoCap(CYBLE_IO_CAPABILITY);    
 324              		.loc 1 1445 0
 325 00c4 0020     		mov	r0, #0
 326 00c6 FFF7FEFF 		bl	CyBle_GapSetIoCap
 327              	.LVL31:
1446:.\Generated_Source\PSoC4/BLE_1_eventHandler.c ****         #endif /* CYBLE_GATT_ROLE_SERVER || CYBLE_GATT_ROLE_CLIENT */
1447:.\Generated_Source\PSoC4/BLE_1_eventHandler.c ****             CyBle_SetState(CYBLE_STATE_DISCONNECTED);
 328              		.loc 1 1447 0
 329 00ca 0422     		mov	r2, #4
 330 00cc 494B     		ldr	r3, .L39+24
 331 00ce 1A70     		strb	r2, [r3]
1448:.\Generated_Source\PSoC4/BLE_1_eventHandler.c ****             break;
 332              		.loc 1 1448 0
 333 00d0 72E0     		b	.L17
 334              	.LVL32:
 335              	.L23:
1449:.\Generated_Source\PSoC4/BLE_1_eventHandler.c ****         case CYBLE_EVT_TIMEOUT:
1450:.\Generated_Source\PSoC4/BLE_1_eventHandler.c ****             CyBle_TimeOutEventHandler((CYBLE_TO_REASON_CODE_T *)eventParam);
1451:.\Generated_Source\PSoC4/BLE_1_eventHandler.c ****             break;
1452:.\Generated_Source\PSoC4/BLE_1_eventHandler.c ****     	case CYBLE_EVT_STACK_BUSY_STATUS:
1453:.\Generated_Source\PSoC4/BLE_1_eventHandler.c ****             cyBle_busyStatus = *(uint8 *)eventParam;
 336              		.loc 1 1453 0
 337 00d2 0A78     		ldrb	r2, [r1]
 338 00d4 484B     		ldr	r3, .L39+28
 339 00d6 1A70     		strb	r2, [r3]
1454:.\Generated_Source\PSoC4/BLE_1_eventHandler.c ****             break;
 340              		.loc 1 1454 0
 341 00d8 6EE0     		b	.L17
 342              	.L20:
1455:.\Generated_Source\PSoC4/BLE_1_eventHandler.c **** 
1456:.\Generated_Source\PSoC4/BLE_1_eventHandler.c ****         /**********************************************************
1457:.\Generated_Source\PSoC4/BLE_1_eventHandler.c ****         ##GAP events
1458:.\Generated_Source\PSoC4/BLE_1_eventHandler.c ****         ***********************************************************/
1459:.\Generated_Source\PSoC4/BLE_1_eventHandler.c ****         case CYBLE_EVT_GAP_AUTH_REQ:
1460:.\Generated_Source\PSoC4/BLE_1_eventHandler.c ****         #if(CYBLE_MODE_PROFILE)
1461:.\Generated_Source\PSoC4/BLE_1_eventHandler.c ****             if(0u == (cyBle_eventHandlerFlag & CYBLE_DISABLE_AUTOMATIC_AUTH))
 343              		.loc 1 1461 0
 344 00da 404B     		ldr	r3, .L39
 345 00dc 1B78     		ldrb	r3, [r3]
 346 00de 9906     		lsl	r1, r3, #26
ARM GAS  C:\Users\danielpi\AppData\Local\Temp\ccwIrVvL.s 			page 33


 347 00e0 6AD4     		bmi	.L17
 348              	.LVL33:
1462:.\Generated_Source\PSoC4/BLE_1_eventHandler.c ****             {
1463:.\Generated_Source\PSoC4/BLE_1_eventHandler.c ****                 /* If the responding device does not support pairing then the responding 
1464:.\Generated_Source\PSoC4/BLE_1_eventHandler.c ****                    device shall respond using the Pairing Failed message with the error 
1465:.\Generated_Source\PSoC4/BLE_1_eventHandler.c ****                    code "Pairing Not Supported" otherwise it responds with a Pairing 
1466:.\Generated_Source\PSoC4/BLE_1_eventHandler.c ****                    Response message.
1467:.\Generated_Source\PSoC4/BLE_1_eventHandler.c ****                 */
1468:.\Generated_Source\PSoC4/BLE_1_eventHandler.c ****                 if(cyBle_authInfo.security == (CYBLE_GAP_SEC_MODE_1 | CYBLE_GAP_SEC_LEVEL_1))
 349              		.loc 1 1468 0
 350 00e2 464B     		ldr	r3, .L39+32
 351 00e4 1B78     		ldrb	r3, [r3]
 352 00e6 102B     		cmp	r3, #16
 353 00e8 02D1     		bne	.L34
1469:.\Generated_Source\PSoC4/BLE_1_eventHandler.c ****                 {
1470:.\Generated_Source\PSoC4/BLE_1_eventHandler.c ****                     cyBle_authInfo.authErr = CYBLE_GAP_AUTH_ERROR_PAIRING_NOT_SUPPORTED;
 354              		.loc 1 1470 0
 355 00ea 0522     		mov	r2, #5
 356 00ec 434B     		ldr	r3, .L39+32
 357 00ee DA70     		strb	r2, [r3, #3]
 358              	.L34:
1471:.\Generated_Source\PSoC4/BLE_1_eventHandler.c ****                 }    
1472:.\Generated_Source\PSoC4/BLE_1_eventHandler.c ****             #if(CYBLE_GAP_ROLE_PERIPHERAL)
1473:.\Generated_Source\PSoC4/BLE_1_eventHandler.c ****                 (void)CyBle_GappAuthReqReply(cyBle_connHandle.bdHandle, &cyBle_authInfo);
 359              		.loc 1 1473 0
 360 00f0 434B     		ldr	r3, .L39+36
 361 00f2 1878     		ldrb	r0, [r3]
 362              	.LVL34:
 363 00f4 4149     		ldr	r1, .L39+32
 364 00f6 FFF7FEFF 		bl	CyBle_GappAuthReqReply
 365              	.LVL35:
 366 00fa 5DE0     		b	.L17
 367              	.LVL36:
 368              	.L25:
1474:.\Generated_Source\PSoC4/BLE_1_eventHandler.c ****             #endif /* CYBLE_GAP_ROLE_PERIPHERAL */
1475:.\Generated_Source\PSoC4/BLE_1_eventHandler.c ****             #if (CYBLE_GAP_ROLE_CENTRAL)
1476:.\Generated_Source\PSoC4/BLE_1_eventHandler.c ****                 (void)CyBle_GapAuthReq(cyBle_connHandle.bdHandle, &cyBle_authInfo);
1477:.\Generated_Source\PSoC4/BLE_1_eventHandler.c ****             #endif /* CYBLE_GAP_ROLE_CENTRAL */
1478:.\Generated_Source\PSoC4/BLE_1_eventHandler.c ****             }
1479:.\Generated_Source\PSoC4/BLE_1_eventHandler.c ****         #endif /* CYBLE_MODE_PROFILE */
1480:.\Generated_Source\PSoC4/BLE_1_eventHandler.c ****             break;
1481:.\Generated_Source\PSoC4/BLE_1_eventHandler.c **** 
1482:.\Generated_Source\PSoC4/BLE_1_eventHandler.c ****         case CYBLE_EVT_GAP_CONNECTION_UPDATE_COMPLETE:
1483:.\Generated_Source\PSoC4/BLE_1_eventHandler.c ****             CyBle_GapConnUpdateCompleteEventHandler((const CYBLE_GAP_CONN_PARAM_UPDATED_IN_CONTROLL
1484:.\Generated_Source\PSoC4/BLE_1_eventHandler.c ****             break;
1485:.\Generated_Source\PSoC4/BLE_1_eventHandler.c ****             
1486:.\Generated_Source\PSoC4/BLE_1_eventHandler.c ****         case CYBLE_EVT_GAP_DEVICE_CONNECTED:
1487:.\Generated_Source\PSoC4/BLE_1_eventHandler.c ****             CyBle_GapConnUpdateCompleteEventHandler((const CYBLE_GAP_CONN_PARAM_UPDATED_IN_CONTROLL
1488:.\Generated_Source\PSoC4/BLE_1_eventHandler.c ****             #if(CYBLE_GAP_ROLE_CENTRAL)
1489:.\Generated_Source\PSoC4/BLE_1_eventHandler.c ****                 if(cyBle_connectingTimeout != 0u)
1490:.\Generated_Source\PSoC4/BLE_1_eventHandler.c ****                 {
1491:.\Generated_Source\PSoC4/BLE_1_eventHandler.c ****                    (void)CyBle_StopTimer();
1492:.\Generated_Source\PSoC4/BLE_1_eventHandler.c ****                 }
1493:.\Generated_Source\PSoC4/BLE_1_eventHandler.c ****             #endif /* CYBLE_GAP_ROLE_CENTRAL */
1494:.\Generated_Source\PSoC4/BLE_1_eventHandler.c ****             CyBle_SetState(CYBLE_STATE_CONNECTED);
 369              		.loc 1 1494 0
 370 00fc 0222     		mov	r2, #2
ARM GAS  C:\Users\danielpi\AppData\Local\Temp\ccwIrVvL.s 			page 34


 371 00fe 3D4B     		ldr	r3, .L39+24
 372 0100 1A70     		strb	r2, [r3]
1495:.\Generated_Source\PSoC4/BLE_1_eventHandler.c ****             break;
 373              		.loc 1 1495 0
 374 0102 59E0     		b	.L17
 375              	.L18:
1496:.\Generated_Source\PSoC4/BLE_1_eventHandler.c **** 
1497:.\Generated_Source\PSoC4/BLE_1_eventHandler.c ****         case CYBLE_EVT_GAP_DEVICE_DISCONNECTED:
1498:.\Generated_Source\PSoC4/BLE_1_eventHandler.c ****             CyBle_SetState(CYBLE_STATE_DISCONNECTED);
 376              		.loc 1 1498 0
 377 0104 0422     		mov	r2, #4
 378 0106 3B4B     		ldr	r3, .L39+24
 379 0108 1A70     		strb	r2, [r3]
1499:.\Generated_Source\PSoC4/BLE_1_eventHandler.c ****             break;
 380              		.loc 1 1499 0
 381 010a 55E0     		b	.L17
 382              	.L24:
1500:.\Generated_Source\PSoC4/BLE_1_eventHandler.c ****         #if(CYBLE_GAP_ROLE_PERIPHERAL || CYBLE_GAP_ROLE_BROADCASTER)
1501:.\Generated_Source\PSoC4/BLE_1_eventHandler.c ****             
1502:.\Generated_Source\PSoC4/BLE_1_eventHandler.c ****         case CYBLE_EVT_GAPP_ADVERTISEMENT_START_STOP:
1503:.\Generated_Source\PSoC4/BLE_1_eventHandler.c ****             #ifdef CYBLE_CPS_SERVER
1504:.\Generated_Source\PSoC4/BLE_1_eventHandler.c ****                 #if(CYBLE_GAP_ROLE_BROADCASTER)
1505:.\Generated_Source\PSoC4/BLE_1_eventHandler.c ****                     CyBle_CpssAdvertisementStartStopEventHandler();
1506:.\Generated_Source\PSoC4/BLE_1_eventHandler.c ****                 #endif /* CYBLE_GAP_ROLE_BROADCASTER */
1507:.\Generated_Source\PSoC4/BLE_1_eventHandler.c ****             #endif /* CYBLE_CPS_SERVER */
1508:.\Generated_Source\PSoC4/BLE_1_eventHandler.c ****             
1509:.\Generated_Source\PSoC4/BLE_1_eventHandler.c ****             if((CYBLE_STATE_CONNECTED != CyBle_GetState()) && ((cyBle_eventHandlerFlag & CYBLE_CALL
 383              		.loc 1 1509 0
 384 010c 394B     		ldr	r3, .L39+24
 385 010e 1B78     		ldrb	r3, [r3]
 386 0110 022B     		cmp	r3, #2
 387 0112 51D0     		beq	.L17
 388              		.loc 1 1509 0 is_stmt 0 discriminator 1
 389 0114 314A     		ldr	r2, .L39
 390 0116 1278     		ldrb	r2, [r2]
 391 0118 D107     		lsl	r1, r2, #31
 392 011a 4DD5     		bpl	.L17
 393              	.LVL37:
1510:.\Generated_Source\PSoC4/BLE_1_eventHandler.c ****             {
1511:.\Generated_Source\PSoC4/BLE_1_eventHandler.c ****                 /* After CyBle_GappStartAdvertisement first event indicates that advertising has be
1512:.\Generated_Source\PSoC4/BLE_1_eventHandler.c ****                 if(0u != (cyBle_eventHandlerFlag & CYBLE_START_FLAG))
 394              		.loc 1 1512 0 is_stmt 1
 395 011c 2F4A     		ldr	r2, .L39
 396 011e 1278     		ldrb	r2, [r2]
 397 0120 5107     		lsl	r1, r2, #29
 398 0122 08D5     		bpl	.L35
1513:.\Generated_Source\PSoC4/BLE_1_eventHandler.c ****                 {
1514:.\Generated_Source\PSoC4/BLE_1_eventHandler.c ****                     CyBle_SetState(CYBLE_STATE_ADVERTISING);
 399              		.loc 1 1514 0
 400 0124 0322     		mov	r2, #3
 401 0126 334B     		ldr	r3, .L39+24
 402 0128 1A70     		strb	r2, [r3]
1515:.\Generated_Source\PSoC4/BLE_1_eventHandler.c ****                     cyBle_eventHandlerFlag &= (uint8)~CYBLE_START_FLAG;
 403              		.loc 1 1515 0
 404 012a 2C4B     		ldr	r3, .L39
 405 012c 1A78     		ldrb	r2, [r3]
 406 012e 0421     		mov	r1, #4
ARM GAS  C:\Users\danielpi\AppData\Local\Temp\ccwIrVvL.s 			page 35


 407 0130 8A43     		bic	r2, r1
 408 0132 1A70     		strb	r2, [r3]
 409 0134 40E0     		b	.L17
 410              	.L35:
1516:.\Generated_Source\PSoC4/BLE_1_eventHandler.c ****                 }
1517:.\Generated_Source\PSoC4/BLE_1_eventHandler.c ****                 /* When application initiated stop advertisement */
1518:.\Generated_Source\PSoC4/BLE_1_eventHandler.c ****                 else if(0u != (cyBle_eventHandlerFlag & CYBLE_STOP_FLAG))
 411              		.loc 1 1518 0
 412 0136 294A     		ldr	r2, .L39
 413 0138 1278     		ldrb	r2, [r2]
 414 013a 1107     		lsl	r1, r2, #28
 415 013c 08D5     		bpl	.L36
1519:.\Generated_Source\PSoC4/BLE_1_eventHandler.c ****                 {
1520:.\Generated_Source\PSoC4/BLE_1_eventHandler.c ****                     CyBle_SetState(CYBLE_STATE_DISCONNECTED);  
 416              		.loc 1 1520 0
 417 013e 0422     		mov	r2, #4
 418 0140 2C4B     		ldr	r3, .L39+24
 419 0142 1A70     		strb	r2, [r3]
1521:.\Generated_Source\PSoC4/BLE_1_eventHandler.c ****                     cyBle_eventHandlerFlag &= (uint8)~CYBLE_STOP_FLAG;
 420              		.loc 1 1521 0
 421 0144 254B     		ldr	r3, .L39
 422 0146 1A78     		ldrb	r2, [r3]
 423 0148 0821     		mov	r1, #8
 424 014a 8A43     		bic	r2, r1
 425 014c 1A70     		strb	r2, [r3]
 426 014e 33E0     		b	.L17
 427              	.L36:
1522:.\Generated_Source\PSoC4/BLE_1_eventHandler.c ****                 }
1523:.\Generated_Source\PSoC4/BLE_1_eventHandler.c ****                 else /* Following event indicates that advertising has been stopped */
1524:.\Generated_Source\PSoC4/BLE_1_eventHandler.c ****                 {
1525:.\Generated_Source\PSoC4/BLE_1_eventHandler.c ****                     if(CYBLE_STATE_ADVERTISING == CyBle_GetState())
 428              		.loc 1 1525 0
 429 0150 032B     		cmp	r3, #3
 430 0152 31D1     		bne	.L17
1526:.\Generated_Source\PSoC4/BLE_1_eventHandler.c ****                     {
1527:.\Generated_Source\PSoC4/BLE_1_eventHandler.c ****                         CyBle_SetState(CYBLE_STATE_DISCONNECTED);
 431              		.loc 1 1527 0
 432 0154 0422     		mov	r2, #4
 433 0156 274B     		ldr	r3, .L39+24
 434 0158 1A70     		strb	r2, [r3]
1528:.\Generated_Source\PSoC4/BLE_1_eventHandler.c ****                     #if ((CYBLE_SLOW_ADV_ENABLED != 0u) && (CYBLE_FAST_ADV_TIMEOUT != 0u))
1529:.\Generated_Source\PSoC4/BLE_1_eventHandler.c ****                         if(cyBle_advertisingIntervalType == CYBLE_ADVERTISING_FAST)
 435              		.loc 1 1529 0
 436 015a 2A4B     		ldr	r3, .L39+40
 437 015c 1B78     		ldrb	r3, [r3]
 438 015e 002B     		cmp	r3, #0
 439 0160 2AD1     		bne	.L17
1530:.\Generated_Source\PSoC4/BLE_1_eventHandler.c ****                         {
1531:.\Generated_Source\PSoC4/BLE_1_eventHandler.c ****                             /* When fast advertising time out occur: Start slow advertising */
1532:.\Generated_Source\PSoC4/BLE_1_eventHandler.c ****                             if(CYBLE_ERROR_OK == CyBle_GappStartAdvertisement(CYBLE_ADVERTISING_SLO
 440              		.loc 1 1532 0
 441 0162 0120     		mov	r0, #1
 442              	.LVL38:
 443 0164 FFF7FEFF 		bl	CyBle_GappStartAdvertisement
 444              	.LVL39:
 445 0168 0028     		cmp	r0, #0
 446 016a 25D1     		bne	.L17
ARM GAS  C:\Users\danielpi\AppData\Local\Temp\ccwIrVvL.s 			page 36


1533:.\Generated_Source\PSoC4/BLE_1_eventHandler.c ****                             {
1534:.\Generated_Source\PSoC4/BLE_1_eventHandler.c ****                                 CyBle_SetState(CYBLE_STATE_ADVERTISING);
 447              		.loc 1 1534 0
 448 016c 0322     		mov	r2, #3
 449 016e 214B     		ldr	r3, .L39+24
 450 0170 1A70     		strb	r2, [r3]
 451 0172 21E0     		b	.L17
 452              	.LVL40:
 453              	.L28:
1535:.\Generated_Source\PSoC4/BLE_1_eventHandler.c ****                             }
1536:.\Generated_Source\PSoC4/BLE_1_eventHandler.c ****                         }
1537:.\Generated_Source\PSoC4/BLE_1_eventHandler.c ****                     #endif /* CYBLE_SLOW_ADV_ENABLED */
1538:.\Generated_Source\PSoC4/BLE_1_eventHandler.c ****                     }
1539:.\Generated_Source\PSoC4/BLE_1_eventHandler.c ****                 }
1540:.\Generated_Source\PSoC4/BLE_1_eventHandler.c ****             }
1541:.\Generated_Source\PSoC4/BLE_1_eventHandler.c ****             break;
1542:.\Generated_Source\PSoC4/BLE_1_eventHandler.c ****         #endif /* CYBLE_GAP_ROLE_PERIPHERAL || CYBLE_GAP_ROLE_BROADCASTER */
1543:.\Generated_Source\PSoC4/BLE_1_eventHandler.c ****         
1544:.\Generated_Source\PSoC4/BLE_1_eventHandler.c ****         #if(CYBLE_GAP_ROLE_CENTRAL || CYBLE_GAP_ROLE_OBSERVER)    
1545:.\Generated_Source\PSoC4/BLE_1_eventHandler.c ****         case CYBLE_EVT_GAPC_SCAN_START_STOP:
1546:.\Generated_Source\PSoC4/BLE_1_eventHandler.c ****             #ifdef CYBLE_CPS_CLIENT
1547:.\Generated_Source\PSoC4/BLE_1_eventHandler.c ****                 CyBle_CpscScanStartStopEventHandler();
1548:.\Generated_Source\PSoC4/BLE_1_eventHandler.c ****             #endif /* CYBLE_CPS_CLIENT */
1549:.\Generated_Source\PSoC4/BLE_1_eventHandler.c ****             
1550:.\Generated_Source\PSoC4/BLE_1_eventHandler.c ****             if((CYBLE_STATE_CONNECTED != CyBle_GetState()) && ((cyBle_eventHandlerFlag & CYBLE_CALL
1551:.\Generated_Source\PSoC4/BLE_1_eventHandler.c ****             {
1552:.\Generated_Source\PSoC4/BLE_1_eventHandler.c ****                 /* After CyBle_GapcStartScan first event indicates that scanning has been started *
1553:.\Generated_Source\PSoC4/BLE_1_eventHandler.c ****                 if(0u != (cyBle_eventHandlerFlag & CYBLE_START_FLAG))
1554:.\Generated_Source\PSoC4/BLE_1_eventHandler.c ****                 {
1555:.\Generated_Source\PSoC4/BLE_1_eventHandler.c ****                     CyBle_SetState(CYBLE_STATE_SCANNING);
1556:.\Generated_Source\PSoC4/BLE_1_eventHandler.c ****                     cyBle_eventHandlerFlag &= (uint8)~CYBLE_START_FLAG;
1557:.\Generated_Source\PSoC4/BLE_1_eventHandler.c ****                 }
1558:.\Generated_Source\PSoC4/BLE_1_eventHandler.c ****                 /* When application initiated stop scanning */
1559:.\Generated_Source\PSoC4/BLE_1_eventHandler.c ****                 else if(0u != (cyBle_eventHandlerFlag & CYBLE_STOP_FLAG))
1560:.\Generated_Source\PSoC4/BLE_1_eventHandler.c ****                 {
1561:.\Generated_Source\PSoC4/BLE_1_eventHandler.c ****                     CyBle_SetState(CYBLE_STATE_DISCONNECTED);  
1562:.\Generated_Source\PSoC4/BLE_1_eventHandler.c ****                     cyBle_eventHandlerFlag &= (uint8)~CYBLE_STOP_FLAG;
1563:.\Generated_Source\PSoC4/BLE_1_eventHandler.c ****                 }
1564:.\Generated_Source\PSoC4/BLE_1_eventHandler.c ****                 else /* Following event indicates that scanning has been stopped by stack */
1565:.\Generated_Source\PSoC4/BLE_1_eventHandler.c ****                 {
1566:.\Generated_Source\PSoC4/BLE_1_eventHandler.c ****                     if(CYBLE_STATE_SCANNING == CyBle_GetState())
1567:.\Generated_Source\PSoC4/BLE_1_eventHandler.c ****                     {
1568:.\Generated_Source\PSoC4/BLE_1_eventHandler.c ****                         CyBle_SetState(CYBLE_STATE_DISCONNECTED);  
1569:.\Generated_Source\PSoC4/BLE_1_eventHandler.c ****                     #if ((CYBLE_SLOW_SCAN_ENABLED != 0u) && (CYBLE_FAST_SCAN_TIMEOUT != 0u))
1570:.\Generated_Source\PSoC4/BLE_1_eventHandler.c ****                         if(cyBle_scanningIntervalType == CYBLE_SCANNING_FAST)
1571:.\Generated_Source\PSoC4/BLE_1_eventHandler.c ****                         {
1572:.\Generated_Source\PSoC4/BLE_1_eventHandler.c ****                             /* When fast scanning time out occur: Start slow scanning */
1573:.\Generated_Source\PSoC4/BLE_1_eventHandler.c ****                             if(CYBLE_ERROR_OK == CyBle_GapcStartScan(CYBLE_SCANNING_SLOW))
1574:.\Generated_Source\PSoC4/BLE_1_eventHandler.c ****                             {
1575:.\Generated_Source\PSoC4/BLE_1_eventHandler.c ****                                 CyBle_SetState(CYBLE_STATE_SCANNING);
1576:.\Generated_Source\PSoC4/BLE_1_eventHandler.c ****                             }
1577:.\Generated_Source\PSoC4/BLE_1_eventHandler.c ****                         }
1578:.\Generated_Source\PSoC4/BLE_1_eventHandler.c ****                     #endif /* CYBLE_SLOW_SCAN_ENABLED */
1579:.\Generated_Source\PSoC4/BLE_1_eventHandler.c ****                     }
1580:.\Generated_Source\PSoC4/BLE_1_eventHandler.c ****                 }
1581:.\Generated_Source\PSoC4/BLE_1_eventHandler.c ****             }
1582:.\Generated_Source\PSoC4/BLE_1_eventHandler.c ****             break;
ARM GAS  C:\Users\danielpi\AppData\Local\Temp\ccwIrVvL.s 			page 37


1583:.\Generated_Source\PSoC4/BLE_1_eventHandler.c ****         #endif /* CYBLE_GAP_ROLE_CENTRAL || CYBLE_GAP_ROLE_OBSERVER */
1584:.\Generated_Source\PSoC4/BLE_1_eventHandler.c **** 
1585:.\Generated_Source\PSoC4/BLE_1_eventHandler.c ****         /**********************************************************
1586:.\Generated_Source\PSoC4/BLE_1_eventHandler.c ****         ##L2AP events 
1587:.\Generated_Source\PSoC4/BLE_1_eventHandler.c ****         ***********************************************************/
1588:.\Generated_Source\PSoC4/BLE_1_eventHandler.c ****         case CYBLE_EVT_L2CAP_CONN_PARAM_UPDATE_RSP:
1589:.\Generated_Source\PSoC4/BLE_1_eventHandler.c ****             CyBle_L2Cap_ConnParamUpdateRspEventHandler(*(uint16 *)eventParam);
1590:.\Generated_Source\PSoC4/BLE_1_eventHandler.c ****             break;
1591:.\Generated_Source\PSoC4/BLE_1_eventHandler.c ****         
1592:.\Generated_Source\PSoC4/BLE_1_eventHandler.c ****         /**********************************************************
1593:.\Generated_Source\PSoC4/BLE_1_eventHandler.c ****         ##GATT events
1594:.\Generated_Source\PSoC4/BLE_1_eventHandler.c ****         ***********************************************************/        
1595:.\Generated_Source\PSoC4/BLE_1_eventHandler.c ****         case CYBLE_EVT_GATT_CONNECT_IND:
1596:.\Generated_Source\PSoC4/BLE_1_eventHandler.c ****             cyBle_connHandle = *(CYBLE_CONN_HANDLE_T *)eventParam;
 454              		.loc 1 1596 0
 455 0174 224D     		ldr	r5, .L39+36
 456 0176 281C     		mov	r0, r5
 457              	.LVL41:
 458 0178 0222     		mov	r2, #2
 459 017a FFF7FEFF 		bl	memcpy
 460              	.LVL42:
1597:.\Generated_Source\PSoC4/BLE_1_eventHandler.c ****             
1598:.\Generated_Source\PSoC4/BLE_1_eventHandler.c ****         #if((CYBLE_GATT_ROLE_SERVER) && (CYBLE_GATT_DB_CCCD_COUNT != 0u))
1599:.\Generated_Source\PSoC4/BLE_1_eventHandler.c ****             /* Init CCCD values in RAM */
1600:.\Generated_Source\PSoC4/BLE_1_eventHandler.c ****         	(void) memcpy (cyBle_attValuesCCCD, cyBle_attValuesCCCDFlashMemory[cyBle_connHandle.bdHand
 461              		.loc 1 1600 0
 462 017e 2978     		ldrb	r1, [r5]
 463 0180 8900     		lsl	r1, r1, #2
 464 0182 214B     		ldr	r3, .L39+44
 465 0184 5918     		add	r1, r3, r1
 466 0186 2148     		ldr	r0, .L39+48
 467 0188 0422     		mov	r2, #4
 468 018a FFF7FEFF 		bl	memcpy
 469              	.LVL43:
1601:.\Generated_Source\PSoC4/BLE_1_eventHandler.c ****                             CYBLE_GATT_DB_CCCD_COUNT);
1602:.\Generated_Source\PSoC4/BLE_1_eventHandler.c ****         #endif /* CYBLE_GATT_ROLE_SERVER */
1603:.\Generated_Source\PSoC4/BLE_1_eventHandler.c ****         
1604:.\Generated_Source\PSoC4/BLE_1_eventHandler.c ****         #if (CYBLE_GATT_ROLE_CLIENT)
1605:.\Generated_Source\PSoC4/BLE_1_eventHandler.c ****             CyBle_SetClientState(CYBLE_CLIENT_STATE_CONNECTED);
1606:.\Generated_Source\PSoC4/BLE_1_eventHandler.c ****         #endif /* CYBLE_GATT_ROLE_CLIENT */
1607:.\Generated_Source\PSoC4/BLE_1_eventHandler.c ****         
1608:.\Generated_Source\PSoC4/BLE_1_eventHandler.c ****             CyBle_GattConnectReqHandler();
1609:.\Generated_Source\PSoC4/BLE_1_eventHandler.c ****             break;
 470              		.loc 1 1609 0
 471 018e 13E0     		b	.L17
 472              	.LVL44:
 473              	.L29:
1610:.\Generated_Source\PSoC4/BLE_1_eventHandler.c **** 
1611:.\Generated_Source\PSoC4/BLE_1_eventHandler.c ****         case CYBLE_EVT_GATT_DISCONNECT_IND:
1612:.\Generated_Source\PSoC4/BLE_1_eventHandler.c ****             CyBle_GattDisconnectEventHandler();
 474              		.loc 1 1612 0
 475 0190 FFF7FEFF 		bl	CyBle_GattDisconnectEventHandler
 476              	.LVL45:
1613:.\Generated_Source\PSoC4/BLE_1_eventHandler.c ****             break;
 477              		.loc 1 1613 0
 478 0194 10E0     		b	.L17
 479              	.LVL46:
ARM GAS  C:\Users\danielpi\AppData\Local\Temp\ccwIrVvL.s 			page 38


 480              	.L26:
 481              	.LBB4:
1614:.\Generated_Source\PSoC4/BLE_1_eventHandler.c **** 
1615:.\Generated_Source\PSoC4/BLE_1_eventHandler.c ****     #if((CYBLE_GATT_ROLE_SERVER) || (CYBLE_GATT_ROLE_CLIENT))
1616:.\Generated_Source\PSoC4/BLE_1_eventHandler.c ****         case CYBLE_EVT_GATTS_XCNHG_MTU_REQ:
1617:.\Generated_Source\PSoC4/BLE_1_eventHandler.c ****             {
1618:.\Generated_Source\PSoC4/BLE_1_eventHandler.c ****                 uint16 cyBle_mtuSize;
1619:.\Generated_Source\PSoC4/BLE_1_eventHandler.c ****                 if(CYBLE_GATT_MTU > ((CYBLE_GATT_XCHG_MTU_PARAM_T *)eventParam)->mtu)
 482              		.loc 1 1619 0
 483 0196 4988     		ldrh	r1, [r1, #2]
 484              	.LVL47:
 485 0198 1629     		cmp	r1, #22
 486 019a 00D9     		bls	.L37
1620:.\Generated_Source\PSoC4/BLE_1_eventHandler.c ****                 {
1621:.\Generated_Source\PSoC4/BLE_1_eventHandler.c ****                     cyBle_mtuSize = ((CYBLE_GATT_XCHG_MTU_PARAM_T *)eventParam)->mtu;
1622:.\Generated_Source\PSoC4/BLE_1_eventHandler.c ****                 }
1623:.\Generated_Source\PSoC4/BLE_1_eventHandler.c ****                 else
1624:.\Generated_Source\PSoC4/BLE_1_eventHandler.c ****                 {
1625:.\Generated_Source\PSoC4/BLE_1_eventHandler.c ****                     cyBle_mtuSize = CYBLE_GATT_MTU;
 487              		.loc 1 1625 0
 488 019c 1721     		mov	r1, #23
 489              	.L37:
 490              	.LVL48:
1626:.\Generated_Source\PSoC4/BLE_1_eventHandler.c ****                 }
1627:.\Generated_Source\PSoC4/BLE_1_eventHandler.c ****                 (void)CyBle_GattsExchangeMtuRsp(((CYBLE_GATT_XCHG_MTU_PARAM_T *)eventParam)->connHa
 491              		.loc 1 1627 0
 492 019e 3088     		ldrh	r0, [r6]
 493              	.LVL49:
 494 01a0 FFF7FEFF 		bl	CyBle_GattsExchangeMtuRsp
 495              	.LVL50:
 496              	.LBE4:
1628:.\Generated_Source\PSoC4/BLE_1_eventHandler.c ****             }
1629:.\Generated_Source\PSoC4/BLE_1_eventHandler.c ****             break;
 497              		.loc 1 1629 0
 498 01a4 08E0     		b	.L17
 499              	.LVL51:
 500              	.L30:
1630:.\Generated_Source\PSoC4/BLE_1_eventHandler.c ****     #endif /* CYBLE_GATT_ROLE_SERVER || CYBLE_GATT_ROLE_CLIENT */
1631:.\Generated_Source\PSoC4/BLE_1_eventHandler.c ****     
1632:.\Generated_Source\PSoC4/BLE_1_eventHandler.c ****     #if (CYBLE_GATT_ROLE_CLIENT)
1633:.\Generated_Source\PSoC4/BLE_1_eventHandler.c ****         case CYBLE_EVT_GAPC_SCAN_PROGRESS_RESULT:
1634:.\Generated_Source\PSoC4/BLE_1_eventHandler.c ****         #ifdef CYBLE_CPS_CLIENT
1635:.\Generated_Source\PSoC4/BLE_1_eventHandler.c ****                 CyBle_CpscScanProcessEventHandler((CYBLE_GAPC_ADV_REPORT_T *)eventParam);
1636:.\Generated_Source\PSoC4/BLE_1_eventHandler.c ****         #endif /* CYBLE_CPS_CLIENT */
1637:.\Generated_Source\PSoC4/BLE_1_eventHandler.c ****             break;
1638:.\Generated_Source\PSoC4/BLE_1_eventHandler.c ****     #endif /* CYBLE_GATT_ROLE_CLIENT */
1639:.\Generated_Source\PSoC4/BLE_1_eventHandler.c **** 
1640:.\Generated_Source\PSoC4/BLE_1_eventHandler.c ****     #if(CYBLE_GATT_ROLE_SERVER)
1641:.\Generated_Source\PSoC4/BLE_1_eventHandler.c ****         case CYBLE_EVT_GATTS_WRITE_REQ:
1642:.\Generated_Source\PSoC4/BLE_1_eventHandler.c ****             CyBle_WriteReqHandler((CYBLE_GATTS_WRITE_REQ_PARAM_T *)eventParam);
 501              		.loc 1 1642 0
 502 01a6 081C     		mov	r0, r1
 503              	.LVL52:
 504 01a8 FFF7FEFF 		bl	CyBle_WriteReqHandler
 505              	.LVL53:
1643:.\Generated_Source\PSoC4/BLE_1_eventHandler.c ****             break;
 506              		.loc 1 1643 0
ARM GAS  C:\Users\danielpi\AppData\Local\Temp\ccwIrVvL.s 			page 39


 507 01ac 04E0     		b	.L17
 508              	.LVL54:
 509              	.L31:
1644:.\Generated_Source\PSoC4/BLE_1_eventHandler.c **** 
1645:.\Generated_Source\PSoC4/BLE_1_eventHandler.c ****         case CYBLE_EVT_GATTS_WRITE_CMD_REQ:
1646:.\Generated_Source\PSoC4/BLE_1_eventHandler.c ****         #ifdef CYBLE_IAS_SERVER
1647:.\Generated_Source\PSoC4/BLE_1_eventHandler.c ****             if((cyBle_eventHandlerFlag & CYBLE_CALLBACK) != 0u)
1648:.\Generated_Source\PSoC4/BLE_1_eventHandler.c ****             {
1649:.\Generated_Source\PSoC4/BLE_1_eventHandler.c ****                 (void)CyBle_IassWriteCmdEventHandler((CYBLE_GATTS_WRITE_REQ_PARAM_T *)eventParam);
1650:.\Generated_Source\PSoC4/BLE_1_eventHandler.c ****             }
1651:.\Generated_Source\PSoC4/BLE_1_eventHandler.c ****         #endif /* CYBLE_IAS_SERVER */
1652:.\Generated_Source\PSoC4/BLE_1_eventHandler.c ****         #ifdef CYBLE_HIDS_SERVER
1653:.\Generated_Source\PSoC4/BLE_1_eventHandler.c ****             if((cyBle_eventHandlerFlag & CYBLE_CALLBACK) != 0u)
1654:.\Generated_Source\PSoC4/BLE_1_eventHandler.c ****             {
1655:.\Generated_Source\PSoC4/BLE_1_eventHandler.c ****                 (void)CyBle_HidssWriteEventHandler((CYBLE_GATTS_WRITE_REQ_PARAM_T *)eventParam);
1656:.\Generated_Source\PSoC4/BLE_1_eventHandler.c ****             }
1657:.\Generated_Source\PSoC4/BLE_1_eventHandler.c ****         #endif /* CYBLE_HIDS_SERVER */
1658:.\Generated_Source\PSoC4/BLE_1_eventHandler.c ****         #ifdef CYBLE_PASS_SERVER
1659:.\Generated_Source\PSoC4/BLE_1_eventHandler.c ****             if((cyBle_eventHandlerFlag & CYBLE_CALLBACK) != 0u)
1660:.\Generated_Source\PSoC4/BLE_1_eventHandler.c ****             {
1661:.\Generated_Source\PSoC4/BLE_1_eventHandler.c ****                 (void)CyBle_PasssWriteCmdEventHandler((CYBLE_GATTS_WRITE_REQ_PARAM_T *)eventParam);
1662:.\Generated_Source\PSoC4/BLE_1_eventHandler.c ****             }
1663:.\Generated_Source\PSoC4/BLE_1_eventHandler.c ****         #endif /* CYBLE_PASS_SERVER */
1664:.\Generated_Source\PSoC4/BLE_1_eventHandler.c ****         #ifdef CYBLE_RTUS_SERVER
1665:.\Generated_Source\PSoC4/BLE_1_eventHandler.c ****             if((cyBle_eventHandlerFlag & CYBLE_CALLBACK) != 0u)
1666:.\Generated_Source\PSoC4/BLE_1_eventHandler.c ****             {
1667:.\Generated_Source\PSoC4/BLE_1_eventHandler.c ****                 (void)CyBle_RtussWriteCmdEventHandler((CYBLE_GATTS_WRITE_REQ_PARAM_T *)eventParam);
1668:.\Generated_Source\PSoC4/BLE_1_eventHandler.c ****             }
1669:.\Generated_Source\PSoC4/BLE_1_eventHandler.c ****         #endif /* CYBLE_RTUS_SERVER */
1670:.\Generated_Source\PSoC4/BLE_1_eventHandler.c ****         #ifdef CYBLE_SCPS_SERVER
1671:.\Generated_Source\PSoC4/BLE_1_eventHandler.c ****             if((cyBle_eventHandlerFlag & CYBLE_CALLBACK) != 0u)
1672:.\Generated_Source\PSoC4/BLE_1_eventHandler.c ****             {
1673:.\Generated_Source\PSoC4/BLE_1_eventHandler.c ****                 (void)CyBle_ScpssWriteEventHandler((CYBLE_GATTS_WRITE_REQ_PARAM_T *)eventParam);
1674:.\Generated_Source\PSoC4/BLE_1_eventHandler.c ****             }
1675:.\Generated_Source\PSoC4/BLE_1_eventHandler.c ****         #endif /* CYBLE_SCPS_SERVER */
1676:.\Generated_Source\PSoC4/BLE_1_eventHandler.c ****             break;
1677:.\Generated_Source\PSoC4/BLE_1_eventHandler.c ****         
1678:.\Generated_Source\PSoC4/BLE_1_eventHandler.c ****         case CYBLE_EVT_GATTS_PREP_WRITE_REQ:
1679:.\Generated_Source\PSoC4/BLE_1_eventHandler.c ****         #ifdef CYBLE_BMS_SERVER
1680:.\Generated_Source\PSoC4/BLE_1_eventHandler.c ****             CyBle_BmssPrepareWriteRequestEventHandler((CYBLE_GATTS_PREP_WRITE_REQ_PARAM_T *)eventPa
1681:.\Generated_Source\PSoC4/BLE_1_eventHandler.c ****         #endif /* CYBLE_BMS_SERVER */
1682:.\Generated_Source\PSoC4/BLE_1_eventHandler.c ****         #ifdef CYBLE_BTS_SERVER
1683:.\Generated_Source\PSoC4/BLE_1_eventHandler.c ****             if((cyBle_eventHandlerFlag & CYBLE_CALLBACK) != 0u)
1684:.\Generated_Source\PSoC4/BLE_1_eventHandler.c ****             {
1685:.\Generated_Source\PSoC4/BLE_1_eventHandler.c ****                 CyBle_BtssPrepareWriteRequestEventHandler((CYBLE_GATTS_PREP_WRITE_REQ_PARAM_T *)eve
1686:.\Generated_Source\PSoC4/BLE_1_eventHandler.c ****             }
1687:.\Generated_Source\PSoC4/BLE_1_eventHandler.c ****         #endif /* CYBLE_BTS_SERVER */
1688:.\Generated_Source\PSoC4/BLE_1_eventHandler.c ****         #ifdef CYBLE_ESS_SERVER
1689:.\Generated_Source\PSoC4/BLE_1_eventHandler.c ****             if((cyBle_eventHandlerFlag & CYBLE_CALLBACK) != 0u)
1690:.\Generated_Source\PSoC4/BLE_1_eventHandler.c ****             {
1691:.\Generated_Source\PSoC4/BLE_1_eventHandler.c ****                 CyBle_EsssPrepareWriteRequestEventHandler((CYBLE_GATTS_PREP_WRITE_REQ_PARAM_T *)eve
1692:.\Generated_Source\PSoC4/BLE_1_eventHandler.c ****             }
1693:.\Generated_Source\PSoC4/BLE_1_eventHandler.c ****         #endif /* CYBLE_ESS_SERVER */
1694:.\Generated_Source\PSoC4/BLE_1_eventHandler.c **** 		#ifdef CYBLE_UDS_SERVER
1695:.\Generated_Source\PSoC4/BLE_1_eventHandler.c ****             if((cyBle_eventHandlerFlag & CYBLE_CALLBACK) != 0u)
1696:.\Generated_Source\PSoC4/BLE_1_eventHandler.c ****             {
1697:.\Generated_Source\PSoC4/BLE_1_eventHandler.c ****                 CyBle_UdssPrepareWriteRequestEventHandler((CYBLE_GATTS_PREP_WRITE_REQ_PARAM_T *)eve
ARM GAS  C:\Users\danielpi\AppData\Local\Temp\ccwIrVvL.s 			page 40


1698:.\Generated_Source\PSoC4/BLE_1_eventHandler.c ****             }
1699:.\Generated_Source\PSoC4/BLE_1_eventHandler.c ****         #endif /* CYBLE_UDS_SERVER */
1700:.\Generated_Source\PSoC4/BLE_1_eventHandler.c ****             break;
1701:.\Generated_Source\PSoC4/BLE_1_eventHandler.c **** 
1702:.\Generated_Source\PSoC4/BLE_1_eventHandler.c ****         case CYBLE_EVT_GATTS_EXEC_WRITE_REQ:
1703:.\Generated_Source\PSoC4/BLE_1_eventHandler.c ****         #ifdef CYBLE_BMS_SERVER
1704:.\Generated_Source\PSoC4/BLE_1_eventHandler.c ****             CyBle_BmssExecuteWriteRequestEventHandler((CYBLE_GATTS_EXEC_WRITE_REQ_T *)eventParam);
1705:.\Generated_Source\PSoC4/BLE_1_eventHandler.c ****         #endif /* CYBLE_BMS_SERVER */
1706:.\Generated_Source\PSoC4/BLE_1_eventHandler.c ****         #ifdef CYBLE_BTS_SERVER
1707:.\Generated_Source\PSoC4/BLE_1_eventHandler.c ****             if((cyBle_eventHandlerFlag & CYBLE_CALLBACK) != 0u)
1708:.\Generated_Source\PSoC4/BLE_1_eventHandler.c ****             {
1709:.\Generated_Source\PSoC4/BLE_1_eventHandler.c ****                 CyBle_BtssExecuteWriteRequestEventHandler((CYBLE_GATTS_EXEC_WRITE_REQ_T *)eventPara
1710:.\Generated_Source\PSoC4/BLE_1_eventHandler.c ****             }
1711:.\Generated_Source\PSoC4/BLE_1_eventHandler.c ****         #endif /* CYBLE_BTS_SERVER */
1712:.\Generated_Source\PSoC4/BLE_1_eventHandler.c ****         #ifdef CYBLE_ESS_SERVER
1713:.\Generated_Source\PSoC4/BLE_1_eventHandler.c ****             if((cyBle_eventHandlerFlag & CYBLE_CALLBACK) != 0u)
1714:.\Generated_Source\PSoC4/BLE_1_eventHandler.c ****             {
1715:.\Generated_Source\PSoC4/BLE_1_eventHandler.c ****                 CyBle_EsssExecuteWriteRequestEventHandler((CYBLE_GATTS_EXEC_WRITE_REQ_T *)eventPara
1716:.\Generated_Source\PSoC4/BLE_1_eventHandler.c ****             }
1717:.\Generated_Source\PSoC4/BLE_1_eventHandler.c ****         #endif /* CYBLE_ESS_SERVER */
1718:.\Generated_Source\PSoC4/BLE_1_eventHandler.c **** 		#ifdef CYBLE_UDS_SERVER
1719:.\Generated_Source\PSoC4/BLE_1_eventHandler.c ****             if((cyBle_eventHandlerFlag & CYBLE_CALLBACK) != 0u)
1720:.\Generated_Source\PSoC4/BLE_1_eventHandler.c ****             {
1721:.\Generated_Source\PSoC4/BLE_1_eventHandler.c ****                 CyBle_UdssExecuteWriteRequestEventHandler((CYBLE_GATTS_EXEC_WRITE_REQ_T *)eventPara
1722:.\Generated_Source\PSoC4/BLE_1_eventHandler.c ****             }
1723:.\Generated_Source\PSoC4/BLE_1_eventHandler.c ****         #endif /* CYBLE_UDS_SERVER */
1724:.\Generated_Source\PSoC4/BLE_1_eventHandler.c ****             break;
1725:.\Generated_Source\PSoC4/BLE_1_eventHandler.c ****         
1726:.\Generated_Source\PSoC4/BLE_1_eventHandler.c ****         case CYBLE_EVT_GATTS_HANDLE_VALUE_CNF:
1727:.\Generated_Source\PSoC4/BLE_1_eventHandler.c ****             CyBle_ValueConfirmation((CYBLE_CONN_HANDLE_T *)eventParam);
1728:.\Generated_Source\PSoC4/BLE_1_eventHandler.c ****             break;
1729:.\Generated_Source\PSoC4/BLE_1_eventHandler.c ****             
1730:.\Generated_Source\PSoC4/BLE_1_eventHandler.c ****         case CYBLE_EVT_GATTS_READ_CHAR_VAL_ACCESS_REQ:
1731:.\Generated_Source\PSoC4/BLE_1_eventHandler.c ****         #ifdef CYBLE_UDS_SERVER
1732:.\Generated_Source\PSoC4/BLE_1_eventHandler.c ****             CyBle_UdssReadRequestEventHandler((CYBLE_GATTS_CHAR_VAL_READ_REQ_T *)eventParam);
1733:.\Generated_Source\PSoC4/BLE_1_eventHandler.c ****         #endif /* CYBLE_UDS_SERVER */
1734:.\Generated_Source\PSoC4/BLE_1_eventHandler.c ****             break;
1735:.\Generated_Source\PSoC4/BLE_1_eventHandler.c ****             
1736:.\Generated_Source\PSoC4/BLE_1_eventHandler.c ****     #endif /* CYBLE_GATT_ROLE_SERVER */
1737:.\Generated_Source\PSoC4/BLE_1_eventHandler.c **** 
1738:.\Generated_Source\PSoC4/BLE_1_eventHandler.c ****     #if (CYBLE_GATT_ROLE_CLIENT)
1739:.\Generated_Source\PSoC4/BLE_1_eventHandler.c ****         
1740:.\Generated_Source\PSoC4/BLE_1_eventHandler.c ****         case CYBLE_EVT_GATTC_READ_BY_GROUP_TYPE_RSP:
1741:.\Generated_Source\PSoC4/BLE_1_eventHandler.c ****             CyBle_ReadByGroupEventHandler((CYBLE_GATTC_READ_BY_GRP_RSP_PARAM_T *)eventParam);
1742:.\Generated_Source\PSoC4/BLE_1_eventHandler.c ****             break;
1743:.\Generated_Source\PSoC4/BLE_1_eventHandler.c **** 
1744:.\Generated_Source\PSoC4/BLE_1_eventHandler.c ****         case CYBLE_EVT_GATTC_READ_BY_TYPE_RSP:
1745:.\Generated_Source\PSoC4/BLE_1_eventHandler.c ****             CyBle_ReadByTypeEventHandler((CYBLE_GATTC_READ_BY_TYPE_RSP_PARAM_T *)eventParam);
1746:.\Generated_Source\PSoC4/BLE_1_eventHandler.c ****             break;
1747:.\Generated_Source\PSoC4/BLE_1_eventHandler.c **** 
1748:.\Generated_Source\PSoC4/BLE_1_eventHandler.c ****         case CYBLE_EVT_GATTC_READ_BLOB_RSP:
1749:.\Generated_Source\PSoC4/BLE_1_eventHandler.c ****         #ifdef CYBLE_ESS_CLIENT
1750:.\Generated_Source\PSoC4/BLE_1_eventHandler.c ****             CyBle_EsscReadLongRespEventHandler((CYBLE_GATTC_READ_RSP_PARAM_T *)eventParam);
1751:.\Generated_Source\PSoC4/BLE_1_eventHandler.c ****         #endif /* CYBLE_ESS_CLIENT */
1752:.\Generated_Source\PSoC4/BLE_1_eventHandler.c ****             break;
1753:.\Generated_Source\PSoC4/BLE_1_eventHandler.c ****         
1754:.\Generated_Source\PSoC4/BLE_1_eventHandler.c ****         case CYBLE_EVT_GATTC_FIND_INFO_RSP:
ARM GAS  C:\Users\danielpi\AppData\Local\Temp\ccwIrVvL.s 			page 41


1755:.\Generated_Source\PSoC4/BLE_1_eventHandler.c ****             CyBle_FindInfoEventHandler((CYBLE_GATTC_FIND_INFO_RSP_PARAM_T *)eventParam);
1756:.\Generated_Source\PSoC4/BLE_1_eventHandler.c ****             break;
1757:.\Generated_Source\PSoC4/BLE_1_eventHandler.c **** 
1758:.\Generated_Source\PSoC4/BLE_1_eventHandler.c ****         case CYBLE_EVT_GATTC_ERROR_RSP:
1759:.\Generated_Source\PSoC4/BLE_1_eventHandler.c ****             CyBle_ErrorResponseEventHandler((CYBLE_GATTC_ERR_RSP_PARAM_T *)eventParam);
1760:.\Generated_Source\PSoC4/BLE_1_eventHandler.c ****             break;
1761:.\Generated_Source\PSoC4/BLE_1_eventHandler.c **** 
1762:.\Generated_Source\PSoC4/BLE_1_eventHandler.c ****         case CYBLE_EVT_GATTC_HANDLE_VALUE_NTF:
1763:.\Generated_Source\PSoC4/BLE_1_eventHandler.c ****             CyBle_NotificationEventHandler((CYBLE_GATTC_HANDLE_VALUE_NTF_PARAM_T *)eventParam);
1764:.\Generated_Source\PSoC4/BLE_1_eventHandler.c ****             break;
1765:.\Generated_Source\PSoC4/BLE_1_eventHandler.c **** 
1766:.\Generated_Source\PSoC4/BLE_1_eventHandler.c ****         case CYBLE_EVT_GATTC_HANDLE_VALUE_IND:
1767:.\Generated_Source\PSoC4/BLE_1_eventHandler.c ****             CyBle_GattcIndicationEventHandler((CYBLE_GATTC_HANDLE_VALUE_IND_PARAM_T *)eventParam);
1768:.\Generated_Source\PSoC4/BLE_1_eventHandler.c ****             CyBle_IndicationEventHandler((CYBLE_GATTC_HANDLE_VALUE_IND_PARAM_T *)eventParam);
1769:.\Generated_Source\PSoC4/BLE_1_eventHandler.c ****         
1770:.\Generated_Source\PSoC4/BLE_1_eventHandler.c ****             /* Respond with a Handle Value Confirmation when request handled */
1771:.\Generated_Source\PSoC4/BLE_1_eventHandler.c ****             if((cyBle_eventHandlerFlag & CYBLE_CALLBACK) == 0u)
1772:.\Generated_Source\PSoC4/BLE_1_eventHandler.c ****             {
1773:.\Generated_Source\PSoC4/BLE_1_eventHandler.c ****                 (void)CyBle_GattcConfirmation(((CYBLE_GATTC_HANDLE_VALUE_IND_PARAM_T *)eventParam)-
1774:.\Generated_Source\PSoC4/BLE_1_eventHandler.c ****             }
1775:.\Generated_Source\PSoC4/BLE_1_eventHandler.c ****             break;
1776:.\Generated_Source\PSoC4/BLE_1_eventHandler.c ****         
1777:.\Generated_Source\PSoC4/BLE_1_eventHandler.c ****         case CYBLE_EVT_GATTC_READ_RSP:
1778:.\Generated_Source\PSoC4/BLE_1_eventHandler.c ****             CyBle_ReadResponseEventHandler((CYBLE_GATTC_READ_RSP_PARAM_T *)eventParam);
1779:.\Generated_Source\PSoC4/BLE_1_eventHandler.c ****             break;
1780:.\Generated_Source\PSoC4/BLE_1_eventHandler.c **** 
1781:.\Generated_Source\PSoC4/BLE_1_eventHandler.c ****         case CYBLE_EVT_GATTC_WRITE_RSP:
1782:.\Generated_Source\PSoC4/BLE_1_eventHandler.c ****             CyBle_GattcWriteResponseEventHandler((CYBLE_CONN_HANDLE_T *)eventParam);
1783:.\Generated_Source\PSoC4/BLE_1_eventHandler.c ****             break;
1784:.\Generated_Source\PSoC4/BLE_1_eventHandler.c ****             
1785:.\Generated_Source\PSoC4/BLE_1_eventHandler.c ****         case CYBLE_EVT_GATTC_EXEC_WRITE_RSP:
1786:.\Generated_Source\PSoC4/BLE_1_eventHandler.c ****         #ifdef CYBLE_BMS_CLIENT
1787:.\Generated_Source\PSoC4/BLE_1_eventHandler.c ****             CyBle_BmscExecuteWriteResponseEventHandler((CYBLE_GATTC_EXEC_WRITE_RSP_T *)eventParam);
1788:.\Generated_Source\PSoC4/BLE_1_eventHandler.c ****         #endif /* CYBLE_BMS_CLIENT */
1789:.\Generated_Source\PSoC4/BLE_1_eventHandler.c ****         #ifdef CYBLE_ESS_CLIENT
1790:.\Generated_Source\PSoC4/BLE_1_eventHandler.c ****             if((cyBle_eventHandlerFlag & CYBLE_CALLBACK) != 0u)
1791:.\Generated_Source\PSoC4/BLE_1_eventHandler.c ****             {
1792:.\Generated_Source\PSoC4/BLE_1_eventHandler.c ****                 CyBle_EsscExecuteWriteResponseEventHandler((CYBLE_GATTC_EXEC_WRITE_RSP_T *)eventPar
1793:.\Generated_Source\PSoC4/BLE_1_eventHandler.c ****             }
1794:.\Generated_Source\PSoC4/BLE_1_eventHandler.c ****         #endif /* CYBLE_ESS_CLIENT */
1795:.\Generated_Source\PSoC4/BLE_1_eventHandler.c ****             break;
1796:.\Generated_Source\PSoC4/BLE_1_eventHandler.c ****             
1797:.\Generated_Source\PSoC4/BLE_1_eventHandler.c ****     #endif /* CYBLE_GATT_ROLE_CLIENT */
1798:.\Generated_Source\PSoC4/BLE_1_eventHandler.c **** 
1799:.\Generated_Source\PSoC4/BLE_1_eventHandler.c ****     #if((CYBLE_GAP_ROLE_PERIPHERAL || CYBLE_GAP_ROLE_CENTRAL) && (CYBLE_BONDING_REQUIREMENT == CYBL
1800:.\Generated_Source\PSoC4/BLE_1_eventHandler.c **** 
1801:.\Generated_Source\PSoC4/BLE_1_eventHandler.c ****         case CYBLE_EVT_PENDING_FLASH_WRITE:
1802:.\Generated_Source\PSoC4/BLE_1_eventHandler.c ****             cyBle_pendingFlashWrite |= CYBLE_PENDING_STACK_FLASH_WRITE_BIT;
 510              		.loc 1 1802 0
 511 01ae 184B     		ldr	r3, .L39+52
 512 01b0 1978     		ldrb	r1, [r3]
 513              	.LVL55:
 514 01b2 0122     		mov	r2, #1
 515 01b4 0A43     		orr	r2, r1
 516 01b6 1A70     		strb	r2, [r3]
 517              	.LVL56:
 518              	.L17:
ARM GAS  C:\Users\danielpi\AppData\Local\Temp\ccwIrVvL.s 			page 42


1803:.\Generated_Source\PSoC4/BLE_1_eventHandler.c ****             break;
1804:.\Generated_Source\PSoC4/BLE_1_eventHandler.c ****         
1805:.\Generated_Source\PSoC4/BLE_1_eventHandler.c ****     #endif  /* (CYBLE_BONDING_REQUIREMENT == CYBLE_BONDING_YES) */
1806:.\Generated_Source\PSoC4/BLE_1_eventHandler.c ****     
1807:.\Generated_Source\PSoC4/BLE_1_eventHandler.c ****         default:
1808:.\Generated_Source\PSoC4/BLE_1_eventHandler.c ****             break;
1809:.\Generated_Source\PSoC4/BLE_1_eventHandler.c ****     }
1810:.\Generated_Source\PSoC4/BLE_1_eventHandler.c **** 
1811:.\Generated_Source\PSoC4/BLE_1_eventHandler.c ****     if(0u != (cyBle_eventHandlerFlag & (CYBLE_CALLBACK | CYBLE_ENABLE_ALL_EVENTS))) 
 519              		.loc 1 1811 0
 520 01b8 084B     		ldr	r3, .L39
 521 01ba 1A78     		ldrb	r2, [r3]
 522 01bc 1123     		mov	r3, #17
 523 01be 1A42     		tst	r2, r3
 524 01c0 09D0     		beq	.L16
1812:.\Generated_Source\PSoC4/BLE_1_eventHandler.c ****     {
1813:.\Generated_Source\PSoC4/BLE_1_eventHandler.c ****         cyBle_eventHandlerFlag &= (uint8)~CYBLE_CALLBACK;
 525              		.loc 1 1813 0
 526 01c2 064B     		ldr	r3, .L39
 527 01c4 1A78     		ldrb	r2, [r3]
 528 01c6 0121     		mov	r1, #1
 529 01c8 8A43     		bic	r2, r1
 530 01ca 1A70     		strb	r2, [r3]
1814:.\Generated_Source\PSoC4/BLE_1_eventHandler.c ****         CyBle_ApplCallback((uint32)eventCode, eventParam);
 531              		.loc 1 1814 0
 532 01cc 114B     		ldr	r3, .L39+56
 533 01ce 1B68     		ldr	r3, [r3]
 534 01d0 201C     		mov	r0, r4
 535 01d2 311C     		mov	r1, r6
 536 01d4 9847     		blx	r3
 537              	.LVL57:
 538              	.L16:
1815:.\Generated_Source\PSoC4/BLE_1_eventHandler.c ****     }
1816:.\Generated_Source\PSoC4/BLE_1_eventHandler.c **** 
1817:.\Generated_Source\PSoC4/BLE_1_eventHandler.c **** }
 539              		.loc 1 1817 0
 540 01d6 03B0     		add	sp, sp, #12
 541              		@ sp needed
 542              	.LVL58:
 543 01d8 F0BD     		pop	{r4, r5, r6, r7, pc}
 544              	.L40:
 545 01da C046     		.align	2
 546              	.L39:
 547 01dc 00000000 		.word	cyBle_eventHandlerFlag
 548 01e0 00000000 		.word	cyBle_sflashDeviceAddress
 549 01e4 7CF1FF0F 		.word	268431740
 550 01e8 00000000 		.word	cyBle_deviceAddress
 551 01ec 7DF1FF0F 		.word	268431741
 552 01f0 7BF1FF0F 		.word	268431739
 553 01f4 00000000 		.word	cyBle_state
 554 01f8 00000000 		.word	cyBle_busyStatus
 555 01fc 00000000 		.word	.LANCHOR0
 556 0200 00000000 		.word	cyBle_connHandle
 557 0204 00000000 		.word	cyBle_advertisingIntervalType
 558 0208 00000000 		.word	cyBle_attValuesCCCDFlashMemory
 559 020c 00000000 		.word	cyBle_attValuesCCCD
 560 0210 00000000 		.word	cyBle_pendingFlashWrite
ARM GAS  C:\Users\danielpi\AppData\Local\Temp\ccwIrVvL.s 			page 43


 561 0214 00000000 		.word	CyBle_ApplCallback
 562              		.cfi_endproc
 563              	.LFE10:
 564              		.size	CyBle_EventHandler, .-CyBle_EventHandler
 565              		.global	cyBle_authInfo
 566              		.comm	cyBle_advertisingIntervalType,1,1
 567              		.comm	cyBle_busyStatus,1,1
 568              		.comm	cyBle_eventHandlerFlag,1,1
 569              		.comm	cyBle_connHandle,2,4
 570              		.data
 571              		.align	2
 572              		.set	.LANCHOR0,. + 0
 573              		.type	cyBle_authInfo, %object
 574              		.size	cyBle_authInfo, 4
 575              	cyBle_authInfo:
 576 0000 10       		.byte	16
 577 0001 01       		.byte	1
 578 0002 10       		.byte	16
 579 0003 00       		.byte	0
 580              		.text
 581              	.Letext0:
 582              		.file 2 ".\\Generated_Source\\PSoC4\\cytypes.h"
 583              		.file 3 ".\\Generated_Source\\PSoC4\\BLE_1_Stack.h"
 584              		.file 4 ".\\Generated_Source\\PSoC4\\BLE_1_StackHostMain.h"
 585              		.file 5 ".\\Generated_Source\\PSoC4\\BLE_1_StackGap.h"
 586              		.file 6 ".\\Generated_Source\\PSoC4\\BLE_1_StackGatt.h"
 587              		.file 7 ".\\Generated_Source\\PSoC4\\BLE_1_StackGattServer.h"
 588              		.file 8 ".\\Generated_Source\\PSoC4\\BLE_1.h"
 589              		.file 9 ".\\Generated_Source\\PSoC4\\BLE_1_dis.h"
 590              		.file 10 ".\\Generated_Source\\PSoC4\\BLE_1_hrs.h"
 591              		.file 11 ".\\Generated_Source\\PSoC4\\BLE_1_eventHandler.h"
 592              		.file 12 ".\\Generated_Source\\PSoC4\\BLE_1_gatt.h"
 593              		.section	.debug_info,"",%progbits
 594              	.Ldebug_info0:
 595 0000 C10D0000 		.4byte	0xdc1
 596 0004 0400     		.2byte	0x4
 597 0006 00000000 		.4byte	.Ldebug_abbrev0
 598 000a 04       		.byte	0x4
 599 000b 01       		.uleb128 0x1
 600 000c 6E0F0000 		.4byte	.LASF292
 601 0010 01       		.byte	0x1
 602 0011 79040000 		.4byte	.LASF293
 603 0015 E7040000 		.4byte	.LASF294
 604 0019 00000000 		.4byte	.Ldebug_ranges0+0
 605 001d 00000000 		.4byte	0
 606 0021 00000000 		.4byte	.Ldebug_line0
 607 0025 02       		.uleb128 0x2
 608 0026 01       		.byte	0x1
 609 0027 06       		.byte	0x6
 610 0028 1D070000 		.4byte	.LASF0
 611 002c 02       		.uleb128 0x2
 612 002d 01       		.byte	0x1
 613 002e 08       		.byte	0x8
 614 002f 32080000 		.4byte	.LASF1
 615 0033 02       		.uleb128 0x2
 616 0034 02       		.byte	0x2
 617 0035 05       		.byte	0x5
ARM GAS  C:\Users\danielpi\AppData\Local\Temp\ccwIrVvL.s 			page 44


 618 0036 331A0000 		.4byte	.LASF2
 619 003a 02       		.uleb128 0x2
 620 003b 02       		.byte	0x2
 621 003c 07       		.byte	0x7
 622 003d CE1D0000 		.4byte	.LASF3
 623 0041 02       		.uleb128 0x2
 624 0042 04       		.byte	0x4
 625 0043 05       		.byte	0x5
 626 0044 DE040000 		.4byte	.LASF4
 627 0048 02       		.uleb128 0x2
 628 0049 04       		.byte	0x4
 629 004a 07       		.byte	0x7
 630 004b A90D0000 		.4byte	.LASF5
 631 004f 02       		.uleb128 0x2
 632 0050 08       		.byte	0x8
 633 0051 05       		.byte	0x5
 634 0052 7F100000 		.4byte	.LASF6
 635 0056 02       		.uleb128 0x2
 636 0057 08       		.byte	0x8
 637 0058 07       		.byte	0x7
 638 0059 3A170000 		.4byte	.LASF7
 639 005d 03       		.uleb128 0x3
 640 005e 04       		.byte	0x4
 641 005f 05       		.byte	0x5
 642 0060 696E7400 		.ascii	"int\000"
 643 0064 02       		.uleb128 0x2
 644 0065 04       		.byte	0x4
 645 0066 07       		.byte	0x7
 646 0067 E8120000 		.4byte	.LASF8
 647 006b 04       		.uleb128 0x4
 648 006c 001A0000 		.4byte	.LASF9
 649 0070 02       		.byte	0x2
 650 0071 C1       		.byte	0xc1
 651 0072 2C000000 		.4byte	0x2c
 652 0076 04       		.uleb128 0x4
 653 0077 231F0000 		.4byte	.LASF10
 654 007b 02       		.byte	0x2
 655 007c C2       		.byte	0xc2
 656 007d 3A000000 		.4byte	0x3a
 657 0081 04       		.uleb128 0x4
 658 0082 18010000 		.4byte	.LASF11
 659 0086 02       		.byte	0x2
 660 0087 C3       		.byte	0xc3
 661 0088 48000000 		.4byte	0x48
 662 008c 02       		.uleb128 0x2
 663 008d 04       		.byte	0x4
 664 008e 04       		.byte	0x4
 665 008f 32120000 		.4byte	.LASF12
 666 0093 02       		.uleb128 0x2
 667 0094 08       		.byte	0x8
 668 0095 04       		.byte	0x4
 669 0096 3E110000 		.4byte	.LASF13
 670 009a 02       		.uleb128 0x2
 671 009b 01       		.byte	0x1
 672 009c 08       		.byte	0x8
 673 009d 34090000 		.4byte	.LASF14
 674 00a1 05       		.uleb128 0x5
ARM GAS  C:\Users\danielpi\AppData\Local\Temp\ccwIrVvL.s 			page 45


 675 00a2 6B000000 		.4byte	0x6b
 676 00a6 02       		.uleb128 0x2
 677 00a7 04       		.byte	0x4
 678 00a8 07       		.byte	0x7
 679 00a9 30000000 		.4byte	.LASF15
 680 00ad 06       		.uleb128 0x6
 681 00ae 04       		.byte	0x4
 682 00af 07       		.uleb128 0x7
 683 00b0 01       		.byte	0x1
 684 00b1 03       		.byte	0x3
 685 00b2 96       		.byte	0x96
 686 00b3 34020000 		.4byte	0x234
 687 00b7 08       		.uleb128 0x8
 688 00b8 BC090000 		.4byte	.LASF16
 689 00bc 00       		.sleb128 0
 690 00bd 08       		.uleb128 0x8
 691 00be A6050000 		.4byte	.LASF17
 692 00c2 01       		.sleb128 1
 693 00c3 08       		.uleb128 0x8
 694 00c4 6F170000 		.4byte	.LASF18
 695 00c8 02       		.sleb128 2
 696 00c9 08       		.uleb128 0x8
 697 00ca 5E070000 		.4byte	.LASF19
 698 00ce 03       		.sleb128 3
 699 00cf 08       		.uleb128 0x8
 700 00d0 691E0000 		.4byte	.LASF20
 701 00d4 04       		.sleb128 4
 702 00d5 08       		.uleb128 0x8
 703 00d6 C01C0000 		.4byte	.LASF21
 704 00da 05       		.sleb128 5
 705 00db 08       		.uleb128 0x8
 706 00dc 3C1B0000 		.4byte	.LASF22
 707 00e0 20       		.sleb128 32
 708 00e1 08       		.uleb128 0x8
 709 00e2 81030000 		.4byte	.LASF23
 710 00e6 21       		.sleb128 33
 711 00e7 08       		.uleb128 0x8
 712 00e8 EA0F0000 		.4byte	.LASF24
 713 00ec 22       		.sleb128 34
 714 00ed 08       		.uleb128 0x8
 715 00ee EE140000 		.4byte	.LASF25
 716 00f2 23       		.sleb128 35
 717 00f3 08       		.uleb128 0x8
 718 00f4 F70C0000 		.4byte	.LASF26
 719 00f8 24       		.sleb128 36
 720 00f9 08       		.uleb128 0x8
 721 00fa 130D0000 		.4byte	.LASF27
 722 00fe 25       		.sleb128 37
 723 00ff 08       		.uleb128 0x8
 724 0100 D8190000 		.4byte	.LASF28
 725 0104 26       		.sleb128 38
 726 0105 08       		.uleb128 0x8
 727 0106 A8000000 		.4byte	.LASF29
 728 010a 27       		.sleb128 39
 729 010b 08       		.uleb128 0x8
 730 010c E01E0000 		.4byte	.LASF30
 731 0110 28       		.sleb128 40
ARM GAS  C:\Users\danielpi\AppData\Local\Temp\ccwIrVvL.s 			page 46


 732 0111 08       		.uleb128 0x8
 733 0112 47160000 		.4byte	.LASF31
 734 0116 29       		.sleb128 41
 735 0117 08       		.uleb128 0x8
 736 0118 A90E0000 		.4byte	.LASF32
 737 011c 2A       		.sleb128 42
 738 011d 08       		.uleb128 0x8
 739 011e 5F140000 		.4byte	.LASF33
 740 0122 2B       		.sleb128 43
 741 0123 08       		.uleb128 0x8
 742 0124 061D0000 		.4byte	.LASF34
 743 0128 2C       		.sleb128 44
 744 0129 08       		.uleb128 0x8
 745 012a B61A0000 		.4byte	.LASF35
 746 012e C000     		.sleb128 64
 747 0130 08       		.uleb128 0x8
 748 0131 E8000000 		.4byte	.LASF36
 749 0135 C100     		.sleb128 65
 750 0137 08       		.uleb128 0x8
 751 0138 7E1E0000 		.4byte	.LASF37
 752 013c C200     		.sleb128 66
 753 013e 08       		.uleb128 0x8
 754 013f 64160000 		.4byte	.LASF38
 755 0143 C300     		.sleb128 67
 756 0145 08       		.uleb128 0x8
 757 0146 40080000 		.4byte	.LASF39
 758 014a C400     		.sleb128 68
 759 014c 08       		.uleb128 0x8
 760 014d DF070000 		.4byte	.LASF40
 761 0151 C500     		.sleb128 69
 762 0153 08       		.uleb128 0x8
 763 0154 57190000 		.4byte	.LASF41
 764 0158 C600     		.sleb128 70
 765 015a 08       		.uleb128 0x8
 766 015b 39190000 		.4byte	.LASF42
 767 015f C700     		.sleb128 71
 768 0161 08       		.uleb128 0x8
 769 0162 0D090000 		.4byte	.LASF43
 770 0166 C800     		.sleb128 72
 771 0168 08       		.uleb128 0x8
 772 0169 63150000 		.4byte	.LASF44
 773 016d C900     		.sleb128 73
 774 016f 08       		.uleb128 0x8
 775 0170 420A0000 		.4byte	.LASF45
 776 0174 CA00     		.sleb128 74
 777 0176 08       		.uleb128 0x8
 778 0177 69090000 		.4byte	.LASF46
 779 017b CB00     		.sleb128 75
 780 017d 08       		.uleb128 0x8
 781 017e B8140000 		.4byte	.LASF47
 782 0182 CC00     		.sleb128 76
 783 0184 08       		.uleb128 0x8
 784 0185 A5190000 		.4byte	.LASF48
 785 0189 CD00     		.sleb128 77
 786 018b 08       		.uleb128 0x8
 787 018c C0040000 		.4byte	.LASF49
 788 0190 CE00     		.sleb128 78
ARM GAS  C:\Users\danielpi\AppData\Local\Temp\ccwIrVvL.s 			page 47


 789 0192 08       		.uleb128 0x8
 790 0193 F5120000 		.4byte	.LASF50
 791 0197 CF00     		.sleb128 79
 792 0199 08       		.uleb128 0x8
 793 019a 1D1B0000 		.4byte	.LASF51
 794 019e D000     		.sleb128 80
 795 01a0 08       		.uleb128 0x8
 796 01a1 770A0000 		.4byte	.LASF52
 797 01a5 D100     		.sleb128 81
 798 01a7 08       		.uleb128 0x8
 799 01a8 60030000 		.4byte	.LASF53
 800 01ac D200     		.sleb128 82
 801 01ae 08       		.uleb128 0x8
 802 01af 7E1C0000 		.4byte	.LASF54
 803 01b3 D300     		.sleb128 83
 804 01b5 08       		.uleb128 0x8
 805 01b6 021F0000 		.4byte	.LASF55
 806 01ba D400     		.sleb128 84
 807 01bc 08       		.uleb128 0x8
 808 01bd 35020000 		.4byte	.LASF56
 809 01c1 D500     		.sleb128 85
 810 01c3 08       		.uleb128 0x8
 811 01c4 1E0B0000 		.4byte	.LASF57
 812 01c8 D600     		.sleb128 86
 813 01ca 08       		.uleb128 0x8
 814 01cb 5D120000 		.4byte	.LASF58
 815 01cf D700     		.sleb128 87
 816 01d1 08       		.uleb128 0x8
 817 01d2 741D0000 		.4byte	.LASF59
 818 01d6 F000     		.sleb128 112
 819 01d8 08       		.uleb128 0x8
 820 01d9 7C0C0000 		.4byte	.LASF60
 821 01dd F100     		.sleb128 113
 822 01df 08       		.uleb128 0x8
 823 01e0 9B060000 		.4byte	.LASF61
 824 01e4 F200     		.sleb128 114
 825 01e6 08       		.uleb128 0x8
 826 01e7 FF1A0000 		.4byte	.LASF62
 827 01eb F300     		.sleb128 115
 828 01ed 08       		.uleb128 0x8
 829 01ee B6150000 		.4byte	.LASF63
 830 01f2 F400     		.sleb128 116
 831 01f4 08       		.uleb128 0x8
 832 01f5 4D0F0000 		.4byte	.LASF64
 833 01f9 F500     		.sleb128 117
 834 01fb 08       		.uleb128 0x8
 835 01fc EC080000 		.4byte	.LASF65
 836 0200 F600     		.sleb128 118
 837 0202 08       		.uleb128 0x8
 838 0203 F5170000 		.4byte	.LASF66
 839 0207 F700     		.sleb128 119
 840 0209 08       		.uleb128 0x8
 841 020a 59020000 		.4byte	.LASF67
 842 020e F800     		.sleb128 120
 843 0210 08       		.uleb128 0x8
 844 0211 7A080000 		.4byte	.LASF68
 845 0215 F900     		.sleb128 121
ARM GAS  C:\Users\danielpi\AppData\Local\Temp\ccwIrVvL.s 			page 48


 846 0217 08       		.uleb128 0x8
 847 0218 BC1E0000 		.4byte	.LASF69
 848 021c FA00     		.sleb128 122
 849 021e 08       		.uleb128 0x8
 850 021f 67110000 		.4byte	.LASF70
 851 0223 FA01     		.sleb128 250
 852 0225 08       		.uleb128 0x8
 853 0226 381C0000 		.4byte	.LASF71
 854 022a FB01     		.sleb128 251
 855 022c 08       		.uleb128 0x8
 856 022d 51140000 		.4byte	.LASF72
 857 0231 FF01     		.sleb128 255
 858 0233 00       		.byte	0
 859 0234 09       		.uleb128 0x9
 860 0235 02       		.byte	0x2
 861 0236 03       		.byte	0x3
 862 0237 F401     		.2byte	0x1f4
 863 0239 EB020000 		.4byte	0x2eb
 864 023d 08       		.uleb128 0x8
 865 023e 8A070000 		.4byte	.LASF73
 866 0242 00       		.sleb128 0
 867 0243 08       		.uleb128 0x8
 868 0244 910B0000 		.4byte	.LASF74
 869 0248 01       		.sleb128 1
 870 0249 08       		.uleb128 0x8
 871 024a 4B1E0000 		.4byte	.LASF75
 872 024e 02       		.sleb128 2
 873 024f 08       		.uleb128 0x8
 874 0250 AF0B0000 		.4byte	.LASF76
 875 0254 03       		.sleb128 3
 876 0255 08       		.uleb128 0x8
 877 0256 4A0D0000 		.4byte	.LASF77
 878 025a 04       		.sleb128 4
 879 025b 08       		.uleb128 0x8
 880 025c 20110000 		.4byte	.LASF78
 881 0260 05       		.sleb128 5
 882 0261 08       		.uleb128 0x8
 883 0262 EB1B0000 		.4byte	.LASF79
 884 0266 06       		.sleb128 6
 885 0267 08       		.uleb128 0x8
 886 0268 250A0000 		.4byte	.LASF80
 887 026c 07       		.sleb128 7
 888 026d 08       		.uleb128 0x8
 889 026e 14120000 		.4byte	.LASF81
 890 0272 08       		.sleb128 8
 891 0273 08       		.uleb128 0x8
 892 0274 601B0000 		.4byte	.LASF82
 893 0278 09       		.sleb128 9
 894 0279 08       		.uleb128 0x8
 895 027a 2A1F0000 		.4byte	.LASF83
 896 027e 0A       		.sleb128 10
 897 027f 08       		.uleb128 0x8
 898 0280 AC030000 		.4byte	.LASF84
 899 0284 0B       		.sleb128 11
 900 0285 08       		.uleb128 0x8
 901 0286 A91C0000 		.4byte	.LASF85
 902 028a 0C       		.sleb128 12
ARM GAS  C:\Users\danielpi\AppData\Local\Temp\ccwIrVvL.s 			page 49


 903 028b 08       		.uleb128 0x8
 904 028c DE130000 		.4byte	.LASF86
 905 0290 0D       		.sleb128 13
 906 0291 08       		.uleb128 0x8
 907 0292 680E0000 		.4byte	.LASF87
 908 0296 0E       		.sleb128 14
 909 0297 08       		.uleb128 0x8
 910 0298 FB100000 		.4byte	.LASF88
 911 029c 0F       		.sleb128 15
 912 029d 08       		.uleb128 0x8
 913 029e EB010000 		.4byte	.LASF89
 914 02a2 10       		.sleb128 16
 915 02a3 08       		.uleb128 0x8
 916 02a4 F0110000 		.4byte	.LASF90
 917 02a8 11       		.sleb128 17
 918 02a9 08       		.uleb128 0x8
 919 02aa B9050000 		.4byte	.LASF91
 920 02ae 12       		.sleb128 18
 921 02af 08       		.uleb128 0x8
 922 02b0 F5060000 		.4byte	.LASF92
 923 02b4 13       		.sleb128 19
 924 02b5 08       		.uleb128 0x8
 925 02b6 45110000 		.4byte	.LASF93
 926 02ba 27       		.sleb128 39
 927 02bb 08       		.uleb128 0x8
 928 02bc 38120000 		.4byte	.LASF94
 929 02c0 28       		.sleb128 40
 930 02c1 08       		.uleb128 0x8
 931 02c2 19020000 		.4byte	.LASF95
 932 02c6 29       		.sleb128 41
 933 02c7 08       		.uleb128 0x8
 934 02c8 6C0C0000 		.4byte	.LASF96
 935 02cc FF01     		.sleb128 255
 936 02ce 08       		.uleb128 0x8
 937 02cf 2D150000 		.4byte	.LASF97
 938 02d3 8002     		.sleb128 256
 939 02d5 08       		.uleb128 0x8
 940 02d6 14150000 		.4byte	.LASF98
 941 02da 8102     		.sleb128 257
 942 02dc 08       		.uleb128 0x8
 943 02dd 4F060000 		.4byte	.LASF99
 944 02e1 8202     		.sleb128 258
 945 02e3 08       		.uleb128 0x8
 946 02e4 AF170000 		.4byte	.LASF100
 947 02e8 8302     		.sleb128 259
 948 02ea 00       		.byte	0
 949 02eb 0A       		.uleb128 0xa
 950 02ec 571C0000 		.4byte	.LASF101
 951 02f0 03       		.byte	0x3
 952 02f1 5102     		.2byte	0x251
 953 02f3 34020000 		.4byte	0x234
 954 02f7 09       		.uleb128 0x9
 955 02f8 01       		.byte	0x1
 956 02f9 03       		.byte	0x3
 957 02fa 8202     		.2byte	0x282
 958 02fc 37030000 		.4byte	0x337
 959 0300 08       		.uleb128 0x8
ARM GAS  C:\Users\danielpi\AppData\Local\Temp\ccwIrVvL.s 			page 50


 960 0301 29070000 		.4byte	.LASF102
 961 0305 01       		.sleb128 1
 962 0306 08       		.uleb128 0x8
 963 0307 D2140000 		.4byte	.LASF103
 964 030b 02       		.sleb128 2
 965 030c 08       		.uleb128 0x8
 966 030d 12160000 		.4byte	.LASF104
 967 0311 03       		.sleb128 3
 968 0312 08       		.uleb128 0x8
 969 0313 E9030000 		.4byte	.LASF105
 970 0317 04       		.sleb128 4
 971 0318 08       		.uleb128 0x8
 972 0319 39090000 		.4byte	.LASF106
 973 031d 05       		.sleb128 5
 974 031e 08       		.uleb128 0x8
 975 031f D60D0000 		.4byte	.LASF107
 976 0323 06       		.sleb128 6
 977 0324 08       		.uleb128 0x8
 978 0325 051C0000 		.4byte	.LASF108
 979 0329 07       		.sleb128 7
 980 032a 08       		.uleb128 0x8
 981 032b 920D0000 		.4byte	.LASF109
 982 032f 08       		.sleb128 8
 983 0330 08       		.uleb128 0x8
 984 0331 AE110000 		.4byte	.LASF110
 985 0335 09       		.sleb128 9
 986 0336 00       		.byte	0
 987 0337 0A       		.uleb128 0xa
 988 0338 0E100000 		.4byte	.LASF111
 989 033c 03       		.byte	0x3
 990 033d 8C02     		.2byte	0x28c
 991 033f F7020000 		.4byte	0x2f7
 992 0343 09       		.uleb128 0x9
 993 0344 01       		.byte	0x1
 994 0345 03       		.byte	0x3
 995 0346 9002     		.2byte	0x290
 996 0348 5F030000 		.4byte	0x35f
 997 034c 08       		.uleb128 0x8
 998 034d 231C0000 		.4byte	.LASF112
 999 0351 00       		.sleb128 0
 1000 0352 08       		.uleb128 0x8
 1001 0353 73130000 		.4byte	.LASF113
 1002 0357 01       		.sleb128 1
 1003 0358 08       		.uleb128 0x8
 1004 0359 5F1D0000 		.4byte	.LASF114
 1005 035d 02       		.sleb128 2
 1006 035e 00       		.byte	0
 1007 035f 0A       		.uleb128 0xa
 1008 0360 99070000 		.4byte	.LASF115
 1009 0364 03       		.byte	0x3
 1010 0365 9702     		.2byte	0x297
 1011 0367 43030000 		.4byte	0x343
 1012 036b 0B       		.uleb128 0xb
 1013 036c 02       		.byte	0x2
 1014 036d 03       		.byte	0x3
 1015 036e 9A02     		.2byte	0x29a
 1016 0370 8F030000 		.4byte	0x38f
ARM GAS  C:\Users\danielpi\AppData\Local\Temp\ccwIrVvL.s 			page 51


 1017 0374 0C       		.uleb128 0xc
 1018 0375 31010000 		.4byte	.LASF116
 1019 0379 03       		.byte	0x3
 1020 037a 9D02     		.2byte	0x29d
 1021 037c 37030000 		.4byte	0x337
 1022 0380 00       		.byte	0
 1023 0381 0C       		.uleb128 0xc
 1024 0382 91060000 		.4byte	.LASF117
 1025 0386 03       		.byte	0x3
 1026 0387 9F02     		.2byte	0x29f
 1027 0389 5F030000 		.4byte	0x35f
 1028 038d 01       		.byte	0x1
 1029 038e 00       		.byte	0
 1030 038f 0A       		.uleb128 0xa
 1031 0390 471D0000 		.4byte	.LASF118
 1032 0394 03       		.byte	0x3
 1033 0395 A002     		.2byte	0x2a0
 1034 0397 6B030000 		.4byte	0x36b
 1035 039b 0B       		.uleb128 0xb
 1036 039c 07       		.byte	0x7
 1037 039d 03       		.byte	0x3
 1038 039e D202     		.2byte	0x2d2
 1039 03a0 BF030000 		.4byte	0x3bf
 1040 03a4 0C       		.uleb128 0xc
 1041 03a5 931B0000 		.4byte	.LASF119
 1042 03a9 03       		.byte	0x3
 1043 03aa D402     		.2byte	0x2d4
 1044 03ac BF030000 		.4byte	0x3bf
 1045 03b0 00       		.byte	0
 1046 03b1 0C       		.uleb128 0xc
 1047 03b2 AC020000 		.4byte	.LASF120
 1048 03b6 03       		.byte	0x3
 1049 03b7 D502     		.2byte	0x2d5
 1050 03b9 6B000000 		.4byte	0x6b
 1051 03bd 06       		.byte	0x6
 1052 03be 00       		.byte	0
 1053 03bf 0D       		.uleb128 0xd
 1054 03c0 6B000000 		.4byte	0x6b
 1055 03c4 CF030000 		.4byte	0x3cf
 1056 03c8 0E       		.uleb128 0xe
 1057 03c9 A6000000 		.4byte	0xa6
 1058 03cd 05       		.byte	0x5
 1059 03ce 00       		.byte	0
 1060 03cf 0A       		.uleb128 0xa
 1061 03d0 89180000 		.4byte	.LASF121
 1062 03d4 03       		.byte	0x3
 1063 03d5 D602     		.2byte	0x2d6
 1064 03d7 9B030000 		.4byte	0x39b
 1065 03db 07       		.uleb128 0x7
 1066 03dc 01       		.byte	0x1
 1067 03dd 04       		.byte	0x4
 1068 03de 45       		.byte	0x45
 1069 03df FC030000 		.4byte	0x3fc
 1070 03e3 08       		.uleb128 0x8
 1071 03e4 B6180000 		.4byte	.LASF122
 1072 03e8 01       		.sleb128 1
 1073 03e9 08       		.uleb128 0x8
ARM GAS  C:\Users\danielpi\AppData\Local\Temp\ccwIrVvL.s 			page 52


 1074 03ea 57180000 		.4byte	.LASF123
 1075 03ee 02       		.sleb128 2
 1076 03ef 08       		.uleb128 0x8
 1077 03f0 AA1E0000 		.4byte	.LASF124
 1078 03f4 03       		.sleb128 3
 1079 03f5 08       		.uleb128 0x8
 1080 03f6 10190000 		.4byte	.LASF125
 1081 03fa 04       		.sleb128 4
 1082 03fb 00       		.byte	0
 1083 03fc 04       		.uleb128 0x4
 1084 03fd B1020000 		.4byte	.LASF126
 1085 0401 04       		.byte	0x4
 1086 0402 52       		.byte	0x52
 1087 0403 DB030000 		.4byte	0x3db
 1088 0407 07       		.uleb128 0x7
 1089 0408 01       		.byte	0x1
 1090 0409 05       		.byte	0x5
 1091 040a B2       		.byte	0xb2
 1092 040b 28040000 		.4byte	0x428
 1093 040f 08       		.uleb128 0x8
 1094 0410 42050000 		.4byte	.LASF127
 1095 0414 00       		.sleb128 0
 1096 0415 08       		.uleb128 0x8
 1097 0416 58050000 		.4byte	.LASF128
 1098 041a 01       		.sleb128 1
 1099 041b 08       		.uleb128 0x8
 1100 041c 6E050000 		.4byte	.LASF129
 1101 0420 02       		.sleb128 2
 1102 0421 08       		.uleb128 0x8
 1103 0422 EE0A0000 		.4byte	.LASF130
 1104 0426 0F       		.sleb128 15
 1105 0427 00       		.byte	0
 1106 0428 07       		.uleb128 0x7
 1107 0429 01       		.byte	0x1
 1108 042a 05       		.byte	0x5
 1109 042b CC       		.byte	0xcc
 1110 042c 4F040000 		.4byte	0x44f
 1111 0430 08       		.uleb128 0x8
 1112 0431 CC030000 		.4byte	.LASF131
 1113 0435 00       		.sleb128 0
 1114 0436 08       		.uleb128 0x8
 1115 0437 E81C0000 		.4byte	.LASF132
 1116 043b 01       		.sleb128 1
 1117 043c 08       		.uleb128 0x8
 1118 043d 9E090000 		.4byte	.LASF133
 1119 0441 02       		.sleb128 2
 1120 0442 08       		.uleb128 0x8
 1121 0443 C7000000 		.4byte	.LASF134
 1122 0447 03       		.sleb128 3
 1123 0448 08       		.uleb128 0x8
 1124 0449 D01A0000 		.4byte	.LASF135
 1125 044d 04       		.sleb128 4
 1126 044e 00       		.byte	0
 1127 044f 04       		.uleb128 0x4
 1128 0450 1F010000 		.4byte	.LASF136
 1129 0454 05       		.byte	0x5
 1130 0455 DE       		.byte	0xde
ARM GAS  C:\Users\danielpi\AppData\Local\Temp\ccwIrVvL.s 			page 53


 1131 0456 28040000 		.4byte	0x428
 1132 045a 07       		.uleb128 0x7
 1133 045b 01       		.byte	0x1
 1134 045c 05       		.byte	0x5
 1135 045d E2       		.byte	0xe2
 1136 045e B1040000 		.4byte	0x4b1
 1137 0462 08       		.uleb128 0x8
 1138 0463 2D160000 		.4byte	.LASF137
 1139 0467 00       		.sleb128 0
 1140 0468 08       		.uleb128 0x8
 1141 0469 39040000 		.4byte	.LASF138
 1142 046d 01       		.sleb128 1
 1143 046e 08       		.uleb128 0x8
 1144 046f A9160000 		.4byte	.LASF139
 1145 0473 02       		.sleb128 2
 1146 0474 08       		.uleb128 0x8
 1147 0475 1C0E0000 		.4byte	.LASF140
 1148 0479 03       		.sleb128 3
 1149 047a 08       		.uleb128 0x8
 1150 047b 22060000 		.4byte	.LASF141
 1151 047f 04       		.sleb128 4
 1152 0480 08       		.uleb128 0x8
 1153 0481 E5180000 		.4byte	.LASF142
 1154 0485 05       		.sleb128 5
 1155 0486 08       		.uleb128 0x8
 1156 0487 3B100000 		.4byte	.LASF143
 1157 048b 06       		.sleb128 6
 1158 048c 08       		.uleb128 0x8
 1159 048d F10D0000 		.4byte	.LASF144
 1160 0491 07       		.sleb128 7
 1161 0492 08       		.uleb128 0x8
 1162 0493 F4020000 		.4byte	.LASF145
 1163 0497 08       		.sleb128 8
 1164 0498 08       		.uleb128 0x8
 1165 0499 260F0000 		.4byte	.LASF146
 1166 049d 09       		.sleb128 9
 1167 049e 08       		.uleb128 0x8
 1168 049f C4080000 		.4byte	.LASF147
 1169 04a3 0A       		.sleb128 10
 1170 04a4 08       		.uleb128 0x8
 1171 04a5 C8020000 		.4byte	.LASF148
 1172 04a9 15       		.sleb128 21
 1173 04aa 08       		.uleb128 0x8
 1174 04ab A20C0000 		.4byte	.LASF149
 1175 04af 18       		.sleb128 24
 1176 04b0 00       		.byte	0
 1177 04b1 0A       		.uleb128 0xa
 1178 04b2 99140000 		.4byte	.LASF150
 1179 04b6 05       		.byte	0x5
 1180 04b7 0E01     		.2byte	0x10e
 1181 04b9 5A040000 		.4byte	0x45a
 1182 04bd 0B       		.uleb128 0xb
 1183 04be 04       		.byte	0x4
 1184 04bf 05       		.byte	0x5
 1185 04c0 2701     		.2byte	0x127
 1186 04c2 FB040000 		.4byte	0x4fb
 1187 04c6 0C       		.uleb128 0xc
ARM GAS  C:\Users\danielpi\AppData\Local\Temp\ccwIrVvL.s 			page 54


 1188 04c7 151A0000 		.4byte	.LASF151
 1189 04cb 05       		.byte	0x5
 1190 04cc 3001     		.2byte	0x130
 1191 04ce 6B000000 		.4byte	0x6b
 1192 04d2 00       		.byte	0
 1193 04d3 0C       		.uleb128 0xc
 1194 04d4 C2120000 		.4byte	.LASF152
 1195 04d8 05       		.byte	0x5
 1196 04d9 3601     		.2byte	0x136
 1197 04db 6B000000 		.4byte	0x6b
 1198 04df 01       		.byte	0x1
 1199 04e0 0C       		.uleb128 0xc
 1200 04e1 39000000 		.4byte	.LASF153
 1201 04e5 05       		.byte	0x5
 1202 04e6 3C01     		.2byte	0x13c
 1203 04e8 6B000000 		.4byte	0x6b
 1204 04ec 02       		.byte	0x2
 1205 04ed 0C       		.uleb128 0xc
 1206 04ee 3D1A0000 		.4byte	.LASF154
 1207 04f2 05       		.byte	0x5
 1208 04f3 4001     		.2byte	0x140
 1209 04f5 B1040000 		.4byte	0x4b1
 1210 04f9 03       		.byte	0x3
 1211 04fa 00       		.byte	0
 1212 04fb 0A       		.uleb128 0xa
 1213 04fc 88090000 		.4byte	.LASF155
 1214 0500 05       		.byte	0x5
 1215 0501 4201     		.2byte	0x142
 1216 0503 BD040000 		.4byte	0x4bd
 1217 0507 0F       		.uleb128 0xf
 1218 0508 04       		.byte	0x4
 1219 0509 6B000000 		.4byte	0x6b
 1220 050d 0B       		.uleb128 0xb
 1221 050e 08       		.byte	0x8
 1222 050f 05       		.byte	0x5
 1223 0510 AE02     		.2byte	0x2ae
 1224 0512 4B050000 		.4byte	0x54b
 1225 0516 0C       		.uleb128 0xc
 1226 0517 CF0D0000 		.4byte	.LASF156
 1227 051b 05       		.byte	0x5
 1228 051c B202     		.2byte	0x2b2
 1229 051e 6B000000 		.4byte	0x6b
 1230 0522 00       		.byte	0
 1231 0523 0C       		.uleb128 0xc
 1232 0524 C51D0000 		.4byte	.LASF157
 1233 0528 05       		.byte	0x5
 1234 0529 B802     		.2byte	0x2b8
 1235 052b 76000000 		.4byte	0x76
 1236 052f 02       		.byte	0x2
 1237 0530 0C       		.uleb128 0xc
 1238 0531 DC1C0000 		.4byte	.LASF158
 1239 0535 05       		.byte	0x5
 1240 0536 BD02     		.2byte	0x2bd
 1241 0538 76000000 		.4byte	0x76
 1242 053c 04       		.byte	0x4
 1243 053d 0C       		.uleb128 0xc
 1244 053e 9C1E0000 		.4byte	.LASF159
ARM GAS  C:\Users\danielpi\AppData\Local\Temp\ccwIrVvL.s 			page 55


 1245 0542 05       		.byte	0x5
 1246 0543 C302     		.2byte	0x2c3
 1247 0545 76000000 		.4byte	0x76
 1248 0549 06       		.byte	0x6
 1249 054a 00       		.byte	0
 1250 054b 0A       		.uleb128 0xa
 1251 054c 0D170000 		.4byte	.LASF160
 1252 0550 05       		.byte	0x5
 1253 0551 C502     		.2byte	0x2c5
 1254 0553 0D050000 		.4byte	0x50d
 1255 0557 07       		.uleb128 0x7
 1256 0558 01       		.byte	0x1
 1257 0559 06       		.byte	0x6
 1258 055a 48       		.byte	0x48
 1259 055b 11060000 		.4byte	0x611
 1260 055f 08       		.uleb128 0x8
 1261 0560 7C0B0000 		.4byte	.LASF161
 1262 0564 01       		.sleb128 1
 1263 0565 08       		.uleb128 0x8
 1264 0566 0C0A0000 		.4byte	.LASF162
 1265 056a 02       		.sleb128 2
 1266 056b 08       		.uleb128 0x8
 1267 056c A7040000 		.4byte	.LASF163
 1268 0570 03       		.sleb128 3
 1269 0571 08       		.uleb128 0x8
 1270 0572 45070000 		.4byte	.LASF164
 1271 0576 04       		.sleb128 4
 1272 0577 08       		.uleb128 0x8
 1273 0578 90160000 		.4byte	.LASF165
 1274 057c 05       		.sleb128 5
 1275 057d 08       		.uleb128 0x8
 1276 057e F0150000 		.4byte	.LASF166
 1277 0582 06       		.sleb128 6
 1278 0583 08       		.uleb128 0x8
 1279 0584 84050000 		.4byte	.LASF167
 1280 0588 07       		.sleb128 7
 1281 0589 08       		.uleb128 0x8
 1282 058a 9A150000 		.4byte	.LASF168
 1283 058e 08       		.sleb128 8
 1284 058f 08       		.uleb128 0x8
 1285 0590 1C030000 		.4byte	.LASF169
 1286 0594 09       		.sleb128 9
 1287 0595 08       		.uleb128 0x8
 1288 0596 BB0D0000 		.4byte	.LASF170
 1289 059a 0A       		.sleb128 10
 1290 059b 08       		.uleb128 0x8
 1291 059c D71B0000 		.4byte	.LASF171
 1292 05a0 0B       		.sleb128 11
 1293 05a1 08       		.uleb128 0x8
 1294 05a2 9D180000 		.4byte	.LASF172
 1295 05a6 0C       		.sleb128 12
 1296 05a7 08       		.uleb128 0x8
 1297 05a8 B7060000 		.4byte	.LASF173
 1298 05ac 0D       		.sleb128 13
 1299 05ad 08       		.uleb128 0x8
 1300 05ae 46150000 		.4byte	.LASF174
 1301 05b2 0E       		.sleb128 14
ARM GAS  C:\Users\danielpi\AppData\Local\Temp\ccwIrVvL.s 			page 56


 1302 05b3 08       		.uleb128 0x8
 1303 05b4 8F020000 		.4byte	.LASF175
 1304 05b8 0F       		.sleb128 15
 1305 05b9 08       		.uleb128 0x8
 1306 05ba 281E0000 		.4byte	.LASF176
 1307 05be 10       		.sleb128 16
 1308 05bf 08       		.uleb128 0x8
 1309 05c0 2D0D0000 		.4byte	.LASF177
 1310 05c4 11       		.sleb128 17
 1311 05c5 08       		.uleb128 0x8
 1312 05c6 1E1A0000 		.4byte	.LASF178
 1313 05ca 12       		.sleb128 18
 1314 05cb 08       		.uleb128 0x8
 1315 05cc 54090000 		.4byte	.LASF179
 1316 05d0 13       		.sleb128 19
 1317 05d1 08       		.uleb128 0x8
 1318 05d2 03010000 		.4byte	.LASF180
 1319 05d6 D200     		.sleb128 82
 1320 05d8 08       		.uleb128 0x8
 1321 05d9 A8010000 		.4byte	.LASF181
 1322 05dd 16       		.sleb128 22
 1323 05de 08       		.uleb128 0x8
 1324 05df 03140000 		.4byte	.LASF182
 1325 05e3 17       		.sleb128 23
 1326 05e4 08       		.uleb128 0x8
 1327 05e5 2A1D0000 		.4byte	.LASF183
 1328 05e9 18       		.sleb128 24
 1329 05ea 08       		.uleb128 0x8
 1330 05eb 4F0C0000 		.4byte	.LASF184
 1331 05ef 19       		.sleb128 25
 1332 05f0 08       		.uleb128 0x8
 1333 05f1 4C0E0000 		.4byte	.LASF185
 1334 05f5 1B       		.sleb128 27
 1335 05f6 08       		.uleb128 0x8
 1336 05f7 5E080000 		.4byte	.LASF186
 1337 05fb 1D       		.sleb128 29
 1338 05fc 08       		.uleb128 0x8
 1339 05fd 42000000 		.4byte	.LASF187
 1340 0601 1E       		.sleb128 30
 1341 0602 08       		.uleb128 0x8
 1342 0603 EE0B0000 		.4byte	.LASF188
 1343 0607 D201     		.sleb128 210
 1344 0609 08       		.uleb128 0x8
 1345 060a 94170000 		.4byte	.LASF189
 1346 060e FF01     		.sleb128 255
 1347 0610 00       		.byte	0
 1348 0611 07       		.uleb128 0x7
 1349 0612 01       		.byte	0x1
 1350 0613 06       		.byte	0x6
 1351 0614 A4       		.byte	0xa4
 1352 0615 E8060000 		.4byte	0x6e8
 1353 0619 08       		.uleb128 0x8
 1354 061a 14180000 		.4byte	.LASF190
 1355 061e 00       		.sleb128 0
 1356 061f 08       		.uleb128 0x8
 1357 0620 51170000 		.4byte	.LASF191
 1358 0624 01       		.sleb128 1
ARM GAS  C:\Users\danielpi\AppData\Local\Temp\ccwIrVvL.s 			page 57


 1359 0625 08       		.uleb128 0x8
 1360 0626 61010000 		.4byte	.LASF192
 1361 062a 02       		.sleb128 2
 1362 062b 08       		.uleb128 0x8
 1363 062c A21D0000 		.4byte	.LASF193
 1364 0630 03       		.sleb128 3
 1365 0631 08       		.uleb128 0x8
 1366 0632 07060000 		.4byte	.LASF194
 1367 0636 04       		.sleb128 4
 1368 0637 08       		.uleb128 0x8
 1369 0638 14130000 		.4byte	.LASF195
 1370 063c 05       		.sleb128 5
 1371 063d 08       		.uleb128 0x8
 1372 063e 911A0000 		.4byte	.LASF196
 1373 0642 06       		.sleb128 6
 1374 0643 08       		.uleb128 0x8
 1375 0644 7C150000 		.4byte	.LASF197
 1376 0648 07       		.sleb128 7
 1377 0649 08       		.uleb128 0x8
 1378 064a 8D120000 		.4byte	.LASF198
 1379 064e 08       		.sleb128 8
 1380 064f 08       		.uleb128 0x8
 1381 0650 D3100000 		.4byte	.LASF199
 1382 0654 09       		.sleb128 9
 1383 0655 08       		.uleb128 0x8
 1384 0656 2E140000 		.4byte	.LASF200
 1385 065a 0A       		.sleb128 10
 1386 065b 08       		.uleb128 0x8
 1387 065c CC0A0000 		.4byte	.LASF201
 1388 0660 0B       		.sleb128 11
 1389 0661 08       		.uleb128 0x8
 1390 0662 85110000 		.4byte	.LASF202
 1391 0666 0C       		.sleb128 12
 1392 0667 08       		.uleb128 0x8
 1393 0668 D0060000 		.4byte	.LASF203
 1394 066c 0D       		.sleb128 13
 1395 066d 08       		.uleb128 0x8
 1396 066e EE090000 		.4byte	.LASF204
 1397 0672 0E       		.sleb128 14
 1398 0673 08       		.uleb128 0x8
 1399 0674 E11D0000 		.4byte	.LASF205
 1400 0678 0F       		.sleb128 15
 1401 0679 08       		.uleb128 0x8
 1402 067a C5010000 		.4byte	.LASF206
 1403 067e 10       		.sleb128 16
 1404 067f 08       		.uleb128 0x8
 1405 0680 83010000 		.4byte	.LASF207
 1406 0684 11       		.sleb128 17
 1407 0685 08       		.uleb128 0x8
 1408 0686 960A0000 		.4byte	.LASF208
 1409 068a 8001     		.sleb128 128
 1410 068c 08       		.uleb128 0x8
 1411 068d C90C0000 		.4byte	.LASF209
 1412 0691 8001     		.sleb128 128
 1413 0693 08       		.uleb128 0x8
 1414 0694 451A0000 		.4byte	.LASF210
 1415 0698 8001     		.sleb128 128
ARM GAS  C:\Users\danielpi\AppData\Local\Temp\ccwIrVvL.s 			page 58


 1416 069a 08       		.uleb128 0x8
 1417 069b 69180000 		.4byte	.LASF211
 1418 069f 8001     		.sleb128 128
 1419 06a1 08       		.uleb128 0x8
 1420 06a2 A6130000 		.4byte	.LASF212
 1421 06a6 8001     		.sleb128 128
 1422 06a8 08       		.uleb128 0x8
 1423 06a9 6D0D0000 		.4byte	.LASF213
 1424 06ad 8001     		.sleb128 128
 1425 06af 08       		.uleb128 0x8
 1426 06b0 D3090000 		.4byte	.LASF214
 1427 06b4 8001     		.sleb128 128
 1428 06b6 08       		.uleb128 0x8
 1429 06b7 0A0C0000 		.4byte	.LASF215
 1430 06bb 8101     		.sleb128 129
 1431 06bd 08       		.uleb128 0x8
 1432 06be 78190000 		.4byte	.LASF216
 1433 06c2 8101     		.sleb128 129
 1434 06c4 08       		.uleb128 0x8
 1435 06c5 00000000 		.4byte	.LASF217
 1436 06c9 8101     		.sleb128 129
 1437 06cb 08       		.uleb128 0x8
 1438 06cc 9A1B0000 		.4byte	.LASF218
 1439 06d0 A001     		.sleb128 160
 1440 06d2 08       		.uleb128 0x8
 1441 06d3 B5070000 		.4byte	.LASF219
 1442 06d7 FD01     		.sleb128 253
 1443 06d9 08       		.uleb128 0x8
 1444 06da C3110000 		.4byte	.LASF220
 1445 06de FE01     		.sleb128 254
 1446 06e0 08       		.uleb128 0x8
 1447 06e1 D4150000 		.4byte	.LASF221
 1448 06e5 FF01     		.sleb128 255
 1449 06e7 00       		.byte	0
 1450 06e8 0A       		.uleb128 0xa
 1451 06e9 41180000 		.4byte	.LASF222
 1452 06ed 06       		.byte	0x6
 1453 06ee 4001     		.2byte	0x140
 1454 06f0 11060000 		.4byte	0x611
 1455 06f4 0A       		.uleb128 0xa
 1456 06f5 C9170000 		.4byte	.LASF223
 1457 06f9 06       		.byte	0x6
 1458 06fa 6201     		.2byte	0x162
 1459 06fc 76000000 		.4byte	0x76
 1460 0700 0B       		.uleb128 0xb
 1461 0701 02       		.byte	0x2
 1462 0702 06       		.byte	0x6
 1463 0703 6501     		.2byte	0x165
 1464 0705 24070000 		.4byte	0x724
 1465 0709 0C       		.uleb128 0xc
 1466 070a 30040000 		.4byte	.LASF224
 1467 070e 06       		.byte	0x6
 1468 070f 6C01     		.2byte	0x16c
 1469 0711 6B000000 		.4byte	0x6b
 1470 0715 00       		.byte	0
 1471 0716 0C       		.uleb128 0xc
 1472 0717 451E0000 		.4byte	.LASF225
ARM GAS  C:\Users\danielpi\AppData\Local\Temp\ccwIrVvL.s 			page 59


 1473 071b 06       		.byte	0x6
 1474 071c 7201     		.2byte	0x172
 1475 071e 6B000000 		.4byte	0x6b
 1476 0722 01       		.byte	0x1
 1477 0723 00       		.byte	0
 1478 0724 0A       		.uleb128 0xa
 1479 0725 98030000 		.4byte	.LASF226
 1480 0729 06       		.byte	0x6
 1481 072a 7401     		.2byte	0x174
 1482 072c 00070000 		.4byte	0x700
 1483 0730 0B       		.uleb128 0xb
 1484 0731 08       		.byte	0x8
 1485 0732 06       		.byte	0x6
 1486 0733 8901     		.2byte	0x189
 1487 0735 61070000 		.4byte	0x761
 1488 0739 10       		.uleb128 0x10
 1489 073a 76616C00 		.ascii	"val\000"
 1490 073e 06       		.byte	0x6
 1491 073f 8C01     		.2byte	0x18c
 1492 0741 07050000 		.4byte	0x507
 1493 0745 00       		.byte	0
 1494 0746 10       		.uleb128 0x10
 1495 0747 6C656E00 		.ascii	"len\000"
 1496 074b 06       		.byte	0x6
 1497 074c 8F01     		.2byte	0x18f
 1498 074e 76000000 		.4byte	0x76
 1499 0752 04       		.byte	0x4
 1500 0753 0C       		.uleb128 0xc
 1501 0754 1E1E0000 		.4byte	.LASF227
 1502 0758 06       		.byte	0x6
 1503 0759 9601     		.2byte	0x196
 1504 075b 76000000 		.4byte	0x76
 1505 075f 06       		.byte	0x6
 1506 0760 00       		.byte	0
 1507 0761 0A       		.uleb128 0xa
 1508 0762 7C020000 		.4byte	.LASF228
 1509 0766 06       		.byte	0x6
 1510 0767 9801     		.2byte	0x198
 1511 0769 30070000 		.4byte	0x730
 1512 076d 0B       		.uleb128 0xb
 1513 076e 0C       		.byte	0xc
 1514 076f 06       		.byte	0x6
 1515 0770 9B01     		.2byte	0x19b
 1516 0772 91070000 		.4byte	0x791
 1517 0776 0C       		.uleb128 0xc
 1518 0777 28180000 		.4byte	.LASF229
 1519 077b 06       		.byte	0x6
 1520 077c 9E01     		.2byte	0x19e
 1521 077e 61070000 		.4byte	0x761
 1522 0782 00       		.byte	0
 1523 0783 0C       		.uleb128 0xc
 1524 0784 B7120000 		.4byte	.LASF230
 1525 0788 06       		.byte	0x6
 1526 0789 A101     		.2byte	0x1a1
 1527 078b F4060000 		.4byte	0x6f4
 1528 078f 08       		.byte	0x8
 1529 0790 00       		.byte	0
ARM GAS  C:\Users\danielpi\AppData\Local\Temp\ccwIrVvL.s 			page 60


 1530 0791 0A       		.uleb128 0xa
 1531 0792 72060000 		.4byte	.LASF231
 1532 0796 06       		.byte	0x6
 1533 0797 A301     		.2byte	0x1a3
 1534 0799 6D070000 		.4byte	0x76d
 1535 079d 0B       		.uleb128 0xb
 1536 079e 04       		.byte	0x4
 1537 079f 06       		.byte	0x6
 1538 07a0 B101     		.2byte	0x1b1
 1539 07a2 C1070000 		.4byte	0x7c1
 1540 07a6 0C       		.uleb128 0xc
 1541 07a7 DA180000 		.4byte	.LASF232
 1542 07ab 06       		.byte	0x6
 1543 07ac B401     		.2byte	0x1b4
 1544 07ae 24070000 		.4byte	0x724
 1545 07b2 00       		.byte	0
 1546 07b3 10       		.uleb128 0x10
 1547 07b4 6D747500 		.ascii	"mtu\000"
 1548 07b8 06       		.byte	0x6
 1549 07b9 B701     		.2byte	0x1b7
 1550 07bb 76000000 		.4byte	0x76
 1551 07bf 02       		.byte	0x2
 1552 07c0 00       		.byte	0
 1553 07c1 0A       		.uleb128 0xa
 1554 07c2 3F130000 		.4byte	.LASF233
 1555 07c6 06       		.byte	0x6
 1556 07c7 B901     		.2byte	0x1b9
 1557 07c9 9D070000 		.4byte	0x79d
 1558 07cd 11       		.uleb128 0x11
 1559 07ce 04       		.byte	0x4
 1560 07cf 07       		.byte	0x7
 1561 07d0 34       		.byte	0x34
 1562 07d1 FA070000 		.4byte	0x7fa
 1563 07d5 12       		.uleb128 0x12
 1564 07d6 B7120000 		.4byte	.LASF230
 1565 07da 07       		.byte	0x7
 1566 07db 37       		.byte	0x37
 1567 07dc F4060000 		.4byte	0x6f4
 1568 07e0 00       		.byte	0
 1569 07e1 12       		.uleb128 0x12
 1570 07e2 86120000 		.4byte	.LASF234
 1571 07e6 07       		.byte	0x7
 1572 07e7 3D       		.byte	0x3d
 1573 07e8 6B000000 		.4byte	0x6b
 1574 07ec 02       		.byte	0x2
 1575 07ed 12       		.uleb128 0x12
 1576 07ee BA080000 		.4byte	.LASF235
 1577 07f2 07       		.byte	0x7
 1578 07f3 40       		.byte	0x40
 1579 07f4 E8060000 		.4byte	0x6e8
 1580 07f8 03       		.byte	0x3
 1581 07f9 00       		.byte	0
 1582 07fa 04       		.uleb128 0x4
 1583 07fb 1A080000 		.4byte	.LASF236
 1584 07ff 07       		.byte	0x7
 1585 0800 42       		.byte	0x42
 1586 0801 CD070000 		.4byte	0x7cd
ARM GAS  C:\Users\danielpi\AppData\Local\Temp\ccwIrVvL.s 			page 61


 1587 0805 11       		.uleb128 0x11
 1588 0806 10       		.byte	0x10
 1589 0807 07       		.byte	0x7
 1590 0808 84       		.byte	0x84
 1591 0809 26080000 		.4byte	0x826
 1592 080d 12       		.uleb128 0x12
 1593 080e DA180000 		.4byte	.LASF232
 1594 0812 07       		.byte	0x7
 1595 0813 87       		.byte	0x87
 1596 0814 24070000 		.4byte	0x724
 1597 0818 00       		.byte	0
 1598 0819 12       		.uleb128 0x12
 1599 081a CC180000 		.4byte	.LASF237
 1600 081e 07       		.byte	0x7
 1601 081f 8A       		.byte	0x8a
 1602 0820 91070000 		.4byte	0x791
 1603 0824 04       		.byte	0x4
 1604 0825 00       		.byte	0
 1605 0826 04       		.uleb128 0x4
 1606 0827 CA120000 		.4byte	.LASF238
 1607 082b 07       		.byte	0x7
 1608 082c 8C       		.byte	0x8c
 1609 082d 05080000 		.4byte	0x805
 1610 0831 0A       		.uleb128 0xa
 1611 0832 38030000 		.4byte	.LASF239
 1612 0836 08       		.byte	0x8
 1613 0837 2D01     		.2byte	0x12d
 1614 0839 3D080000 		.4byte	0x83d
 1615 083d 0F       		.uleb128 0xf
 1616 083e 04       		.byte	0x4
 1617 083f 43080000 		.4byte	0x843
 1618 0843 13       		.uleb128 0x13
 1619 0844 53080000 		.4byte	0x853
 1620 0848 14       		.uleb128 0x14
 1621 0849 81000000 		.4byte	0x81
 1622 084d 14       		.uleb128 0x14
 1623 084e AD000000 		.4byte	0xad
 1624 0852 00       		.byte	0
 1625 0853 07       		.uleb128 0x7
 1626 0854 01       		.byte	0x1
 1627 0855 09       		.byte	0x9
 1628 0856 1D       		.byte	0x1d
 1629 0857 98080000 		.4byte	0x898
 1630 085b 08       		.uleb128 0x8
 1631 085c F1160000 		.4byte	.LASF240
 1632 0860 00       		.sleb128 0
 1633 0861 08       		.uleb128 0x8
 1634 0862 400B0000 		.4byte	.LASF241
 1635 0866 01       		.sleb128 1
 1636 0867 08       		.uleb128 0x8
 1637 0868 910E0000 		.4byte	.LASF242
 1638 086c 02       		.sleb128 2
 1639 086d 08       		.uleb128 0x8
 1640 086e DC050000 		.4byte	.LASF243
 1641 0872 03       		.sleb128 3
 1642 0873 08       		.uleb128 0x8
 1643 0874 49030000 		.4byte	.LASF244
ARM GAS  C:\Users\danielpi\AppData\Local\Temp\ccwIrVvL.s 			page 62


 1644 0878 04       		.sleb128 4
 1645 0879 08       		.uleb128 0x8
 1646 087a 070B0000 		.4byte	.LASF245
 1647 087e 05       		.sleb128 5
 1648 087f 08       		.uleb128 0x8
 1649 0880 680B0000 		.4byte	.LASF246
 1650 0884 06       		.sleb128 6
 1651 0885 08       		.uleb128 0x8
 1652 0886 5B130000 		.4byte	.LASF247
 1653 088a 07       		.sleb128 7
 1654 088b 08       		.uleb128 0x8
 1655 088c AE100000 		.4byte	.LASF248
 1656 0890 08       		.sleb128 8
 1657 0891 08       		.uleb128 0x8
 1658 0892 1B000000 		.4byte	.LASF249
 1659 0896 09       		.sleb128 9
 1660 0897 00       		.byte	0
 1661 0898 07       		.uleb128 0x7
 1662 0899 01       		.byte	0x1
 1663 089a 0A       		.byte	0xa
 1664 089b 22       		.byte	0x22
 1665 089c B9080000 		.4byte	0x8b9
 1666 08a0 08       		.uleb128 0x8
 1667 08a1 82160000 		.4byte	.LASF250
 1668 08a5 00       		.sleb128 0
 1669 08a6 08       		.uleb128 0x8
 1670 08a7 71100000 		.4byte	.LASF251
 1671 08ab 01       		.sleb128 1
 1672 08ac 08       		.uleb128 0x8
 1673 08ad 20140000 		.4byte	.LASF252
 1674 08b1 02       		.sleb128 2
 1675 08b2 08       		.uleb128 0x8
 1676 08b3 7C1A0000 		.4byte	.LASF253
 1677 08b7 03       		.sleb128 3
 1678 08b8 00       		.byte	0
 1679 08b9 09       		.uleb128 0x9
 1680 08ba 01       		.byte	0x1
 1681 08bb 0B       		.byte	0xb
 1682 08bc 1D07     		.2byte	0x71d
 1683 08be E1080000 		.4byte	0x8e1
 1684 08c2 08       		.uleb128 0x8
 1685 08c3 06080000 		.4byte	.LASF254
 1686 08c7 00       		.sleb128 0
 1687 08c8 08       		.uleb128 0x8
 1688 08c9 FF0E0000 		.4byte	.LASF255
 1689 08cd 01       		.sleb128 1
 1690 08ce 08       		.uleb128 0x8
 1691 08cf 081E0000 		.4byte	.LASF256
 1692 08d3 02       		.sleb128 2
 1693 08d4 08       		.uleb128 0x8
 1694 08d5 04040000 		.4byte	.LASF257
 1695 08d9 03       		.sleb128 3
 1696 08da 08       		.uleb128 0x8
 1697 08db BF190000 		.4byte	.LASF258
 1698 08df 04       		.sleb128 4
 1699 08e0 00       		.byte	0
 1700 08e1 0A       		.uleb128 0xa
ARM GAS  C:\Users\danielpi\AppData\Local\Temp\ccwIrVvL.s 			page 63


 1701 08e2 F11A0000 		.4byte	.LASF259
 1702 08e6 0B       		.byte	0xb
 1703 08e7 2B07     		.2byte	0x72b
 1704 08e9 B9080000 		.4byte	0x8b9
 1705 08ed 15       		.uleb128 0x15
 1706 08ee 8D100000 		.4byte	.LASF295
 1707 08f2 01       		.byte	0x1
 1708 08f3 7304     		.2byte	0x473
 1709 08f5 00000000 		.4byte	.LFB4
 1710 08f9 10000000 		.4byte	.LFE4-.LFB4
 1711 08fd 01       		.uleb128 0x1
 1712 08fe 9C       		.byte	0x9c
 1713 08ff 16       		.uleb128 0x16
 1714 0900 7E140000 		.4byte	.LASF296
 1715 0904 01       		.byte	0x1
 1716 0905 1705     		.2byte	0x517
 1717 0907 6B000000 		.4byte	0x6b
 1718 090b 00000000 		.4byte	.LFB7
 1719 090f 24000000 		.4byte	.LFE7-.LFB7
 1720 0913 01       		.uleb128 0x1
 1721 0914 9C       		.byte	0x9c
 1722 0915 48090000 		.4byte	0x948
 1723 0919 17       		.uleb128 0x17
 1724 091a BF100000 		.4byte	.LASF261
 1725 091e 01       		.byte	0x1
 1726 091f 1705     		.2byte	0x517
 1727 0921 48090000 		.4byte	0x948
 1728 0925 00000000 		.4byte	.LLST0
 1729 0929 18       		.uleb128 0x18
 1730 092a 6900     		.ascii	"i\000"
 1731 092c 01       		.byte	0x1
 1732 092d 1905     		.2byte	0x519
 1733 092f 6B000000 		.4byte	0x6b
 1734 0933 53000000 		.4byte	.LLST1
 1735 0937 19       		.uleb128 0x19
 1736 0938 81170000 		.4byte	.LASF260
 1737 093c 01       		.byte	0x1
 1738 093d 1A05     		.2byte	0x51a
 1739 093f 6B000000 		.4byte	0x6b
 1740 0943 89000000 		.4byte	.LLST2
 1741 0947 00       		.byte	0
 1742 0948 0F       		.uleb128 0xf
 1743 0949 04       		.byte	0x4
 1744 094a 4E090000 		.4byte	0x94e
 1745 094e 1A       		.uleb128 0x1a
 1746 094f CF030000 		.4byte	0x3cf
 1747 0953 1B       		.uleb128 0x1b
 1748 0954 87000000 		.4byte	.LASF297
 1749 0958 01       		.byte	0x1
 1750 0959 DE       		.byte	0xde
 1751 095a 00000000 		.4byte	.LFB2
 1752 095e 4C000000 		.4byte	.LFE2-.LFB2
 1753 0962 01       		.uleb128 0x1
 1754 0963 9C       		.byte	0x9c
 1755 0964 E5090000 		.4byte	0x9e5
 1756 0968 1C       		.uleb128 0x1c
 1757 0969 9D000000 		.4byte	.LASF262
ARM GAS  C:\Users\danielpi\AppData\Local\Temp\ccwIrVvL.s 			page 64


 1758 096d 01       		.byte	0x1
 1759 096e DE       		.byte	0xde
 1760 096f E5090000 		.4byte	0x9e5
 1761 0973 A8000000 		.4byte	.LLST3
 1762 0977 1D       		.uleb128 0x1d
 1763 0978 9A1D0000 		.4byte	.LASF263
 1764 097c 01       		.byte	0x1
 1765 097d E0       		.byte	0xe0
 1766 097e E8060000 		.4byte	0x6e8
 1767 0982 D4000000 		.4byte	.LLST4
 1768 0986 1E       		.uleb128 0x1e
 1769 0987 28000000 		.4byte	.LBB2
 1770 098b 12000000 		.4byte	.LBE2-.LBB2
 1771 098f B3090000 		.4byte	0x9b3
 1772 0993 1F       		.uleb128 0x1f
 1773 0994 D4130000 		.4byte	.LASF264
 1774 0998 01       		.byte	0x1
 1775 0999 8201     		.2byte	0x182
 1776 099b FA070000 		.4byte	0x7fa
 1777 099f 02       		.uleb128 0x2
 1778 09a0 91       		.byte	0x91
 1779 09a1 74       		.sleb128 -12
 1780 09a2 20       		.uleb128 0x20
 1781 09a3 3A000000 		.4byte	.LVL15
 1782 09a7 8E0C0000 		.4byte	0xc8e
 1783 09ab 21       		.uleb128 0x21
 1784 09ac 01       		.uleb128 0x1
 1785 09ad 51       		.byte	0x51
 1786 09ae 02       		.uleb128 0x2
 1787 09af 91       		.byte	0x91
 1788 09b0 74       		.sleb128 -12
 1789 09b1 00       		.byte	0
 1790 09b2 00       		.byte	0
 1791 09b3 22       		.uleb128 0x22
 1792 09b4 0A000000 		.4byte	.LVL11
 1793 09b8 AF0C0000 		.4byte	0xcaf
 1794 09bc C7090000 		.4byte	0x9c7
 1795 09c0 21       		.uleb128 0x21
 1796 09c1 01       		.uleb128 0x1
 1797 09c2 50       		.byte	0x50
 1798 09c3 02       		.uleb128 0x2
 1799 09c4 74       		.byte	0x74
 1800 09c5 00       		.sleb128 0
 1801 09c6 00       		.byte	0
 1802 09c7 22       		.uleb128 0x22
 1803 09c8 1C000000 		.4byte	.LVL13
 1804 09cc C40C0000 		.4byte	0xcc4
 1805 09d0 DB090000 		.4byte	0x9db
 1806 09d4 21       		.uleb128 0x21
 1807 09d5 01       		.uleb128 0x1
 1808 09d6 50       		.byte	0x50
 1809 09d7 02       		.uleb128 0x2
 1810 09d8 74       		.byte	0x74
 1811 09d9 00       		.sleb128 0
 1812 09da 00       		.byte	0
 1813 09db 23       		.uleb128 0x23
 1814 09dc 42000000 		.4byte	.LVL18
ARM GAS  C:\Users\danielpi\AppData\Local\Temp\ccwIrVvL.s 			page 65


 1815 09e0 D90C0000 		.4byte	0xcd9
 1816 09e4 00       		.byte	0
 1817 09e5 0F       		.uleb128 0xf
 1818 09e6 04       		.byte	0x4
 1819 09e7 26080000 		.4byte	0x826
 1820 09eb 24       		.uleb128 0x24
 1821 09ec 77070000 		.4byte	.LASF298
 1822 09f0 01       		.byte	0x1
 1823 09f1 7505     		.2byte	0x575
 1824 09f3 00000000 		.4byte	.LFB10
 1825 09f7 18020000 		.4byte	.LFE10-.LFB10
 1826 09fb 01       		.uleb128 0x1
 1827 09fc 9C       		.byte	0x9c
 1828 09fd B60B0000 		.4byte	0xbb6
 1829 0a01 17       		.uleb128 0x17
 1830 0a02 9F1C0000 		.4byte	.LASF265
 1831 0a06 01       		.byte	0x1
 1832 0a07 7505     		.2byte	0x575
 1833 0a09 6B000000 		.4byte	0x6b
 1834 0a0d FD000000 		.4byte	.LLST5
 1835 0a11 17       		.uleb128 0x17
 1836 0a12 9D000000 		.4byte	.LASF262
 1837 0a16 01       		.byte	0x1
 1838 0a17 7505     		.2byte	0x575
 1839 0a19 AD000000 		.4byte	0xad
 1840 0a1d CD010000 		.4byte	.LLST6
 1841 0a21 1E       		.uleb128 0x1e
 1842 0a22 56000000 		.4byte	.LBB3
 1843 0a26 1C000000 		.4byte	.LBE3-.LBB3
 1844 0a2a 620A0000 		.4byte	0xa62
 1845 0a2e 1F       		.uleb128 0x1f
 1846 0a2f E5170000 		.4byte	.LASF266
 1847 0a33 01       		.byte	0x1
 1848 0a34 8205     		.2byte	0x582
 1849 0a36 8F030000 		.4byte	0x38f
 1850 0a3a 02       		.uleb128 0x2
 1851 0a3b 91       		.byte	0x91
 1852 0a3c 64       		.sleb128 -28
 1853 0a3d 22       		.uleb128 0x22
 1854 0a3e 66000000 		.4byte	.LVL22
 1855 0a42 EF0C0000 		.4byte	0xcef
 1856 0a46 510A0000 		.4byte	0xa51
 1857 0a4a 21       		.uleb128 0x21
 1858 0a4b 01       		.uleb128 0x1
 1859 0a4c 50       		.byte	0x50
 1860 0a4d 02       		.uleb128 0x2
 1861 0a4e 75       		.byte	0x75
 1862 0a4f 00       		.sleb128 0
 1863 0a50 00       		.byte	0
 1864 0a51 20       		.uleb128 0x20
 1865 0a52 72000000 		.4byte	.LVL23
 1866 0a56 EF0C0000 		.4byte	0xcef
 1867 0a5a 21       		.uleb128 0x21
 1868 0a5b 01       		.uleb128 0x1
 1869 0a5c 50       		.byte	0x50
 1870 0a5d 02       		.uleb128 0x2
 1871 0a5e 75       		.byte	0x75
ARM GAS  C:\Users\danielpi\AppData\Local\Temp\ccwIrVvL.s 			page 66


 1872 0a5f 00       		.sleb128 0
 1873 0a60 00       		.byte	0
 1874 0a61 00       		.byte	0
 1875 0a62 1E       		.uleb128 0x1e
 1876 0a63 96010000 		.4byte	.LBB4
 1877 0a67 0E000000 		.4byte	.LBE4-.LBB4
 1878 0a6b 890A0000 		.4byte	0xa89
 1879 0a6f 19       		.uleb128 0x19
 1880 0a70 180F0000 		.4byte	.LASF267
 1881 0a74 01       		.byte	0x1
 1882 0a75 5206     		.2byte	0x652
 1883 0a77 76000000 		.4byte	0x76
 1884 0a7b 93020000 		.4byte	.LLST7
 1885 0a7f 23       		.uleb128 0x23
 1886 0a80 A4010000 		.4byte	.LVL50
 1887 0a84 0B0D0000 		.4byte	0xd0b
 1888 0a88 00       		.byte	0
 1889 0a89 22       		.uleb128 0x22
 1890 0a8a 7C000000 		.4byte	.LVL24
 1891 0a8e FF080000 		.4byte	0x8ff
 1892 0a92 9D0A0000 		.4byte	0xa9d
 1893 0a96 21       		.uleb128 0x21
 1894 0a97 01       		.uleb128 0x1
 1895 0a98 50       		.byte	0x50
 1896 0a99 02       		.uleb128 0x2
 1897 0a9a 75       		.byte	0x75
 1898 0a9b 00       		.sleb128 0
 1899 0a9c 00       		.byte	0
 1900 0a9d 22       		.uleb128 0x22
 1901 0a9e 86000000 		.4byte	.LVL25
 1902 0aa2 260D0000 		.4byte	0xd26
 1903 0aa6 B10A0000 		.4byte	0xab1
 1904 0aaa 21       		.uleb128 0x21
 1905 0aab 01       		.uleb128 0x1
 1906 0aac 50       		.byte	0x50
 1907 0aad 02       		.uleb128 0x2
 1908 0aae 75       		.byte	0x75
 1909 0aaf 00       		.sleb128 0
 1910 0ab0 00       		.byte	0
 1911 0ab1 22       		.uleb128 0x22
 1912 0ab2 90000000 		.4byte	.LVL26
 1913 0ab6 3C0D0000 		.4byte	0xd3c
 1914 0aba C40A0000 		.4byte	0xac4
 1915 0abe 21       		.uleb128 0x21
 1916 0abf 01       		.uleb128 0x1
 1917 0ac0 51       		.byte	0x51
 1918 0ac1 01       		.uleb128 0x1
 1919 0ac2 30       		.byte	0x30
 1920 0ac3 00       		.byte	0
 1921 0ac4 22       		.uleb128 0x22
 1922 0ac5 98000000 		.4byte	.LVL27
 1923 0ac9 3C0D0000 		.4byte	0xd3c
 1924 0acd D70A0000 		.4byte	0xad7
 1925 0ad1 21       		.uleb128 0x21
 1926 0ad2 01       		.uleb128 0x1
 1927 0ad3 51       		.byte	0x51
 1928 0ad4 01       		.uleb128 0x1
ARM GAS  C:\Users\danielpi\AppData\Local\Temp\ccwIrVvL.s 			page 67


 1929 0ad5 31       		.byte	0x31
 1930 0ad6 00       		.byte	0
 1931 0ad7 22       		.uleb128 0x22
 1932 0ad8 B4000000 		.4byte	.LVL28
 1933 0adc 260D0000 		.4byte	0xd26
 1934 0ae0 EB0A0000 		.4byte	0xaeb
 1935 0ae4 21       		.uleb128 0x21
 1936 0ae5 01       		.uleb128 0x1
 1937 0ae6 50       		.byte	0x50
 1938 0ae7 02       		.uleb128 0x2
 1939 0ae8 75       		.byte	0x75
 1940 0ae9 00       		.sleb128 0
 1941 0aea 00       		.byte	0
 1942 0aeb 22       		.uleb128 0x22
 1943 0aec BC000000 		.4byte	.LVL29
 1944 0af0 3C0D0000 		.4byte	0xd3c
 1945 0af4 040B0000 		.4byte	0xb04
 1946 0af8 21       		.uleb128 0x21
 1947 0af9 01       		.uleb128 0x1
 1948 0afa 51       		.byte	0x51
 1949 0afb 01       		.uleb128 0x1
 1950 0afc 30       		.byte	0x30
 1951 0afd 21       		.uleb128 0x21
 1952 0afe 01       		.uleb128 0x1
 1953 0aff 50       		.byte	0x50
 1954 0b00 02       		.uleb128 0x2
 1955 0b01 75       		.byte	0x75
 1956 0b02 00       		.sleb128 0
 1957 0b03 00       		.byte	0
 1958 0b04 22       		.uleb128 0x22
 1959 0b05 C4000000 		.4byte	.LVL30
 1960 0b09 3C0D0000 		.4byte	0xd3c
 1961 0b0d 1D0B0000 		.4byte	0xb1d
 1962 0b11 21       		.uleb128 0x21
 1963 0b12 01       		.uleb128 0x1
 1964 0b13 51       		.byte	0x51
 1965 0b14 01       		.uleb128 0x1
 1966 0b15 31       		.byte	0x31
 1967 0b16 21       		.uleb128 0x21
 1968 0b17 01       		.uleb128 0x1
 1969 0b18 50       		.byte	0x50
 1970 0b19 02       		.uleb128 0x2
 1971 0b1a 75       		.byte	0x75
 1972 0b1b 00       		.sleb128 0
 1973 0b1c 00       		.byte	0
 1974 0b1d 22       		.uleb128 0x22
 1975 0b1e CA000000 		.4byte	.LVL31
 1976 0b22 530D0000 		.4byte	0xd53
 1977 0b26 300B0000 		.4byte	0xb30
 1978 0b2a 21       		.uleb128 0x21
 1979 0b2b 01       		.uleb128 0x1
 1980 0b2c 50       		.byte	0x50
 1981 0b2d 01       		.uleb128 0x1
 1982 0b2e 30       		.byte	0x30
 1983 0b2f 00       		.byte	0
 1984 0b30 22       		.uleb128 0x22
 1985 0b31 FA000000 		.4byte	.LVL35
ARM GAS  C:\Users\danielpi\AppData\Local\Temp\ccwIrVvL.s 			page 68


 1986 0b35 690D0000 		.4byte	0xd69
 1987 0b39 470B0000 		.4byte	0xb47
 1988 0b3d 21       		.uleb128 0x21
 1989 0b3e 01       		.uleb128 0x1
 1990 0b3f 51       		.byte	0x51
 1991 0b40 05       		.uleb128 0x5
 1992 0b41 03       		.byte	0x3
 1993 0b42 00000000 		.4byte	.LANCHOR0
 1994 0b46 00       		.byte	0
 1995 0b47 22       		.uleb128 0x22
 1996 0b48 68010000 		.4byte	.LVL39
 1997 0b4c 8A0D0000 		.4byte	0xd8a
 1998 0b50 5A0B0000 		.4byte	0xb5a
 1999 0b54 21       		.uleb128 0x21
 2000 0b55 01       		.uleb128 0x1
 2001 0b56 50       		.byte	0x50
 2002 0b57 01       		.uleb128 0x1
 2003 0b58 31       		.byte	0x31
 2004 0b59 00       		.byte	0
 2005 0b5a 22       		.uleb128 0x22
 2006 0b5b 7E010000 		.4byte	.LVL42
 2007 0b5f A00D0000 		.4byte	0xda0
 2008 0b63 730B0000 		.4byte	0xb73
 2009 0b67 21       		.uleb128 0x21
 2010 0b68 01       		.uleb128 0x1
 2011 0b69 52       		.byte	0x52
 2012 0b6a 01       		.uleb128 0x1
 2013 0b6b 32       		.byte	0x32
 2014 0b6c 21       		.uleb128 0x21
 2015 0b6d 01       		.uleb128 0x1
 2016 0b6e 50       		.byte	0x50
 2017 0b6f 02       		.uleb128 0x2
 2018 0b70 75       		.byte	0x75
 2019 0b71 00       		.sleb128 0
 2020 0b72 00       		.byte	0
 2021 0b73 22       		.uleb128 0x22
 2022 0b74 8E010000 		.4byte	.LVL43
 2023 0b78 A00D0000 		.4byte	0xda0
 2024 0b7c 860B0000 		.4byte	0xb86
 2025 0b80 21       		.uleb128 0x21
 2026 0b81 01       		.uleb128 0x1
 2027 0b82 52       		.byte	0x52
 2028 0b83 01       		.uleb128 0x1
 2029 0b84 34       		.byte	0x34
 2030 0b85 00       		.byte	0
 2031 0b86 23       		.uleb128 0x23
 2032 0b87 94010000 		.4byte	.LVL45
 2033 0b8b ED080000 		.4byte	0x8ed
 2034 0b8f 22       		.uleb128 0x22
 2035 0b90 AC010000 		.4byte	.LVL53
 2036 0b94 53090000 		.4byte	0x953
 2037 0b98 A30B0000 		.4byte	0xba3
 2038 0b9c 21       		.uleb128 0x21
 2039 0b9d 01       		.uleb128 0x1
 2040 0b9e 50       		.byte	0x50
 2041 0b9f 02       		.uleb128 0x2
 2042 0ba0 76       		.byte	0x76
ARM GAS  C:\Users\danielpi\AppData\Local\Temp\ccwIrVvL.s 			page 69


 2043 0ba1 00       		.sleb128 0
 2044 0ba2 00       		.byte	0
 2045 0ba3 25       		.uleb128 0x25
 2046 0ba4 D6010000 		.4byte	.LVL57
 2047 0ba8 21       		.uleb128 0x21
 2048 0ba9 01       		.uleb128 0x1
 2049 0baa 51       		.byte	0x51
 2050 0bab 02       		.uleb128 0x2
 2051 0bac 76       		.byte	0x76
 2052 0bad 00       		.sleb128 0
 2053 0bae 21       		.uleb128 0x21
 2054 0baf 01       		.uleb128 0x1
 2055 0bb0 50       		.byte	0x50
 2056 0bb1 02       		.uleb128 0x2
 2057 0bb2 74       		.byte	0x74
 2058 0bb3 00       		.sleb128 0
 2059 0bb4 00       		.byte	0
 2060 0bb5 00       		.byte	0
 2061 0bb6 26       		.uleb128 0x26
 2062 0bb7 2E180000 		.4byte	.LASF268
 2063 0bbb 08       		.byte	0x8
 2064 0bbc 9E01     		.2byte	0x19e
 2065 0bbe 31080000 		.4byte	0x831
 2066 0bc2 27       		.uleb128 0x27
 2067 0bc3 600A0000 		.4byte	.LASF269
 2068 0bc7 01       		.byte	0x1
 2069 0bc8 41       		.byte	0x41
 2070 0bc9 A1000000 		.4byte	0xa1
 2071 0bcd 05       		.uleb128 0x5
 2072 0bce 03       		.byte	0x3
 2073 0bcf 00000000 		.4byte	cyBle_eventHandlerFlag
 2074 0bd3 26       		.uleb128 0x26
 2075 0bd4 F3050000 		.4byte	.LASF270
 2076 0bd8 08       		.byte	0x8
 2077 0bd9 A201     		.2byte	0x1a2
 2078 0bdb CF030000 		.4byte	0x3cf
 2079 0bdf 26       		.uleb128 0x26
 2080 0be0 D40B0000 		.4byte	.LASF271
 2081 0be4 08       		.byte	0x8
 2082 0be5 A301     		.2byte	0x1a3
 2083 0be7 EB0B0000 		.4byte	0xbeb
 2084 0beb 0F       		.uleb128 0xf
 2085 0bec 04       		.byte	0x4
 2086 0bed CF030000 		.4byte	0x3cf
 2087 0bf1 27       		.uleb128 0x27
 2088 0bf2 061A0000 		.4byte	.LASF272
 2089 0bf6 01       		.byte	0x1
 2090 0bf7 C5       		.byte	0xc5
 2091 0bf8 FB040000 		.4byte	0x4fb
 2092 0bfc 05       		.uleb128 0x5
 2093 0bfd 03       		.byte	0x3
 2094 0bfe 00000000 		.4byte	cyBle_authInfo
 2095 0c02 26       		.uleb128 0x26
 2096 0c03 21190000 		.4byte	.LASF273
 2097 0c07 08       		.byte	0x8
 2098 0c08 BF01     		.2byte	0x1bf
 2099 0c0a 6B000000 		.4byte	0x6b
ARM GAS  C:\Users\danielpi\AppData\Local\Temp\ccwIrVvL.s 			page 70


 2100 0c0e 0D       		.uleb128 0xd
 2101 0c0f 6B000000 		.4byte	0x6b
 2102 0c13 1E0C0000 		.4byte	0xc1e
 2103 0c17 0E       		.uleb128 0xe
 2104 0c18 A6000000 		.4byte	0xa6
 2105 0c1c 03       		.byte	0x3
 2106 0c1d 00       		.byte	0
 2107 0c1e 28       		.uleb128 0x28
 2108 0c1f 6A1C0000 		.4byte	.LASF274
 2109 0c23 0C       		.byte	0xc
 2110 0c24 BF       		.byte	0xbf
 2111 0c25 0E0C0000 		.4byte	0xc0e
 2112 0c29 0D       		.uleb128 0xd
 2113 0c2a 6B000000 		.4byte	0x6b
 2114 0c2e 3F0C0000 		.4byte	0xc3f
 2115 0c32 0E       		.uleb128 0xe
 2116 0c33 A6000000 		.4byte	0xa6
 2117 0c37 04       		.byte	0x4
 2118 0c38 0E       		.uleb128 0xe
 2119 0c39 A6000000 		.4byte	0xa6
 2120 0c3d 03       		.byte	0x3
 2121 0c3e 00       		.byte	0
 2122 0c3f 28       		.uleb128 0x28
 2123 0c40 42010000 		.4byte	.LASF275
 2124 0c44 0C       		.byte	0xc
 2125 0c45 C1       		.byte	0xc1
 2126 0c46 4A0C0000 		.4byte	0xc4a
 2127 0c4a 1A       		.uleb128 0x1a
 2128 0c4b 290C0000 		.4byte	0xc29
 2129 0c4f 26       		.uleb128 0x26
 2130 0c50 99190000 		.4byte	.LASF276
 2131 0c54 0B       		.byte	0xb
 2132 0c55 0409     		.2byte	0x904
 2133 0c57 E1080000 		.4byte	0x8e1
 2134 0c5b 27       		.uleb128 0x27
 2135 0c5c 570B0000 		.4byte	.LASF277
 2136 0c60 01       		.byte	0x1
 2137 0c61 3F       		.byte	0x3f
 2138 0c62 24070000 		.4byte	0x724
 2139 0c66 05       		.uleb128 0x5
 2140 0c67 03       		.byte	0x3
 2141 0c68 00000000 		.4byte	cyBle_connHandle
 2142 0c6c 27       		.uleb128 0x27
 2143 0c6d D20E0000 		.4byte	.LASF278
 2144 0c71 01       		.byte	0x1
 2145 0c72 42       		.byte	0x42
 2146 0c73 A1000000 		.4byte	0xa1
 2147 0c77 05       		.uleb128 0x5
 2148 0c78 03       		.byte	0x3
 2149 0c79 00000000 		.4byte	cyBle_busyStatus
 2150 0c7d 27       		.uleb128 0x27
 2151 0c7e 751B0000 		.4byte	.LASF279
 2152 0c82 01       		.byte	0x1
 2153 0c83 45       		.byte	0x45
 2154 0c84 6B000000 		.4byte	0x6b
 2155 0c88 05       		.uleb128 0x5
 2156 0c89 03       		.byte	0x3
ARM GAS  C:\Users\danielpi\AppData\Local\Temp\ccwIrVvL.s 			page 71


 2157 0c8a 00000000 		.4byte	cyBle_advertisingIntervalType
 2158 0c8e 29       		.uleb128 0x29
 2159 0c8f C31B0000 		.4byte	.LASF280
 2160 0c93 07       		.byte	0x7
 2161 0c94 3001     		.2byte	0x130
 2162 0c96 EB020000 		.4byte	0x2eb
 2163 0c9a A90C0000 		.4byte	0xca9
 2164 0c9e 14       		.uleb128 0x14
 2165 0c9f 24070000 		.4byte	0x724
 2166 0ca3 14       		.uleb128 0x14
 2167 0ca4 A90C0000 		.4byte	0xca9
 2168 0ca8 00       		.byte	0
 2169 0ca9 0F       		.uleb128 0xf
 2170 0caa 04       		.byte	0x4
 2171 0cab FA070000 		.4byte	0x7fa
 2172 0caf 2A       		.uleb128 0x2a
 2173 0cb0 89130000 		.4byte	.LASF281
 2174 0cb4 0C       		.byte	0xc
 2175 0cb5 A7       		.byte	0xa7
 2176 0cb6 E8060000 		.4byte	0x6e8
 2177 0cba C40C0000 		.4byte	0xcc4
 2178 0cbe 14       		.uleb128 0x14
 2179 0cbf E5090000 		.4byte	0x9e5
 2180 0cc3 00       		.byte	0
 2181 0cc4 2A       		.uleb128 0x2a
 2182 0cc5 D5160000 		.4byte	.LASF282
 2183 0cc9 0A       		.byte	0xa
 2184 0cca 88       		.byte	0x88
 2185 0ccb E8060000 		.4byte	0x6e8
 2186 0ccf D90C0000 		.4byte	0xcd9
 2187 0cd3 14       		.uleb128 0x14
 2188 0cd4 E5090000 		.4byte	0x9e5
 2189 0cd8 00       		.byte	0
 2190 0cd9 29       		.uleb128 0x29
 2191 0cda 1C040000 		.4byte	.LASF283
 2192 0cde 07       		.byte	0x7
 2193 0cdf AF01     		.2byte	0x1af
 2194 0ce1 EB020000 		.4byte	0x2eb
 2195 0ce5 EF0C0000 		.4byte	0xcef
 2196 0ce9 14       		.uleb128 0x14
 2197 0cea 24070000 		.4byte	0x724
 2198 0cee 00       		.byte	0
 2199 0cef 29       		.uleb128 0x29
 2200 0cf0 63040000 		.4byte	.LASF284
 2201 0cf4 03       		.byte	0x3
 2202 0cf5 0D05     		.2byte	0x50d
 2203 0cf7 EB020000 		.4byte	0x2eb
 2204 0cfb 050D0000 		.4byte	0xd05
 2205 0cff 14       		.uleb128 0x14
 2206 0d00 050D0000 		.4byte	0xd05
 2207 0d04 00       		.byte	0
 2208 0d05 0F       		.uleb128 0xf
 2209 0d06 04       		.byte	0x4
 2210 0d07 8F030000 		.4byte	0x38f
 2211 0d0b 29       		.uleb128 0x29
 2212 0d0c 350C0000 		.4byte	.LASF285
 2213 0d10 07       		.byte	0x7
ARM GAS  C:\Users\danielpi\AppData\Local\Temp\ccwIrVvL.s 			page 72


 2214 0d11 5E01     		.2byte	0x15e
 2215 0d13 EB020000 		.4byte	0x2eb
 2216 0d17 260D0000 		.4byte	0xd26
 2217 0d1b 14       		.uleb128 0x14
 2218 0d1c 24070000 		.4byte	0x724
 2219 0d20 14       		.uleb128 0x14
 2220 0d21 76000000 		.4byte	0x76
 2221 0d25 00       		.byte	0
 2222 0d26 29       		.uleb128 0x29
 2223 0d27 5E000000 		.4byte	.LASF286
 2224 0d2b 03       		.byte	0x3
 2225 0d2c 8604     		.2byte	0x486
 2226 0d2e EB020000 		.4byte	0x2eb
 2227 0d32 3C0D0000 		.4byte	0xd3c
 2228 0d36 14       		.uleb128 0x14
 2229 0d37 EB0B0000 		.4byte	0xbeb
 2230 0d3b 00       		.byte	0
 2231 0d3c 2B       		.uleb128 0x2b
 2232 0d3d E30E0000 		.4byte	.LASF290
 2233 0d41 08       		.byte	0x8
 2234 0d42 8C01     		.2byte	0x18c
 2235 0d44 530D0000 		.4byte	0xd53
 2236 0d48 14       		.uleb128 0x14
 2237 0d49 48090000 		.4byte	0x948
 2238 0d4d 14       		.uleb128 0x14
 2239 0d4e 6B000000 		.4byte	0x6b
 2240 0d52 00       		.byte	0
 2241 0d53 29       		.uleb128 0x29
 2242 0d54 75000000 		.4byte	.LASF287
 2243 0d58 05       		.byte	0x5
 2244 0d59 0B03     		.2byte	0x30b
 2245 0d5b EB020000 		.4byte	0x2eb
 2246 0d5f 690D0000 		.4byte	0xd69
 2247 0d63 14       		.uleb128 0x14
 2248 0d64 4F040000 		.4byte	0x44f
 2249 0d68 00       		.byte	0
 2250 0d69 29       		.uleb128 0x29
 2251 0d6a 24100000 		.4byte	.LASF288
 2252 0d6e 05       		.byte	0x5
 2253 0d6f 0506     		.2byte	0x605
 2254 0d71 EB020000 		.4byte	0x2eb
 2255 0d75 840D0000 		.4byte	0xd84
 2256 0d79 14       		.uleb128 0x14
 2257 0d7a 6B000000 		.4byte	0x6b
 2258 0d7e 14       		.uleb128 0x14
 2259 0d7f 840D0000 		.4byte	0xd84
 2260 0d83 00       		.byte	0
 2261 0d84 0F       		.uleb128 0xf
 2262 0d85 04       		.byte	0x4
 2263 0d86 FB040000 		.4byte	0x4fb
 2264 0d8a 29       		.uleb128 0x29
 2265 0d8b 9D080000 		.4byte	.LASF289
 2266 0d8f 08       		.byte	0x8
 2267 0d90 8A01     		.2byte	0x18a
 2268 0d92 EB020000 		.4byte	0x2eb
 2269 0d96 A00D0000 		.4byte	0xda0
 2270 0d9a 14       		.uleb128 0x14
ARM GAS  C:\Users\danielpi\AppData\Local\Temp\ccwIrVvL.s 			page 73


 2271 0d9b 6B000000 		.4byte	0x6b
 2272 0d9f 00       		.byte	0
 2273 0da0 2C       		.uleb128 0x2c
 2274 0da1 1C1C0000 		.4byte	.LASF291
 2275 0da5 AD000000 		.4byte	0xad
 2276 0da9 BD0D0000 		.4byte	0xdbd
 2277 0dad 14       		.uleb128 0x14
 2278 0dae AD000000 		.4byte	0xad
 2279 0db2 14       		.uleb128 0x14
 2280 0db3 BD0D0000 		.4byte	0xdbd
 2281 0db7 14       		.uleb128 0x14
 2282 0db8 A6000000 		.4byte	0xa6
 2283 0dbc 00       		.byte	0
 2284 0dbd 0F       		.uleb128 0xf
 2285 0dbe 04       		.byte	0x4
 2286 0dbf C30D0000 		.4byte	0xdc3
 2287 0dc3 2D       		.uleb128 0x2d
 2288 0dc4 00       		.byte	0
 2289              		.section	.debug_abbrev,"",%progbits
 2290              	.Ldebug_abbrev0:
 2291 0000 01       		.uleb128 0x1
 2292 0001 11       		.uleb128 0x11
 2293 0002 01       		.byte	0x1
 2294 0003 25       		.uleb128 0x25
 2295 0004 0E       		.uleb128 0xe
 2296 0005 13       		.uleb128 0x13
 2297 0006 0B       		.uleb128 0xb
 2298 0007 03       		.uleb128 0x3
 2299 0008 0E       		.uleb128 0xe
 2300 0009 1B       		.uleb128 0x1b
 2301 000a 0E       		.uleb128 0xe
 2302 000b 55       		.uleb128 0x55
 2303 000c 17       		.uleb128 0x17
 2304 000d 11       		.uleb128 0x11
 2305 000e 01       		.uleb128 0x1
 2306 000f 10       		.uleb128 0x10
 2307 0010 17       		.uleb128 0x17
 2308 0011 00       		.byte	0
 2309 0012 00       		.byte	0
 2310 0013 02       		.uleb128 0x2
 2311 0014 24       		.uleb128 0x24
 2312 0015 00       		.byte	0
 2313 0016 0B       		.uleb128 0xb
 2314 0017 0B       		.uleb128 0xb
 2315 0018 3E       		.uleb128 0x3e
 2316 0019 0B       		.uleb128 0xb
 2317 001a 03       		.uleb128 0x3
 2318 001b 0E       		.uleb128 0xe
 2319 001c 00       		.byte	0
 2320 001d 00       		.byte	0
 2321 001e 03       		.uleb128 0x3
 2322 001f 24       		.uleb128 0x24
 2323 0020 00       		.byte	0
 2324 0021 0B       		.uleb128 0xb
 2325 0022 0B       		.uleb128 0xb
 2326 0023 3E       		.uleb128 0x3e
 2327 0024 0B       		.uleb128 0xb
ARM GAS  C:\Users\danielpi\AppData\Local\Temp\ccwIrVvL.s 			page 74


 2328 0025 03       		.uleb128 0x3
 2329 0026 08       		.uleb128 0x8
 2330 0027 00       		.byte	0
 2331 0028 00       		.byte	0
 2332 0029 04       		.uleb128 0x4
 2333 002a 16       		.uleb128 0x16
 2334 002b 00       		.byte	0
 2335 002c 03       		.uleb128 0x3
 2336 002d 0E       		.uleb128 0xe
 2337 002e 3A       		.uleb128 0x3a
 2338 002f 0B       		.uleb128 0xb
 2339 0030 3B       		.uleb128 0x3b
 2340 0031 0B       		.uleb128 0xb
 2341 0032 49       		.uleb128 0x49
 2342 0033 13       		.uleb128 0x13
 2343 0034 00       		.byte	0
 2344 0035 00       		.byte	0
 2345 0036 05       		.uleb128 0x5
 2346 0037 35       		.uleb128 0x35
 2347 0038 00       		.byte	0
 2348 0039 49       		.uleb128 0x49
 2349 003a 13       		.uleb128 0x13
 2350 003b 00       		.byte	0
 2351 003c 00       		.byte	0
 2352 003d 06       		.uleb128 0x6
 2353 003e 0F       		.uleb128 0xf
 2354 003f 00       		.byte	0
 2355 0040 0B       		.uleb128 0xb
 2356 0041 0B       		.uleb128 0xb
 2357 0042 00       		.byte	0
 2358 0043 00       		.byte	0
 2359 0044 07       		.uleb128 0x7
 2360 0045 04       		.uleb128 0x4
 2361 0046 01       		.byte	0x1
 2362 0047 0B       		.uleb128 0xb
 2363 0048 0B       		.uleb128 0xb
 2364 0049 3A       		.uleb128 0x3a
 2365 004a 0B       		.uleb128 0xb
 2366 004b 3B       		.uleb128 0x3b
 2367 004c 0B       		.uleb128 0xb
 2368 004d 01       		.uleb128 0x1
 2369 004e 13       		.uleb128 0x13
 2370 004f 00       		.byte	0
 2371 0050 00       		.byte	0
 2372 0051 08       		.uleb128 0x8
 2373 0052 28       		.uleb128 0x28
 2374 0053 00       		.byte	0
 2375 0054 03       		.uleb128 0x3
 2376 0055 0E       		.uleb128 0xe
 2377 0056 1C       		.uleb128 0x1c
 2378 0057 0D       		.uleb128 0xd
 2379 0058 00       		.byte	0
 2380 0059 00       		.byte	0
 2381 005a 09       		.uleb128 0x9
 2382 005b 04       		.uleb128 0x4
 2383 005c 01       		.byte	0x1
 2384 005d 0B       		.uleb128 0xb
ARM GAS  C:\Users\danielpi\AppData\Local\Temp\ccwIrVvL.s 			page 75


 2385 005e 0B       		.uleb128 0xb
 2386 005f 3A       		.uleb128 0x3a
 2387 0060 0B       		.uleb128 0xb
 2388 0061 3B       		.uleb128 0x3b
 2389 0062 05       		.uleb128 0x5
 2390 0063 01       		.uleb128 0x1
 2391 0064 13       		.uleb128 0x13
 2392 0065 00       		.byte	0
 2393 0066 00       		.byte	0
 2394 0067 0A       		.uleb128 0xa
 2395 0068 16       		.uleb128 0x16
 2396 0069 00       		.byte	0
 2397 006a 03       		.uleb128 0x3
 2398 006b 0E       		.uleb128 0xe
 2399 006c 3A       		.uleb128 0x3a
 2400 006d 0B       		.uleb128 0xb
 2401 006e 3B       		.uleb128 0x3b
 2402 006f 05       		.uleb128 0x5
 2403 0070 49       		.uleb128 0x49
 2404 0071 13       		.uleb128 0x13
 2405 0072 00       		.byte	0
 2406 0073 00       		.byte	0
 2407 0074 0B       		.uleb128 0xb
 2408 0075 13       		.uleb128 0x13
 2409 0076 01       		.byte	0x1
 2410 0077 0B       		.uleb128 0xb
 2411 0078 0B       		.uleb128 0xb
 2412 0079 3A       		.uleb128 0x3a
 2413 007a 0B       		.uleb128 0xb
 2414 007b 3B       		.uleb128 0x3b
 2415 007c 05       		.uleb128 0x5
 2416 007d 01       		.uleb128 0x1
 2417 007e 13       		.uleb128 0x13
 2418 007f 00       		.byte	0
 2419 0080 00       		.byte	0
 2420 0081 0C       		.uleb128 0xc
 2421 0082 0D       		.uleb128 0xd
 2422 0083 00       		.byte	0
 2423 0084 03       		.uleb128 0x3
 2424 0085 0E       		.uleb128 0xe
 2425 0086 3A       		.uleb128 0x3a
 2426 0087 0B       		.uleb128 0xb
 2427 0088 3B       		.uleb128 0x3b
 2428 0089 05       		.uleb128 0x5
 2429 008a 49       		.uleb128 0x49
 2430 008b 13       		.uleb128 0x13
 2431 008c 38       		.uleb128 0x38
 2432 008d 0B       		.uleb128 0xb
 2433 008e 00       		.byte	0
 2434 008f 00       		.byte	0
 2435 0090 0D       		.uleb128 0xd
 2436 0091 01       		.uleb128 0x1
 2437 0092 01       		.byte	0x1
 2438 0093 49       		.uleb128 0x49
 2439 0094 13       		.uleb128 0x13
 2440 0095 01       		.uleb128 0x1
 2441 0096 13       		.uleb128 0x13
ARM GAS  C:\Users\danielpi\AppData\Local\Temp\ccwIrVvL.s 			page 76


 2442 0097 00       		.byte	0
 2443 0098 00       		.byte	0
 2444 0099 0E       		.uleb128 0xe
 2445 009a 21       		.uleb128 0x21
 2446 009b 00       		.byte	0
 2447 009c 49       		.uleb128 0x49
 2448 009d 13       		.uleb128 0x13
 2449 009e 2F       		.uleb128 0x2f
 2450 009f 0B       		.uleb128 0xb
 2451 00a0 00       		.byte	0
 2452 00a1 00       		.byte	0
 2453 00a2 0F       		.uleb128 0xf
 2454 00a3 0F       		.uleb128 0xf
 2455 00a4 00       		.byte	0
 2456 00a5 0B       		.uleb128 0xb
 2457 00a6 0B       		.uleb128 0xb
 2458 00a7 49       		.uleb128 0x49
 2459 00a8 13       		.uleb128 0x13
 2460 00a9 00       		.byte	0
 2461 00aa 00       		.byte	0
 2462 00ab 10       		.uleb128 0x10
 2463 00ac 0D       		.uleb128 0xd
 2464 00ad 00       		.byte	0
 2465 00ae 03       		.uleb128 0x3
 2466 00af 08       		.uleb128 0x8
 2467 00b0 3A       		.uleb128 0x3a
 2468 00b1 0B       		.uleb128 0xb
 2469 00b2 3B       		.uleb128 0x3b
 2470 00b3 05       		.uleb128 0x5
 2471 00b4 49       		.uleb128 0x49
 2472 00b5 13       		.uleb128 0x13
 2473 00b6 38       		.uleb128 0x38
 2474 00b7 0B       		.uleb128 0xb
 2475 00b8 00       		.byte	0
 2476 00b9 00       		.byte	0
 2477 00ba 11       		.uleb128 0x11
 2478 00bb 13       		.uleb128 0x13
 2479 00bc 01       		.byte	0x1
 2480 00bd 0B       		.uleb128 0xb
 2481 00be 0B       		.uleb128 0xb
 2482 00bf 3A       		.uleb128 0x3a
 2483 00c0 0B       		.uleb128 0xb
 2484 00c1 3B       		.uleb128 0x3b
 2485 00c2 0B       		.uleb128 0xb
 2486 00c3 01       		.uleb128 0x1
 2487 00c4 13       		.uleb128 0x13
 2488 00c5 00       		.byte	0
 2489 00c6 00       		.byte	0
 2490 00c7 12       		.uleb128 0x12
 2491 00c8 0D       		.uleb128 0xd
 2492 00c9 00       		.byte	0
 2493 00ca 03       		.uleb128 0x3
 2494 00cb 0E       		.uleb128 0xe
 2495 00cc 3A       		.uleb128 0x3a
 2496 00cd 0B       		.uleb128 0xb
 2497 00ce 3B       		.uleb128 0x3b
 2498 00cf 0B       		.uleb128 0xb
ARM GAS  C:\Users\danielpi\AppData\Local\Temp\ccwIrVvL.s 			page 77


 2499 00d0 49       		.uleb128 0x49
 2500 00d1 13       		.uleb128 0x13
 2501 00d2 38       		.uleb128 0x38
 2502 00d3 0B       		.uleb128 0xb
 2503 00d4 00       		.byte	0
 2504 00d5 00       		.byte	0
 2505 00d6 13       		.uleb128 0x13
 2506 00d7 15       		.uleb128 0x15
 2507 00d8 01       		.byte	0x1
 2508 00d9 27       		.uleb128 0x27
 2509 00da 19       		.uleb128 0x19
 2510 00db 01       		.uleb128 0x1
 2511 00dc 13       		.uleb128 0x13
 2512 00dd 00       		.byte	0
 2513 00de 00       		.byte	0
 2514 00df 14       		.uleb128 0x14
 2515 00e0 05       		.uleb128 0x5
 2516 00e1 00       		.byte	0
 2517 00e2 49       		.uleb128 0x49
 2518 00e3 13       		.uleb128 0x13
 2519 00e4 00       		.byte	0
 2520 00e5 00       		.byte	0
 2521 00e6 15       		.uleb128 0x15
 2522 00e7 2E       		.uleb128 0x2e
 2523 00e8 00       		.byte	0
 2524 00e9 03       		.uleb128 0x3
 2525 00ea 0E       		.uleb128 0xe
 2526 00eb 3A       		.uleb128 0x3a
 2527 00ec 0B       		.uleb128 0xb
 2528 00ed 3B       		.uleb128 0x3b
 2529 00ee 05       		.uleb128 0x5
 2530 00ef 27       		.uleb128 0x27
 2531 00f0 19       		.uleb128 0x19
 2532 00f1 11       		.uleb128 0x11
 2533 00f2 01       		.uleb128 0x1
 2534 00f3 12       		.uleb128 0x12
 2535 00f4 06       		.uleb128 0x6
 2536 00f5 40       		.uleb128 0x40
 2537 00f6 18       		.uleb128 0x18
 2538 00f7 9742     		.uleb128 0x2117
 2539 00f9 19       		.uleb128 0x19
 2540 00fa 00       		.byte	0
 2541 00fb 00       		.byte	0
 2542 00fc 16       		.uleb128 0x16
 2543 00fd 2E       		.uleb128 0x2e
 2544 00fe 01       		.byte	0x1
 2545 00ff 03       		.uleb128 0x3
 2546 0100 0E       		.uleb128 0xe
 2547 0101 3A       		.uleb128 0x3a
 2548 0102 0B       		.uleb128 0xb
 2549 0103 3B       		.uleb128 0x3b
 2550 0104 05       		.uleb128 0x5
 2551 0105 27       		.uleb128 0x27
 2552 0106 19       		.uleb128 0x19
 2553 0107 49       		.uleb128 0x49
 2554 0108 13       		.uleb128 0x13
 2555 0109 11       		.uleb128 0x11
ARM GAS  C:\Users\danielpi\AppData\Local\Temp\ccwIrVvL.s 			page 78


 2556 010a 01       		.uleb128 0x1
 2557 010b 12       		.uleb128 0x12
 2558 010c 06       		.uleb128 0x6
 2559 010d 40       		.uleb128 0x40
 2560 010e 18       		.uleb128 0x18
 2561 010f 9742     		.uleb128 0x2117
 2562 0111 19       		.uleb128 0x19
 2563 0112 01       		.uleb128 0x1
 2564 0113 13       		.uleb128 0x13
 2565 0114 00       		.byte	0
 2566 0115 00       		.byte	0
 2567 0116 17       		.uleb128 0x17
 2568 0117 05       		.uleb128 0x5
 2569 0118 00       		.byte	0
 2570 0119 03       		.uleb128 0x3
 2571 011a 0E       		.uleb128 0xe
 2572 011b 3A       		.uleb128 0x3a
 2573 011c 0B       		.uleb128 0xb
 2574 011d 3B       		.uleb128 0x3b
 2575 011e 05       		.uleb128 0x5
 2576 011f 49       		.uleb128 0x49
 2577 0120 13       		.uleb128 0x13
 2578 0121 02       		.uleb128 0x2
 2579 0122 17       		.uleb128 0x17
 2580 0123 00       		.byte	0
 2581 0124 00       		.byte	0
 2582 0125 18       		.uleb128 0x18
 2583 0126 34       		.uleb128 0x34
 2584 0127 00       		.byte	0
 2585 0128 03       		.uleb128 0x3
 2586 0129 08       		.uleb128 0x8
 2587 012a 3A       		.uleb128 0x3a
 2588 012b 0B       		.uleb128 0xb
 2589 012c 3B       		.uleb128 0x3b
 2590 012d 05       		.uleb128 0x5
 2591 012e 49       		.uleb128 0x49
 2592 012f 13       		.uleb128 0x13
 2593 0130 02       		.uleb128 0x2
 2594 0131 17       		.uleb128 0x17
 2595 0132 00       		.byte	0
 2596 0133 00       		.byte	0
 2597 0134 19       		.uleb128 0x19
 2598 0135 34       		.uleb128 0x34
 2599 0136 00       		.byte	0
 2600 0137 03       		.uleb128 0x3
 2601 0138 0E       		.uleb128 0xe
 2602 0139 3A       		.uleb128 0x3a
 2603 013a 0B       		.uleb128 0xb
 2604 013b 3B       		.uleb128 0x3b
 2605 013c 05       		.uleb128 0x5
 2606 013d 49       		.uleb128 0x49
 2607 013e 13       		.uleb128 0x13
 2608 013f 02       		.uleb128 0x2
 2609 0140 17       		.uleb128 0x17
 2610 0141 00       		.byte	0
 2611 0142 00       		.byte	0
 2612 0143 1A       		.uleb128 0x1a
ARM GAS  C:\Users\danielpi\AppData\Local\Temp\ccwIrVvL.s 			page 79


 2613 0144 26       		.uleb128 0x26
 2614 0145 00       		.byte	0
 2615 0146 49       		.uleb128 0x49
 2616 0147 13       		.uleb128 0x13
 2617 0148 00       		.byte	0
 2618 0149 00       		.byte	0
 2619 014a 1B       		.uleb128 0x1b
 2620 014b 2E       		.uleb128 0x2e
 2621 014c 01       		.byte	0x1
 2622 014d 03       		.uleb128 0x3
 2623 014e 0E       		.uleb128 0xe
 2624 014f 3A       		.uleb128 0x3a
 2625 0150 0B       		.uleb128 0xb
 2626 0151 3B       		.uleb128 0x3b
 2627 0152 0B       		.uleb128 0xb
 2628 0153 27       		.uleb128 0x27
 2629 0154 19       		.uleb128 0x19
 2630 0155 11       		.uleb128 0x11
 2631 0156 01       		.uleb128 0x1
 2632 0157 12       		.uleb128 0x12
 2633 0158 06       		.uleb128 0x6
 2634 0159 40       		.uleb128 0x40
 2635 015a 18       		.uleb128 0x18
 2636 015b 9742     		.uleb128 0x2117
 2637 015d 19       		.uleb128 0x19
 2638 015e 01       		.uleb128 0x1
 2639 015f 13       		.uleb128 0x13
 2640 0160 00       		.byte	0
 2641 0161 00       		.byte	0
 2642 0162 1C       		.uleb128 0x1c
 2643 0163 05       		.uleb128 0x5
 2644 0164 00       		.byte	0
 2645 0165 03       		.uleb128 0x3
 2646 0166 0E       		.uleb128 0xe
 2647 0167 3A       		.uleb128 0x3a
 2648 0168 0B       		.uleb128 0xb
 2649 0169 3B       		.uleb128 0x3b
 2650 016a 0B       		.uleb128 0xb
 2651 016b 49       		.uleb128 0x49
 2652 016c 13       		.uleb128 0x13
 2653 016d 02       		.uleb128 0x2
 2654 016e 17       		.uleb128 0x17
 2655 016f 00       		.byte	0
 2656 0170 00       		.byte	0
 2657 0171 1D       		.uleb128 0x1d
 2658 0172 34       		.uleb128 0x34
 2659 0173 00       		.byte	0
 2660 0174 03       		.uleb128 0x3
 2661 0175 0E       		.uleb128 0xe
 2662 0176 3A       		.uleb128 0x3a
 2663 0177 0B       		.uleb128 0xb
 2664 0178 3B       		.uleb128 0x3b
 2665 0179 0B       		.uleb128 0xb
 2666 017a 49       		.uleb128 0x49
 2667 017b 13       		.uleb128 0x13
 2668 017c 02       		.uleb128 0x2
 2669 017d 17       		.uleb128 0x17
ARM GAS  C:\Users\danielpi\AppData\Local\Temp\ccwIrVvL.s 			page 80


 2670 017e 00       		.byte	0
 2671 017f 00       		.byte	0
 2672 0180 1E       		.uleb128 0x1e
 2673 0181 0B       		.uleb128 0xb
 2674 0182 01       		.byte	0x1
 2675 0183 11       		.uleb128 0x11
 2676 0184 01       		.uleb128 0x1
 2677 0185 12       		.uleb128 0x12
 2678 0186 06       		.uleb128 0x6
 2679 0187 01       		.uleb128 0x1
 2680 0188 13       		.uleb128 0x13
 2681 0189 00       		.byte	0
 2682 018a 00       		.byte	0
 2683 018b 1F       		.uleb128 0x1f
 2684 018c 34       		.uleb128 0x34
 2685 018d 00       		.byte	0
 2686 018e 03       		.uleb128 0x3
 2687 018f 0E       		.uleb128 0xe
 2688 0190 3A       		.uleb128 0x3a
 2689 0191 0B       		.uleb128 0xb
 2690 0192 3B       		.uleb128 0x3b
 2691 0193 05       		.uleb128 0x5
 2692 0194 49       		.uleb128 0x49
 2693 0195 13       		.uleb128 0x13
 2694 0196 02       		.uleb128 0x2
 2695 0197 18       		.uleb128 0x18
 2696 0198 00       		.byte	0
 2697 0199 00       		.byte	0
 2698 019a 20       		.uleb128 0x20
 2699 019b 898201   		.uleb128 0x4109
 2700 019e 01       		.byte	0x1
 2701 019f 11       		.uleb128 0x11
 2702 01a0 01       		.uleb128 0x1
 2703 01a1 31       		.uleb128 0x31
 2704 01a2 13       		.uleb128 0x13
 2705 01a3 00       		.byte	0
 2706 01a4 00       		.byte	0
 2707 01a5 21       		.uleb128 0x21
 2708 01a6 8A8201   		.uleb128 0x410a
 2709 01a9 00       		.byte	0
 2710 01aa 02       		.uleb128 0x2
 2711 01ab 18       		.uleb128 0x18
 2712 01ac 9142     		.uleb128 0x2111
 2713 01ae 18       		.uleb128 0x18
 2714 01af 00       		.byte	0
 2715 01b0 00       		.byte	0
 2716 01b1 22       		.uleb128 0x22
 2717 01b2 898201   		.uleb128 0x4109
 2718 01b5 01       		.byte	0x1
 2719 01b6 11       		.uleb128 0x11
 2720 01b7 01       		.uleb128 0x1
 2721 01b8 31       		.uleb128 0x31
 2722 01b9 13       		.uleb128 0x13
 2723 01ba 01       		.uleb128 0x1
 2724 01bb 13       		.uleb128 0x13
 2725 01bc 00       		.byte	0
 2726 01bd 00       		.byte	0
ARM GAS  C:\Users\danielpi\AppData\Local\Temp\ccwIrVvL.s 			page 81


 2727 01be 23       		.uleb128 0x23
 2728 01bf 898201   		.uleb128 0x4109
 2729 01c2 00       		.byte	0
 2730 01c3 11       		.uleb128 0x11
 2731 01c4 01       		.uleb128 0x1
 2732 01c5 31       		.uleb128 0x31
 2733 01c6 13       		.uleb128 0x13
 2734 01c7 00       		.byte	0
 2735 01c8 00       		.byte	0
 2736 01c9 24       		.uleb128 0x24
 2737 01ca 2E       		.uleb128 0x2e
 2738 01cb 01       		.byte	0x1
 2739 01cc 3F       		.uleb128 0x3f
 2740 01cd 19       		.uleb128 0x19
 2741 01ce 03       		.uleb128 0x3
 2742 01cf 0E       		.uleb128 0xe
 2743 01d0 3A       		.uleb128 0x3a
 2744 01d1 0B       		.uleb128 0xb
 2745 01d2 3B       		.uleb128 0x3b
 2746 01d3 05       		.uleb128 0x5
 2747 01d4 27       		.uleb128 0x27
 2748 01d5 19       		.uleb128 0x19
 2749 01d6 11       		.uleb128 0x11
 2750 01d7 01       		.uleb128 0x1
 2751 01d8 12       		.uleb128 0x12
 2752 01d9 06       		.uleb128 0x6
 2753 01da 40       		.uleb128 0x40
 2754 01db 18       		.uleb128 0x18
 2755 01dc 9742     		.uleb128 0x2117
 2756 01de 19       		.uleb128 0x19
 2757 01df 01       		.uleb128 0x1
 2758 01e0 13       		.uleb128 0x13
 2759 01e1 00       		.byte	0
 2760 01e2 00       		.byte	0
 2761 01e3 25       		.uleb128 0x25
 2762 01e4 898201   		.uleb128 0x4109
 2763 01e7 01       		.byte	0x1
 2764 01e8 11       		.uleb128 0x11
 2765 01e9 01       		.uleb128 0x1
 2766 01ea 00       		.byte	0
 2767 01eb 00       		.byte	0
 2768 01ec 26       		.uleb128 0x26
 2769 01ed 34       		.uleb128 0x34
 2770 01ee 00       		.byte	0
 2771 01ef 03       		.uleb128 0x3
 2772 01f0 0E       		.uleb128 0xe
 2773 01f1 3A       		.uleb128 0x3a
 2774 01f2 0B       		.uleb128 0xb
 2775 01f3 3B       		.uleb128 0x3b
 2776 01f4 05       		.uleb128 0x5
 2777 01f5 49       		.uleb128 0x49
 2778 01f6 13       		.uleb128 0x13
 2779 01f7 3F       		.uleb128 0x3f
 2780 01f8 19       		.uleb128 0x19
 2781 01f9 3C       		.uleb128 0x3c
 2782 01fa 19       		.uleb128 0x19
 2783 01fb 00       		.byte	0
ARM GAS  C:\Users\danielpi\AppData\Local\Temp\ccwIrVvL.s 			page 82


 2784 01fc 00       		.byte	0
 2785 01fd 27       		.uleb128 0x27
 2786 01fe 34       		.uleb128 0x34
 2787 01ff 00       		.byte	0
 2788 0200 03       		.uleb128 0x3
 2789 0201 0E       		.uleb128 0xe
 2790 0202 3A       		.uleb128 0x3a
 2791 0203 0B       		.uleb128 0xb
 2792 0204 3B       		.uleb128 0x3b
 2793 0205 0B       		.uleb128 0xb
 2794 0206 49       		.uleb128 0x49
 2795 0207 13       		.uleb128 0x13
 2796 0208 3F       		.uleb128 0x3f
 2797 0209 19       		.uleb128 0x19
 2798 020a 02       		.uleb128 0x2
 2799 020b 18       		.uleb128 0x18
 2800 020c 00       		.byte	0
 2801 020d 00       		.byte	0
 2802 020e 28       		.uleb128 0x28
 2803 020f 34       		.uleb128 0x34
 2804 0210 00       		.byte	0
 2805 0211 03       		.uleb128 0x3
 2806 0212 0E       		.uleb128 0xe
 2807 0213 3A       		.uleb128 0x3a
 2808 0214 0B       		.uleb128 0xb
 2809 0215 3B       		.uleb128 0x3b
 2810 0216 0B       		.uleb128 0xb
 2811 0217 49       		.uleb128 0x49
 2812 0218 13       		.uleb128 0x13
 2813 0219 3F       		.uleb128 0x3f
 2814 021a 19       		.uleb128 0x19
 2815 021b 3C       		.uleb128 0x3c
 2816 021c 19       		.uleb128 0x19
 2817 021d 00       		.byte	0
 2818 021e 00       		.byte	0
 2819 021f 29       		.uleb128 0x29
 2820 0220 2E       		.uleb128 0x2e
 2821 0221 01       		.byte	0x1
 2822 0222 3F       		.uleb128 0x3f
 2823 0223 19       		.uleb128 0x19
 2824 0224 03       		.uleb128 0x3
 2825 0225 0E       		.uleb128 0xe
 2826 0226 3A       		.uleb128 0x3a
 2827 0227 0B       		.uleb128 0xb
 2828 0228 3B       		.uleb128 0x3b
 2829 0229 05       		.uleb128 0x5
 2830 022a 27       		.uleb128 0x27
 2831 022b 19       		.uleb128 0x19
 2832 022c 49       		.uleb128 0x49
 2833 022d 13       		.uleb128 0x13
 2834 022e 3C       		.uleb128 0x3c
 2835 022f 19       		.uleb128 0x19
 2836 0230 01       		.uleb128 0x1
 2837 0231 13       		.uleb128 0x13
 2838 0232 00       		.byte	0
 2839 0233 00       		.byte	0
 2840 0234 2A       		.uleb128 0x2a
ARM GAS  C:\Users\danielpi\AppData\Local\Temp\ccwIrVvL.s 			page 83


 2841 0235 2E       		.uleb128 0x2e
 2842 0236 01       		.byte	0x1
 2843 0237 3F       		.uleb128 0x3f
 2844 0238 19       		.uleb128 0x19
 2845 0239 03       		.uleb128 0x3
 2846 023a 0E       		.uleb128 0xe
 2847 023b 3A       		.uleb128 0x3a
 2848 023c 0B       		.uleb128 0xb
 2849 023d 3B       		.uleb128 0x3b
 2850 023e 0B       		.uleb128 0xb
 2851 023f 27       		.uleb128 0x27
 2852 0240 19       		.uleb128 0x19
 2853 0241 49       		.uleb128 0x49
 2854 0242 13       		.uleb128 0x13
 2855 0243 3C       		.uleb128 0x3c
 2856 0244 19       		.uleb128 0x19
 2857 0245 01       		.uleb128 0x1
 2858 0246 13       		.uleb128 0x13
 2859 0247 00       		.byte	0
 2860 0248 00       		.byte	0
 2861 0249 2B       		.uleb128 0x2b
 2862 024a 2E       		.uleb128 0x2e
 2863 024b 01       		.byte	0x1
 2864 024c 3F       		.uleb128 0x3f
 2865 024d 19       		.uleb128 0x19
 2866 024e 03       		.uleb128 0x3
 2867 024f 0E       		.uleb128 0xe
 2868 0250 3A       		.uleb128 0x3a
 2869 0251 0B       		.uleb128 0xb
 2870 0252 3B       		.uleb128 0x3b
 2871 0253 05       		.uleb128 0x5
 2872 0254 27       		.uleb128 0x27
 2873 0255 19       		.uleb128 0x19
 2874 0256 3C       		.uleb128 0x3c
 2875 0257 19       		.uleb128 0x19
 2876 0258 01       		.uleb128 0x1
 2877 0259 13       		.uleb128 0x13
 2878 025a 00       		.byte	0
 2879 025b 00       		.byte	0
 2880 025c 2C       		.uleb128 0x2c
 2881 025d 2E       		.uleb128 0x2e
 2882 025e 01       		.byte	0x1
 2883 025f 3F       		.uleb128 0x3f
 2884 0260 19       		.uleb128 0x19
 2885 0261 03       		.uleb128 0x3
 2886 0262 0E       		.uleb128 0xe
 2887 0263 27       		.uleb128 0x27
 2888 0264 19       		.uleb128 0x19
 2889 0265 49       		.uleb128 0x49
 2890 0266 13       		.uleb128 0x13
 2891 0267 34       		.uleb128 0x34
 2892 0268 19       		.uleb128 0x19
 2893 0269 3C       		.uleb128 0x3c
 2894 026a 19       		.uleb128 0x19
 2895 026b 01       		.uleb128 0x1
 2896 026c 13       		.uleb128 0x13
 2897 026d 00       		.byte	0
ARM GAS  C:\Users\danielpi\AppData\Local\Temp\ccwIrVvL.s 			page 84


 2898 026e 00       		.byte	0
 2899 026f 2D       		.uleb128 0x2d
 2900 0270 26       		.uleb128 0x26
 2901 0271 00       		.byte	0
 2902 0272 00       		.byte	0
 2903 0273 00       		.byte	0
 2904 0274 00       		.byte	0
 2905              		.section	.debug_loc,"",%progbits
 2906              	.Ldebug_loc0:
 2907              	.LLST0:
 2908 0000 00000000 		.4byte	.LVL0
 2909 0004 08000000 		.4byte	.LVL1
 2910 0008 0100     		.2byte	0x1
 2911 000a 50       		.byte	0x50
 2912 000b 08000000 		.4byte	.LVL1
 2913 000f 0A000000 		.4byte	.LVL2
 2914 0013 0400     		.2byte	0x4
 2915 0015 F3       		.byte	0xf3
 2916 0016 01       		.uleb128 0x1
 2917 0017 50       		.byte	0x50
 2918 0018 9F       		.byte	0x9f
 2919 0019 0A000000 		.4byte	.LVL2
 2920 001d 1E000000 		.4byte	.LVL7
 2921 0021 0100     		.2byte	0x1
 2922 0023 50       		.byte	0x50
 2923 0024 1E000000 		.4byte	.LVL7
 2924 0028 20000000 		.4byte	.LVL8
 2925 002c 0400     		.2byte	0x4
 2926 002e F3       		.byte	0xf3
 2927 002f 01       		.uleb128 0x1
 2928 0030 50       		.byte	0x50
 2929 0031 9F       		.byte	0x9f
 2930 0032 20000000 		.4byte	.LVL8
 2931 0036 22000000 		.4byte	.LVL9
 2932 003a 0100     		.2byte	0x1
 2933 003c 50       		.byte	0x50
 2934 003d 22000000 		.4byte	.LVL9
 2935 0041 24000000 		.4byte	.LFE7
 2936 0045 0400     		.2byte	0x4
 2937 0047 F3       		.byte	0xf3
 2938 0048 01       		.uleb128 0x1
 2939 0049 50       		.byte	0x50
 2940 004a 9F       		.byte	0x9f
 2941 004b 00000000 		.4byte	0
 2942 004f 00000000 		.4byte	0
 2943              	.LLST1:
 2944 0053 0A000000 		.4byte	.LVL2
 2945 0057 12000000 		.4byte	.LVL3
 2946 005b 0100     		.2byte	0x1
 2947 005d 53       		.byte	0x53
 2948 005e 12000000 		.4byte	.LVL3
 2949 0062 14000000 		.4byte	.LVL4
 2950 0066 0300     		.2byte	0x3
 2951 0068 73       		.byte	0x73
 2952 0069 7F       		.sleb128 -1
 2953 006a 9F       		.byte	0x9f
 2954 006b 14000000 		.4byte	.LVL4
ARM GAS  C:\Users\danielpi\AppData\Local\Temp\ccwIrVvL.s 			page 85


 2955 006f 16000000 		.4byte	.LVL5
 2956 0073 0100     		.2byte	0x1
 2957 0075 53       		.byte	0x53
 2958 0076 18000000 		.4byte	.LVL6
 2959 007a 22000000 		.4byte	.LVL9
 2960 007e 0100     		.2byte	0x1
 2961 0080 53       		.byte	0x53
 2962 0081 00000000 		.4byte	0
 2963 0085 00000000 		.4byte	0
 2964              	.LLST2:
 2965 0089 00000000 		.4byte	.LVL0
 2966 008d 22000000 		.4byte	.LVL9
 2967 0091 0200     		.2byte	0x2
 2968 0093 30       		.byte	0x30
 2969 0094 9F       		.byte	0x9f
 2970 0095 22000000 		.4byte	.LVL9
 2971 0099 24000000 		.4byte	.LFE7
 2972 009d 0100     		.2byte	0x1
 2973 009f 50       		.byte	0x50
 2974 00a0 00000000 		.4byte	0
 2975 00a4 00000000 		.4byte	0
 2976              	.LLST3:
 2977 00a8 00000000 		.4byte	.LVL10
 2978 00ac 09000000 		.4byte	.LVL11-1
 2979 00b0 0100     		.2byte	0x1
 2980 00b2 50       		.byte	0x50
 2981 00b3 09000000 		.4byte	.LVL11-1
 2982 00b7 44000000 		.4byte	.LVL19
 2983 00bb 0100     		.2byte	0x1
 2984 00bd 54       		.byte	0x54
 2985 00be 44000000 		.4byte	.LVL19
 2986 00c2 4C000000 		.4byte	.LFE2
 2987 00c6 0400     		.2byte	0x4
 2988 00c8 F3       		.byte	0xf3
 2989 00c9 01       		.uleb128 0x1
 2990 00ca 50       		.byte	0x50
 2991 00cb 9F       		.byte	0x9f
 2992 00cc 00000000 		.4byte	0
 2993 00d0 00000000 		.4byte	0
 2994              	.LLST4:
 2995 00d4 0A000000 		.4byte	.LVL11
 2996 00d8 18000000 		.4byte	.LVL12
 2997 00dc 0100     		.2byte	0x1
 2998 00de 50       		.byte	0x50
 2999 00df 1C000000 		.4byte	.LVL13
 3000 00e3 36000000 		.4byte	.LVL14
 3001 00e7 0100     		.2byte	0x1
 3002 00e9 50       		.byte	0x50
 3003 00ea 3C000000 		.4byte	.LVL16
 3004 00ee 3E000000 		.4byte	.LVL17
 3005 00f2 0100     		.2byte	0x1
 3006 00f4 50       		.byte	0x50
 3007 00f5 00000000 		.4byte	0
 3008 00f9 00000000 		.4byte	0
 3009              	.LLST5:
 3010 00fd 00000000 		.4byte	.LVL20
 3011 0101 62000000 		.4byte	.LVL21
ARM GAS  C:\Users\danielpi\AppData\Local\Temp\ccwIrVvL.s 			page 86


 3012 0105 0100     		.2byte	0x1
 3013 0107 50       		.byte	0x50
 3014 0108 62000000 		.4byte	.LVL21
 3015 010c D2000000 		.4byte	.LVL32
 3016 0110 0400     		.2byte	0x4
 3017 0112 F3       		.byte	0xf3
 3018 0113 01       		.uleb128 0x1
 3019 0114 50       		.byte	0x50
 3020 0115 9F       		.byte	0x9f
 3021 0116 D2000000 		.4byte	.LVL32
 3022 011a F4000000 		.4byte	.LVL34
 3023 011e 0100     		.2byte	0x1
 3024 0120 50       		.byte	0x50
 3025 0121 F4000000 		.4byte	.LVL34
 3026 0125 FC000000 		.4byte	.LVL36
 3027 0129 0400     		.2byte	0x4
 3028 012b F3       		.byte	0xf3
 3029 012c 01       		.uleb128 0x1
 3030 012d 50       		.byte	0x50
 3031 012e 9F       		.byte	0x9f
 3032 012f FC000000 		.4byte	.LVL36
 3033 0133 64010000 		.4byte	.LVL38
 3034 0137 0100     		.2byte	0x1
 3035 0139 50       		.byte	0x50
 3036 013a 64010000 		.4byte	.LVL38
 3037 013e 74010000 		.4byte	.LVL40
 3038 0142 0400     		.2byte	0x4
 3039 0144 F3       		.byte	0xf3
 3040 0145 01       		.uleb128 0x1
 3041 0146 50       		.byte	0x50
 3042 0147 9F       		.byte	0x9f
 3043 0148 74010000 		.4byte	.LVL40
 3044 014c 78010000 		.4byte	.LVL41
 3045 0150 0100     		.2byte	0x1
 3046 0152 50       		.byte	0x50
 3047 0153 78010000 		.4byte	.LVL41
 3048 0157 90010000 		.4byte	.LVL44
 3049 015b 0400     		.2byte	0x4
 3050 015d F3       		.byte	0xf3
 3051 015e 01       		.uleb128 0x1
 3052 015f 50       		.byte	0x50
 3053 0160 9F       		.byte	0x9f
 3054 0161 90010000 		.4byte	.LVL44
 3055 0165 93010000 		.4byte	.LVL45-1
 3056 0169 0100     		.2byte	0x1
 3057 016b 50       		.byte	0x50
 3058 016c 93010000 		.4byte	.LVL45-1
 3059 0170 96010000 		.4byte	.LVL46
 3060 0174 0400     		.2byte	0x4
 3061 0176 F3       		.byte	0xf3
 3062 0177 01       		.uleb128 0x1
 3063 0178 50       		.byte	0x50
 3064 0179 9F       		.byte	0x9f
 3065 017a 96010000 		.4byte	.LVL46
 3066 017e A0010000 		.4byte	.LVL49
 3067 0182 0100     		.2byte	0x1
 3068 0184 50       		.byte	0x50
ARM GAS  C:\Users\danielpi\AppData\Local\Temp\ccwIrVvL.s 			page 87


 3069 0185 A0010000 		.4byte	.LVL49
 3070 0189 A6010000 		.4byte	.LVL51
 3071 018d 0400     		.2byte	0x4
 3072 018f F3       		.byte	0xf3
 3073 0190 01       		.uleb128 0x1
 3074 0191 50       		.byte	0x50
 3075 0192 9F       		.byte	0x9f
 3076 0193 A6010000 		.4byte	.LVL51
 3077 0197 A8010000 		.4byte	.LVL52
 3078 019b 0100     		.2byte	0x1
 3079 019d 50       		.byte	0x50
 3080 019e A8010000 		.4byte	.LVL52
 3081 01a2 AE010000 		.4byte	.LVL54
 3082 01a6 0400     		.2byte	0x4
 3083 01a8 F3       		.byte	0xf3
 3084 01a9 01       		.uleb128 0x1
 3085 01aa 50       		.byte	0x50
 3086 01ab 9F       		.byte	0x9f
 3087 01ac AE010000 		.4byte	.LVL54
 3088 01b0 B8010000 		.4byte	.LVL56
 3089 01b4 0100     		.2byte	0x1
 3090 01b6 50       		.byte	0x50
 3091 01b7 B8010000 		.4byte	.LVL56
 3092 01bb 18020000 		.4byte	.LFE10
 3093 01bf 0400     		.2byte	0x4
 3094 01c1 F3       		.byte	0xf3
 3095 01c2 01       		.uleb128 0x1
 3096 01c3 50       		.byte	0x50
 3097 01c4 9F       		.byte	0x9f
 3098 01c5 00000000 		.4byte	0
 3099 01c9 00000000 		.4byte	0
 3100              	.LLST6:
 3101 01cd 00000000 		.4byte	.LVL20
 3102 01d1 65000000 		.4byte	.LVL22-1
 3103 01d5 0100     		.2byte	0x1
 3104 01d7 51       		.byte	0x51
 3105 01d8 65000000 		.4byte	.LVL22-1
 3106 01dc D2000000 		.4byte	.LVL32
 3107 01e0 0100     		.2byte	0x1
 3108 01e2 56       		.byte	0x56
 3109 01e3 D2000000 		.4byte	.LVL32
 3110 01e7 E2000000 		.4byte	.LVL33
 3111 01eb 0100     		.2byte	0x1
 3112 01ed 51       		.byte	0x51
 3113 01ee E2000000 		.4byte	.LVL33
 3114 01f2 FC000000 		.4byte	.LVL36
 3115 01f6 0100     		.2byte	0x1
 3116 01f8 56       		.byte	0x56
 3117 01f9 FC000000 		.4byte	.LVL36
 3118 01fd 1C010000 		.4byte	.LVL37
 3119 0201 0100     		.2byte	0x1
 3120 0203 51       		.byte	0x51
 3121 0204 1C010000 		.4byte	.LVL37
 3122 0208 74010000 		.4byte	.LVL40
 3123 020c 0100     		.2byte	0x1
 3124 020e 56       		.byte	0x56
 3125 020f 74010000 		.4byte	.LVL40
ARM GAS  C:\Users\danielpi\AppData\Local\Temp\ccwIrVvL.s 			page 88


 3126 0213 7D010000 		.4byte	.LVL42-1
 3127 0217 0100     		.2byte	0x1
 3128 0219 51       		.byte	0x51
 3129 021a 7D010000 		.4byte	.LVL42-1
 3130 021e 90010000 		.4byte	.LVL44
 3131 0222 0100     		.2byte	0x1
 3132 0224 56       		.byte	0x56
 3133 0225 90010000 		.4byte	.LVL44
 3134 0229 93010000 		.4byte	.LVL45-1
 3135 022d 0100     		.2byte	0x1
 3136 022f 51       		.byte	0x51
 3137 0230 93010000 		.4byte	.LVL45-1
 3138 0234 96010000 		.4byte	.LVL46
 3139 0238 0100     		.2byte	0x1
 3140 023a 56       		.byte	0x56
 3141 023b 96010000 		.4byte	.LVL46
 3142 023f 98010000 		.4byte	.LVL47
 3143 0243 0100     		.2byte	0x1
 3144 0245 51       		.byte	0x51
 3145 0246 98010000 		.4byte	.LVL47
 3146 024a A6010000 		.4byte	.LVL51
 3147 024e 0100     		.2byte	0x1
 3148 0250 56       		.byte	0x56
 3149 0251 A6010000 		.4byte	.LVL51
 3150 0255 AB010000 		.4byte	.LVL53-1
 3151 0259 0100     		.2byte	0x1
 3152 025b 51       		.byte	0x51
 3153 025c AB010000 		.4byte	.LVL53-1
 3154 0260 AE010000 		.4byte	.LVL54
 3155 0264 0100     		.2byte	0x1
 3156 0266 56       		.byte	0x56
 3157 0267 AE010000 		.4byte	.LVL54
 3158 026b B2010000 		.4byte	.LVL55
 3159 026f 0100     		.2byte	0x1
 3160 0271 51       		.byte	0x51
 3161 0272 B2010000 		.4byte	.LVL55
 3162 0276 D8010000 		.4byte	.LVL58
 3163 027a 0100     		.2byte	0x1
 3164 027c 56       		.byte	0x56
 3165 027d D8010000 		.4byte	.LVL58
 3166 0281 18020000 		.4byte	.LFE10
 3167 0285 0400     		.2byte	0x4
 3168 0287 F3       		.byte	0xf3
 3169 0288 01       		.uleb128 0x1
 3170 0289 51       		.byte	0x51
 3171 028a 9F       		.byte	0x9f
 3172 028b 00000000 		.4byte	0
 3173 028f 00000000 		.4byte	0
 3174              	.LLST7:
 3175 0293 9E010000 		.4byte	.LVL48
 3176 0297 A3010000 		.4byte	.LVL50-1
 3177 029b 0100     		.2byte	0x1
 3178 029d 51       		.byte	0x51
 3179 029e 00000000 		.4byte	0
 3180 02a2 00000000 		.4byte	0
 3181              		.section	.debug_aranges,"",%progbits
 3182 0000 34000000 		.4byte	0x34
ARM GAS  C:\Users\danielpi\AppData\Local\Temp\ccwIrVvL.s 			page 89


 3183 0004 0200     		.2byte	0x2
 3184 0006 00000000 		.4byte	.Ldebug_info0
 3185 000a 04       		.byte	0x4
 3186 000b 00       		.byte	0
 3187 000c 0000     		.2byte	0
 3188 000e 0000     		.2byte	0
 3189 0010 00000000 		.4byte	.LFB4
 3190 0014 10000000 		.4byte	.LFE4-.LFB4
 3191 0018 00000000 		.4byte	.LFB7
 3192 001c 24000000 		.4byte	.LFE7-.LFB7
 3193 0020 00000000 		.4byte	.LFB2
 3194 0024 4C000000 		.4byte	.LFE2-.LFB2
 3195 0028 00000000 		.4byte	.LFB10
 3196 002c 18020000 		.4byte	.LFE10-.LFB10
 3197 0030 00000000 		.4byte	0
 3198 0034 00000000 		.4byte	0
 3199              		.section	.debug_ranges,"",%progbits
 3200              	.Ldebug_ranges0:
 3201 0000 00000000 		.4byte	.LFB4
 3202 0004 10000000 		.4byte	.LFE4
 3203 0008 00000000 		.4byte	.LFB7
 3204 000c 24000000 		.4byte	.LFE7
 3205 0010 00000000 		.4byte	.LFB2
 3206 0014 4C000000 		.4byte	.LFE2
 3207 0018 00000000 		.4byte	.LFB10
 3208 001c 18020000 		.4byte	.LFE10
 3209 0020 00000000 		.4byte	0
 3210 0024 00000000 		.4byte	0
 3211              		.section	.debug_line,"",%progbits
 3212              	.Ldebug_line0:
 3213 0000 D6010000 		.section	.debug_str,"MS",%progbits,1
 3213      02001001 
 3213      00000201 
 3213      FB0E0D00 
 3213      01010101 
 3214              	.LASF217:
 3215 0000 4359424C 		.ascii	"CYBLE_GATT_ERR_INVALID_CRC\000"
 3215      455F4741 
 3215      54545F45 
 3215      52525F49 
 3215      4E56414C 
 3216              	.LASF249:
 3217 001b 4359424C 		.ascii	"CYBLE_DIS_CHAR_COUNT\000"
 3217      455F4449 
 3217      535F4348 
 3217      41525F43 
 3217      4F554E54 
 3218              	.LASF15:
 3219 0030 73697A65 		.ascii	"sizetype\000"
 3219      74797065 
 3219      00
 3220              	.LASF153:
 3221 0039 656B6579 		.ascii	"ekeySize\000"
 3221      53697A65 
 3221      00
 3222              	.LASF187:
 3223 0042 4359424C 		.ascii	"CYBLE_GATT_HANDLE_VALUE_CNF\000"
ARM GAS  C:\Users\danielpi\AppData\Local\Temp\ccwIrVvL.s 			page 90


 3223      455F4741 
 3223      54545F48 
 3223      414E444C 
 3223      455F5641 
 3224              	.LASF286:
 3225 005e 4379426C 		.ascii	"CyBle_SetDeviceAddress\000"
 3225      655F5365 
 3225      74446576 
 3225      69636541 
 3225      64647265 
 3226              	.LASF287:
 3227 0075 4379426C 		.ascii	"CyBle_GapSetIoCap\000"
 3227      655F4761 
 3227      70536574 
 3227      496F4361 
 3227      7000
 3228              	.LASF297:
 3229 0087 4379426C 		.ascii	"CyBle_WriteReqHandler\000"
 3229      655F5772 
 3229      69746552 
 3229      65714861 
 3229      6E646C65 
 3230              	.LASF262:
 3231 009d 6576656E 		.ascii	"eventParam\000"
 3231      74506172 
 3231      616D00
 3232              	.LASF29:
 3233 00a8 4359424C 		.ascii	"CYBLE_EVT_GAP_DEVICE_CONNECTED\000"
 3233      455F4556 
 3233      545F4741 
 3233      505F4445 
 3233      56494345 
 3234              	.LASF134:
 3235 00c7 4359424C 		.ascii	"CYBLE_GAP_IOCAP_NOINPUT_NOOUTPUT\000"
 3235      455F4741 
 3235      505F494F 
 3235      4341505F 
 3235      4E4F494E 
 3236              	.LASF36:
 3237 00e8 4359424C 		.ascii	"CYBLE_EVT_GATT_CONNECT_IND\000"
 3237      455F4556 
 3237      545F4741 
 3237      54545F43 
 3237      4F4E4E45 
 3238              	.LASF180:
 3239 0103 4359424C 		.ascii	"CYBLE_GATT_WRITE_CMD\000"
 3239      455F4741 
 3239      54545F57 
 3239      52495445 
 3239      5F434D44 
 3240              	.LASF11:
 3241 0118 75696E74 		.ascii	"uint32\000"
 3241      333200
 3242              	.LASF136:
 3243 011f 4359424C 		.ascii	"CYBLE_GAP_IOCAP_T\000"
 3243      455F4741 
 3243      505F494F 
ARM GAS  C:\Users\danielpi\AppData\Local\Temp\ccwIrVvL.s 			page 91


 3243      4341505F 
 3243      5400
 3244              	.LASF116:
 3245 0131 626C6550 		.ascii	"blePwrLevelInDbm\000"
 3245      77724C65 
 3245      76656C49 
 3245      6E44626D 
 3245      00
 3246              	.LASF275:
 3247 0142 6379426C 		.ascii	"cyBle_attValuesCCCDFlashMemory\000"
 3247      655F6174 
 3247      7456616C 
 3247      75657343 
 3247      43434446 
 3248              	.LASF192:
 3249 0161 4359424C 		.ascii	"CYBLE_GATT_ERR_READ_NOT_PERMITTED\000"
 3249      455F4741 
 3249      54545F45 
 3249      52525F52 
 3249      4541445F 
 3250              	.LASF207:
 3251 0183 4359424C 		.ascii	"CYBLE_GATT_ERR_INSUFFICIENT_RESOURCE\000"
 3251      455F4741 
 3251      54545F45 
 3251      52525F49 
 3251      4E535546 
 3252              	.LASF181:
 3253 01a8 4359424C 		.ascii	"CYBLE_GATT_PREPARE_WRITE_REQ\000"
 3253      455F4741 
 3253      54545F50 
 3253      52455041 
 3253      52455F57 
 3254              	.LASF206:
 3255 01c5 4359424C 		.ascii	"CYBLE_GATT_ERR_UNSUPPORTED_GROUP_TYPE\000"
 3255      455F4741 
 3255      54545F45 
 3255      52525F55 
 3255      4E535550 
 3256              	.LASF89:
 3257 01eb 4359424C 		.ascii	"CYBLE_ERROR_L2CAP_CONNECTION_ENTITY_NOT_FOUND\000"
 3257      455F4552 
 3257      524F525F 
 3257      4C324341 
 3257      505F434F 
 3258              	.LASF95:
 3259 0219 4359424C 		.ascii	"CYBLE_ERROR_MIC_AUTH_FAILED\000"
 3259      455F4552 
 3259      524F525F 
 3259      4D49435F 
 3259      41555448 
 3260              	.LASF56:
 3261 0235 4359424C 		.ascii	"CYBLE_EVT_GATTS_DATA_SIGNED_CMD_REQ\000"
 3261      455F4556 
 3261      545F4741 
 3261      5454535F 
 3261      44415441 
 3262              	.LASF67:
ARM GAS  C:\Users\danielpi\AppData\Local\Temp\ccwIrVvL.s 			page 92


 3263 0259 4359424C 		.ascii	"CYBLE_EVT_L2CAP_CBFC_RX_CREDIT_IND\000"
 3263      455F4556 
 3263      545F4C32 
 3263      4341505F 
 3263      43424643 
 3264              	.LASF228:
 3265 027c 4359424C 		.ascii	"CYBLE_GATT_VALUE_T\000"
 3265      455F4741 
 3265      54545F56 
 3265      414C5545 
 3265      5F5400
 3266              	.LASF175:
 3267 028f 4359424C 		.ascii	"CYBLE_GATT_READ_MULTIPLE_RSP\000"
 3267      455F4741 
 3267      54545F52 
 3267      4541445F 
 3267      4D554C54 
 3268              	.LASF120:
 3269 02ac 74797065 		.ascii	"type\000"
 3269      00
 3270              	.LASF126:
 3271 02b1 4359424C 		.ascii	"CYBLE_TO_REASON_CODE_T\000"
 3271      455F544F 
 3271      5F524541 
 3271      534F4E5F 
 3271      434F4445 
 3272              	.LASF148:
 3273 02c8 4359424C 		.ascii	"CYBLE_GAP_AUTH_ERROR_AUTHENTICATION_TIMEOUT\000"
 3273      455F4741 
 3273      505F4155 
 3273      54485F45 
 3273      52524F52 
 3274              	.LASF145:
 3275 02f4 4359424C 		.ascii	"CYBLE_GAP_AUTH_ERROR_UNSPECIFIED_REASON\000"
 3275      455F4741 
 3275      505F4155 
 3275      54485F45 
 3275      52524F52 
 3276              	.LASF169:
 3277 031c 4359424C 		.ascii	"CYBLE_GATT_READ_BY_TYPE_RSP\000"
 3277      455F4741 
 3277      54545F52 
 3277      4541445F 
 3277      42595F54 
 3278              	.LASF239:
 3279 0338 4359424C 		.ascii	"CYBLE_CALLBACK_T\000"
 3279      455F4341 
 3279      4C4C4241 
 3279      434B5F54 
 3279      00
 3280              	.LASF244:
 3281 0349 4359424C 		.ascii	"CYBLE_DIS_FIRMWARE_REV\000"
 3281      455F4449 
 3281      535F4649 
 3281      524D5741 
 3281      52455F52 
 3282              	.LASF53:
ARM GAS  C:\Users\danielpi\AppData\Local\Temp\ccwIrVvL.s 			page 93


 3283 0360 4359424C 		.ascii	"CYBLE_EVT_GATTC_HANDLE_VALUE_NTF\000"
 3283      455F4556 
 3283      545F4741 
 3283      5454435F 
 3283      48414E44 
 3284              	.LASF23:
 3285 0381 4359424C 		.ascii	"CYBLE_EVT_GAP_AUTH_REQ\000"
 3285      455F4556 
 3285      545F4741 
 3285      505F4155 
 3285      54485F52 
 3286              	.LASF226:
 3287 0398 4359424C 		.ascii	"CYBLE_CONN_HANDLE_T\000"
 3287      455F434F 
 3287      4E4E5F48 
 3287      414E444C 
 3287      455F5400 
 3288              	.LASF84:
 3289 03ac 4359424C 		.ascii	"CYBLE_ERROR_BT_ON_NOT_COMPLETED\000"
 3289      455F4552 
 3289      524F525F 
 3289      42545F4F 
 3289      4E5F4E4F 
 3290              	.LASF131:
 3291 03cc 4359424C 		.ascii	"CYBLE_GAP_IOCAP_DISPLAY_ONLY\000"
 3291      455F4741 
 3291      505F494F 
 3291      4341505F 
 3291      44495350 
 3292              	.LASF105:
 3293 03e9 4359424C 		.ascii	"CYBLE_LL_PWR_LVL_NEG_3_DBM\000"
 3293      455F4C4C 
 3293      5F505752 
 3293      5F4C564C 
 3293      5F4E4547 
 3294              	.LASF257:
 3295 0404 4359424C 		.ascii	"CYBLE_STATE_ADVERTISING\000"
 3295      455F5354 
 3295      4154455F 
 3295      41445645 
 3295      52544953 
 3296              	.LASF283:
 3297 041c 4379426C 		.ascii	"CyBle_GattsWriteRsp\000"
 3297      655F4761 
 3297      74747357 
 3297      72697465 
 3297      52737000 
 3298              	.LASF224:
 3299 0430 62644861 		.ascii	"bdHandle\000"
 3299      6E646C65 
 3299      00
 3300              	.LASF138:
 3301 0439 4359424C 		.ascii	"CYBLE_GAP_AUTH_ERROR_PASSKEY_ENTRY_FAILED\000"
 3301      455F4741 
 3301      505F4155 
 3301      54485F45 
 3301      52524F52 
ARM GAS  C:\Users\danielpi\AppData\Local\Temp\ccwIrVvL.s 			page 94


 3302              	.LASF284:
 3303 0463 4379426C 		.ascii	"CyBle_SetTxPowerLevel\000"
 3303      655F5365 
 3303      74547850 
 3303      6F776572 
 3303      4C657665 
 3304              	.LASF293:
 3305 0479 2E5C4765 		.ascii	".\\Generated_Source\\PSoC4\\BLE_1_eventHandler.c\000"
 3305      6E657261 
 3305      7465645F 
 3305      536F7572 
 3305      63655C50 
 3306              	.LASF163:
 3307 04a7 4359424C 		.ascii	"CYBLE_GATT_XCHNG_MTU_RSP\000"
 3307      455F4741 
 3307      54545F58 
 3307      43484E47 
 3307      5F4D5455 
 3308              	.LASF49:
 3309 04c0 4359424C 		.ascii	"CYBLE_EVT_GATTS_WRITE_CMD_REQ\000"
 3309      455F4556 
 3309      545F4741 
 3309      5454535F 
 3309      57524954 
 3310              	.LASF4:
 3311 04de 6C6F6E67 		.ascii	"long int\000"
 3311      20696E74 
 3311      00
 3312              	.LASF294:
 3313 04e7 593A5C72 		.ascii	"Y:\\repos\\PSoC-4-BLE-Experiments\\Project 002 Hear"
 3313      65706F73 
 3313      5C50536F 
 3313      432D342D 
 3313      424C452D 
 3314 0517 74205261 		.ascii	"t Rate Sensor\\PSoC\\Design01\\Design01.cydsn\000"
 3314      74652053 
 3314      656E736F 
 3314      725C5053 
 3314      6F435C44 
 3315              	.LASF127:
 3316 0542 4359424C 		.ascii	"CYBLE_GAP_SEC_LEVEL_1\000"
 3316      455F4741 
 3316      505F5345 
 3316      435F4C45 
 3316      56454C5F 
 3317              	.LASF128:
 3318 0558 4359424C 		.ascii	"CYBLE_GAP_SEC_LEVEL_2\000"
 3318      455F4741 
 3318      505F5345 
 3318      435F4C45 
 3318      56454C5F 
 3319              	.LASF129:
 3320 056e 4359424C 		.ascii	"CYBLE_GAP_SEC_LEVEL_3\000"
 3320      455F4741 
 3320      505F5345 
 3320      435F4C45 
 3320      56454C5F 
ARM GAS  C:\Users\danielpi\AppData\Local\Temp\ccwIrVvL.s 			page 95


 3321              	.LASF167:
 3322 0584 4359424C 		.ascii	"CYBLE_GATT_FIND_BY_TYPE_VALUE_RSP\000"
 3322      455F4741 
 3322      54545F46 
 3322      494E445F 
 3322      42595F54 
 3323              	.LASF17:
 3324 05a6 4359424C 		.ascii	"CYBLE_EVT_STACK_ON\000"
 3324      455F4556 
 3324      545F5354 
 3324      41434B5F 
 3324      4F4E00
 3325              	.LASF91:
 3326 05b9 4359424C 		.ascii	"CYBLE_ERROR_L2CAP_PSM_NOT_IN_RANGE\000"
 3326      455F4552 
 3326      524F525F 
 3326      4C324341 
 3326      505F5053 
 3327              	.LASF243:
 3328 05dc 4359424C 		.ascii	"CYBLE_DIS_HARDWARE_REV\000"
 3328      455F4449 
 3328      535F4841 
 3328      52445741 
 3328      52455F52 
 3329              	.LASF270:
 3330 05f3 6379426C 		.ascii	"cyBle_deviceAddress\000"
 3330      655F6465 
 3330      76696365 
 3330      41646472 
 3330      65737300 
 3331              	.LASF194:
 3332 0607 4359424C 		.ascii	"CYBLE_GATT_ERR_INVALID_PDU\000"
 3332      455F4741 
 3332      54545F45 
 3332      52525F49 
 3332      4E56414C 
 3333              	.LASF141:
 3334 0622 4359424C 		.ascii	"CYBLE_GAP_AUTH_ERROR_CONFIRM_VALUE_NOT_MATCH\000"
 3334      455F4741 
 3334      505F4155 
 3334      54485F45 
 3334      52524F52 
 3335              	.LASF99:
 3336 064f 4359424C 		.ascii	"CYBLE_ERROR_CHAR_IS_NOT_DISCOVERED\000"
 3336      455F4552 
 3336      524F525F 
 3336      43484152 
 3336      5F49535F 
 3337              	.LASF231:
 3338 0672 4359424C 		.ascii	"CYBLE_GATT_HANDLE_VALUE_PAIR_T\000"
 3338      455F4741 
 3338      54545F48 
 3338      414E444C 
 3338      455F5641 
 3339              	.LASF117:
 3340 0691 626C6553 		.ascii	"bleSsChId\000"
 3340      73436849 
ARM GAS  C:\Users\danielpi\AppData\Local\Temp\ccwIrVvL.s 			page 96


 3340      6400
 3341              	.LASF61:
 3342 069b 4359424C 		.ascii	"CYBLE_EVT_L2CAP_COMMAND_REJ\000"
 3342      455F4556 
 3342      545F4C32 
 3342      4341505F 
 3342      434F4D4D 
 3343              	.LASF173:
 3344 06b7 4359424C 		.ascii	"CYBLE_GATT_READ_BLOB_RSP\000"
 3344      455F4741 
 3344      54545F52 
 3344      4541445F 
 3344      424C4F42 
 3345              	.LASF203:
 3346 06d0 4359424C 		.ascii	"CYBLE_GATT_ERR_INVALID_ATTRIBUTE_LEN\000"
 3346      455F4741 
 3346      54545F45 
 3346      52525F49 
 3346      4E56414C 
 3347              	.LASF92:
 3348 06f5 4359424C 		.ascii	"CYBLE_ERROR_GATT_DB_INVALID_ATTR_HANDLE\000"
 3348      455F4552 
 3348      524F525F 
 3348      47415454 
 3348      5F44425F 
 3349              	.LASF0:
 3350 071d 7369676E 		.ascii	"signed char\000"
 3350      65642063 
 3350      68617200 
 3351              	.LASF102:
 3352 0729 4359424C 		.ascii	"CYBLE_LL_PWR_LVL_NEG_18_DBM\000"
 3352      455F4C4C 
 3352      5F505752 
 3352      5F4C564C 
 3352      5F4E4547 
 3353              	.LASF164:
 3354 0745 4359424C 		.ascii	"CYBLE_GATT_FIND_INFO_REQ\000"
 3354      455F4741 
 3354      54545F46 
 3354      494E445F 
 3354      494E464F 
 3355              	.LASF19:
 3356 075e 4359424C 		.ascii	"CYBLE_EVT_HARDWARE_ERROR\000"
 3356      455F4556 
 3356      545F4841 
 3356      52445741 
 3356      52455F45 
 3357              	.LASF298:
 3358 0777 4379426C 		.ascii	"CyBle_EventHandler\000"
 3358      655F4576 
 3358      656E7448 
 3358      616E646C 
 3358      657200
 3359              	.LASF73:
 3360 078a 4359424C 		.ascii	"CYBLE_ERROR_OK\000"
 3360      455F4552 
 3360      524F525F 
ARM GAS  C:\Users\danielpi\AppData\Local\Temp\ccwIrVvL.s 			page 97


 3360      4F4B00
 3361              	.LASF115:
 3362 0799 4359424C 		.ascii	"CYBLE_BLESS_PHY_CH_GRP_ID_T\000"
 3362      455F424C 
 3362      4553535F 
 3362      5048595F 
 3362      43485F47 
 3363              	.LASF219:
 3364 07b5 4359424C 		.ascii	"CYBLE_GATT_ERR_CCCD_IMPROPERLY_CONFIGURED\000"
 3364      455F4741 
 3364      54545F45 
 3364      52525F43 
 3364      4343445F 
 3365              	.LASF40:
 3366 07df 4359424C 		.ascii	"CYBLE_EVT_GATTC_READ_BY_GROUP_TYPE_RSP\000"
 3366      455F4556 
 3366      545F4741 
 3366      5454435F 
 3366      52454144 
 3367              	.LASF254:
 3368 0806 4359424C 		.ascii	"CYBLE_STATE_STOPPED\000"
 3368      455F5354 
 3368      4154455F 
 3368      53544F50 
 3368      50454400 
 3369              	.LASF236:
 3370 081a 4359424C 		.ascii	"CYBLE_GATTS_ERR_PARAM_T\000"
 3370      455F4741 
 3370      5454535F 
 3370      4552525F 
 3370      50415241 
 3371              	.LASF1:
 3372 0832 756E7369 		.ascii	"unsigned char\000"
 3372      676E6564 
 3372      20636861 
 3372      7200
 3373              	.LASF39:
 3374 0840 4359424C 		.ascii	"CYBLE_EVT_GATTC_XCHNG_MTU_RSP\000"
 3374      455F4556 
 3374      545F4741 
 3374      5454435F 
 3374      5843484E 
 3375              	.LASF186:
 3376 085e 4359424C 		.ascii	"CYBLE_GATT_HANDLE_VALUE_IND\000"
 3376      455F4741 
 3376      54545F48 
 3376      414E444C 
 3376      455F5641 
 3377              	.LASF68:
 3378 087a 4359424C 		.ascii	"CYBLE_EVT_L2CAP_CBFC_TX_CREDIT_IND\000"
 3378      455F4556 
 3378      545F4C32 
 3378      4341505F 
 3378      43424643 
 3379              	.LASF289:
 3380 089d 4379426C 		.ascii	"CyBle_GappStartAdvertisement\000"
 3380      655F4761 
ARM GAS  C:\Users\danielpi\AppData\Local\Temp\ccwIrVvL.s 			page 98


 3380      70705374 
 3380      61727441 
 3380      64766572 
 3381              	.LASF235:
 3382 08ba 6572726F 		.ascii	"errorCode\000"
 3382      72436F64 
 3382      6500
 3383              	.LASF147:
 3384 08c4 4359424C 		.ascii	"CYBLE_GAP_AUTH_ERROR_INVALID_PARAMETERS\000"
 3384      455F4741 
 3384      505F4155 
 3384      54485F45 
 3384      52524F52 
 3385              	.LASF65:
 3386 08ec 4359424C 		.ascii	"CYBLE_EVT_L2CAP_CBFC_DISCONN_CNF\000"
 3386      455F4556 
 3386      545F4C32 
 3386      4341505F 
 3386      43424643 
 3387              	.LASF43:
 3388 090d 4359424C 		.ascii	"CYBLE_EVT_GATTC_FIND_BY_TYPE_VALUE_RSP\000"
 3388      455F4556 
 3388      545F4741 
 3388      5454435F 
 3388      46494E44 
 3389              	.LASF14:
 3390 0934 63686172 		.ascii	"char\000"
 3390      00
 3391              	.LASF106:
 3392 0939 4359424C 		.ascii	"CYBLE_LL_PWR_LVL_NEG_2_DBM\000"
 3392      455F4C4C 
 3392      5F505752 
 3392      5F4C564C 
 3392      5F4E4547 
 3393              	.LASF179:
 3394 0954 4359424C 		.ascii	"CYBLE_GATT_WRITE_RSP\000"
 3394      455F4741 
 3394      54545F57 
 3394      52495445 
 3394      5F525350 
 3395              	.LASF46:
 3396 0969 4359424C 		.ascii	"CYBLE_EVT_GATTC_READ_MULTI_RSP\000"
 3396      455F4556 
 3396      545F4741 
 3396      5454435F 
 3396      52454144 
 3397              	.LASF155:
 3398 0988 4359424C 		.ascii	"CYBLE_GAP_AUTH_INFO_T\000"
 3398      455F4741 
 3398      505F4155 
 3398      54485F49 
 3398      4E464F5F 
 3399              	.LASF133:
 3400 099e 4359424C 		.ascii	"CYBLE_GAP_IOCAP_KEYBOARD_ONLY\000"
 3400      455F4741 
 3400      505F494F 
 3400      4341505F 
ARM GAS  C:\Users\danielpi\AppData\Local\Temp\ccwIrVvL.s 			page 99


 3400      4B455942 
 3401              	.LASF16:
 3402 09bc 4359424C 		.ascii	"CYBLE_EVT_HOST_INVALID\000"
 3402      455F4556 
 3402      545F484F 
 3402      53545F49 
 3402      4E56414C 
 3403              	.LASF214:
 3404 09d3 4359424C 		.ascii	"CYBLE_GATT_ERR_MISSING_CRC\000"
 3404      455F4741 
 3404      54545F45 
 3404      52525F4D 
 3404      49535349 
 3405              	.LASF204:
 3406 09ee 4359424C 		.ascii	"CYBLE_GATT_ERR_UNLIKELY_ERROR\000"
 3406      455F4741 
 3406      54545F45 
 3406      52525F55 
 3406      4E4C494B 
 3407              	.LASF162:
 3408 0a0c 4359424C 		.ascii	"CYBLE_GATT_XCNHG_MTU_REQ\000"
 3408      455F4741 
 3408      54545F58 
 3408      434E4847 
 3408      5F4D5455 
 3409              	.LASF80:
 3410 0a25 4359424C 		.ascii	"CYBLE_ERROR_NO_DEVICE_ENTITY\000"
 3410      455F4552 
 3410      524F525F 
 3410      4E4F5F44 
 3410      45564943 
 3411              	.LASF45:
 3412 0a42 4359424C 		.ascii	"CYBLE_EVT_GATTC_READ_BLOB_RSP\000"
 3412      455F4556 
 3412      545F4741 
 3412      5454435F 
 3412      52454144 
 3413              	.LASF269:
 3414 0a60 6379426C 		.ascii	"cyBle_eventHandlerFlag\000"
 3414      655F6576 
 3414      656E7448 
 3414      616E646C 
 3414      6572466C 
 3415              	.LASF52:
 3416 0a77 4359424C 		.ascii	"CYBLE_EVT_GATTC_EXEC_WRITE_RSP\000"
 3416      455F4556 
 3416      545F4741 
 3416      5454435F 
 3416      45584543 
 3417              	.LASF208:
 3418 0a96 4359424C 		.ascii	"CYBLE_GATT_ERR_HEART_RATE_CONTROL_POINT_NOT_SUPPORT"
 3418      455F4741 
 3418      54545F45 
 3418      52525F48 
 3418      45415254 
 3419 0ac9 454400   		.ascii	"ED\000"
 3420              	.LASF201:
ARM GAS  C:\Users\danielpi\AppData\Local\Temp\ccwIrVvL.s 			page 100


 3421 0acc 4359424C 		.ascii	"CYBLE_GATT_ERR_ATTRIBUTE_NOT_LONG\000"
 3421      455F4741 
 3421      54545F45 
 3421      52525F41 
 3421      54545249 
 3422              	.LASF130:
 3423 0aee 4359424C 		.ascii	"CYBLE_GAP_SEC_LEVEL_MASK\000"
 3423      455F4741 
 3423      505F5345 
 3423      435F4C45 
 3423      56454C5F 
 3424              	.LASF245:
 3425 0b07 4359424C 		.ascii	"CYBLE_DIS_SOFTWARE_REV\000"
 3425      455F4449 
 3425      535F534F 
 3425      46545741 
 3425      52455F52 
 3426              	.LASF57:
 3427 0b1e 4359424C 		.ascii	"CYBLE_EVT_GATTC_STOP_CMD_COMPLETE\000"
 3427      455F4556 
 3427      545F4741 
 3427      5454435F 
 3427      53544F50 
 3428              	.LASF241:
 3429 0b40 4359424C 		.ascii	"CYBLE_DIS_MODEL_NUMBER\000"
 3429      455F4449 
 3429      535F4D4F 
 3429      44454C5F 
 3429      4E554D42 
 3430              	.LASF277:
 3431 0b57 6379426C 		.ascii	"cyBle_connHandle\000"
 3431      655F636F 
 3431      6E6E4861 
 3431      6E646C65 
 3431      00
 3432              	.LASF246:
 3433 0b68 4359424C 		.ascii	"CYBLE_DIS_SYSTEM_ID\000"
 3433      455F4449 
 3433      535F5359 
 3433      5354454D 
 3433      5F494400 
 3434              	.LASF161:
 3435 0b7c 4359424C 		.ascii	"CYBLE_GATT_ERROR_RSP\000"
 3435      455F4741 
 3435      54545F45 
 3435      52524F52 
 3435      5F525350 
 3436              	.LASF74:
 3437 0b91 4359424C 		.ascii	"CYBLE_ERROR_INVALID_PARAMETER\000"
 3437      455F4552 
 3437      524F525F 
 3437      494E5641 
 3437      4C49445F 
 3438              	.LASF76:
 3439 0baf 4359424C 		.ascii	"CYBLE_ERROR_MEMORY_ALLOCATION_FAILED\000"
 3439      455F4552 
 3439      524F525F 
ARM GAS  C:\Users\danielpi\AppData\Local\Temp\ccwIrVvL.s 			page 101


 3439      4D454D4F 
 3439      52595F41 
 3440              	.LASF271:
 3441 0bd4 6379426C 		.ascii	"cyBle_sflashDeviceAddress\000"
 3441      655F7366 
 3441      6C617368 
 3441      44657669 
 3441      63654164 
 3442              	.LASF188:
 3443 0bee 4359424C 		.ascii	"CYBLE_GATT_SIGNED_WRITE_CMD\000"
 3443      455F4741 
 3443      54545F53 
 3443      49474E45 
 3443      445F5752 
 3444              	.LASF215:
 3445 0c0a 4359424C 		.ascii	"CYBLE_GATTS_ERR_CCCD_IMPROPERLY_CONFIGURED\000"
 3445      455F4741 
 3445      5454535F 
 3445      4552525F 
 3445      43434344 
 3446              	.LASF285:
 3447 0c35 4379426C 		.ascii	"CyBle_GattsExchangeMtuRsp\000"
 3447      655F4761 
 3447      74747345 
 3447      78636861 
 3447      6E67654D 
 3448              	.LASF184:
 3449 0c4f 4359424C 		.ascii	"CYBLE_GATT_EXECUTE_WRITE_RSP\000"
 3449      455F4741 
 3449      54545F45 
 3449      58454355 
 3449      54455F57 
 3450              	.LASF96:
 3451 0c6c 4359424C 		.ascii	"CYBLE_ERROR_MAX\000"
 3451      455F4552 
 3451      524F525F 
 3451      4D415800 
 3452              	.LASF60:
 3453 0c7c 4359424C 		.ascii	"CYBLE_EVT_L2CAP_CONN_PARAM_UPDATE_RSP\000"
 3453      455F4556 
 3453      545F4C32 
 3453      4341505F 
 3453      434F4E4E 
 3454              	.LASF149:
 3455 0ca2 4359424C 		.ascii	"CYBLE_GAP_AUTH_ERROR_LINK_DISCONNECTED\000"
 3455      455F4741 
 3455      505F4155 
 3455      54485F45 
 3455      52524F52 
 3456              	.LASF209:
 3457 0cc9 4359424C 		.ascii	"CYBLE_GATT_ERR_USER_DATA_ACCESS_NOT_PERMITTED\000"
 3457      455F4741 
 3457      54545F45 
 3457      52525F55 
 3457      5345525F 
 3458              	.LASF26:
 3459 0cf7 4359424C 		.ascii	"CYBLE_EVT_GAP_AUTH_COMPLETE\000"
ARM GAS  C:\Users\danielpi\AppData\Local\Temp\ccwIrVvL.s 			page 102


 3459      455F4556 
 3459      545F4741 
 3459      505F4155 
 3459      54485F43 
 3460              	.LASF27:
 3461 0d13 4359424C 		.ascii	"CYBLE_EVT_GAP_AUTH_FAILED\000"
 3461      455F4556 
 3461      545F4741 
 3461      505F4155 
 3461      54485F46 
 3462              	.LASF177:
 3463 0d2d 4359424C 		.ascii	"CYBLE_GATT_READ_BY_GROUP_RSP\000"
 3463      455F4741 
 3463      54545F52 
 3463      4541445F 
 3463      42595F47 
 3464              	.LASF77:
 3465 0d4a 4359424C 		.ascii	"CYBLE_ERROR_INSUFFICIENT_RESOURCES\000"
 3465      455F4552 
 3465      524F525F 
 3465      494E5355 
 3465      46464943 
 3466              	.LASF213:
 3467 0d6d 4359424C 		.ascii	"CYBLE_GATT_ERR_OP_CODE_NOT_SUPPORTED\000"
 3467      455F4741 
 3467      54545F45 
 3467      52525F4F 
 3467      505F434F 
 3468              	.LASF109:
 3469 0d92 4359424C 		.ascii	"CYBLE_LL_PWR_LVL_3_DBM\000"
 3469      455F4C4C 
 3469      5F505752 
 3469      5F4C564C 
 3469      5F335F44 
 3470              	.LASF5:
 3471 0da9 6C6F6E67 		.ascii	"long unsigned int\000"
 3471      20756E73 
 3471      69676E65 
 3471      6420696E 
 3471      7400
 3472              	.LASF170:
 3473 0dbb 4359424C 		.ascii	"CYBLE_GATT_READ_REQ\000"
 3473      455F4741 
 3473      54545F52 
 3473      4541445F 
 3473      52455100 
 3474              	.LASF156:
 3475 0dcf 73746174 		.ascii	"status\000"
 3475      757300
 3476              	.LASF107:
 3477 0dd6 4359424C 		.ascii	"CYBLE_LL_PWR_LVL_NEG_1_DBM\000"
 3477      455F4C4C 
 3477      5F505752 
 3477      5F4C564C 
 3477      5F4E4547 
 3478              	.LASF144:
 3479 0df1 4359424C 		.ascii	"CYBLE_GAP_AUTH_ERROR_COMMAND_NOT_SUPPORTED\000"
ARM GAS  C:\Users\danielpi\AppData\Local\Temp\ccwIrVvL.s 			page 103


 3479      455F4741 
 3479      505F4155 
 3479      54485F45 
 3479      52524F52 
 3480              	.LASF140:
 3481 0e1c 4359424C 		.ascii	"CYBLE_GAP_AUTH_ERROR_AUTHENTICATION_REQ_NOT_MET\000"
 3481      455F4741 
 3481      505F4155 
 3481      54485F45 
 3481      52524F52 
 3482              	.LASF185:
 3483 0e4c 4359424C 		.ascii	"CYBLE_GATT_HANDLE_VALUE_NTF\000"
 3483      455F4741 
 3483      54545F48 
 3483      414E444C 
 3483      455F5641 
 3484              	.LASF87:
 3485 0e68 4359424C 		.ascii	"CYBLE_ERROR_L2CAP_PSM_ALREADY_REGISTERED\000"
 3485      455F4552 
 3485      524F525F 
 3485      4C324341 
 3485      505F5053 
 3486              	.LASF242:
 3487 0e91 4359424C 		.ascii	"CYBLE_DIS_SERIAL_NUMBER\000"
 3487      455F4449 
 3487      535F5345 
 3487      5249414C 
 3487      5F4E554D 
 3488              	.LASF32:
 3489 0ea9 4359424C 		.ascii	"CYBLE_EVT_GAP_CONNECTION_UPDATE_COMPLETE\000"
 3489      455F4556 
 3489      545F4741 
 3489      505F434F 
 3489      4E4E4543 
 3490              	.LASF278:
 3491 0ed2 6379426C 		.ascii	"cyBle_busyStatus\000"
 3491      655F6275 
 3491      73795374 
 3491      61747573 
 3491      00
 3492              	.LASF290:
 3493 0ee3 4379426C 		.ascii	"CyBle_ChangeAdDeviceAddress\000"
 3493      655F4368 
 3493      616E6765 
 3493      41644465 
 3493      76696365 
 3494              	.LASF255:
 3495 0eff 4359424C 		.ascii	"CYBLE_STATE_INITIALIZING\000"
 3495      455F5354 
 3495      4154455F 
 3495      494E4954 
 3495      49414C49 
 3496              	.LASF267:
 3497 0f18 6379426C 		.ascii	"cyBle_mtuSize\000"
 3497      655F6D74 
 3497      7553697A 
 3497      6500
ARM GAS  C:\Users\danielpi\AppData\Local\Temp\ccwIrVvL.s 			page 104


 3498              	.LASF146:
 3499 0f26 4359424C 		.ascii	"CYBLE_GAP_AUTH_ERROR_REPEATED_ATTEMPTS\000"
 3499      455F4741 
 3499      505F4155 
 3499      54485F45 
 3499      52524F52 
 3500              	.LASF64:
 3501 0f4d 4359424C 		.ascii	"CYBLE_EVT_L2CAP_CBFC_DISCONN_IND\000"
 3501      455F4556 
 3501      545F4C32 
 3501      4341505F 
 3501      43424643 
 3502              	.LASF292:
 3503 0f6e 474E5520 		.ascii	"GNU C 4.8.4 20140526 (release) [ARM/embedded-4_8-br"
 3503      4320342E 
 3503      382E3420 
 3503      32303134 
 3503      30353236 
 3504 0fa1 616E6368 		.ascii	"anch revision 211358] -mcpu=cortex-m0 -mthumb -g -O"
 3504      20726576 
 3504      6973696F 
 3504      6E203231 
 3504      31333538 
 3505 0fd4 67202D66 		.ascii	"g -ffunction-sections\000"
 3505      66756E63 
 3505      74696F6E 
 3505      2D736563 
 3505      74696F6E 
 3506              	.LASF24:
 3507 0fea 4359424C 		.ascii	"CYBLE_EVT_GAP_PASSKEY_ENTRY_REQUEST\000"
 3507      455F4556 
 3507      545F4741 
 3507      505F5041 
 3507      53534B45 
 3508              	.LASF111:
 3509 100e 4359424C 		.ascii	"CYBLE_BLESS_PWR_LVL_T\000"
 3509      455F424C 
 3509      4553535F 
 3509      5057525F 
 3509      4C564C5F 
 3510              	.LASF288:
 3511 1024 4379426C 		.ascii	"CyBle_GappAuthReqReply\000"
 3511      655F4761 
 3511      70704175 
 3511      74685265 
 3511      71526570 
 3512              	.LASF143:
 3513 103b 4359424C 		.ascii	"CYBLE_GAP_AUTH_ERROR_INSUFFICIENT_ENCRYPTION_KEY_SI"
 3513      455F4741 
 3513      505F4155 
 3513      54485F45 
 3513      52524F52 
 3514 106e 5A4500   		.ascii	"ZE\000"
 3515              	.LASF251:
 3516 1071 4359424C 		.ascii	"CYBLE_HRS_BSL\000"
 3516      455F4852 
 3516      535F4253 
ARM GAS  C:\Users\danielpi\AppData\Local\Temp\ccwIrVvL.s 			page 105


 3516      4C00
 3517              	.LASF6:
 3518 107f 6C6F6E67 		.ascii	"long long int\000"
 3518      206C6F6E 
 3518      6720696E 
 3518      7400
 3519              	.LASF295:
 3520 108d 4379426C 		.ascii	"CyBle_GattDisconnectEventHandler\000"
 3520      655F4761 
 3520      74744469 
 3520      73636F6E 
 3520      6E656374 
 3521              	.LASF248:
 3522 10ae 4359424C 		.ascii	"CYBLE_DIS_PNP_ID\000"
 3522      455F4449 
 3522      535F504E 
 3522      505F4944 
 3522      00
 3523              	.LASF261:
 3524 10bf 73666C61 		.ascii	"sflashDeviceAddress\000"
 3524      73684465 
 3524      76696365 
 3524      41646472 
 3524      65737300 
 3525              	.LASF199:
 3526 10d3 4359424C 		.ascii	"CYBLE_GATT_ERR_PREPARE_WRITE_QUEUE_FULL\000"
 3526      455F4741 
 3526      54545F45 
 3526      52525F50 
 3526      52455041 
 3527              	.LASF88:
 3528 10fb 4359424C 		.ascii	"CYBLE_ERROR_L2CAP_PSM_NOT_REGISTERED\000"
 3528      455F4552 
 3528      524F525F 
 3528      4C324341 
 3528      505F5053 
 3529              	.LASF78:
 3530 1120 4359424C 		.ascii	"CYBLE_ERROR_OOB_NOT_AVAILABLE\000"
 3530      455F4552 
 3530      524F525F 
 3530      4F4F425F 
 3530      4E4F545F 
 3531              	.LASF13:
 3532 113e 646F7562 		.ascii	"double\000"
 3532      6C6500
 3533              	.LASF93:
 3534 1145 4359424C 		.ascii	"CYBLE_ERROR_DEVICE_ALREADY_EXISTS\000"
 3534      455F4552 
 3534      524F525F 
 3534      44455649 
 3534      43455F41 
 3535              	.LASF70:
 3536 1167 4359424C 		.ascii	"CYBLE_EVT_PENDING_FLASH_WRITE\000"
 3536      455F4556 
 3536      545F5045 
 3536      4E44494E 
 3536      475F464C 
ARM GAS  C:\Users\danielpi\AppData\Local\Temp\ccwIrVvL.s 			page 106


 3537              	.LASF202:
 3538 1185 4359424C 		.ascii	"CYBLE_GATT_ERR_INSUFFICIENT_ENC_KEY_SIZE\000"
 3538      455F4741 
 3538      54545F45 
 3538      52525F49 
 3538      4E535546 
 3539              	.LASF110:
 3540 11ae 4359424C 		.ascii	"CYBLE_LL_PWR_LVL_MAX\000"
 3540      455F4C4C 
 3540      5F505752 
 3540      5F4C564C 
 3540      5F4D4158 
 3541              	.LASF220:
 3542 11c3 4359424C 		.ascii	"CYBLE_GATT_ERR_PROCEDURE_ALREADY_IN_PROGRESS\000"
 3542      455F4741 
 3542      54545F45 
 3542      52525F50 
 3542      524F4345 
 3543              	.LASF90:
 3544 11f0 4359424C 		.ascii	"CYBLE_ERROR_L2CAP_CHANNEL_NOT_FOUND\000"
 3544      455F4552 
 3544      524F525F 
 3544      4C324341 
 3544      505F4348 
 3545              	.LASF81:
 3546 1214 4359424C 		.ascii	"CYBLE_ERROR_REPEATED_ATTEMPTS\000"
 3546      455F4552 
 3546      524F525F 
 3546      52455045 
 3546      41544544 
 3547              	.LASF12:
 3548 1232 666C6F61 		.ascii	"float\000"
 3548      7400
 3549              	.LASF94:
 3550 1238 4359424C 		.ascii	"CYBLE_ERROR_FLASH_WRITE_NOT_PERMITED\000"
 3550      455F4552 
 3550      524F525F 
 3550      464C4153 
 3550      485F5752 
 3551              	.LASF58:
 3552 125d 4359424C 		.ascii	"CYBLE_EVT_GATTS_READ_CHAR_VAL_ACCESS_REQ\000"
 3552      455F4556 
 3552      545F4741 
 3552      5454535F 
 3552      52454144 
 3553              	.LASF234:
 3554 1286 6F70636F 		.ascii	"opcode\000"
 3554      646500
 3555              	.LASF198:
 3556 128d 4359424C 		.ascii	"CYBLE_GATT_ERR_INSUFFICIENT_AUTHORIZATION\000"
 3556      455F4741 
 3556      54545F45 
 3556      52525F49 
 3556      4E535546 
 3557              	.LASF230:
 3558 12b7 61747472 		.ascii	"attrHandle\000"
 3558      48616E64 
ARM GAS  C:\Users\danielpi\AppData\Local\Temp\ccwIrVvL.s 			page 107


 3558      6C6500
 3559              	.LASF152:
 3560 12c2 626F6E64 		.ascii	"bonding\000"
 3560      696E6700 
 3561              	.LASF238:
 3562 12ca 4359424C 		.ascii	"CYBLE_GATTS_WRITE_REQ_PARAM_T\000"
 3562      455F4741 
 3562      5454535F 
 3562      57524954 
 3562      455F5245 
 3563              	.LASF8:
 3564 12e8 756E7369 		.ascii	"unsigned int\000"
 3564      676E6564 
 3564      20696E74 
 3564      00
 3565              	.LASF50:
 3566 12f5 4359424C 		.ascii	"CYBLE_EVT_GATTS_PREP_WRITE_REQ\000"
 3566      455F4556 
 3566      545F4741 
 3566      5454535F 
 3566      50524550 
 3567              	.LASF195:
 3568 1314 4359424C 		.ascii	"CYBLE_GATT_ERR_INSUFFICIENT_AUTHENTICATION\000"
 3568      455F4741 
 3568      54545F45 
 3568      52525F49 
 3568      4E535546 
 3569              	.LASF233:
 3570 133f 4359424C 		.ascii	"CYBLE_GATT_XCHG_MTU_PARAM_T\000"
 3570      455F4741 
 3570      54545F58 
 3570      4348475F 
 3570      4D54555F 
 3571              	.LASF247:
 3572 135b 4359424C 		.ascii	"CYBLE_DIS_REG_CERT_DATA\000"
 3572      455F4449 
 3572      535F5245 
 3572      475F4345 
 3572      52545F44 
 3573              	.LASF113:
 3574 1373 4359424C 		.ascii	"CYBLE_LL_CONN_CH_TYPE\000"
 3574      455F4C4C 
 3574      5F434F4E 
 3574      4E5F4348 
 3574      5F545950 
 3575              	.LASF281:
 3576 1389 4379426C 		.ascii	"CyBle_GattsWriteEventHandler\000"
 3576      655F4761 
 3576      74747357 
 3576      72697465 
 3576      4576656E 
 3577              	.LASF212:
 3578 13a6 4359424C 		.ascii	"CYBLE_GATTS_ERR_PROCEDURE_ALREADY_IN_PROGRESS\000"
 3578      455F4741 
 3578      5454535F 
 3578      4552525F 
 3578      50524F43 
ARM GAS  C:\Users\danielpi\AppData\Local\Temp\ccwIrVvL.s 			page 108


 3579              	.LASF264:
 3580 13d4 6572725F 		.ascii	"err_param\000"
 3580      70617261 
 3580      6D00
 3581              	.LASF86:
 3582 13de 4359424C 		.ascii	"CYBLE_ERROR_L2CAP_PSM_WRONG_ENCODING\000"
 3582      455F4552 
 3582      524F525F 
 3582      4C324341 
 3582      505F5053 
 3583              	.LASF182:
 3584 1403 4359424C 		.ascii	"CYBLE_GATT_PREPARE_WRITE_RSP\000"
 3584      455F4741 
 3584      54545F50 
 3584      52455041 
 3584      52455F57 
 3585              	.LASF252:
 3586 1420 4359424C 		.ascii	"CYBLE_HRS_CPT\000"
 3586      455F4852 
 3586      535F4350 
 3586      5400
 3587              	.LASF200:
 3588 142e 4359424C 		.ascii	"CYBLE_GATT_ERR_ATTRIBUTE_NOT_FOUND\000"
 3588      455F4741 
 3588      54545F45 
 3588      52525F41 
 3588      54545249 
 3589              	.LASF72:
 3590 1451 4359424C 		.ascii	"CYBLE_EVT_MAX\000"
 3590      455F4556 
 3590      545F4D41 
 3590      5800
 3591              	.LASF33:
 3592 145f 4359424C 		.ascii	"CYBLE_EVT_GAPC_SCAN_START_STOP\000"
 3592      455F4556 
 3592      545F4741 
 3592      50435F53 
 3592      43414E5F 
 3593              	.LASF296:
 3594 147e 4379426C 		.ascii	"CyBle_IsDeviceAddressValid\000"
 3594      655F4973 
 3594      44657669 
 3594      63654164 
 3594      64726573 
 3595              	.LASF150:
 3596 1499 4359424C 		.ascii	"CYBLE_GAP_AUTH_FAILED_REASON_T\000"
 3596      455F4741 
 3596      505F4155 
 3596      54485F46 
 3596      41494C45 
 3597              	.LASF47:
 3598 14b8 4359424C 		.ascii	"CYBLE_EVT_GATTS_WRITE_REQ\000"
 3598      455F4556 
 3598      545F4741 
 3598      5454535F 
 3598      57524954 
 3599              	.LASF103:
ARM GAS  C:\Users\danielpi\AppData\Local\Temp\ccwIrVvL.s 			page 109


 3600 14d2 4359424C 		.ascii	"CYBLE_LL_PWR_LVL_NEG_12_DBM\000"
 3600      455F4C4C 
 3600      5F505752 
 3600      5F4C564C 
 3600      5F4E4547 
 3601              	.LASF25:
 3602 14ee 4359424C 		.ascii	"CYBLE_EVT_GAP_PASSKEY_DISPLAY_REQUEST\000"
 3602      455F4556 
 3602      545F4741 
 3602      505F5041 
 3602      53534B45 
 3603              	.LASF98:
 3604 1514 4359424C 		.ascii	"CYBLE_ERROR_IND_DISABLED\000"
 3604      455F4552 
 3604      524F525F 
 3604      494E445F 
 3604      44495341 
 3605              	.LASF97:
 3606 152d 4359424C 		.ascii	"CYBLE_ERROR_NTF_DISABLED\000"
 3606      455F4552 
 3606      524F525F 
 3606      4E54465F 
 3606      44495341 
 3607              	.LASF174:
 3608 1546 4359424C 		.ascii	"CYBLE_GATT_READ_MULTIPLE_REQ\000"
 3608      455F4741 
 3608      54545F52 
 3608      4541445F 
 3608      4D554C54 
 3609              	.LASF44:
 3610 1563 4359424C 		.ascii	"CYBLE_EVT_GATTC_READ_RSP\000"
 3610      455F4556 
 3610      545F4741 
 3610      5454435F 
 3610      52454144 
 3611              	.LASF197:
 3612 157c 4359424C 		.ascii	"CYBLE_GATT_ERR_INVALID_OFFSET\000"
 3612      455F4741 
 3612      54545F45 
 3612      52525F49 
 3612      4E56414C 
 3613              	.LASF168:
 3614 159a 4359424C 		.ascii	"CYBLE_GATT_READ_BY_TYPE_REQ\000"
 3614      455F4741 
 3614      54545F52 
 3614      4541445F 
 3614      42595F54 
 3615              	.LASF63:
 3616 15b6 4359424C 		.ascii	"CYBLE_EVT_L2CAP_CBFC_CONN_CNF\000"
 3616      455F4556 
 3616      545F4C32 
 3616      4341505F 
 3616      43424643 
 3617              	.LASF221:
 3618 15d4 4359424C 		.ascii	"CYBLE_GATT_ERR_OUT_OF_RANGE\000"
 3618      455F4741 
 3618      54545F45 
ARM GAS  C:\Users\danielpi\AppData\Local\Temp\ccwIrVvL.s 			page 110


 3618      52525F4F 
 3618      55545F4F 
 3619              	.LASF166:
 3620 15f0 4359424C 		.ascii	"CYBLE_GATT_FIND_BY_TYPE_VALUE_REQ\000"
 3620      455F4741 
 3620      54545F46 
 3620      494E445F 
 3620      42595F54 
 3621              	.LASF104:
 3622 1612 4359424C 		.ascii	"CYBLE_LL_PWR_LVL_NEG_6_DBM\000"
 3622      455F4C4C 
 3622      5F505752 
 3622      5F4C564C 
 3622      5F4E4547 
 3623              	.LASF137:
 3624 162d 4359424C 		.ascii	"CYBLE_GAP_AUTH_ERROR_NONE\000"
 3624      455F4741 
 3624      505F4155 
 3624      54485F45 
 3624      52524F52 
 3625              	.LASF31:
 3626 1647 4359424C 		.ascii	"CYBLE_EVT_GAP_ENCRYPT_CHANGE\000"
 3626      455F4556 
 3626      545F4741 
 3626      505F454E 
 3626      43525950 
 3627              	.LASF38:
 3628 1664 4359424C 		.ascii	"CYBLE_EVT_GATTS_XCNHG_MTU_REQ\000"
 3628      455F4556 
 3628      545F4741 
 3628      5454535F 
 3628      58434E48 
 3629              	.LASF250:
 3630 1682 4359424C 		.ascii	"CYBLE_HRS_HRM\000"
 3630      455F4852 
 3630      535F4852 
 3630      4D00
 3631              	.LASF165:
 3632 1690 4359424C 		.ascii	"CYBLE_GATT_FIND_INFO_RSP\000"
 3632      455F4741 
 3632      54545F46 
 3632      494E445F 
 3632      494E464F 
 3633              	.LASF139:
 3634 16a9 4359424C 		.ascii	"CYBLE_GAP_AUTH_ERROR_OOB_DATA_NOT_AVAILABLE\000"
 3634      455F4741 
 3634      505F4155 
 3634      54485F45 
 3634      52524F52 
 3635              	.LASF282:
 3636 16d5 4379426C 		.ascii	"CyBle_HrssWriteEventHandler\000"
 3636      655F4872 
 3636      73735772 
 3636      69746545 
 3636      76656E74 
 3637              	.LASF240:
 3638 16f1 4359424C 		.ascii	"CYBLE_DIS_MANUFACTURER_NAME\000"
ARM GAS  C:\Users\danielpi\AppData\Local\Temp\ccwIrVvL.s 			page 111


 3638      455F4449 
 3638      535F4D41 
 3638      4E554641 
 3638      43545552 
 3639              	.LASF160:
 3640 170d 4359424C 		.ascii	"CYBLE_GAP_CONN_PARAM_UPDATED_IN_CONTROLLER_T\000"
 3640      455F4741 
 3640      505F434F 
 3640      4E4E5F50 
 3640      4152414D 
 3641              	.LASF7:
 3642 173a 6C6F6E67 		.ascii	"long long unsigned int\000"
 3642      206C6F6E 
 3642      6720756E 
 3642      7369676E 
 3642      65642069 
 3643              	.LASF191:
 3644 1751 4359424C 		.ascii	"CYBLE_GATT_ERR_INVALID_HANDLE\000"
 3644      455F4741 
 3644      54545F45 
 3644      52525F49 
 3644      4E56414C 
 3645              	.LASF18:
 3646 176f 4359424C 		.ascii	"CYBLE_EVT_TIMEOUT\000"
 3646      455F4556 
 3646      545F5449 
 3646      4D454F55 
 3646      5400
 3647              	.LASF260:
 3648 1781 73666C61 		.ascii	"sflashAddressValid\000"
 3648      73684164 
 3648      64726573 
 3648      7356616C 
 3648      696400
 3649              	.LASF189:
 3650 1794 4359424C 		.ascii	"CYBLE_GATT_UNKNOWN_PDU_IND\000"
 3650      455F4741 
 3650      54545F55 
 3650      4E4B4E4F 
 3650      574E5F50 
 3651              	.LASF100:
 3652 17af 4359424C 		.ascii	"CYBLE_ERROR_INVALID_STATE\000"
 3652      455F4552 
 3652      524F525F 
 3652      494E5641 
 3652      4C49445F 
 3653              	.LASF223:
 3654 17c9 4359424C 		.ascii	"CYBLE_GATT_DB_ATTR_HANDLE_T\000"
 3654      455F4741 
 3654      54545F44 
 3654      425F4154 
 3654      54525F48 
 3655              	.LASF266:
 3656 17e5 626C6553 		.ascii	"bleSsPowerLevel\000"
 3656      73506F77 
 3656      65724C65 
 3656      76656C00 
ARM GAS  C:\Users\danielpi\AppData\Local\Temp\ccwIrVvL.s 			page 112


 3657              	.LASF66:
 3658 17f5 4359424C 		.ascii	"CYBLE_EVT_L2CAP_CBFC_DATA_READ\000"
 3658      455F4556 
 3658      545F4C32 
 3658      4341505F 
 3658      43424643 
 3659              	.LASF190:
 3660 1814 4359424C 		.ascii	"CYBLE_GATT_ERR_NONE\000"
 3660      455F4741 
 3660      54545F45 
 3660      52525F4E 
 3660      4F4E4500 
 3661              	.LASF229:
 3662 1828 76616C75 		.ascii	"value\000"
 3662      6500
 3663              	.LASF268:
 3664 182e 4379426C 		.ascii	"CyBle_ApplCallback\000"
 3664      655F4170 
 3664      706C4361 
 3664      6C6C6261 
 3664      636B00
 3665              	.LASF222:
 3666 1841 4359424C 		.ascii	"CYBLE_GATT_ERR_CODE_T\000"
 3666      455F4741 
 3666      54545F45 
 3666      52525F43 
 3666      4F44455F 
 3667              	.LASF123:
 3668 1857 4359424C 		.ascii	"CYBLE_GAP_SCAN_TO\000"
 3668      455F4741 
 3668      505F5343 
 3668      414E5F54 
 3668      4F00
 3669              	.LASF211:
 3670 1869 4359424C 		.ascii	"CYBLE_GATT_ERR_HTS_OUT_OF_RANGE\000"
 3670      455F4741 
 3670      54545F45 
 3670      52525F48 
 3670      54535F4F 
 3671              	.LASF121:
 3672 1889 4359424C 		.ascii	"CYBLE_GAP_BD_ADDR_T\000"
 3672      455F4741 
 3672      505F4244 
 3672      5F414444 
 3672      525F5400 
 3673              	.LASF172:
 3674 189d 4359424C 		.ascii	"CYBLE_GATT_READ_BLOB_REQ\000"
 3674      455F4741 
 3674      54545F52 
 3674      4541445F 
 3674      424C4F42 
 3675              	.LASF122:
 3676 18b6 4359424C 		.ascii	"CYBLE_GAP_ADV_MODE_TO\000"
 3676      455F4741 
 3676      505F4144 
 3676      565F4D4F 
 3676      44455F54 
ARM GAS  C:\Users\danielpi\AppData\Local\Temp\ccwIrVvL.s 			page 113


 3677              	.LASF237:
 3678 18cc 68616E64 		.ascii	"handleValPair\000"
 3678      6C655661 
 3678      6C506169 
 3678      7200
 3679              	.LASF232:
 3680 18da 636F6E6E 		.ascii	"connHandle\000"
 3680      48616E64 
 3680      6C6500
 3681              	.LASF142:
 3682 18e5 4359424C 		.ascii	"CYBLE_GAP_AUTH_ERROR_PAIRING_NOT_SUPPORTED\000"
 3682      455F4741 
 3682      505F4155 
 3682      54485F45 
 3682      52524F52 
 3683              	.LASF125:
 3684 1910 4359424C 		.ascii	"CYBLE_GENERIC_TO\000"
 3684      455F4745 
 3684      4E455249 
 3684      435F544F 
 3684      00
 3685              	.LASF273:
 3686 1921 6379426C 		.ascii	"cyBle_pendingFlashWrite\000"
 3686      655F7065 
 3686      6E64696E 
 3686      67466C61 
 3686      73685772 
 3687              	.LASF42:
 3688 1939 4359424C 		.ascii	"CYBLE_EVT_GATTC_FIND_INFO_RSP\000"
 3688      455F4556 
 3688      545F4741 
 3688      5454435F 
 3688      46494E44 
 3689              	.LASF41:
 3690 1957 4359424C 		.ascii	"CYBLE_EVT_GATTC_READ_BY_TYPE_RSP\000"
 3690      455F4556 
 3690      545F4741 
 3690      5454435F 
 3690      52454144 
 3691              	.LASF216:
 3692 1978 4359424C 		.ascii	"CYBLE_GATTS_ERR_OPERATION_FAILED\000"
 3692      455F4741 
 3692      5454535F 
 3692      4552525F 
 3692      4F504552 
 3693              	.LASF276:
 3694 1999 6379426C 		.ascii	"cyBle_state\000"
 3694      655F7374 
 3694      61746500 
 3695              	.LASF48:
 3696 19a5 4359424C 		.ascii	"CYBLE_EVT_GATTC_WRITE_RSP\000"
 3696      455F4556 
 3696      545F4741 
 3696      5454435F 
 3696      57524954 
 3697              	.LASF258:
 3698 19bf 4359424C 		.ascii	"CYBLE_STATE_DISCONNECTED\000"
ARM GAS  C:\Users\danielpi\AppData\Local\Temp\ccwIrVvL.s 			page 114


 3698      455F5354 
 3698      4154455F 
 3698      44495343 
 3698      4F4E4E45 
 3699              	.LASF28:
 3700 19d8 4359424C 		.ascii	"CYBLE_EVT_GAPP_ADVERTISEMENT_START_STOP\000"
 3700      455F4556 
 3700      545F4741 
 3700      50505F41 
 3700      44564552 
 3701              	.LASF9:
 3702 1a00 75696E74 		.ascii	"uint8\000"
 3702      3800
 3703              	.LASF272:
 3704 1a06 6379426C 		.ascii	"cyBle_authInfo\000"
 3704      655F6175 
 3704      7468496E 
 3704      666F00
 3705              	.LASF151:
 3706 1a15 73656375 		.ascii	"security\000"
 3706      72697479 
 3706      00
 3707              	.LASF178:
 3708 1a1e 4359424C 		.ascii	"CYBLE_GATT_WRITE_REQ\000"
 3708      455F4741 
 3708      54545F57 
 3708      52495445 
 3708      5F524551 
 3709              	.LASF2:
 3710 1a33 73686F72 		.ascii	"short int\000"
 3710      7420696E 
 3710      7400
 3711              	.LASF154:
 3712 1a3d 61757468 		.ascii	"authErr\000"
 3712      45727200 
 3713              	.LASF210:
 3714 1a45 4359424C 		.ascii	"CYBLE_GATT_ERR_CPS_INAPPROPRIATE_CONNECTION_PARAMET"
 3714      455F4741 
 3714      54545F45 
 3714      52525F43 
 3714      50535F49 
 3715 1a78 45525300 		.ascii	"ERS\000"
 3716              	.LASF253:
 3717 1a7c 4359424C 		.ascii	"CYBLE_HRS_CHAR_COUNT\000"
 3717      455F4852 
 3717      535F4348 
 3717      41525F43 
 3717      4F554E54 
 3718              	.LASF196:
 3719 1a91 4359424C 		.ascii	"CYBLE_GATT_ERR_REQUEST_NOT_SUPPORTED\000"
 3719      455F4741 
 3719      54545F45 
 3719      52525F52 
 3719      45515545 
 3720              	.LASF35:
 3721 1ab6 4359424C 		.ascii	"CYBLE_EVT_GATTC_ERROR_RSP\000"
 3721      455F4556 
ARM GAS  C:\Users\danielpi\AppData\Local\Temp\ccwIrVvL.s 			page 115


 3721      545F4741 
 3721      5454435F 
 3721      4552524F 
 3722              	.LASF135:
 3723 1ad0 4359424C 		.ascii	"CYBLE_GAP_IOCAP_KEYBOARD_DISPLAY\000"
 3723      455F4741 
 3723      505F494F 
 3723      4341505F 
 3723      4B455942 
 3724              	.LASF259:
 3725 1af1 4359424C 		.ascii	"CYBLE_STATE_T\000"
 3725      455F5354 
 3725      4154455F 
 3725      5400
 3726              	.LASF62:
 3727 1aff 4359424C 		.ascii	"CYBLE_EVT_L2CAP_CBFC_CONN_IND\000"
 3727      455F4556 
 3727      545F4C32 
 3727      4341505F 
 3727      43424643 
 3728              	.LASF51:
 3729 1b1d 4359424C 		.ascii	"CYBLE_EVT_GATTS_EXEC_WRITE_REQ\000"
 3729      455F4556 
 3729      545F4741 
 3729      5454535F 
 3729      45584543 
 3730              	.LASF22:
 3731 1b3c 4359424C 		.ascii	"CYBLE_EVT_GAPC_SCAN_PROGRESS_RESULT\000"
 3731      455F4556 
 3731      545F4741 
 3731      50435F53 
 3731      43414E5F 
 3732              	.LASF82:
 3733 1b60 4359424C 		.ascii	"CYBLE_ERROR_GAP_ROLE\000"
 3733      455F4552 
 3733      524F525F 
 3733      4741505F 
 3733      524F4C45 
 3734              	.LASF279:
 3735 1b75 6379426C 		.ascii	"cyBle_advertisingIntervalType\000"
 3735      655F6164 
 3735      76657274 
 3735      6973696E 
 3735      67496E74 
 3736              	.LASF119:
 3737 1b93 62644164 		.ascii	"bdAddr\000"
 3737      647200
 3738              	.LASF218:
 3739 1b9a 4359424C 		.ascii	"CYBLE_GATT_ERR_ANS_COMMAND_NOT_SUPPORTED\000"
 3739      455F4741 
 3739      54545F45 
 3739      52525F41 
 3739      4E535F43 
 3740              	.LASF280:
 3741 1bc3 4379426C 		.ascii	"CyBle_GattsErrorRsp\000"
 3741      655F4761 
 3741      74747345 
ARM GAS  C:\Users\danielpi\AppData\Local\Temp\ccwIrVvL.s 			page 116


 3741      72726F72 
 3741      52737000 
 3742              	.LASF171:
 3743 1bd7 4359424C 		.ascii	"CYBLE_GATT_READ_RSP\000"
 3743      455F4741 
 3743      54545F52 
 3743      4541445F 
 3743      52535000 
 3744              	.LASF79:
 3745 1beb 4359424C 		.ascii	"CYBLE_ERROR_NO_CONNECTION\000"
 3745      455F4552 
 3745      524F525F 
 3745      4E4F5F43 
 3745      4F4E4E45 
 3746              	.LASF108:
 3747 1c05 4359424C 		.ascii	"CYBLE_LL_PWR_LVL_0_DBM\000"
 3747      455F4C4C 
 3747      5F505752 
 3747      5F4C564C 
 3747      5F305F44 
 3748              	.LASF291:
 3749 1c1c 6D656D63 		.ascii	"memcpy\000"
 3749      707900
 3750              	.LASF112:
 3751 1c23 4359424C 		.ascii	"CYBLE_LL_ADV_CH_TYPE\000"
 3751      455F4C4C 
 3751      5F414456 
 3751      5F43485F 
 3751      54595045 
 3752              	.LASF71:
 3753 1c38 4359424C 		.ascii	"CYBLE_EVT_LE_PING_AUTH_TIMEOUT\000"
 3753      455F4556 
 3753      545F4C45 
 3753      5F50494E 
 3753      475F4155 
 3754              	.LASF101:
 3755 1c57 4359424C 		.ascii	"CYBLE_API_RESULT_T\000"
 3755      455F4150 
 3755      495F5245 
 3755      53554C54 
 3755      5F5400
 3756              	.LASF274:
 3757 1c6a 6379426C 		.ascii	"cyBle_attValuesCCCD\000"
 3757      655F6174 
 3757      7456616C 
 3757      75657343 
 3757      43434400 
 3758              	.LASF54:
 3759 1c7e 4359424C 		.ascii	"CYBLE_EVT_GATTC_HANDLE_VALUE_IND\000"
 3759      455F4556 
 3759      545F4741 
 3759      5454435F 
 3759      48414E44 
 3760              	.LASF265:
 3761 1c9f 6576656E 		.ascii	"eventCode\000"
 3761      74436F64 
 3761      6500
ARM GAS  C:\Users\danielpi\AppData\Local\Temp\ccwIrVvL.s 			page 117


 3762              	.LASF85:
 3763 1ca9 4359424C 		.ascii	"CYBLE_ERROR_SEC_FAILED\000"
 3763      455F4552 
 3763      524F525F 
 3763      5345435F 
 3763      4641494C 
 3764              	.LASF21:
 3765 1cc0 4359424C 		.ascii	"CYBLE_EVT_STACK_BUSY_STATUS\000"
 3765      455F4556 
 3765      545F5354 
 3765      41434B5F 
 3765      42555359 
 3766              	.LASF158:
 3767 1cdc 636F6E6E 		.ascii	"connLatency\000"
 3767      4C617465 
 3767      6E637900 
 3768              	.LASF132:
 3769 1ce8 4359424C 		.ascii	"CYBLE_GAP_IOCAP_DISPLAY_YESNO\000"
 3769      455F4741 
 3769      505F494F 
 3769      4341505F 
 3769      44495350 
 3770              	.LASF34:
 3771 1d06 4359424C 		.ascii	"CYBLE_EVT_GAP_KEYINFO_EXCHNGE_CMPLT\000"
 3771      455F4556 
 3771      545F4741 
 3771      505F4B45 
 3771      59494E46 
 3772              	.LASF183:
 3773 1d2a 4359424C 		.ascii	"CYBLE_GATT_EXECUTE_WRITE_REQ\000"
 3773      455F4741 
 3773      54545F45 
 3773      58454355 
 3773      54455F57 
 3774              	.LASF118:
 3775 1d47 4359424C 		.ascii	"CYBLE_BLESS_PWR_IN_DB_T\000"
 3775      455F424C 
 3775      4553535F 
 3775      5057525F 
 3775      494E5F44 
 3776              	.LASF114:
 3777 1d5f 4359424C 		.ascii	"CYBLE_LL_MAX_CH_TYPE\000"
 3777      455F4C4C 
 3777      5F4D4158 
 3777      5F43485F 
 3777      54595045 
 3778              	.LASF59:
 3779 1d74 4359424C 		.ascii	"CYBLE_EVT_L2CAP_CONN_PARAM_UPDATE_REQ\000"
 3779      455F4556 
 3779      545F4C32 
 3779      4341505F 
 3779      434F4E4E 
 3780              	.LASF263:
 3781 1d9a 67617474 		.ascii	"gattErr\000"
 3781      45727200 
 3782              	.LASF193:
 3783 1da2 4359424C 		.ascii	"CYBLE_GATT_ERR_WRITE_NOT_PERMITTED\000"
ARM GAS  C:\Users\danielpi\AppData\Local\Temp\ccwIrVvL.s 			page 118


 3783      455F4741 
 3783      54545F45 
 3783      52525F57 
 3783      52495445 
 3784              	.LASF157:
 3785 1dc5 636F6E6E 		.ascii	"connIntv\000"
 3785      496E7476 
 3785      00
 3786              	.LASF3:
 3787 1dce 73686F72 		.ascii	"short unsigned int\000"
 3787      7420756E 
 3787      7369676E 
 3787      65642069 
 3787      6E7400
 3788              	.LASF205:
 3789 1de1 4359424C 		.ascii	"CYBLE_GATT_ERR_INSUFFICIENT_ENCRYPTION\000"
 3789      455F4741 
 3789      54545F45 
 3789      52525F49 
 3789      4E535546 
 3790              	.LASF256:
 3791 1e08 4359424C 		.ascii	"CYBLE_STATE_CONNECTED\000"
 3791      455F5354 
 3791      4154455F 
 3791      434F4E4E 
 3791      45435445 
 3792              	.LASF227:
 3793 1e1e 61637475 		.ascii	"actualLen\000"
 3793      616C4C65 
 3793      6E00
 3794              	.LASF176:
 3795 1e28 4359424C 		.ascii	"CYBLE_GATT_READ_BY_GROUP_REQ\000"
 3795      455F4741 
 3795      54545F52 
 3795      4541445F 
 3795      42595F47 
 3796              	.LASF225:
 3797 1e45 61747449 		.ascii	"attId\000"
 3797      6400
 3798              	.LASF75:
 3799 1e4b 4359424C 		.ascii	"CYBLE_ERROR_INVALID_OPERATION\000"
 3799      455F4552 
 3799      524F525F 
 3799      494E5641 
 3799      4C49445F 
 3800              	.LASF20:
 3801 1e69 4359424C 		.ascii	"CYBLE_EVT_HCI_STATUS\000"
 3801      455F4556 
 3801      545F4843 
 3801      495F5354 
 3801      41545553 
 3802              	.LASF37:
 3803 1e7e 4359424C 		.ascii	"CYBLE_EVT_GATT_DISCONNECT_IND\000"
 3803      455F4556 
 3803      545F4741 
 3803      54545F44 
 3803      4953434F 
ARM GAS  C:\Users\danielpi\AppData\Local\Temp\ccwIrVvL.s 			page 119


 3804              	.LASF159:
 3805 1e9c 73757065 		.ascii	"supervisionTO\000"
 3805      72766973 
 3805      696F6E54 
 3805      4F00
 3806              	.LASF124:
 3807 1eaa 4359424C 		.ascii	"CYBLE_GATT_RSP_TO\000"
 3807      455F4741 
 3807      54545F52 
 3807      53505F54 
 3807      4F00
 3808              	.LASF69:
 3809 1ebc 4359424C 		.ascii	"CYBLE_EVT_L2CAP_CBFC_DATA_WRITE_IND\000"
 3809      455F4556 
 3809      545F4C32 
 3809      4341505F 
 3809      43424643 
 3810              	.LASF30:
 3811 1ee0 4359424C 		.ascii	"CYBLE_EVT_GAP_DEVICE_DISCONNECTED\000"
 3811      455F4556 
 3811      545F4741 
 3811      505F4445 
 3811      56494345 
 3812              	.LASF55:
 3813 1f02 4359424C 		.ascii	"CYBLE_EVT_GATTS_HANDLE_VALUE_CNF\000"
 3813      455F4556 
 3813      545F4741 
 3813      5454535F 
 3813      48414E44 
 3814              	.LASF10:
 3815 1f23 75696E74 		.ascii	"uint16\000"
 3815      313600
 3816              	.LASF83:
 3817 1f2a 4359424C 		.ascii	"CYBLE_ERROR_TX_POWER_READ\000"
 3817      455F4552 
 3817      524F525F 
 3817      54585F50 
 3817      4F574552 
 3818              		.ident	"GCC: (GNU Tools for ARM Embedded Processors) 4.8.4 20140526 (release) [ARM/embedded-4_8-br
