ARM GAS  C:\Users\danielpi\AppData\Local\Temp\ccHqRLl5.s 			page 1


   1              		.cpu cortex-m0
   2              		.fpu softvfp
   3              		.eabi_attribute 20, 1
   4              		.eabi_attribute 21, 1
   5              		.eabi_attribute 23, 3
   6              		.eabi_attribute 24, 1
   7              		.eabi_attribute 25, 1
   8              		.eabi_attribute 26, 1
   9              		.eabi_attribute 30, 1
  10              		.eabi_attribute 34, 0
  11              		.eabi_attribute 18, 4
  12              		.code	16
  13              		.file	"main.c"
  14              		.text
  15              	.Ltext0:
  16              		.cfi_sections	.debug_frame
  17              		.section	.text.StartAdvertisment,"ax",%progbits
  18              		.align	2
  19              		.global	StartAdvertisment
  20              		.code	16
  21              		.thumb_func
  22              		.type	StartAdvertisment, %function
  23              	StartAdvertisment:
  24              	.LFB35:
  25              		.file 1 ".\\main.c"
   1:.\main.c      **** /* ========================================
   2:.\main.c      ****  *
   3:.\main.c      ****  * Copyright YOUR COMPANY, THE YEAR
   4:.\main.c      ****  * All Rights Reserved
   5:.\main.c      ****  * UNPUBLISHED, LICENSED SOFTWARE.
   6:.\main.c      ****  *
   7:.\main.c      ****  * CONFIDENTIAL AND PROPRIETARY INFORMATION
   8:.\main.c      ****  * WHICH IS THE PROPERTY OF your company.
   9:.\main.c      ****  *
  10:.\main.c      ****  * ========================================
  11:.\main.c      **** */
  12:.\main.c      **** #include <project.h>
  13:.\main.c      **** 
  14:.\main.c      **** #define LED_ON                      (0u)
  15:.\main.c      **** #define LED_OFF                     (1u)
  16:.\main.c      **** 
  17:.\main.c      **** CYBLE_API_RESULT_T apiResult;
  18:.\main.c      **** 
  19:.\main.c      **** void StartAdvertisment() {
  26              		.loc 1 19 0
  27              		.cfi_startproc
  28 0000 08B5     		push	{r3, lr}
  29              		.cfi_def_cfa_offset 8
  30              		.cfi_offset 3, -8
  31              		.cfi_offset 14, -4
  20:.\main.c      ****     apiResult = CyBle_GappStartAdvertisement(CYBLE_ADVERTISING_FAST);
  32              		.loc 1 20 0
  33 0002 0020     		mov	r0, #0
  34 0004 FFF7FEFF 		bl	CyBle_GappStartAdvertisement
  35              	.LVL0:
  36 0008 011C     		mov	r1, r0
  37 000a 074B     		ldr	r3, .L4
ARM GAS  C:\Users\danielpi\AppData\Local\Temp\ccHqRLl5.s 			page 2


  38 000c 1880     		strh	r0, [r3]
  21:.\main.c      ****     if (apiResult != CYBLE_ERROR_OK) {
  39              		.loc 1 21 0
  40 000e 06D0     		beq	.L2
  41              	.LBB2:
  22:.\main.c      ****         printf("CyBle_Start API error: %x \r\n", apiResult);
  42              		.loc 1 22 0
  43 0010 0648     		ldr	r0, .L4+4
  44 0012 FFF7FEFF 		bl	printf
  45              	.LVL1:
  23:.\main.c      ****         Error_Led_Write(LED_ON);
  46              		.loc 1 23 0
  47 0016 0020     		mov	r0, #0
  48 0018 FFF7FEFF 		bl	Error_Led_Write
  49              	.LVL2:
  50              	.LBE2:
  51 001c 02E0     		b	.L1
  52              	.L2:
  24:.\main.c      ****     } else {
  25:.\main.c      ****         Advertising_Led_Write(LED_ON);
  53              		.loc 1 25 0
  54 001e 0020     		mov	r0, #0
  55 0020 FFF7FEFF 		bl	Advertising_Led_Write
  56              	.LVL3:
  57              	.L1:
  26:.\main.c      ****     }
  27:.\main.c      **** }
  58              		.loc 1 27 0
  59              		@ sp needed
  60 0024 08BD     		pop	{r3, pc}
  61              	.L5:
  62 0026 C046     		.align	2
  63              	.L4:
  64 0028 00000000 		.word	apiResult
  65 002c 00000000 		.word	.LC1
  66              		.cfi_endproc
  67              	.LFE35:
  68              		.size	StartAdvertisment, .-StartAdvertisment
  69              		.section	.text.bleCallBack,"ax",%progbits
  70              		.align	2
  71              		.global	bleCallBack
  72              		.code	16
  73              		.thumb_func
  74              		.type	bleCallBack, %function
  75              	bleCallBack:
  76              	.LFB36:
  28:.\main.c      **** 
  29:.\main.c      **** void bleCallBack(uint32 event, void* eventParam) {
  77              		.loc 1 29 0
  78              		.cfi_startproc
  79              	.LVL4:
  80 0000 08B5     		push	{r3, lr}
  81              		.cfi_def_cfa_offset 8
  82              		.cfi_offset 3, -8
  83              		.cfi_offset 14, -4
  30:.\main.c      ****     switch(event) {
  84              		.loc 1 30 0
ARM GAS  C:\Users\danielpi\AppData\Local\Temp\ccHqRLl5.s 			page 3


  85 0002 2728     		cmp	r0, #39
  86 0004 06D0     		beq	.L8
  87 0006 2828     		cmp	r0, #40
  88 0008 01D0     		beq	.L9
  89 000a 0128     		cmp	r0, #1
  90 000c 05D1     		bne	.L6
  91              	.L9:
  31:.\main.c      ****         case CYBLE_EVT_STACK_ON:
  32:.\main.c      ****         case CYBLE_EVT_GAP_DEVICE_DISCONNECTED:
  33:.\main.c      ****             StartAdvertisment();
  92              		.loc 1 33 0
  93 000e FFF7FEFF 		bl	StartAdvertisment
  94              	.LVL5:
  34:.\main.c      ****             break;
  95              		.loc 1 34 0
  96 0012 02E0     		b	.L6
  97              	.LVL6:
  98              	.L8:
  35:.\main.c      ****         case CYBLE_EVT_GAP_DEVICE_CONNECTED:
  36:.\main.c      ****             Advertising_Led_Write(LED_OFF);
  99              		.loc 1 36 0
 100 0014 0120     		mov	r0, #1
 101              	.LVL7:
 102 0016 FFF7FEFF 		bl	Advertising_Led_Write
 103              	.LVL8:
 104              	.L6:
  37:.\main.c      ****             break;
  38:.\main.c      ****         default:
  39:.\main.c      ****             break;
  40:.\main.c      ****     }
  41:.\main.c      **** }
 105              		.loc 1 41 0
 106              		@ sp needed
 107 001a 08BD     		pop	{r3, pc}
 108              		.cfi_endproc
 109              	.LFE36:
 110              		.size	bleCallBack, .-bleCallBack
 111              		.section	.text.main,"ax",%progbits
 112              		.align	2
 113              		.global	main
 114              		.code	16
 115              		.thumb_func
 116              		.type	main, %function
 117              	main:
 118              	.LFB37:
  42:.\main.c      **** 
  43:.\main.c      **** 
  44:.\main.c      **** int main()
  45:.\main.c      **** {
 119              		.loc 1 45 0
 120              		.cfi_startproc
 121 0000 08B5     		push	{r3, lr}
 122              		.cfi_def_cfa_offset 8
 123              		.cfi_offset 3, -8
 124              		.cfi_offset 14, -4
  46:.\main.c      ****     CyGlobalIntEnable; /* Enable global interrupts. */
 125              		.loc 1 46 0
ARM GAS  C:\Users\danielpi\AppData\Local\Temp\ccHqRLl5.s 			page 4


 126              	@ 46 ".\main.c" 1
 127 0002 62B6     		CPSIE   i
 128              	@ 0 "" 2
  47:.\main.c      **** 
  48:.\main.c      ****     /* Place your initialization/startup code here (e.g. MyInst_Start()) */
  49:.\main.c      ****     Advertising_Led_Write(LED_OFF);
 129              		.loc 1 49 0
 130              		.code	16
 131 0004 0120     		mov	r0, #1
 132 0006 FFF7FEFF 		bl	Advertising_Led_Write
 133              	.LVL9:
  50:.\main.c      ****     Error_Led_Write(LED_OFF);
 134              		.loc 1 50 0
 135 000a 0120     		mov	r0, #1
 136 000c FFF7FEFF 		bl	Error_Led_Write
 137              	.LVL10:
  51:.\main.c      ****     apiResult = CyBle_Start(bleCallBack);
 138              		.loc 1 51 0
 139 0010 0748     		ldr	r0, .L14
 140 0012 FFF7FEFF 		bl	CyBle_Start
 141              	.LVL11:
 142 0016 011C     		mov	r1, r0
 143 0018 064B     		ldr	r3, .L14+4
 144 001a 1880     		strh	r0, [r3]
  52:.\main.c      ****     if (apiResult != CYBLE_ERROR_OK) {
 145              		.loc 1 52 0
 146 001c 05D0     		beq	.L13
 147              	.LBB3:
  53:.\main.c      ****         printf("CyBle_Start API error: %x \r\n", apiResult);
 148              		.loc 1 53 0
 149 001e 0648     		ldr	r0, .L14+8
 150 0020 FFF7FEFF 		bl	printf
 151              	.LVL12:
  54:.\main.c      ****         Error_Led_Write(LED_ON);
 152              		.loc 1 54 0
 153 0024 0020     		mov	r0, #0
 154 0026 FFF7FEFF 		bl	Error_Led_Write
 155              	.LVL13:
 156              	.L13:
 157              	.LBE3:
  55:.\main.c      ****     }
  56:.\main.c      ****     for(;;)
  57:.\main.c      ****     {
  58:.\main.c      ****         /* Place your application code here. */
  59:.\main.c      ****         CyBle_ProcessEvents();
 158              		.loc 1 59 0 discriminator 1
 159 002a FFF7FEFF 		bl	CyBle_ProcessEvents
 160              	.LVL14:
 161 002e FCE7     		b	.L13
 162              	.L15:
 163              		.align	2
 164              	.L14:
 165 0030 00000000 		.word	bleCallBack
 166 0034 00000000 		.word	apiResult
 167 0038 00000000 		.word	.LC1
 168              		.cfi_endproc
 169              	.LFE37:
ARM GAS  C:\Users\danielpi\AppData\Local\Temp\ccHqRLl5.s 			page 5


 170              		.size	main, .-main
 171              		.comm	apiResult,2,2
 172              		.section	.rodata.str1.4,"aMS",%progbits,1
 173              		.align	2
 174              	.LC1:
 175 0000 4379426C 		.ascii	"CyBle_Start API error: %x \015\012\000"
 175      655F5374 
 175      61727420 
 175      41504920 
 175      6572726F 
 176 001d 000000   		.text
 177              	.Letext0:
 178              		.file 2 "Generated_Source\\PSoC4/cytypes.h"
 179              		.file 3 "Generated_Source\\PSoC4/BLE_1_Stack.h"
 180              		.file 4 "Generated_Source\\PSoC4/BLE_1.h"
 181              		.file 5 "Generated_Source\\PSoC4/BLE_1_hrs.h"
 182              		.file 6 "Generated_Source\\PSoC4/BLE_1_dis.h"
 183              		.file 7 "<built-in>"
 184              		.file 8 "Generated_Source\\PSoC4/Error_Led.h"
 185              		.file 9 "Generated_Source\\PSoC4/Advertising_Led.h"