ARM GAS  C:\Users\danielpi\AppData\Local\Temp\cc9Bj5mZ.s 			page 1


   1              		.cpu cortex-m0
   2              		.fpu softvfp
   3              		.eabi_attribute 20, 1
   4              		.eabi_attribute 21, 1
   5              		.eabi_attribute 23, 3
   6              		.eabi_attribute 24, 1
   7              		.eabi_attribute 25, 1
   8              		.eabi_attribute 26, 1
   9              		.eabi_attribute 30, 1
  10              		.eabi_attribute 34, 0
  11              		.eabi_attribute 18, 4
  12              		.code	16
  13              		.file	"BLE_1_gatt.c"
  14              		.text
  15              	.Ltext0:
  16              		.cfi_sections	.debug_frame
  17              		.section	.text.CyBle_GattsReInitGattDb,"ax",%progbits
  18              		.align	2
  19              		.global	CyBle_GattsReInitGattDb
  20              		.code	16
  21              		.thumb_func
  22              		.type	CyBle_GattsReInitGattDb, %function
  23              	CyBle_GattsReInitGattDb:
  24              	.LFB2:
  25              		.file 1 ".\\Generated_Source\\PSoC4\\BLE_1_gatt.c"
   1:.\Generated_Source\PSoC4/BLE_1_gatt.c **** /*******************************************************************************
   2:.\Generated_Source\PSoC4/BLE_1_gatt.c **** File Name: CYBLE_gatt.c
   3:.\Generated_Source\PSoC4/BLE_1_gatt.c **** Version 2.10
   4:.\Generated_Source\PSoC4/BLE_1_gatt.c **** 
   5:.\Generated_Source\PSoC4/BLE_1_gatt.c **** Description:
   6:.\Generated_Source\PSoC4/BLE_1_gatt.c ****  This file contains the source code for the GATT API of the BLE Component.
   7:.\Generated_Source\PSoC4/BLE_1_gatt.c **** 
   8:.\Generated_Source\PSoC4/BLE_1_gatt.c **** ********************************************************************************
   9:.\Generated_Source\PSoC4/BLE_1_gatt.c **** Copyright 2014-2015, Cypress Semiconductor Corporation.  All rights reserved.
  10:.\Generated_Source\PSoC4/BLE_1_gatt.c **** You may use this file only in accordance with the license, terms, conditions,
  11:.\Generated_Source\PSoC4/BLE_1_gatt.c **** disclaimers, and limitations in the end user license agreement accompanying
  12:.\Generated_Source\PSoC4/BLE_1_gatt.c **** the software package with which this file was provided.
  13:.\Generated_Source\PSoC4/BLE_1_gatt.c **** *******************************************************************************/
  14:.\Generated_Source\PSoC4/BLE_1_gatt.c **** 
  15:.\Generated_Source\PSoC4/BLE_1_gatt.c **** 
  16:.\Generated_Source\PSoC4/BLE_1_gatt.c **** #include "BLE_1_eventHandler.h"
  17:.\Generated_Source\PSoC4/BLE_1_gatt.c **** 
  18:.\Generated_Source\PSoC4/BLE_1_gatt.c **** 
  19:.\Generated_Source\PSoC4/BLE_1_gatt.c **** /***************************************
  20:.\Generated_Source\PSoC4/BLE_1_gatt.c **** ##Global variables
  21:.\Generated_Source\PSoC4/BLE_1_gatt.c **** ***************************************/
  22:.\Generated_Source\PSoC4/BLE_1_gatt.c **** 
  23:.\Generated_Source\PSoC4/BLE_1_gatt.c **** CYBLE_STATE_T cyBle_state;
  24:.\Generated_Source\PSoC4/BLE_1_gatt.c **** 
  25:.\Generated_Source\PSoC4/BLE_1_gatt.c **** 
  26:.\Generated_Source\PSoC4/BLE_1_gatt.c **** #if(CYBLE_GATT_ROLE_SERVER)
  27:.\Generated_Source\PSoC4/BLE_1_gatt.c ****     
  28:.\Generated_Source\PSoC4/BLE_1_gatt.c ****     const CYBLE_GATTS_T cyBle_gatts =
  29:.\Generated_Source\PSoC4/BLE_1_gatt.c **** {
  30:.\Generated_Source\PSoC4/BLE_1_gatt.c ****     0x0008u,    /* Handle of the GATT service */
  31:.\Generated_Source\PSoC4/BLE_1_gatt.c ****     0x000Au,    /* Handle of the Service Changed characteristic */
  32:.\Generated_Source\PSoC4/BLE_1_gatt.c ****     0x000Bu,    /* Handle of the Client Characteristic Configuration descriptor */
ARM GAS  C:\Users\danielpi\AppData\Local\Temp\cc9Bj5mZ.s 			page 2


  33:.\Generated_Source\PSoC4/BLE_1_gatt.c **** };
  34:.\Generated_Source\PSoC4/BLE_1_gatt.c ****     
  35:.\Generated_Source\PSoC4/BLE_1_gatt.c ****     static uint8 cyBle_attValues[0x4Eu] = {
  36:.\Generated_Source\PSoC4/BLE_1_gatt.c ****     /* Device Name */
  37:.\Generated_Source\PSoC4/BLE_1_gatt.c ****     (uint8)'P', (uint8)'S', (uint8)'o', (uint8)'C', (uint8)' ', (uint8)'P', (uint8)'i', (uint8)'o',
  38:.\Generated_Source\PSoC4/BLE_1_gatt.c **** (uint8)'e', (uint8)'r', 
  39:.\Generated_Source\PSoC4/BLE_1_gatt.c **** 
  40:.\Generated_Source\PSoC4/BLE_1_gatt.c ****     /* Appearance */
  41:.\Generated_Source\PSoC4/BLE_1_gatt.c ****     0x00u, 0x00u, 
  42:.\Generated_Source\PSoC4/BLE_1_gatt.c **** 
  43:.\Generated_Source\PSoC4/BLE_1_gatt.c ****     /* Peripheral Preferred Connection Parameters */
  44:.\Generated_Source\PSoC4/BLE_1_gatt.c ****     0x06u, 0x00u, 0x28u, 0x00u, 0x00u, 0x00u, 0xE8u, 0x03u, 
  45:.\Generated_Source\PSoC4/BLE_1_gatt.c **** 
  46:.\Generated_Source\PSoC4/BLE_1_gatt.c ****     /* Service Changed */
  47:.\Generated_Source\PSoC4/BLE_1_gatt.c ****     0x00u, 0x00u, 0x00u, 0x00u, 
  48:.\Generated_Source\PSoC4/BLE_1_gatt.c **** 
  49:.\Generated_Source\PSoC4/BLE_1_gatt.c ****     /* CapSense Slider Characteristic */
  50:.\Generated_Source\PSoC4/BLE_1_gatt.c ****     0x00u, 
  51:.\Generated_Source\PSoC4/BLE_1_gatt.c **** 
  52:.\Generated_Source\PSoC4/BLE_1_gatt.c ****     /* Characteristic User Description */
  53:.\Generated_Source\PSoC4/BLE_1_gatt.c ****     (uint8)'C', (uint8)'a', (uint8)'p', (uint8)'S', (uint8)'e', (uint8)'n', (uint8)'s', (uint8)'e',
  54:.\Generated_Source\PSoC4/BLE_1_gatt.c **** (uint8)'l', (uint8)'i', (uint8)'d', (uint8)'e', (uint8)'r', 
  55:.\Generated_Source\PSoC4/BLE_1_gatt.c **** 
  56:.\Generated_Source\PSoC4/BLE_1_gatt.c ****     /* RGB LED Characteristic */
  57:.\Generated_Source\PSoC4/BLE_1_gatt.c ****     0x00u, 0x00u, 0x00u, 0x00u, 
  58:.\Generated_Source\PSoC4/BLE_1_gatt.c **** 
  59:.\Generated_Source\PSoC4/BLE_1_gatt.c ****     /* Custom Descriptor */
  60:.\Generated_Source\PSoC4/BLE_1_gatt.c ****     0x00u, 0xFBu, 0x34u, 0x9Bu, 0x5Fu, 0x80u, 0x00u, 0x00u, 0x80u, 0x00u, 0x10u, 0x00u, 0x00u, 0x00
  61:.\Generated_Source\PSoC4/BLE_1_gatt.c **** 
  62:.\Generated_Source\PSoC4/BLE_1_gatt.c ****     /* Characteristic User Description */
  63:.\Generated_Source\PSoC4/BLE_1_gatt.c ****     (uint8)'R', (uint8)'G', (uint8)'B', (uint8)' ', (uint8)'L', (uint8)'E', (uint8)'D', (uint8)' ',
  64:.\Generated_Source\PSoC4/BLE_1_gatt.c **** (uint8)'n', (uint8)'t', (uint8)'r', (uint8)'o', (uint8)'l', 
  65:.\Generated_Source\PSoC4/BLE_1_gatt.c **** 
  66:.\Generated_Source\PSoC4/BLE_1_gatt.c **** };
  67:.\Generated_Source\PSoC4/BLE_1_gatt.c **** 
  68:.\Generated_Source\PSoC4/BLE_1_gatt.c **** #if defined(__GNUC__) || defined(__ARMCC_VERSION)
  69:.\Generated_Source\PSoC4/BLE_1_gatt.c **** const uint8 cyBle_attValuesCCCDFlashMemory[CYBLE_GAP_MAX_BONDED_DEVICE + 1u][CYBLE_GATT_DB_CCCD_COU
  70:.\Generated_Source\PSoC4/BLE_1_gatt.c **** #elif defined(__ICCARM__)
  71:.\Generated_Source\PSoC4/BLE_1_gatt.c **** /* The cyBle_attValuesCCCDFlashMemory[] should be aligned to the size of a Flash row */
  72:.\Generated_Source\PSoC4/BLE_1_gatt.c **** #pragma data_alignment=CY_FLASH_SIZEOF_ROW
  73:.\Generated_Source\PSoC4/BLE_1_gatt.c **** const uint8 cyBle_attValuesCCCDFlashMemory[CYBLE_GAP_MAX_BONDED_DEVICE + 1u][CYBLE_GATT_DB_CCCD_COU
  74:.\Generated_Source\PSoC4/BLE_1_gatt.c **** #endif /* defined(__GNUC__) || defined(__ARMCC_VERSION) */
  75:.\Generated_Source\PSoC4/BLE_1_gatt.c **** {
  76:.\Generated_Source\PSoC4/BLE_1_gatt.c ****     0x00u, 0x00u, 
  77:.\Generated_Source\PSoC4/BLE_1_gatt.c ****     0x00u, 0x00u, 
  78:.\Generated_Source\PSoC4/BLE_1_gatt.c **** },
  79:.\Generated_Source\PSoC4/BLE_1_gatt.c **** {
  80:.\Generated_Source\PSoC4/BLE_1_gatt.c ****     0x00u, 0x00u, 
  81:.\Generated_Source\PSoC4/BLE_1_gatt.c ****     0x00u, 0x00u, 
  82:.\Generated_Source\PSoC4/BLE_1_gatt.c **** },
  83:.\Generated_Source\PSoC4/BLE_1_gatt.c **** {
  84:.\Generated_Source\PSoC4/BLE_1_gatt.c ****     0x00u, 0x00u, 
  85:.\Generated_Source\PSoC4/BLE_1_gatt.c ****     0x00u, 0x00u, 
  86:.\Generated_Source\PSoC4/BLE_1_gatt.c **** },
  87:.\Generated_Source\PSoC4/BLE_1_gatt.c **** {
  88:.\Generated_Source\PSoC4/BLE_1_gatt.c ****     0x00u, 0x00u, 
  89:.\Generated_Source\PSoC4/BLE_1_gatt.c ****     0x00u, 0x00u, 
ARM GAS  C:\Users\danielpi\AppData\Local\Temp\cc9Bj5mZ.s 			page 3


  90:.\Generated_Source\PSoC4/BLE_1_gatt.c **** },
  91:.\Generated_Source\PSoC4/BLE_1_gatt.c **** {
  92:.\Generated_Source\PSoC4/BLE_1_gatt.c ****     0x00u, 0x00u, 
  93:.\Generated_Source\PSoC4/BLE_1_gatt.c ****     0x00u, 0x00u, 
  94:.\Generated_Source\PSoC4/BLE_1_gatt.c **** },
  95:.\Generated_Source\PSoC4/BLE_1_gatt.c **** };
  96:.\Generated_Source\PSoC4/BLE_1_gatt.c **** uint8 cyBle_attValuesCCCD[CYBLE_GATT_DB_CCCD_COUNT];
  97:.\Generated_Source\PSoC4/BLE_1_gatt.c **** 
  98:.\Generated_Source\PSoC4/BLE_1_gatt.c **** CYBLE_GATTS_ATT_GEN_VAL_LEN_T cyBle_attValuesLen[CYBLE_GATT_DB_ATT_VAL_COUNT] = {
  99:.\Generated_Source\PSoC4/BLE_1_gatt.c ****     { 0x000Cu, (void *)&cyBle_attValues[0] }, /* Device Name */
 100:.\Generated_Source\PSoC4/BLE_1_gatt.c ****     { 0x0002u, (void *)&cyBle_attValues[12] }, /* Appearance */
 101:.\Generated_Source\PSoC4/BLE_1_gatt.c ****     { 0x0008u, (void *)&cyBle_attValues[14] }, /* Peripheral Preferred Connection Parameters */
 102:.\Generated_Source\PSoC4/BLE_1_gatt.c ****     { 0x0004u, (void *)&cyBle_attValues[22] }, /* Service Changed */
 103:.\Generated_Source\PSoC4/BLE_1_gatt.c ****     { 0x0002u, (void *)&cyBle_attValuesCCCD[0] }, /* Client Characteristic Configuration */
 104:.\Generated_Source\PSoC4/BLE_1_gatt.c ****     { 0x0001u, (void *)&cyBle_attValues[26] }, /* CapSense Slider Characteristic */
 105:.\Generated_Source\PSoC4/BLE_1_gatt.c ****     { 0x0002u, (void *)&cyBle_attValuesCCCD[2] }, /* Client Characteristic Configuration */
 106:.\Generated_Source\PSoC4/BLE_1_gatt.c ****     { 0x000Fu, (void *)&cyBle_attValues[27] }, /* Characteristic User Description */
 107:.\Generated_Source\PSoC4/BLE_1_gatt.c ****     { 0x0004u, (void *)&cyBle_attValues[42] }, /* RGB LED Characteristic */
 108:.\Generated_Source\PSoC4/BLE_1_gatt.c ****     { 0x0011u, (void *)&cyBle_attValues[46] }, /* Custom Descriptor */
 109:.\Generated_Source\PSoC4/BLE_1_gatt.c ****     { 0x000Fu, (void *)&cyBle_attValues[63] }, /* Characteristic User Description */
 110:.\Generated_Source\PSoC4/BLE_1_gatt.c **** };
 111:.\Generated_Source\PSoC4/BLE_1_gatt.c **** 
 112:.\Generated_Source\PSoC4/BLE_1_gatt.c **** const CYBLE_GATTS_DB_T cyBle_gattDB[0x15u] = {
 113:.\Generated_Source\PSoC4/BLE_1_gatt.c ****     { 0x0001u, 0x2800u /* Primary service                     */, 0x00000001u /*        */, 0x0007u
 114:.\Generated_Source\PSoC4/BLE_1_gatt.c ****     { 0x0002u, 0x2803u /* Characteristic                      */, 0x00000201u /* rd     */, 0x0003u
 115:.\Generated_Source\PSoC4/BLE_1_gatt.c ****     { 0x0003u, 0x2A00u /* Device Name                         */, 0x00000201u /* rd     */, 0x0003u
 116:.\Generated_Source\PSoC4/BLE_1_gatt.c ****     { 0x0004u, 0x2803u /* Characteristic                      */, 0x00000201u /* rd     */, 0x0005u
 117:.\Generated_Source\PSoC4/BLE_1_gatt.c ****     { 0x0005u, 0x2A01u /* Appearance                          */, 0x00000201u /* rd     */, 0x0005u
 118:.\Generated_Source\PSoC4/BLE_1_gatt.c ****     { 0x0006u, 0x2803u /* Characteristic                      */, 0x00000201u /* rd     */, 0x0007u
 119:.\Generated_Source\PSoC4/BLE_1_gatt.c ****     { 0x0007u, 0x2A04u /* Peripheral Preferred Connection Par */, 0x00000201u /* rd     */, 0x0007u
 120:.\Generated_Source\PSoC4/BLE_1_gatt.c ****     { 0x0008u, 0x2800u /* Primary service                     */, 0x00000001u /*        */, 0x000Bu
 121:.\Generated_Source\PSoC4/BLE_1_gatt.c ****     { 0x0009u, 0x2803u /* Characteristic                      */, 0x00002201u /* rd,ind */, 0x000Bu
 122:.\Generated_Source\PSoC4/BLE_1_gatt.c ****     { 0x000Au, 0x2A05u /* Service Changed                     */, 0x00002201u /* rd,ind */, 0x000Bu
 123:.\Generated_Source\PSoC4/BLE_1_gatt.c ****     { 0x000Bu, 0x2902u /* Client Characteristic Configuration */, 0x00000A04u /* rd,wr  */, 0x000Bu
 124:.\Generated_Source\PSoC4/BLE_1_gatt.c ****     { 0x000Cu, 0x2800u /* Primary service                     */, 0x00000001u /*        */, 0x0010u
 125:.\Generated_Source\PSoC4/BLE_1_gatt.c ****     { 0x000Du, 0x2803u /* Characteristic                      */, 0x00001001u /* ntf    */, 0x0010u
 126:.\Generated_Source\PSoC4/BLE_1_gatt.c ****     { 0x000Eu, 0xCAA2u /* CapSense Slider Characteristic      */, 0x00001000u /* ntf    */, 0x0010u
 127:.\Generated_Source\PSoC4/BLE_1_gatt.c ****     { 0x000Fu, 0x2902u /* Client Characteristic Configuration */, 0x00000A04u /* rd,wr  */, 0x000Fu
 128:.\Generated_Source\PSoC4/BLE_1_gatt.c ****     { 0x0010u, 0x2901u /* Characteristic User Description     */, 0x00000201u /* rd     */, 0x0010u
 129:.\Generated_Source\PSoC4/BLE_1_gatt.c ****     { 0x0011u, 0x2800u /* Primary service                     */, 0x00000001u /*        */, 0x0015u
 130:.\Generated_Source\PSoC4/BLE_1_gatt.c ****     { 0x0012u, 0x2803u /* Characteristic                      */, 0x00000A01u /* rd,wr  */, 0x0015u
 131:.\Generated_Source\PSoC4/BLE_1_gatt.c ****     { 0x0013u, 0xCBB1u /* RGB LED Characteristic              */, 0x00000A04u /* rd,wr  */, 0x0015u
 132:.\Generated_Source\PSoC4/BLE_1_gatt.c ****     { 0x0014u, 0x0000u /* Custom Descriptor                   */, 0x00080001u /*        */, 0x0014u
 133:.\Generated_Source\PSoC4/BLE_1_gatt.c ****     { 0x0015u, 0x2901u /* Characteristic User Description     */, 0x00000201u /* rd     */, 0x0015u
 134:.\Generated_Source\PSoC4/BLE_1_gatt.c **** };
 135:.\Generated_Source\PSoC4/BLE_1_gatt.c **** 
 136:.\Generated_Source\PSoC4/BLE_1_gatt.c **** 
 137:.\Generated_Source\PSoC4/BLE_1_gatt.c **** #endif /* (CYBLE_GATT_ROLE_SERVER) */
 138:.\Generated_Source\PSoC4/BLE_1_gatt.c **** 
 139:.\Generated_Source\PSoC4/BLE_1_gatt.c **** #if(CYBLE_GATT_ROLE_CLIENT)
 140:.\Generated_Source\PSoC4/BLE_1_gatt.c ****     
 141:.\Generated_Source\PSoC4/BLE_1_gatt.c **** CYBLE_CLIENT_STATE_T cyBle_clientState;
 142:.\Generated_Source\PSoC4/BLE_1_gatt.c **** CYBLE_GATTC_T cyBle_gattc;
 143:.\Generated_Source\PSoC4/BLE_1_gatt.c ****     
 144:.\Generated_Source\PSoC4/BLE_1_gatt.c **** #endif /* (CYBLE_GATT_ROLE_CLIENT) */
 145:.\Generated_Source\PSoC4/BLE_1_gatt.c **** 
 146:.\Generated_Source\PSoC4/BLE_1_gatt.c **** 
ARM GAS  C:\Users\danielpi\AppData\Local\Temp\cc9Bj5mZ.s 			page 4


 147:.\Generated_Source\PSoC4/BLE_1_gatt.c **** #if(CYBLE_GATT_ROLE_SERVER)
 148:.\Generated_Source\PSoC4/BLE_1_gatt.c **** 
 149:.\Generated_Source\PSoC4/BLE_1_gatt.c **** /****************************************************************************** 
 150:.\Generated_Source\PSoC4/BLE_1_gatt.c **** ##Function Name: CyBle_GattsReInitGattDb
 151:.\Generated_Source\PSoC4/BLE_1_gatt.c **** *******************************************************************************
 152:.\Generated_Source\PSoC4/BLE_1_gatt.c **** 
 153:.\Generated_Source\PSoC4/BLE_1_gatt.c **** Summary:
 154:.\Generated_Source\PSoC4/BLE_1_gatt.c ****  Reinitializes the GATT database.
 155:.\Generated_Source\PSoC4/BLE_1_gatt.c **** 
 156:.\Generated_Source\PSoC4/BLE_1_gatt.c **** Parameters:
 157:.\Generated_Source\PSoC4/BLE_1_gatt.c ****  None
 158:.\Generated_Source\PSoC4/BLE_1_gatt.c **** 
 159:.\Generated_Source\PSoC4/BLE_1_gatt.c **** Return:
 160:.\Generated_Source\PSoC4/BLE_1_gatt.c ****  CYBLE_API_RESULT_T: An API result states if the API succeeded or failed with
 161:.\Generated_Source\PSoC4/BLE_1_gatt.c ****  error codes:
 162:.\Generated_Source\PSoC4/BLE_1_gatt.c ****   * CYBLE_ERROR_OK: GATT database was reinitialized successfully
 163:.\Generated_Source\PSoC4/BLE_1_gatt.c ****   * CYBLE_ERROR_INVALID_STATE: If the function is called in any state except
 164:.\Generated_Source\PSoC4/BLE_1_gatt.c ****                                 CYBLE_STATE_DISCONNECTED.
 165:.\Generated_Source\PSoC4/BLE_1_gatt.c ****   * Any of the CyBle_GattsDbRegister() stack API function return values.
 166:.\Generated_Source\PSoC4/BLE_1_gatt.c **** 
 167:.\Generated_Source\PSoC4/BLE_1_gatt.c **** ******************************************************************************/
 168:.\Generated_Source\PSoC4/BLE_1_gatt.c **** CYBLE_API_RESULT_T CyBle_GattsReInitGattDb(void)
 169:.\Generated_Source\PSoC4/BLE_1_gatt.c **** {
  26              		.loc 1 169 0
  27              		.cfi_startproc
  28 0000 08B5     		push	{r3, lr}
  29              		.cfi_def_cfa_offset 8
  30              		.cfi_offset 3, -8
  31              		.cfi_offset 14, -4
 170:.\Generated_Source\PSoC4/BLE_1_gatt.c ****     CYBLE_API_RESULT_T apiResult;
 171:.\Generated_Source\PSoC4/BLE_1_gatt.c ****     
 172:.\Generated_Source\PSoC4/BLE_1_gatt.c ****     if(CYBLE_STATE_DISCONNECTED == CyBle_GetState())
  32              		.loc 1 172 0
  33 0002 064B     		ldr	r3, .L4
  34 0004 1B78     		ldrb	r3, [r3]
  35 0006 042B     		cmp	r3, #4
  36 0008 05D1     		bne	.L3
 173:.\Generated_Source\PSoC4/BLE_1_gatt.c ****     {
 174:.\Generated_Source\PSoC4/BLE_1_gatt.c ****         apiResult = CyBle_GattsDbRegister(cyBle_gattDB, CYBLE_GATT_DB_INDEX_COUNT, CYBLE_GATT_DB_MA
  37              		.loc 1 174 0
  38 000a 0548     		ldr	r0, .L4+4
  39 000c 1521     		mov	r1, #21
  40 000e 0F22     		mov	r2, #15
  41 0010 FFF7FEFF 		bl	CyBle_GattsDbRegister
  42              	.LVL0:
  43 0014 01E0     		b	.L2
  44              	.LVL1:
  45              	.L3:
 175:.\Generated_Source\PSoC4/BLE_1_gatt.c ****     }
 176:.\Generated_Source\PSoC4/BLE_1_gatt.c ****     else
 177:.\Generated_Source\PSoC4/BLE_1_gatt.c ****     {
 178:.\Generated_Source\PSoC4/BLE_1_gatt.c ****         apiResult = CYBLE_ERROR_INVALID_STATE;
  46              		.loc 1 178 0
  47 0016 0420     		mov	r0, #4
  48 0018 FF30     		add	r0, r0, #255
  49              	.L2:
  50              	.LVL2:
ARM GAS  C:\Users\danielpi\AppData\Local\Temp\cc9Bj5mZ.s 			page 5


 179:.\Generated_Source\PSoC4/BLE_1_gatt.c ****     }
 180:.\Generated_Source\PSoC4/BLE_1_gatt.c ****     
 181:.\Generated_Source\PSoC4/BLE_1_gatt.c ****     return(apiResult);
 182:.\Generated_Source\PSoC4/BLE_1_gatt.c **** }
  51              		.loc 1 182 0
  52              		@ sp needed
  53 001a 08BD     		pop	{r3, pc}
  54              	.L5:
  55              		.align	2
  56              	.L4:
  57 001c 00000000 		.word	cyBle_state
  58 0020 00000000 		.word	.LANCHOR0
  59              		.cfi_endproc
  60              	.LFE2:
  61              		.size	CyBle_GattsReInitGattDb, .-CyBle_GattsReInitGattDb
  62              		.section	.text.CyBle_GattsWriteEventHandler,"ax",%progbits
  63              		.align	2
  64              		.global	CyBle_GattsWriteEventHandler
  65              		.code	16
  66              		.thumb_func
  67              		.type	CyBle_GattsWriteEventHandler, %function
  68              	CyBle_GattsWriteEventHandler:
  69              	.LFB3:
 183:.\Generated_Source\PSoC4/BLE_1_gatt.c **** 
 184:.\Generated_Source\PSoC4/BLE_1_gatt.c **** 
 185:.\Generated_Source\PSoC4/BLE_1_gatt.c **** /****************************************************************************** 
 186:.\Generated_Source\PSoC4/BLE_1_gatt.c **** ##Function Name: CyBle_GattsWriteEventHandler
 187:.\Generated_Source\PSoC4/BLE_1_gatt.c **** *******************************************************************************
 188:.\Generated_Source\PSoC4/BLE_1_gatt.c **** 
 189:.\Generated_Source\PSoC4/BLE_1_gatt.c **** Summary:
 190:.\Generated_Source\PSoC4/BLE_1_gatt.c ****  Handles the Write Request Event for GATT service.
 191:.\Generated_Source\PSoC4/BLE_1_gatt.c **** 
 192:.\Generated_Source\PSoC4/BLE_1_gatt.c **** Parameters:
 193:.\Generated_Source\PSoC4/BLE_1_gatt.c ****  *eventParam: The pointer to the data structure specified by the event.
 194:.\Generated_Source\PSoC4/BLE_1_gatt.c **** 
 195:.\Generated_Source\PSoC4/BLE_1_gatt.c **** Return:
 196:.\Generated_Source\PSoC4/BLE_1_gatt.c ****  * CYBLE_GATT_ERR_CODE_T: An API result returns one of the following status 
 197:.\Generated_Source\PSoC4/BLE_1_gatt.c ****     values
 198:.\Generated_Source\PSoC4/BLE_1_gatt.c ****  * CYBLE_GATT_ERR_NONE - Write is successful.
 199:.\Generated_Source\PSoC4/BLE_1_gatt.c **** 
 200:.\Generated_Source\PSoC4/BLE_1_gatt.c **** ******************************************************************************/
 201:.\Generated_Source\PSoC4/BLE_1_gatt.c **** CYBLE_GATT_ERR_CODE_T CyBle_GattsWriteEventHandler(CYBLE_GATTS_WRITE_REQ_PARAM_T *eventParam)
 202:.\Generated_Source\PSoC4/BLE_1_gatt.c **** {
  70              		.loc 1 202 0
  71              		.cfi_startproc
  72              	.LVL3:
  73 0000 38B5     		push	{r3, r4, r5, lr}
  74              		.cfi_def_cfa_offset 16
  75              		.cfi_offset 3, -16
  76              		.cfi_offset 4, -12
  77              		.cfi_offset 5, -8
  78              		.cfi_offset 14, -4
  79 0002 041C     		mov	r4, r0
  80              	.LVL4:
 203:.\Generated_Source\PSoC4/BLE_1_gatt.c ****     CYBLE_GATT_ERR_CODE_T gattErr = CYBLE_GATT_ERR_NONE;
 204:.\Generated_Source\PSoC4/BLE_1_gatt.c ****     
 205:.\Generated_Source\PSoC4/BLE_1_gatt.c ****     /* Client Characteristic Configuration descriptor write request */
ARM GAS  C:\Users\danielpi\AppData\Local\Temp\cc9Bj5mZ.s 			page 6


 206:.\Generated_Source\PSoC4/BLE_1_gatt.c ****     if(eventParam->handleValPair.attrHandle == cyBle_gatts.cccdHandle)
  81              		.loc 1 206 0
  82 0004 8389     		ldrh	r3, [r0, #12]
  83 0006 0B2B     		cmp	r3, #11
  84 0008 1FD1     		bne	.L10
 207:.\Generated_Source\PSoC4/BLE_1_gatt.c ****     {
 208:.\Generated_Source\PSoC4/BLE_1_gatt.c ****         /* Store value to database */
 209:.\Generated_Source\PSoC4/BLE_1_gatt.c ****         gattErr = CyBle_GattsWriteAttributeValue(&eventParam->handleValPair, 0u, 
  85              		.loc 1 209 0
  86 000a 0430     		add	r0, r0, #4
  87              	.LVL5:
  88 000c 0021     		mov	r1, #0
  89 000e 221C     		mov	r2, r4
  90 0010 4023     		mov	r3, #64
  91 0012 FFF7FEFF 		bl	CyBle_GattsWriteAttributeValue
  92              	.LVL6:
  93 0016 051E     		sub	r5, r0, #0
  94              	.LVL7:
 210:.\Generated_Source\PSoC4/BLE_1_gatt.c ****                         &eventParam->connHandle, CYBLE_GATT_DB_PEER_INITIATED);
 211:.\Generated_Source\PSoC4/BLE_1_gatt.c ****         
 212:.\Generated_Source\PSoC4/BLE_1_gatt.c ****         if(CYBLE_GATT_ERR_NONE == gattErr)
  95              		.loc 1 212 0
  96 0018 11D1     		bne	.L8
 213:.\Generated_Source\PSoC4/BLE_1_gatt.c ****         {
 214:.\Generated_Source\PSoC4/BLE_1_gatt.c ****             if(CYBLE_IS_INDICATION_ENABLED_IN_PTR(eventParam->handleValPair.value.val))
  97              		.loc 1 214 0
  98 001a 6068     		ldr	r0, [r4, #4]
  99              	.LVL8:
 100 001c FFF7FEFF 		bl	CyBle_Get16ByPtr
 101              	.LVL9:
 102 0020 8307     		lsl	r3, r0, #30
 103 0022 06D5     		bpl	.L9
 215:.\Generated_Source\PSoC4/BLE_1_gatt.c ****             {
 216:.\Generated_Source\PSoC4/BLE_1_gatt.c ****                 CyBle_ApplCallback((uint32)CYBLE_EVT_GATTS_INDICATION_ENABLED, eventParam);
 104              		.loc 1 216 0
 105 0024 0A4B     		ldr	r3, .L11
 106 0026 1B68     		ldr	r3, [r3]
 107 0028 8220     		mov	r0, #130
 108 002a 4000     		lsl	r0, r0, #1
 109 002c 211C     		mov	r1, r4
 110 002e 9847     		blx	r3
 111              	.LVL10:
 112 0030 05E0     		b	.L8
 113              	.L9:
 217:.\Generated_Source\PSoC4/BLE_1_gatt.c ****             }
 218:.\Generated_Source\PSoC4/BLE_1_gatt.c ****             else
 219:.\Generated_Source\PSoC4/BLE_1_gatt.c ****             {
 220:.\Generated_Source\PSoC4/BLE_1_gatt.c ****                 CyBle_ApplCallback((uint32)CYBLE_EVT_GATTS_INDICATION_DISABLED, eventParam);
 114              		.loc 1 220 0
 115 0032 074B     		ldr	r3, .L11
 116 0034 1B68     		ldr	r3, [r3]
 117 0036 0620     		mov	r0, #6
 118 0038 FF30     		add	r0, r0, #255
 119 003a 211C     		mov	r1, r4
 120 003c 9847     		blx	r3
 121              	.LVL11:
 122              	.L8:
ARM GAS  C:\Users\danielpi\AppData\Local\Temp\cc9Bj5mZ.s 			page 7


 221:.\Generated_Source\PSoC4/BLE_1_gatt.c ****             }
 222:.\Generated_Source\PSoC4/BLE_1_gatt.c ****         }
 223:.\Generated_Source\PSoC4/BLE_1_gatt.c ****         cyBle_eventHandlerFlag &= (uint8)~CYBLE_CALLBACK;
 123              		.loc 1 223 0
 124 003e 054B     		ldr	r3, .L11+4
 125 0040 1A78     		ldrb	r2, [r3]
 126 0042 0121     		mov	r1, #1
 127 0044 8A43     		bic	r2, r1
 128 0046 1A70     		strb	r2, [r3]
 129 0048 00E0     		b	.L7
 130              	.LVL12:
 131              	.L10:
 203:.\Generated_Source\PSoC4/BLE_1_gatt.c ****     CYBLE_GATT_ERR_CODE_T gattErr = CYBLE_GATT_ERR_NONE;
 132              		.loc 1 203 0
 133 004a 0025     		mov	r5, #0
 134              	.LVL13:
 135              	.L7:
 224:.\Generated_Source\PSoC4/BLE_1_gatt.c ****     }
 225:.\Generated_Source\PSoC4/BLE_1_gatt.c ****     return (gattErr);
 226:.\Generated_Source\PSoC4/BLE_1_gatt.c **** }
 136              		.loc 1 226 0
 137 004c 281C     		mov	r0, r5
 138              		@ sp needed
 139              	.LVL14:
 140              	.LVL15:
 141 004e 38BD     		pop	{r3, r4, r5, pc}
 142              	.L12:
 143              		.align	2
 144              	.L11:
 145 0050 00000000 		.word	CyBle_ApplCallback
 146 0054 00000000 		.word	cyBle_eventHandlerFlag
 147              		.cfi_endproc
 148              	.LFE3:
 149              		.size	CyBle_GattsWriteEventHandler, .-CyBle_GattsWriteEventHandler
 150              		.global	cyBle_gattDB
 151              		.global	cyBle_attValuesLen
 152              		.comm	cyBle_attValuesCCCD,4,4
 153              		.global	cyBle_attValuesCCCDFlashMemory
 154              		.global	cyBle_gatts
 155              		.comm	cyBle_state,1,1
 156              		.section	.rodata
 157              		.align	7
 158              		.set	.LANCHOR0,. + 0
 159              		.type	cyBle_gattDB, %object
 160              		.size	cyBle_gattDB, 420
 161              	cyBle_gattDB:
 162 0000 0100     		.short	1
 163 0002 0028     		.short	10240
 164 0004 01000000 		.word	1
 165 0008 0700     		.short	7
 166 000a 0000     		.space	2
 167 000c 0018     		.short	6144
 168 000e 0000     		.space	2
 169 0010 00000000 		.word	0
 170 0014 0200     		.short	2
 171 0016 0328     		.short	10243
 172 0018 01020000 		.word	513
ARM GAS  C:\Users\danielpi\AppData\Local\Temp\cc9Bj5mZ.s 			page 8


 173 001c 0300     		.short	3
 174 001e 0000     		.space	2
 175 0020 002A     		.short	10752
 176 0022 0000     		.space	2
 177 0024 00000000 		.word	0
 178 0028 0300     		.short	3
 179 002a 002A     		.short	10752
 180 002c 01020000 		.word	513
 181 0030 0300     		.short	3
 182 0032 0000     		.space	2
 183 0034 0C00     		.short	12
 184 0036 0000     		.space	2
 185 0038 00000000 		.word	cyBle_attValuesLen
 186 003c 0400     		.short	4
 187 003e 0328     		.short	10243
 188 0040 01020000 		.word	513
 189 0044 0500     		.short	5
 190 0046 0000     		.space	2
 191 0048 012A     		.short	10753
 192 004a 0000     		.space	2
 193 004c 00000000 		.word	0
 194 0050 0500     		.short	5
 195 0052 012A     		.short	10753
 196 0054 01020000 		.word	513
 197 0058 0500     		.short	5
 198 005a 0000     		.space	2
 199 005c 0200     		.short	2
 200 005e 0000     		.space	2
 201 0060 08000000 		.word	cyBle_attValuesLen+8
 202 0064 0600     		.short	6
 203 0066 0328     		.short	10243
 204 0068 01020000 		.word	513
 205 006c 0700     		.short	7
 206 006e 0000     		.space	2
 207 0070 042A     		.short	10756
 208 0072 0000     		.space	2
 209 0074 00000000 		.word	0
 210 0078 0700     		.short	7
 211 007a 042A     		.short	10756
 212 007c 01020000 		.word	513
 213 0080 0700     		.short	7
 214 0082 0000     		.space	2
 215 0084 0800     		.short	8
 216 0086 0000     		.space	2
 217 0088 10000000 		.word	cyBle_attValuesLen+16
 218 008c 0800     		.short	8
 219 008e 0028     		.short	10240
 220 0090 01000000 		.word	1
 221 0094 0B00     		.short	11
 222 0096 0000     		.space	2
 223 0098 0118     		.short	6145
 224 009a 0000     		.space	2
 225 009c 00000000 		.word	0
 226 00a0 0900     		.short	9
 227 00a2 0328     		.short	10243
 228 00a4 01220000 		.word	8705
 229 00a8 0B00     		.short	11
ARM GAS  C:\Users\danielpi\AppData\Local\Temp\cc9Bj5mZ.s 			page 9


 230 00aa 0000     		.space	2
 231 00ac 052A     		.short	10757
 232 00ae 0000     		.space	2
 233 00b0 00000000 		.word	0
 234 00b4 0A00     		.short	10
 235 00b6 052A     		.short	10757
 236 00b8 01220000 		.word	8705
 237 00bc 0B00     		.short	11
 238 00be 0000     		.space	2
 239 00c0 0400     		.short	4
 240 00c2 0000     		.space	2
 241 00c4 18000000 		.word	cyBle_attValuesLen+24
 242 00c8 0B00     		.short	11
 243 00ca 0229     		.short	10498
 244 00cc 040A0000 		.word	2564
 245 00d0 0B00     		.short	11
 246 00d2 0000     		.space	2
 247 00d4 0200     		.short	2
 248 00d6 0000     		.space	2
 249 00d8 20000000 		.word	cyBle_attValuesLen+32
 250 00dc 0C00     		.short	12
 251 00de 0028     		.short	10240
 252 00e0 01000000 		.word	1
 253 00e4 1000     		.short	16
 254 00e6 0000     		.space	2
 255 00e8 B5CA     		.short	-13643
 256 00ea 0000     		.space	2
 257 00ec 00000000 		.word	0
 258 00f0 0D00     		.short	13
 259 00f2 0328     		.short	10243
 260 00f4 01100000 		.word	4097
 261 00f8 1000     		.short	16
 262 00fa 0000     		.space	2
 263 00fc A2CA     		.short	-13662
 264 00fe 0000     		.space	2
 265 0100 00000000 		.word	0
 266 0104 0E00     		.short	14
 267 0106 A2CA     		.short	-13662
 268 0108 00100000 		.word	4096
 269 010c 1000     		.short	16
 270 010e 0000     		.space	2
 271 0110 0100     		.short	1
 272 0112 0000     		.space	2
 273 0114 28000000 		.word	cyBle_attValuesLen+40
 274 0118 0F00     		.short	15
 275 011a 0229     		.short	10498
 276 011c 040A0000 		.word	2564
 277 0120 0F00     		.short	15
 278 0122 0000     		.space	2
 279 0124 0200     		.short	2
 280 0126 0000     		.space	2
 281 0128 30000000 		.word	cyBle_attValuesLen+48
 282 012c 1000     		.short	16
 283 012e 0129     		.short	10497
 284 0130 01020000 		.word	513
 285 0134 1000     		.short	16
 286 0136 0000     		.space	2
ARM GAS  C:\Users\danielpi\AppData\Local\Temp\cc9Bj5mZ.s 			page 10


 287 0138 0F00     		.short	15
 288 013a 0000     		.space	2
 289 013c 38000000 		.word	cyBle_attValuesLen+56
 290 0140 1100     		.short	17
 291 0142 0028     		.short	10240
 292 0144 01000000 		.word	1
 293 0148 1500     		.short	21
 294 014a 0000     		.space	2
 295 014c BBCB     		.short	-13381
 296 014e 0000     		.space	2
 297 0150 00000000 		.word	0
 298 0154 1200     		.short	18
 299 0156 0328     		.short	10243
 300 0158 010A0000 		.word	2561
 301 015c 1500     		.short	21
 302 015e 0000     		.space	2
 303 0160 B1CB     		.short	-13391
 304 0162 0000     		.space	2
 305 0164 00000000 		.word	0
 306 0168 1300     		.short	19
 307 016a B1CB     		.short	-13391
 308 016c 040A0000 		.word	2564
 309 0170 1500     		.short	21
 310 0172 0000     		.space	2
 311 0174 0400     		.short	4
 312 0176 0000     		.space	2
 313 0178 40000000 		.word	cyBle_attValuesLen+64
 314 017c 1400     		.short	20
 315 017e 0000     		.short	0
 316 0180 01000800 		.word	524289
 317 0184 1400     		.short	20
 318 0186 0000     		.space	2
 319 0188 0100     		.short	1
 320 018a 0000     		.space	2
 321 018c 48000000 		.word	cyBle_attValuesLen+72
 322 0190 1500     		.short	21
 323 0192 0129     		.short	10497
 324 0194 01020000 		.word	513
 325 0198 1500     		.short	21
 326 019a 0000     		.space	2
 327 019c 0F00     		.short	15
 328 019e 0000     		.space	2
 329 01a0 50000000 		.word	cyBle_attValuesLen+80
 330 01a4 00000000 		.space	92
 330      00000000 
 330      00000000 
 330      00000000 
 330      00000000 
 331              		.type	cyBle_attValuesCCCDFlashMemory, %object
 332              		.size	cyBle_attValuesCCCDFlashMemory, 20
 333              	cyBle_attValuesCCCDFlashMemory:
 334 0200 00000000 		.space	20
 334      00000000 
 334      00000000 
 334      00000000 
 334      00000000 
 335              		.type	cyBle_gatts, %object
ARM GAS  C:\Users\danielpi\AppData\Local\Temp\cc9Bj5mZ.s 			page 11


 336              		.size	cyBle_gatts, 6
 337              	cyBle_gatts:
 338 0214 0800     		.short	8
 339 0216 0A00     		.short	10
 340 0218 0B00     		.short	11
 341 021a 00000000 		.data
 341      00000000 
 341      00000000 
 341      00000000 
 341      00000000 
 342              		.align	2
 343              		.type	cyBle_attValuesLen, %object
 344              		.size	cyBle_attValuesLen, 88
 345              	cyBle_attValuesLen:
 346 0000 0C00     		.short	12
 347 0002 0000     		.space	2
 348 0004 58000000 		.word	cyBle_attValues
 349 0008 0200     		.short	2
 350 000a 0000     		.space	2
 351 000c 64000000 		.word	cyBle_attValues+12
 352 0010 0800     		.short	8
 353 0012 0000     		.space	2
 354 0014 66000000 		.word	cyBle_attValues+14
 355 0018 0400     		.short	4
 356 001a 0000     		.space	2
 357 001c 6E000000 		.word	cyBle_attValues+22
 358 0020 0200     		.short	2
 359 0022 0000     		.space	2
 360 0024 00000000 		.word	cyBle_attValuesCCCD
 361 0028 0100     		.short	1
 362 002a 0000     		.space	2
 363 002c 72000000 		.word	cyBle_attValues+26
 364 0030 0200     		.short	2
 365 0032 0000     		.space	2
 366 0034 02000000 		.word	cyBle_attValuesCCCD+2
 367 0038 0F00     		.short	15
 368 003a 0000     		.space	2
 369 003c 73000000 		.word	cyBle_attValues+27
 370 0040 0400     		.short	4
 371 0042 0000     		.space	2
 372 0044 82000000 		.word	cyBle_attValues+42
 373 0048 1100     		.short	17
 374 004a 0000     		.space	2
 375 004c 86000000 		.word	cyBle_attValues+46
 376 0050 0F00     		.short	15
 377 0052 0000     		.space	2
 378 0054 97000000 		.word	cyBle_attValues+63
 379              		.type	cyBle_attValues, %object
 380              		.size	cyBle_attValues, 78
 381              	cyBle_attValues:
 382 0058 50       		.byte	80
 383 0059 53       		.byte	83
 384 005a 6F       		.byte	111
 385 005b 43       		.byte	67
 386 005c 20       		.byte	32
 387 005d 50       		.byte	80
 388 005e 69       		.byte	105
ARM GAS  C:\Users\danielpi\AppData\Local\Temp\cc9Bj5mZ.s 			page 12


 389 005f 6F       		.byte	111
 390 0060 6E       		.byte	110
 391 0061 65       		.byte	101
 392 0062 65       		.byte	101
 393 0063 72       		.byte	114
 394 0064 00       		.byte	0
 395 0065 00       		.byte	0
 396 0066 06       		.byte	6
 397 0067 00       		.byte	0
 398 0068 28       		.byte	40
 399 0069 00       		.byte	0
 400 006a 00       		.byte	0
 401 006b 00       		.byte	0
 402 006c E8       		.byte	-24
 403 006d 03       		.byte	3
 404 006e 00       		.byte	0
 405 006f 00       		.byte	0
 406 0070 00       		.byte	0
 407 0071 00       		.byte	0
 408 0072 00       		.byte	0
 409 0073 43       		.byte	67
 410 0074 61       		.byte	97
 411 0075 70       		.byte	112
 412 0076 53       		.byte	83
 413 0077 65       		.byte	101
 414 0078 6E       		.byte	110
 415 0079 73       		.byte	115
 416 007a 65       		.byte	101
 417 007b 20       		.byte	32
 418 007c 53       		.byte	83
 419 007d 6C       		.byte	108
 420 007e 69       		.byte	105
 421 007f 64       		.byte	100
 422 0080 65       		.byte	101
 423 0081 72       		.byte	114
 424 0082 00       		.byte	0
 425 0083 00       		.byte	0
 426 0084 00       		.byte	0
 427 0085 00       		.byte	0
 428 0086 00       		.byte	0
 429 0087 FB       		.byte	-5
 430 0088 34       		.byte	52
 431 0089 9B       		.byte	-101
 432 008a 5F       		.byte	95
 433 008b 80       		.byte	-128
 434 008c 00       		.byte	0
 435 008d 00       		.byte	0
 436 008e 80       		.byte	-128
 437 008f 00       		.byte	0
 438 0090 10       		.byte	16
 439 0091 00       		.byte	0
 440 0092 00       		.byte	0
 441 0093 00       		.byte	0
 442 0094 00       		.byte	0
 443 0095 00       		.byte	0
 444 0096 00       		.byte	0
 445 0097 52       		.byte	82
ARM GAS  C:\Users\danielpi\AppData\Local\Temp\cc9Bj5mZ.s 			page 13


 446 0098 47       		.byte	71
 447 0099 42       		.byte	66
 448 009a 20       		.byte	32
 449 009b 4C       		.byte	76
 450 009c 45       		.byte	69
 451 009d 44       		.byte	68
 452 009e 20       		.byte	32
 453 009f 43       		.byte	67
 454 00a0 6F       		.byte	111
 455 00a1 6E       		.byte	110
 456 00a2 74       		.byte	116
 457 00a3 72       		.byte	114
 458 00a4 6F       		.byte	111
 459 00a5 6C       		.byte	108
 460 00a6 0000     		.text
 461              	.Letext0:
 462              		.file 2 ".\\Generated_Source\\PSoC4\\cytypes.h"
 463              		.file 3 ".\\Generated_Source\\PSoC4\\BLE_1_Stack.h"
 464              		.file 4 ".\\Generated_Source\\PSoC4\\BLE_1_StackGatt.h"
 465              		.file 5 ".\\Generated_Source\\PSoC4\\BLE_1_StackGattServer.h"
 466              		.file 6 ".\\Generated_Source\\PSoC4\\BLE_1_StackGattDb.h"
 467              		.file 7 ".\\Generated_Source\\PSoC4\\BLE_1.h"
 468              		.file 8 ".\\Generated_Source\\PSoC4\\BLE_1_gatt.h"
 469              		.file 9 ".\\Generated_Source\\PSoC4\\BLE_1_eventHandler.h"