ARM GAS  C:\Users\danielpi\AppData\Local\Temp\ccfzId9l.s 			page 1


   1              		.cpu cortex-m0
   2              		.fpu softvfp
   3              		.eabi_attribute 20, 1
   4              		.eabi_attribute 21, 1
   5              		.eabi_attribute 23, 3
   6              		.eabi_attribute 24, 1
   7              		.eabi_attribute 25, 1
   8              		.eabi_attribute 26, 1
   9              		.eabi_attribute 30, 1
  10              		.eabi_attribute 34, 0
  11              		.eabi_attribute 18, 4
  12              		.code	16
  13              		.file	"BLE_1.c"
  14              		.text
  15              	.Ltext0:
  16              		.cfi_sections	.debug_frame
  17              		.section	.text.CyBle_ChangeAdLocalName,"ax",%progbits
  18              		.align	2
  19              		.code	16
  20              		.thumb_func
  21              		.type	CyBle_ChangeAdLocalName, %function
  22              	CyBle_ChangeAdLocalName:
  23              	.LFB10:
  24              		.file 1 ".\\Generated_Source\\PSoC4\\BLE_1.c"
   1:.\Generated_Source\PSoC4/BLE_1.c **** /*******************************************************************************
   2:.\Generated_Source\PSoC4/BLE_1.c **** File Name: CYBLE.c
   3:.\Generated_Source\PSoC4/BLE_1.c **** Version 2.10
   4:.\Generated_Source\PSoC4/BLE_1.c **** 
   5:.\Generated_Source\PSoC4/BLE_1.c **** Description:
   6:.\Generated_Source\PSoC4/BLE_1.c ****  This file contains the source code for the Common APIs of the BLE Component.
   7:.\Generated_Source\PSoC4/BLE_1.c **** 
   8:.\Generated_Source\PSoC4/BLE_1.c **** ********************************************************************************
   9:.\Generated_Source\PSoC4/BLE_1.c **** Copyright 2014-2015, Cypress Semiconductor Corporation.  All rights reserved.
  10:.\Generated_Source\PSoC4/BLE_1.c **** You may use this file only in accordance with the license, terms, conditions,
  11:.\Generated_Source\PSoC4/BLE_1.c **** disclaimers, and limitations in the end user license agreement accompanying
  12:.\Generated_Source\PSoC4/BLE_1.c **** the software package with which this file was provided.
  13:.\Generated_Source\PSoC4/BLE_1.c **** *******************************************************************************/
  14:.\Generated_Source\PSoC4/BLE_1.c **** 
  15:.\Generated_Source\PSoC4/BLE_1.c **** #include "BLE_1_eventHandler.h"
  16:.\Generated_Source\PSoC4/BLE_1.c **** #include "BLE_1_HAL_PVT.h"
  17:.\Generated_Source\PSoC4/BLE_1.c **** 
  18:.\Generated_Source\PSoC4/BLE_1.c **** 
  19:.\Generated_Source\PSoC4/BLE_1.c **** /***************************************
  20:.\Generated_Source\PSoC4/BLE_1.c **** ##Function Prototypes
  21:.\Generated_Source\PSoC4/BLE_1.c **** ***************************************/
  22:.\Generated_Source\PSoC4/BLE_1.c **** 
  23:.\Generated_Source\PSoC4/BLE_1.c **** #if(CYBLE_GATT_ROLE_SERVER)
  24:.\Generated_Source\PSoC4/BLE_1.c ****     #if(CYBLE_GAP_ROLE_PERIPHERAL)
  25:.\Generated_Source\PSoC4/BLE_1.c ****         static void CyBle_ChangeAdLocalName(const char8 name[], uint8 dest);
  26:.\Generated_Source\PSoC4/BLE_1.c ****     #endif /* (CYBLE_GAP_ROLE_PERIPHERAL) */
  27:.\Generated_Source\PSoC4/BLE_1.c **** #endif /* (CYBLE_GATT_ROLE_SERVER) */
  28:.\Generated_Source\PSoC4/BLE_1.c ****     
  29:.\Generated_Source\PSoC4/BLE_1.c **** 
  30:.\Generated_Source\PSoC4/BLE_1.c **** /***************************************
  31:.\Generated_Source\PSoC4/BLE_1.c **** ##Global Variables
  32:.\Generated_Source\PSoC4/BLE_1.c **** ***************************************/
  33:.\Generated_Source\PSoC4/BLE_1.c **** 
ARM GAS  C:\Users\danielpi\AppData\Local\Temp\ccfzId9l.s 			page 2


  34:.\Generated_Source\PSoC4/BLE_1.c **** /* Indicates whether the BLE has been initialized. The variable is initialized to
  35:.\Generated_Source\PSoC4/BLE_1.c ****    0 and set to 1 the first time CyBle_Start() is called. This allows the component
  36:.\Generated_Source\PSoC4/BLE_1.c ****    to restart without reinitialization after the first call to the CyBle_Start() 
  37:.\Generated_Source\PSoC4/BLE_1.c ****    routine. If reinitialization of the component is required, the variable should 
  38:.\Generated_Source\PSoC4/BLE_1.c ****    be set to 0 before the CyBle_Start() routine is called. Alternatively, the BLE
  39:.\Generated_Source\PSoC4/BLE_1.c ****    can be reinitialized by calling the CyBle_Init() function.
  40:.\Generated_Source\PSoC4/BLE_1.c **** */
  41:.\Generated_Source\PSoC4/BLE_1.c **** uint8  cyBle_initVar = 0u;
  42:.\Generated_Source\PSoC4/BLE_1.c **** 
  43:.\Generated_Source\PSoC4/BLE_1.c **** /* Allocate RAM memory for stack. This buffer could be reused by application when 
  44:.\Generated_Source\PSoC4/BLE_1.c ****    BLE component is stopped. 
  45:.\Generated_Source\PSoC4/BLE_1.c **** */
  46:.\Generated_Source\PSoC4/BLE_1.c **** CYBLE_CYALIGNED_BEGIN uint8 cyBle_stackMemoryRam[CYBLE_STACK_RAM_SIZE] CYBLE_CYALIGNED_END;
  47:.\Generated_Source\PSoC4/BLE_1.c **** 
  48:.\Generated_Source\PSoC4/BLE_1.c **** #if(CYBLE_GAP_ROLE_PERIPHERAL || CYBLE_GAP_ROLE_BROADCASTER)
  49:.\Generated_Source\PSoC4/BLE_1.c **** 
  50:.\Generated_Source\PSoC4/BLE_1.c **** CYBLE_GAPP_DISC_PARAM_T cyBle_discoveryParam =
  51:.\Generated_Source\PSoC4/BLE_1.c **** {
  52:.\Generated_Source\PSoC4/BLE_1.c ****     0x0140u,    /* uint16 advertising_interval_min */
  53:.\Generated_Source\PSoC4/BLE_1.c ****     0x01E0u,    /* uint16 advertising_interval_max */
  54:.\Generated_Source\PSoC4/BLE_1.c ****     CYBLE_GAPP_CONNECTABLE_UNDIRECTED_ADV, /* uint8 advertising_type */
  55:.\Generated_Source\PSoC4/BLE_1.c ****     0x00u,      /* uint8 own_addr_type */
  56:.\Generated_Source\PSoC4/BLE_1.c ****     0x00u,      /* uint8 direct_addr_type */
  57:.\Generated_Source\PSoC4/BLE_1.c ****     {0x00u, 0x00u, 0x00u, 0x50u, 0xA0u, 0x00u}, /* uint8* direct_addr */
  58:.\Generated_Source\PSoC4/BLE_1.c ****     0x07u,      /* uint8 advertising_channel_map */
  59:.\Generated_Source\PSoC4/BLE_1.c ****     0x00u,      /* uint8 advertising_filter_policy */
  60:.\Generated_Source\PSoC4/BLE_1.c **** };
  61:.\Generated_Source\PSoC4/BLE_1.c **** 
  62:.\Generated_Source\PSoC4/BLE_1.c **** CYBLE_GAPP_DISC_DATA_T cyBle_discoveryData =
  63:.\Generated_Source\PSoC4/BLE_1.c **** {
  64:.\Generated_Source\PSoC4/BLE_1.c ****     { 0x02u, 0x01u, 0x06u, 0x0Du, 0x09u, 0x50u, 0x53u,
  65:.\Generated_Source\PSoC4/BLE_1.c ****     0x6Fu, 0x43u, 0x20u, 0x50u, 0x69u, 0x6Fu, 0x6Eu, 0x65u,
  66:.\Generated_Source\PSoC4/BLE_1.c ****     0x65u, 0x72u, 0x05u, 0x03u, 0xB5u, 0xCAu, 0xBBu, 0xCBu,
  67:.\Generated_Source\PSoC4/BLE_1.c ****     0x00u, 0x00u, 0x00u, 0x00u, 0x00u, 0x00u, 0x00u, 0x00u }, /* uint8 advertising_data[CYBLE_MAX_A
  68:.\Generated_Source\PSoC4/BLE_1.c ****     0x17u,      /* uint8 adv_data_length */
  69:.\Generated_Source\PSoC4/BLE_1.c **** };
  70:.\Generated_Source\PSoC4/BLE_1.c **** 
  71:.\Generated_Source\PSoC4/BLE_1.c **** CYBLE_GAPP_SCAN_RSP_DATA_T cyBle_scanRspData =
  72:.\Generated_Source\PSoC4/BLE_1.c **** {
  73:.\Generated_Source\PSoC4/BLE_1.c ****     { 0x07u, 0x16u, 0xBBu, 0xCBu, 0xFFu, 0xFFu, 0xFFu,
  74:.\Generated_Source\PSoC4/BLE_1.c ****     0xFFu, 0x00u, 0x00u, 0x00u, 0x00u, 0x00u, 0x00u, 0x00u,
  75:.\Generated_Source\PSoC4/BLE_1.c ****     0x00u, 0x00u, 0x00u, 0x00u, 0x00u, 0x00u, 0x00u, 0x00u,
  76:.\Generated_Source\PSoC4/BLE_1.c ****     0x00u, 0x00u, 0x00u, 0x00u, 0x00u, 0x00u, 0x00u, 0x00u }, /* uint8 scan_rsp_data[CYBLE_MAX_SCAN
  77:.\Generated_Source\PSoC4/BLE_1.c ****     0x08u,      /* uint8 scan_rsp_data_length */
  78:.\Generated_Source\PSoC4/BLE_1.c **** };
  79:.\Generated_Source\PSoC4/BLE_1.c **** 
  80:.\Generated_Source\PSoC4/BLE_1.c **** /* This variable of type CYBLE_GAPP_DISC_MODE_INFO_T is present only when 
  81:.\Generated_Source\PSoC4/BLE_1.c ****    the BLE component is configured for Peripheral GAP role or Central and 
  82:.\Generated_Source\PSoC4/BLE_1.c ****    Peripheral GAP role. It contains the Advertisement settings and also the 
  83:.\Generated_Source\PSoC4/BLE_1.c ****    Advertisement and Scan response data parameters entered in the customizer.
  84:.\Generated_Source\PSoC4/BLE_1.c ****    This variable can be used by advanced users to change Advertisement settings,
  85:.\Generated_Source\PSoC4/BLE_1.c ****    Advertisement or Scan response data in runtime. 
  86:.\Generated_Source\PSoC4/BLE_1.c **** */
  87:.\Generated_Source\PSoC4/BLE_1.c **** CYBLE_GAPP_DISC_MODE_INFO_T cyBle_discoveryModeInfo =
  88:.\Generated_Source\PSoC4/BLE_1.c **** {
  89:.\Generated_Source\PSoC4/BLE_1.c ****     0x02u,      /* uint8 discMode */
  90:.\Generated_Source\PSoC4/BLE_1.c ****     &cyBle_discoveryParam,
ARM GAS  C:\Users\danielpi\AppData\Local\Temp\ccfzId9l.s 			page 3


  91:.\Generated_Source\PSoC4/BLE_1.c ****     &cyBle_discoveryData,
  92:.\Generated_Source\PSoC4/BLE_1.c ****     &cyBle_scanRspData,
  93:.\Generated_Source\PSoC4/BLE_1.c ****     0x0078u,    /* uint16 advTo */
  94:.\Generated_Source\PSoC4/BLE_1.c **** };
  95:.\Generated_Source\PSoC4/BLE_1.c **** 
  96:.\Generated_Source\PSoC4/BLE_1.c **** 
  97:.\Generated_Source\PSoC4/BLE_1.c **** #endif /* CYBLE_GAP_ROLE_PERIPHERAL || CYBLE_GAP_ROLE_BROADCASTER */
  98:.\Generated_Source\PSoC4/BLE_1.c **** 
  99:.\Generated_Source\PSoC4/BLE_1.c **** #if(CYBLE_GAP_ROLE_CENTRAL)
 100:.\Generated_Source\PSoC4/BLE_1.c ****     
 101:.\Generated_Source\PSoC4/BLE_1.c **** CYBLE_GAPC_CONN_PARAM_T cyBle_connectionParameters;
 102:.\Generated_Source\PSoC4/BLE_1.c **** 
 103:.\Generated_Source\PSoC4/BLE_1.c **** /* Connecting timeout is set to 30 seconds in CyBle_Init function. 
 104:.\Generated_Source\PSoC4/BLE_1.c ****    Not zero value starts timer in CyBle_GapcConnectDevice API.
 105:.\Generated_Source\PSoC4/BLE_1.c **** */
 106:.\Generated_Source\PSoC4/BLE_1.c **** uint16 cyBle_connectingTimeout;
 107:.\Generated_Source\PSoC4/BLE_1.c ****     
 108:.\Generated_Source\PSoC4/BLE_1.c **** #endif /* CYBLE_GAP_ROLE_CENTRAL */
 109:.\Generated_Source\PSoC4/BLE_1.c **** 
 110:.\Generated_Source\PSoC4/BLE_1.c **** #if(CYBLE_GAP_ROLE_CENTRAL || CYBLE_GAP_ROLE_OBSERVER)
 111:.\Generated_Source\PSoC4/BLE_1.c ****     
 112:.\Generated_Source\PSoC4/BLE_1.c **** 
 113:.\Generated_Source\PSoC4/BLE_1.c ****     
 114:.\Generated_Source\PSoC4/BLE_1.c **** #endif /* CYBLE_GAP_ROLE_CENTRAL || CYBLE_GAP_ROLE_OBSERVER */
 115:.\Generated_Source\PSoC4/BLE_1.c **** 
 116:.\Generated_Source\PSoC4/BLE_1.c **** #if((CYBLE_GAP_ROLE_PERIPHERAL || CYBLE_GAP_ROLE_CENTRAL) && (CYBLE_BONDING_REQUIREMENT == CYBLE_BO
 117:.\Generated_Source\PSoC4/BLE_1.c **** 
 118:.\Generated_Source\PSoC4/BLE_1.c **** uint8 cyBle_pendingFlashWrite;
 119:.\Generated_Source\PSoC4/BLE_1.c ****     
 120:.\Generated_Source\PSoC4/BLE_1.c **** #endif  /* (CYBLE_BONDING_REQUIREMENT == CYBLE_BONDING_YES) */
 121:.\Generated_Source\PSoC4/BLE_1.c **** 
 122:.\Generated_Source\PSoC4/BLE_1.c **** CYBLE_CALLBACK_T CyBle_ApplCallback;
 123:.\Generated_Source\PSoC4/BLE_1.c **** CYBLE_GAP_BD_ADDR_T cyBle_deviceAddress = {{0x00u, 0x00u, 0x00u, 0x50u, 0xA0u, 0x00u}, 0x00u };
 124:.\Generated_Source\PSoC4/BLE_1.c **** CYBLE_GAP_BD_ADDR_T * cyBle_sflashDeviceAddress = CYBLE_SFLASH_DEVICE_ADDRESS_PTR;
 125:.\Generated_Source\PSoC4/BLE_1.c **** 
 126:.\Generated_Source\PSoC4/BLE_1.c **** #if(CYBLE_MODE_PROFILE)
 127:.\Generated_Source\PSoC4/BLE_1.c ****     #if defined(__ARMCC_VERSION)
 128:.\Generated_Source\PSoC4/BLE_1.c ****         CY_ALIGN(CYDEV_FLS_ROW_SIZE) const uint8 cyBle_StackFlashptr[CYBLE_STACK_FLASH_SIZE] = {0u}
 129:.\Generated_Source\PSoC4/BLE_1.c ****     #elif defined (__GNUC__)
 130:.\Generated_Source\PSoC4/BLE_1.c ****         const uint8 cyBle_StackFlashptr[CYBLE_STACK_FLASH_SIZE] CY_ALIGN(CYDEV_FLS_ROW_SIZE) = {0u}
 131:.\Generated_Source\PSoC4/BLE_1.c ****     #elif defined (__ICCARM__)
 132:.\Generated_Source\PSoC4/BLE_1.c ****         #pragma data_alignment=CY_FLASH_SIZEOF_ROW
 133:.\Generated_Source\PSoC4/BLE_1.c ****         const uint8 cyBle_StackFlashptr[CYBLE_STACK_FLASH_SIZE] = {0u};
 134:.\Generated_Source\PSoC4/BLE_1.c ****     #endif  /* (__ARMCC_VERSION) */
 135:.\Generated_Source\PSoC4/BLE_1.c **** #endif /* (CYBLE_MODE_PROFILE) */
 136:.\Generated_Source\PSoC4/BLE_1.c **** 
 137:.\Generated_Source\PSoC4/BLE_1.c **** 
 138:.\Generated_Source\PSoC4/BLE_1.c **** /******************************************************************************
 139:.\Generated_Source\PSoC4/BLE_1.c **** ##Function Name: CyBle_Init
 140:.\Generated_Source\PSoC4/BLE_1.c **** *******************************************************************************
 141:.\Generated_Source\PSoC4/BLE_1.c ****  Summary:
 142:.\Generated_Source\PSoC4/BLE_1.c ****   Initializes the component with the parameters set in the customizer.
 143:.\Generated_Source\PSoC4/BLE_1.c **** 
 144:.\Generated_Source\PSoC4/BLE_1.c ****  Parameters:
 145:.\Generated_Source\PSoC4/BLE_1.c ****   None
 146:.\Generated_Source\PSoC4/BLE_1.c **** 
 147:.\Generated_Source\PSoC4/BLE_1.c ****  Return:
ARM GAS  C:\Users\danielpi\AppData\Local\Temp\ccfzId9l.s 			page 4


 148:.\Generated_Source\PSoC4/BLE_1.c ****   None
 149:.\Generated_Source\PSoC4/BLE_1.c **** 
 150:.\Generated_Source\PSoC4/BLE_1.c **** ******************************************************************************/
 151:.\Generated_Source\PSoC4/BLE_1.c **** void CyBle_Init(void)
 152:.\Generated_Source\PSoC4/BLE_1.c **** {
 153:.\Generated_Source\PSoC4/BLE_1.c ****     cyBle_eventHandlerFlag = 0u;
 154:.\Generated_Source\PSoC4/BLE_1.c ****     cyBle_busyStatus = CYBLE_STACK_STATE_FREE;
 155:.\Generated_Source\PSoC4/BLE_1.c ****     
 156:.\Generated_Source\PSoC4/BLE_1.c ****     #if(CYBLE_GAP_ROLE_PERIPHERAL || CYBLE_GAP_ROLE_BROADCASTER) 
 157:.\Generated_Source\PSoC4/BLE_1.c ****         cyBle_advertisingIntervalType = CYBLE_ADVERTISING_FAST; 
 158:.\Generated_Source\PSoC4/BLE_1.c ****     #endif /* (CYBLE_GAP_ROLE_PERIPHERAL || CYBLE_GAP_ROLE_BROADCASTER)  */
 159:.\Generated_Source\PSoC4/BLE_1.c ****     #if(CYBLE_GAP_ROLE_CENTRAL || CYBLE_GAP_ROLE_OBSERVER)
 160:.\Generated_Source\PSoC4/BLE_1.c ****         cyBle_scanningIntervalType = CYBLE_SCANNING_FAST; 
 161:.\Generated_Source\PSoC4/BLE_1.c ****     #endif /* (CYBLE_GAP_ROLE_CENTRAL || CYBLE_GAP_ROLE_OBSERVER) */
 162:.\Generated_Source\PSoC4/BLE_1.c ****         
 163:.\Generated_Source\PSoC4/BLE_1.c ****     /* Init default connection parameters. 
 164:.\Generated_Source\PSoC4/BLE_1.c ****        Application may change it before initiating a connection */
 165:.\Generated_Source\PSoC4/BLE_1.c ****     #if(CYBLE_GAP_ROLE_CENTRAL)
 166:.\Generated_Source\PSoC4/BLE_1.c ****         cyBle_connectionParameters.scanIntv = cyBle_discoveryInfo.scanIntv;
 167:.\Generated_Source\PSoC4/BLE_1.c ****         cyBle_connectionParameters.scanWindow = cyBle_discoveryInfo.scanWindow;
 168:.\Generated_Source\PSoC4/BLE_1.c ****         cyBle_connectionParameters.ownAddrType = cyBle_discoveryInfo.ownAddrType;
 169:.\Generated_Source\PSoC4/BLE_1.c ****         cyBle_connectionParameters.initiatorFilterPolicy = cyBle_discoveryInfo.scanFilterPolicy;
 170:.\Generated_Source\PSoC4/BLE_1.c ****         cyBle_connectionParameters.connIntvMin = CYBLE_GAPC_CONNECTION_INTERVAL_MIN;
 171:.\Generated_Source\PSoC4/BLE_1.c ****         cyBle_connectionParameters.connIntvMax = CYBLE_GAPC_CONNECTION_INTERVAL_MAX;
 172:.\Generated_Source\PSoC4/BLE_1.c ****         cyBle_connectionParameters.connLatency = CYBLE_GAPC_CONNECTION_SLAVE_LATENCY;
 173:.\Generated_Source\PSoC4/BLE_1.c ****         cyBle_connectionParameters.supervisionTO = CYBLE_GAPC_CONNECTION_TIME_OUT;
 174:.\Generated_Source\PSoC4/BLE_1.c ****         cyBle_connectionParameters.minCeLength = 0x0000u;
 175:.\Generated_Source\PSoC4/BLE_1.c ****         cyBle_connectionParameters.maxCeLength = 0xFFFFu;
 176:.\Generated_Source\PSoC4/BLE_1.c ****         
 177:.\Generated_Source\PSoC4/BLE_1.c ****         cyBle_connectingTimeout = CYBLE_GAPC_CONNECTING_TIMEOUT;
 178:.\Generated_Source\PSoC4/BLE_1.c ****     #endif /* CYBLE_GAP_ROLE_CENTRAL */
 179:.\Generated_Source\PSoC4/BLE_1.c **** 
 180:.\Generated_Source\PSoC4/BLE_1.c ****     CyBle_ServiceInit();
 181:.\Generated_Source\PSoC4/BLE_1.c **** 
 182:.\Generated_Source\PSoC4/BLE_1.c **** #if((CYBLE_GAP_ROLE_PERIPHERAL || CYBLE_GAP_ROLE_CENTRAL) && (CYBLE_BONDING_REQUIREMENT == CYBLE_BO
 183:.\Generated_Source\PSoC4/BLE_1.c ****     cyBle_pendingFlashWrite = 0u;
 184:.\Generated_Source\PSoC4/BLE_1.c **** #endif  /* (CYBLE_BONDING_REQUIREMENT == CYBLE_BONDING_YES) */
 185:.\Generated_Source\PSoC4/BLE_1.c **** 
 186:.\Generated_Source\PSoC4/BLE_1.c **** }
 187:.\Generated_Source\PSoC4/BLE_1.c **** 
 188:.\Generated_Source\PSoC4/BLE_1.c **** 
 189:.\Generated_Source\PSoC4/BLE_1.c **** /******************************************************************************
 190:.\Generated_Source\PSoC4/BLE_1.c **** ##Function Name: CyBle_ServiceInit
 191:.\Generated_Source\PSoC4/BLE_1.c **** *******************************************************************************
 192:.\Generated_Source\PSoC4/BLE_1.c **** 
 193:.\Generated_Source\PSoC4/BLE_1.c **** Summary:
 194:.\Generated_Source\PSoC4/BLE_1.c ****  Initializes all included services.
 195:.\Generated_Source\PSoC4/BLE_1.c **** 
 196:.\Generated_Source\PSoC4/BLE_1.c **** Parameters:
 197:.\Generated_Source\PSoC4/BLE_1.c ****  None
 198:.\Generated_Source\PSoC4/BLE_1.c **** 
 199:.\Generated_Source\PSoC4/BLE_1.c **** Return:
 200:.\Generated_Source\PSoC4/BLE_1.c ****  None
 201:.\Generated_Source\PSoC4/BLE_1.c **** 
 202:.\Generated_Source\PSoC4/BLE_1.c **** ******************************************************************************/
 203:.\Generated_Source\PSoC4/BLE_1.c **** void CyBle_ServiceInit(void)
 204:.\Generated_Source\PSoC4/BLE_1.c **** {
ARM GAS  C:\Users\danielpi\AppData\Local\Temp\ccfzId9l.s 			page 5


 205:.\Generated_Source\PSoC4/BLE_1.c ****     #if(CYBLE_GATT_ROLE_CLIENT)
 206:.\Generated_Source\PSoC4/BLE_1.c ****         (void)memset(&cyBle_gapc, 0, sizeof(cyBle_gapc));
 207:.\Generated_Source\PSoC4/BLE_1.c ****         (void)memset(&cyBle_gattc, 0, sizeof(cyBle_gattc));
 208:.\Generated_Source\PSoC4/BLE_1.c ****     #endif /* CYBLE_GATT_ROLE_CLIENT */
 209:.\Generated_Source\PSoC4/BLE_1.c ****     
 210:.\Generated_Source\PSoC4/BLE_1.c ****     #ifdef CYBLE_ANS
 211:.\Generated_Source\PSoC4/BLE_1.c ****         CyBle_AnsInit();
 212:.\Generated_Source\PSoC4/BLE_1.c ****     #endif /* CYBLE_ANS */
 213:.\Generated_Source\PSoC4/BLE_1.c ****     
 214:.\Generated_Source\PSoC4/BLE_1.c ****     #ifdef CYBLE_BAS
 215:.\Generated_Source\PSoC4/BLE_1.c ****         CyBle_BasInit();
 216:.\Generated_Source\PSoC4/BLE_1.c ****     #endif /* CYBLE_BAS */
 217:.\Generated_Source\PSoC4/BLE_1.c ****     
 218:.\Generated_Source\PSoC4/BLE_1.c ****     #ifdef CYBLE_BLS
 219:.\Generated_Source\PSoC4/BLE_1.c ****         CyBle_BlsInit();
 220:.\Generated_Source\PSoC4/BLE_1.c ****     #endif /* CYBLE_BLS */
 221:.\Generated_Source\PSoC4/BLE_1.c ****     
 222:.\Generated_Source\PSoC4/BLE_1.c ****     #ifdef CYBLE_BMS
 223:.\Generated_Source\PSoC4/BLE_1.c ****         CyBle_BmsInit();
 224:.\Generated_Source\PSoC4/BLE_1.c ****     #endif /* CYBLE_BMS */
 225:.\Generated_Source\PSoC4/BLE_1.c ****     
 226:.\Generated_Source\PSoC4/BLE_1.c ****     #ifdef CYBLE_CGMS
 227:.\Generated_Source\PSoC4/BLE_1.c ****         CyBle_CgmsInit();
 228:.\Generated_Source\PSoC4/BLE_1.c ****     #endif /* CYBLE_CGMS */
 229:.\Generated_Source\PSoC4/BLE_1.c **** 
 230:.\Generated_Source\PSoC4/BLE_1.c ****     #ifdef CYBLE_CPS
 231:.\Generated_Source\PSoC4/BLE_1.c ****         CyBle_CpsInit();
 232:.\Generated_Source\PSoC4/BLE_1.c ****     #endif /* CYBLE_CPS */
 233:.\Generated_Source\PSoC4/BLE_1.c **** 
 234:.\Generated_Source\PSoC4/BLE_1.c ****     #ifdef CYBLE_CSCS
 235:.\Generated_Source\PSoC4/BLE_1.c ****         CyBle_CscsInit();
 236:.\Generated_Source\PSoC4/BLE_1.c ****     #endif /* CYBLE_CSCS */
 237:.\Generated_Source\PSoC4/BLE_1.c ****     
 238:.\Generated_Source\PSoC4/BLE_1.c ****     #ifdef CYBLE_CTS
 239:.\Generated_Source\PSoC4/BLE_1.c ****         CyBle_CtsInit();
 240:.\Generated_Source\PSoC4/BLE_1.c ****     #endif /* CYBLE_CTS */
 241:.\Generated_Source\PSoC4/BLE_1.c **** 
 242:.\Generated_Source\PSoC4/BLE_1.c ****     #ifdef CYBLE_DIS
 243:.\Generated_Source\PSoC4/BLE_1.c ****         CyBle_DisInit();
 244:.\Generated_Source\PSoC4/BLE_1.c ****     #endif /* CYBLE_DIS */
 245:.\Generated_Source\PSoC4/BLE_1.c **** 
 246:.\Generated_Source\PSoC4/BLE_1.c ****     #ifdef CYBLE_ESS
 247:.\Generated_Source\PSoC4/BLE_1.c ****         CyBle_EssInit();
 248:.\Generated_Source\PSoC4/BLE_1.c ****     #endif /* CYBLE_ESS */
 249:.\Generated_Source\PSoC4/BLE_1.c ****     
 250:.\Generated_Source\PSoC4/BLE_1.c ****     #ifdef CYBLE_GLS
 251:.\Generated_Source\PSoC4/BLE_1.c ****         CyBle_GlsInit();
 252:.\Generated_Source\PSoC4/BLE_1.c ****     #endif /* CYBLE_GLS */
 253:.\Generated_Source\PSoC4/BLE_1.c ****     
 254:.\Generated_Source\PSoC4/BLE_1.c ****     #ifdef CYBLE_CUSTOM
 255:.\Generated_Source\PSoC4/BLE_1.c ****         CyBle_CustomInit();
 256:.\Generated_Source\PSoC4/BLE_1.c ****     #endif /* CYBLE_CUSTOM */
 257:.\Generated_Source\PSoC4/BLE_1.c **** 
 258:.\Generated_Source\PSoC4/BLE_1.c ****     #ifdef CYBLE_HIDS
 259:.\Generated_Source\PSoC4/BLE_1.c ****         CyBle_HidsInit();
 260:.\Generated_Source\PSoC4/BLE_1.c ****     #endif /* CYBLE_HIDS */
 261:.\Generated_Source\PSoC4/BLE_1.c **** 
ARM GAS  C:\Users\danielpi\AppData\Local\Temp\ccfzId9l.s 			page 6


 262:.\Generated_Source\PSoC4/BLE_1.c ****     #ifdef CYBLE_HRS
 263:.\Generated_Source\PSoC4/BLE_1.c ****         CyBle_HrsInit();
 264:.\Generated_Source\PSoC4/BLE_1.c ****     #endif /* CYBLE_HRS */
 265:.\Generated_Source\PSoC4/BLE_1.c ****     
 266:.\Generated_Source\PSoC4/BLE_1.c ****     #ifdef CYBLE_HTS
 267:.\Generated_Source\PSoC4/BLE_1.c ****         CyBle_HtsInit();
 268:.\Generated_Source\PSoC4/BLE_1.c ****     #endif /* CYBLE_RSCS */
 269:.\Generated_Source\PSoC4/BLE_1.c **** 
 270:.\Generated_Source\PSoC4/BLE_1.c ****     #ifdef CYBLE_IAS
 271:.\Generated_Source\PSoC4/BLE_1.c ****         CyBle_IasInit();
 272:.\Generated_Source\PSoC4/BLE_1.c ****     #endif /* CYBLE_IAS */
 273:.\Generated_Source\PSoC4/BLE_1.c **** 
 274:.\Generated_Source\PSoC4/BLE_1.c ****     #ifdef CYBLE_LLS
 275:.\Generated_Source\PSoC4/BLE_1.c ****         CyBle_LlsInit();
 276:.\Generated_Source\PSoC4/BLE_1.c ****     #endif /* CYBLE_LLS */
 277:.\Generated_Source\PSoC4/BLE_1.c **** 
 278:.\Generated_Source\PSoC4/BLE_1.c ****     #ifdef CYBLE_RTUS
 279:.\Generated_Source\PSoC4/BLE_1.c ****         CyBle_RtusInit();
 280:.\Generated_Source\PSoC4/BLE_1.c ****     #endif /* CYBLE_RTUS */
 281:.\Generated_Source\PSoC4/BLE_1.c **** 
 282:.\Generated_Source\PSoC4/BLE_1.c ****     #ifdef CYBLE_LNS
 283:.\Generated_Source\PSoC4/BLE_1.c ****         CyBle_LnsInit();
 284:.\Generated_Source\PSoC4/BLE_1.c ****     #endif /* CYBLE_LNS */
 285:.\Generated_Source\PSoC4/BLE_1.c ****     
 286:.\Generated_Source\PSoC4/BLE_1.c ****     #ifdef CYBLE_PASS
 287:.\Generated_Source\PSoC4/BLE_1.c ****         CyBle_PassInit();
 288:.\Generated_Source\PSoC4/BLE_1.c ****     #endif /* CYBLE_PASS */
 289:.\Generated_Source\PSoC4/BLE_1.c ****     
 290:.\Generated_Source\PSoC4/BLE_1.c ****     #ifdef CYBLE_RSCS
 291:.\Generated_Source\PSoC4/BLE_1.c ****         CyBle_RscsInit();
 292:.\Generated_Source\PSoC4/BLE_1.c ****     #endif /* CYBLE_RSCS */
 293:.\Generated_Source\PSoC4/BLE_1.c **** 
 294:.\Generated_Source\PSoC4/BLE_1.c ****     #ifdef CYBLE_SCPS
 295:.\Generated_Source\PSoC4/BLE_1.c ****         CyBle_ScpsInit();
 296:.\Generated_Source\PSoC4/BLE_1.c ****     #endif /* CYBLE_SCPS */
 297:.\Generated_Source\PSoC4/BLE_1.c ****     
 298:.\Generated_Source\PSoC4/BLE_1.c ****     #ifdef CYBLE_TPS
 299:.\Generated_Source\PSoC4/BLE_1.c ****         CyBle_TpsInit();
 300:.\Generated_Source\PSoC4/BLE_1.c ****     #endif /* CYBLE_TPS */
 301:.\Generated_Source\PSoC4/BLE_1.c ****     
 302:.\Generated_Source\PSoC4/BLE_1.c ****     #ifdef CYBLE_UDS
 303:.\Generated_Source\PSoC4/BLE_1.c ****         CyBle_UdsInit();
 304:.\Generated_Source\PSoC4/BLE_1.c ****     #endif /* CYBLE_UDS */
 305:.\Generated_Source\PSoC4/BLE_1.c **** 
 306:.\Generated_Source\PSoC4/BLE_1.c ****     #ifdef CYBLE_WPTS
 307:.\Generated_Source\PSoC4/BLE_1.c ****         CyBle_WptsInit();
 308:.\Generated_Source\PSoC4/BLE_1.c ****     #endif /* CYBLE_WPTS */
 309:.\Generated_Source\PSoC4/BLE_1.c **** 
 310:.\Generated_Source\PSoC4/BLE_1.c ****     #ifdef CYBLE_WSS
 311:.\Generated_Source\PSoC4/BLE_1.c ****         CyBle_WssInit();
 312:.\Generated_Source\PSoC4/BLE_1.c ****     #endif /* CYBLE_WSS */
 313:.\Generated_Source\PSoC4/BLE_1.c **** }
 314:.\Generated_Source\PSoC4/BLE_1.c **** 
 315:.\Generated_Source\PSoC4/BLE_1.c **** 
 316:.\Generated_Source\PSoC4/BLE_1.c **** /******************************************************************************
 317:.\Generated_Source\PSoC4/BLE_1.c **** ##Function Name: CyBle_Start
 318:.\Generated_Source\PSoC4/BLE_1.c **** *******************************************************************************
ARM GAS  C:\Users\danielpi\AppData\Local\Temp\ccfzId9l.s 			page 7


 319:.\Generated_Source\PSoC4/BLE_1.c **** 
 320:.\Generated_Source\PSoC4/BLE_1.c **** Summary:
 321:.\Generated_Source\PSoC4/BLE_1.c ****  This function initializes the BLE Stack, which consists of the BLE Stack 
 322:.\Generated_Source\PSoC4/BLE_1.c ****  Manager, BLE Controller, and BLE Host modules. It takes care of initializing
 323:.\Generated_Source\PSoC4/BLE_1.c ****  the Profile layer, schedulers, Timer and other platform related
 324:.\Generated_Source\PSoC4/BLE_1.c ****  resources required for the BLE component. It also registers the callback 
 325:.\Generated_Source\PSoC4/BLE_1.c ****  function for BLE events that will be registered in the BLE stack.
 326:.\Generated_Source\PSoC4/BLE_1.c **** 
 327:.\Generated_Source\PSoC4/BLE_1.c ****  Note that this function does not reset the BLE Stack.
 328:.\Generated_Source\PSoC4/BLE_1.c **** 
 329:.\Generated_Source\PSoC4/BLE_1.c ****  For HCI-Mode of operation, this function will not initialize the BLE Host 
 330:.\Generated_Source\PSoC4/BLE_1.c ****  module.
 331:.\Generated_Source\PSoC4/BLE_1.c **** 
 332:.\Generated_Source\PSoC4/BLE_1.c ****  Calling this function results in the generation of CYBLE_EVT_STACK_ON event
 333:.\Generated_Source\PSoC4/BLE_1.c ****  on successful initialization of the BLE Stack.
 334:.\Generated_Source\PSoC4/BLE_1.c **** 
 335:.\Generated_Source\PSoC4/BLE_1.c **** Parameters:
 336:.\Generated_Source\PSoC4/BLE_1.c ****  callbackFunc: Event callback function to receive events from BLE stack.
 337:.\Generated_Source\PSoC4/BLE_1.c ****   CYBLE_CALLBACK_T is a function pointer type.
 338:.\Generated_Source\PSoC4/BLE_1.c **** 
 339:.\Generated_Source\PSoC4/BLE_1.c **** Return:
 340:.\Generated_Source\PSoC4/BLE_1.c ****  CYBLE_API_RESULT_T : Return value indicates if the function succeeded or 
 341:.\Generated_Source\PSoC4/BLE_1.c ****  failed. Following are the possible error codes.
 342:.\Generated_Source\PSoC4/BLE_1.c ****  <table>
 343:.\Generated_Source\PSoC4/BLE_1.c ****   Errors codes                        Description
 344:.\Generated_Source\PSoC4/BLE_1.c ****   ------------                        -----------------
 345:.\Generated_Source\PSoC4/BLE_1.c ****   CYBLE_ERROR_OK                      On successful operation.
 346:.\Generated_Source\PSoC4/BLE_1.c ****   CYBLE_ERROR_INVALID_PARAMETER       On passing a NULL pointer to the 
 347:.\Generated_Source\PSoC4/BLE_1.c ****                                        function when the BLE stack is not 
 348:.\Generated_Source\PSoC4/BLE_1.c ****                                        built in HCI mode.
 349:.\Generated_Source\PSoC4/BLE_1.c ****                                        CYBLE_ERROR_INVALID_PARAMETER
 350:.\Generated_Source\PSoC4/BLE_1.c ****                                        is never returned in HCI mode.
 351:.\Generated_Source\PSoC4/BLE_1.c ****   CYBLE_ERROR_REPEATED_ATTEMPTS       On invoking this function more
 352:.\Generated_Source\PSoC4/BLE_1.c ****                                        than once without calling
 353:.\Generated_Source\PSoC4/BLE_1.c ****                                        CyBle_Shutdown() function 
 354:.\Generated_Source\PSoC4/BLE_1.c ****                                        between calls to this function.
 355:.\Generated_Source\PSoC4/BLE_1.c ****  </table>
 356:.\Generated_Source\PSoC4/BLE_1.c **** 
 357:.\Generated_Source\PSoC4/BLE_1.c ****  Global variables:
 358:.\Generated_Source\PSoC4/BLE_1.c ****   The BLE_1_intiVar variable is used to indicate initial
 359:.\Generated_Source\PSoC4/BLE_1.c ****   configuration of this component. The variable is initialized to zero (0u)
 360:.\Generated_Source\PSoC4/BLE_1.c ****   and set to one (1u) the first time BLE_1_Start() is called. This
 361:.\Generated_Source\PSoC4/BLE_1.c ****   allows for component initialization without re-initialization in all
 362:.\Generated_Source\PSoC4/BLE_1.c ****   subsequent calls to the BLE_1_Start() routine.
 363:.\Generated_Source\PSoC4/BLE_1.c **** 
 364:.\Generated_Source\PSoC4/BLE_1.c **** ******************************************************************************/
 365:.\Generated_Source\PSoC4/BLE_1.c **** CYBLE_API_RESULT_T CyBle_Start(CYBLE_CALLBACK_T callbackFunc)
 366:.\Generated_Source\PSoC4/BLE_1.c **** {
 367:.\Generated_Source\PSoC4/BLE_1.c ****     CYBLE_API_RESULT_T apiResult = CYBLE_ERROR_INVALID_PARAMETER;
 368:.\Generated_Source\PSoC4/BLE_1.c ****     
 369:.\Generated_Source\PSoC4/BLE_1.c ****     /* If not initialized then initialize all the required hardware and software */
 370:.\Generated_Source\PSoC4/BLE_1.c ****     if(cyBle_initVar == 0u)
 371:.\Generated_Source\PSoC4/BLE_1.c ****     {
 372:.\Generated_Source\PSoC4/BLE_1.c ****         CyBle_Init();
 373:.\Generated_Source\PSoC4/BLE_1.c ****         cyBle_initVar = 1u;
 374:.\Generated_Source\PSoC4/BLE_1.c ****     }
 375:.\Generated_Source\PSoC4/BLE_1.c ****     
ARM GAS  C:\Users\danielpi\AppData\Local\Temp\ccfzId9l.s 			page 8


 376:.\Generated_Source\PSoC4/BLE_1.c ****     if(callbackFunc != NULL)
 377:.\Generated_Source\PSoC4/BLE_1.c ****     {
 378:.\Generated_Source\PSoC4/BLE_1.c ****     #if(CYBLE_MODE_PROFILE)
 379:.\Generated_Source\PSoC4/BLE_1.c ****         CYBLE_STK_APP_DATA_BUFF_T dataBuff[CYBLE_STACK_BUF_COUNT] = 
 380:.\Generated_Source\PSoC4/BLE_1.c ****         {
 381:.\Generated_Source\PSoC4/BLE_1.c ****             {CYBLE_GATT_MTU_PLUS_L2CAP_MEM_EXT, CYBLE_GATT_MTU_BUF_COUNT},
 382:.\Generated_Source\PSoC4/BLE_1.c ****             {CYBLE_GATT_MAX_ATTR_LEN_PLUS_L2CAP_MEM_EXT, 1u},
 383:.\Generated_Source\PSoC4/BLE_1.c ****             {CYBLE_L2CAP_PSM_PLUS_L2CAP_MEM_EXT, CYBLE_L2CAP_PSM_COUNT},
 384:.\Generated_Source\PSoC4/BLE_1.c ****             {CYBLE_L2CAP_CBFC_PLUS_L2CAP_MEM_EXT, CYBLE_L2CAP_LOGICAL_CHANNEL_COUNT},
 385:.\Generated_Source\PSoC4/BLE_1.c ****             {CYBLE_L2CAP_MTU_PLUS_L2CAP_MEM_EXT, CYBLE_L2CAP_LOGICAL_CHANNEL_COUNT},
 386:.\Generated_Source\PSoC4/BLE_1.c ****             {CYBLE_L2CAP_MPS_PLUS_L2CAP_MEM_EXT, CYBLE_L2CAP_LOGICAL_CHANNEL_COUNT * (CYBLE_L2CAP_M
 387:.\Generated_Source\PSoC4/BLE_1.c ****         }; 
 388:.\Generated_Source\PSoC4/BLE_1.c ****     
 389:.\Generated_Source\PSoC4/BLE_1.c ****         apiResult = CyBle_StackInit(&CyBle_EventHandler, cyBle_stackMemoryRam, CYBLE_STACK_RAM_SIZE
 390:.\Generated_Source\PSoC4/BLE_1.c ****             dataBuff, CYBLE_STACK_BUF_COUNT, cyBle_StackFlashptr,CYBLE_STACK_FLASH_SIZE);
 391:.\Generated_Source\PSoC4/BLE_1.c ****     #else
 392:.\Generated_Source\PSoC4/BLE_1.c ****         apiResult = CyBle_StackInit(&CyBle_EventHandler, cyBle_stackMemoryRam, CYBLE_STACK_RAM_SIZE
 393:.\Generated_Source\PSoC4/BLE_1.c ****             NULL, 0u, NULL, 0u);
 394:.\Generated_Source\PSoC4/BLE_1.c ****     #endif /* CYBLE_MODE_PROFILE */  
 395:.\Generated_Source\PSoC4/BLE_1.c **** 
 396:.\Generated_Source\PSoC4/BLE_1.c ****         CyBle_ApplCallback = callbackFunc;
 397:.\Generated_Source\PSoC4/BLE_1.c ****         
 398:.\Generated_Source\PSoC4/BLE_1.c **** 
 399:.\Generated_Source\PSoC4/BLE_1.c ****         if(apiResult == CYBLE_ERROR_OK)
 400:.\Generated_Source\PSoC4/BLE_1.c ****         {
 401:.\Generated_Source\PSoC4/BLE_1.c ****             CyBle_SetState(CYBLE_STATE_INITIALIZING);
 402:.\Generated_Source\PSoC4/BLE_1.c ****             
 403:.\Generated_Source\PSoC4/BLE_1.c ****         #if (CYBLE_GATT_ROLE_CLIENT)
 404:.\Generated_Source\PSoC4/BLE_1.c ****             CyBle_SetClientState(CYBLE_CLIENT_STATE_DISCONNECTED);
 405:.\Generated_Source\PSoC4/BLE_1.c ****         #endif /* CYBLE_GATT_ROLE_CLIENT */
 406:.\Generated_Source\PSoC4/BLE_1.c ****             
 407:.\Generated_Source\PSoC4/BLE_1.c ****         #if(CYBLE_GATT_ROLE_SERVER)
 408:.\Generated_Source\PSoC4/BLE_1.c ****             apiResult = CyBle_GattsDbRegister(cyBle_gattDB, CYBLE_GATT_DB_INDEX_COUNT, CYBLE_GATT_D
 409:.\Generated_Source\PSoC4/BLE_1.c ****         #endif /* CYBLE_GATT_ROLE_SERVER */
 410:.\Generated_Source\PSoC4/BLE_1.c ****         }
 411:.\Generated_Source\PSoC4/BLE_1.c ****     }
 412:.\Generated_Source\PSoC4/BLE_1.c **** 
 413:.\Generated_Source\PSoC4/BLE_1.c ****     return (apiResult);
 414:.\Generated_Source\PSoC4/BLE_1.c **** }
 415:.\Generated_Source\PSoC4/BLE_1.c **** 
 416:.\Generated_Source\PSoC4/BLE_1.c **** 
 417:.\Generated_Source\PSoC4/BLE_1.c **** /******************************************************************************
 418:.\Generated_Source\PSoC4/BLE_1.c **** ##Function Name: CyBle_Stop
 419:.\Generated_Source\PSoC4/BLE_1.c **** *******************************************************************************
 420:.\Generated_Source\PSoC4/BLE_1.c **** 
 421:.\Generated_Source\PSoC4/BLE_1.c **** Summary:
 422:.\Generated_Source\PSoC4/BLE_1.c ****  This function stops any ongoing operation in the BLE Stack and forces the 
 423:.\Generated_Source\PSoC4/BLE_1.c ****  BLE Stack to shut down. The only function that can be called after calling
 424:.\Generated_Source\PSoC4/BLE_1.c ****  this function is CyBle_Start(). 
 425:.\Generated_Source\PSoC4/BLE_1.c **** 
 426:.\Generated_Source\PSoC4/BLE_1.c **** Parameters:
 427:.\Generated_Source\PSoC4/BLE_1.c ****  None
 428:.\Generated_Source\PSoC4/BLE_1.c **** 
 429:.\Generated_Source\PSoC4/BLE_1.c **** Return:
 430:.\Generated_Source\PSoC4/BLE_1.c ****  None
 431:.\Generated_Source\PSoC4/BLE_1.c **** 
 432:.\Generated_Source\PSoC4/BLE_1.c **** ******************************************************************************/
ARM GAS  C:\Users\danielpi\AppData\Local\Temp\ccfzId9l.s 			page 9


 433:.\Generated_Source\PSoC4/BLE_1.c **** void CyBle_Stop(void)
 434:.\Generated_Source\PSoC4/BLE_1.c **** {
 435:.\Generated_Source\PSoC4/BLE_1.c ****     CyBle_Shutdown();                         /* Stop all ongoing activities */
 436:.\Generated_Source\PSoC4/BLE_1.c ****     CyBle_SetState(CYBLE_STATE_STOPPED);
 437:.\Generated_Source\PSoC4/BLE_1.c **** }
 438:.\Generated_Source\PSoC4/BLE_1.c **** 
 439:.\Generated_Source\PSoC4/BLE_1.c **** 
 440:.\Generated_Source\PSoC4/BLE_1.c **** #if((CYBLE_GAP_ROLE_PERIPHERAL || CYBLE_GAP_ROLE_CENTRAL) && (CYBLE_BONDING_REQUIREMENT == CYBLE_BO
 441:.\Generated_Source\PSoC4/BLE_1.c **** 
 442:.\Generated_Source\PSoC4/BLE_1.c ****     
 443:.\Generated_Source\PSoC4/BLE_1.c **** /******************************************************************************
 444:.\Generated_Source\PSoC4/BLE_1.c **** ##Function Name: CyBle_StoreBondingData
 445:.\Generated_Source\PSoC4/BLE_1.c **** *******************************************************************************
 446:.\Generated_Source\PSoC4/BLE_1.c **** 
 447:.\Generated_Source\PSoC4/BLE_1.c **** Summary:
 448:.\Generated_Source\PSoC4/BLE_1.c ****  This function writes the new bonding data from RAM to the dedicated Flash 
 449:.\Generated_Source\PSoC4/BLE_1.c ****  location as defined by the component. It performs data comparing between RAM
 450:.\Generated_Source\PSoC4/BLE_1.c ****  and Flash before writing to Flash. If there is no change between RAM and Flash
 451:.\Generated_Source\PSoC4/BLE_1.c ****  data, then no write is performed. It writes only one flash row in one call.
 452:.\Generated_Source\PSoC4/BLE_1.c ****  Application should keep calling this function till API return CYBLE_ERROR_OK. 
 453:.\Generated_Source\PSoC4/BLE_1.c ****  This function is available only when Bonding requirement is selected in
 454:.\Generated_Source\PSoC4/BLE_1.c ****  Security settings.    
 455:.\Generated_Source\PSoC4/BLE_1.c ****     
 456:.\Generated_Source\PSoC4/BLE_1.c **** Parameters:
 457:.\Generated_Source\PSoC4/BLE_1.c ****  isForceWrite:  If value is set to 0, then stack will check if flash write 
 458:.\Generated_Source\PSoC4/BLE_1.c ****                 is permissible. 
 459:.\Generated_Source\PSoC4/BLE_1.c ****  
 460:.\Generated_Source\PSoC4/BLE_1.c **** Return:
 461:.\Generated_Source\PSoC4/BLE_1.c ****  Return value is of type CYBLE_API_RESULT_T.
 462:.\Generated_Source\PSoC4/BLE_1.c ****  * CYBLE_ERROR_OK - On successful operation
 463:.\Generated_Source\PSoC4/BLE_1.c ****  * CYBLE_ERROR_FLASH_WRITE_NOT_PERMITED - Flash Write is not complete
 464:.\Generated_Source\PSoC4/BLE_1.c ****    
 465:.\Generated_Source\PSoC4/BLE_1.c ****  Side Effects:
 466:.\Generated_Source\PSoC4/BLE_1.c ****   For BLE devices with 128K of Flash memory this API will automatically 
 467:.\Generated_Source\PSoC4/BLE_1.c ****   modify the clock settings for the device.
 468:.\Generated_Source\PSoC4/BLE_1.c ****   Writing to flash requires changes to be done to the IMO (set to 48 MHz)
 469:.\Generated_Source\PSoC4/BLE_1.c ****   and HFCLK (source set to IMO) settings. The configuration is restored before
 470:.\Generated_Source\PSoC4/BLE_1.c ****   returning. This will impact the operation of most of the hardware in the
 471:.\Generated_Source\PSoC4/BLE_1.c ****   device.
 472:.\Generated_Source\PSoC4/BLE_1.c **** 
 473:.\Generated_Source\PSoC4/BLE_1.c ****  Global variables:
 474:.\Generated_Source\PSoC4/BLE_1.c ****   The BLE_1_pendingFlashWrite variable is used to detect status
 475:.\Generated_Source\PSoC4/BLE_1.c ****   of pending write to flash operation for stack data and CCCD.
 476:.\Generated_Source\PSoC4/BLE_1.c ****   This API automatically clears pending bits after write operation complete.
 477:.\Generated_Source\PSoC4/BLE_1.c ****     
 478:.\Generated_Source\PSoC4/BLE_1.c **** ******************************************************************************/
 479:.\Generated_Source\PSoC4/BLE_1.c **** CYBLE_API_RESULT_T CyBle_StoreBondingData(uint8 isForceWrite)
 480:.\Generated_Source\PSoC4/BLE_1.c **** {
 481:.\Generated_Source\PSoC4/BLE_1.c ****     CYBLE_API_RESULT_T apiResult = CYBLE_ERROR_OK;
 482:.\Generated_Source\PSoC4/BLE_1.c ****     
 483:.\Generated_Source\PSoC4/BLE_1.c ****     /* Store Stack data */
 484:.\Generated_Source\PSoC4/BLE_1.c ****     if((cyBle_pendingFlashWrite & CYBLE_PENDING_STACK_FLASH_WRITE_BIT) != 0u)
 485:.\Generated_Source\PSoC4/BLE_1.c ****     {
 486:.\Generated_Source\PSoC4/BLE_1.c ****         apiResult = CyBle_StoreStackData(isForceWrite);
 487:.\Generated_Source\PSoC4/BLE_1.c ****         if(apiResult == CYBLE_ERROR_OK)
 488:.\Generated_Source\PSoC4/BLE_1.c ****         {
 489:.\Generated_Source\PSoC4/BLE_1.c ****             cyBle_pendingFlashWrite &= (uint8)~CYBLE_PENDING_STACK_FLASH_WRITE_BIT;
ARM GAS  C:\Users\danielpi\AppData\Local\Temp\ccfzId9l.s 			page 10


 490:.\Generated_Source\PSoC4/BLE_1.c ****             /* Change apiResult if there are more pending data to store */
 491:.\Generated_Source\PSoC4/BLE_1.c ****             if((cyBle_pendingFlashWrite & CYBLE_PENDING_CCCD_FLASH_WRITE_BIT) != 0u)
 492:.\Generated_Source\PSoC4/BLE_1.c ****             {
 493:.\Generated_Source\PSoC4/BLE_1.c ****                 apiResult = CYBLE_ERROR_FLASH_WRITE_NOT_PERMITED;
 494:.\Generated_Source\PSoC4/BLE_1.c ****             }
 495:.\Generated_Source\PSoC4/BLE_1.c ****         }
 496:.\Generated_Source\PSoC4/BLE_1.c ****     }
 497:.\Generated_Source\PSoC4/BLE_1.c **** #if(CYBLE_GATT_DB_CCCD_COUNT != 0u)
 498:.\Generated_Source\PSoC4/BLE_1.c ****     /* Store CCCD values */
 499:.\Generated_Source\PSoC4/BLE_1.c ****     if( ((apiResult == CYBLE_ERROR_OK) || (isForceWrite != 0u)) && 
 500:.\Generated_Source\PSoC4/BLE_1.c ****         ((cyBle_pendingFlashWrite & CYBLE_PENDING_CCCD_FLASH_WRITE_BIT) != 0u) &&
 501:.\Generated_Source\PSoC4/BLE_1.c ****         (cyBle_connHandle.bdHandle <= CYBLE_GAP_MAX_BONDED_DEVICE))
 502:.\Generated_Source\PSoC4/BLE_1.c ****     {
 503:.\Generated_Source\PSoC4/BLE_1.c ****         apiResult = CyBle_StoreAppData(cyBle_attValuesCCCD, cyBle_attValuesCCCDFlashMemory[cyBle_co
 504:.\Generated_Source\PSoC4/BLE_1.c ****                                        CYBLE_GATT_DB_CCCD_COUNT, isForceWrite);
 505:.\Generated_Source\PSoC4/BLE_1.c ****         if(apiResult == CYBLE_ERROR_OK)
 506:.\Generated_Source\PSoC4/BLE_1.c ****         {
 507:.\Generated_Source\PSoC4/BLE_1.c ****             cyBle_pendingFlashWrite &= (uint8)~CYBLE_PENDING_CCCD_FLASH_WRITE_BIT;
 508:.\Generated_Source\PSoC4/BLE_1.c ****         }
 509:.\Generated_Source\PSoC4/BLE_1.c ****     }
 510:.\Generated_Source\PSoC4/BLE_1.c **** #endif /* CYBLE_GATT_DB_CCCD_COUNT != 0u */
 511:.\Generated_Source\PSoC4/BLE_1.c ****     return(apiResult);
 512:.\Generated_Source\PSoC4/BLE_1.c **** }
 513:.\Generated_Source\PSoC4/BLE_1.c **** 
 514:.\Generated_Source\PSoC4/BLE_1.c **** 
 515:.\Generated_Source\PSoC4/BLE_1.c **** #endif /* (CYBLE_GAP_ROLE_PERIPHERAL || CYBLE_GAP_ROLE_CENTRAL) && (CYBLE_BONDING_REQUIREMENT == CY
 516:.\Generated_Source\PSoC4/BLE_1.c **** 
 517:.\Generated_Source\PSoC4/BLE_1.c **** 
 518:.\Generated_Source\PSoC4/BLE_1.c **** #if(CYBLE_GAP_ROLE_PERIPHERAL || CYBLE_GAP_ROLE_BROADCASTER)
 519:.\Generated_Source\PSoC4/BLE_1.c **** 
 520:.\Generated_Source\PSoC4/BLE_1.c ****     /******************************************************************************
 521:.\Generated_Source\PSoC4/BLE_1.c ****     ##Function Name: CyBle_GappStartAdvertisement
 522:.\Generated_Source\PSoC4/BLE_1.c ****     *******************************************************************************
 523:.\Generated_Source\PSoC4/BLE_1.c ****     
 524:.\Generated_Source\PSoC4/BLE_1.c ****     Summary:
 525:.\Generated_Source\PSoC4/BLE_1.c ****      This function is used to start the advertisement using the advertisement data 
 526:.\Generated_Source\PSoC4/BLE_1.c ****      set in the component customizer's GUI. After invoking this API, the device 
 527:.\Generated_Source\PSoC4/BLE_1.c ****      will be available for connection by the devices configured for GAP central 
 528:.\Generated_Source\PSoC4/BLE_1.c ****      role. It is only included if the device is configured for GAP Peripheral or 
 529:.\Generated_Source\PSoC4/BLE_1.c ****      GAP Peripheral + Central role.
 530:.\Generated_Source\PSoC4/BLE_1.c ****      
 531:.\Generated_Source\PSoC4/BLE_1.c ****      On start of advertisement, GAP Peripheral receives the
 532:.\Generated_Source\PSoC4/BLE_1.c ****      CYBLE_EVT_GAPP_ADVERTISEMENT_START_STOP event. The following events are 
 533:.\Generated_Source\PSoC4/BLE_1.c ****      possible on invoking this function:
 534:.\Generated_Source\PSoC4/BLE_1.c ****      
 535:.\Generated_Source\PSoC4/BLE_1.c ****      * CYBLE_EVT_GAP_DEVICE_CONNECTED: If the device connects to remote GAP 
 536:.\Generated_Source\PSoC4/BLE_1.c ****                                          Central device
 537:.\Generated_Source\PSoC4/BLE_1.c ****      * CYBLE_EVT_TIMEOUT: If no device in GAP Central mode connects to this 
 538:.\Generated_Source\PSoC4/BLE_1.c ****                           device within the specified timeout limit. Stack 
 539:.\Generated_Source\PSoC4/BLE_1.c ****                           automatically initiate stop advertising when Slow 
 540:.\Generated_Source\PSoC4/BLE_1.c ****                           advertising was initiated, or starts Slow advertising
 541:.\Generated_Source\PSoC4/BLE_1.c ****                           after Fast advertising timeout occur.
 542:.\Generated_Source\PSoC4/BLE_1.c ****      * CYBLE_EVT_GAPP_ADVERTISEMENT_START_STOP: If device started or stopped
 543:.\Generated_Source\PSoC4/BLE_1.c ****                                                   advertising. Use CyBle_GetState()
 544:.\Generated_Source\PSoC4/BLE_1.c ****                                                   to determine the state. Sequential 
 545:.\Generated_Source\PSoC4/BLE_1.c ****                                                   advertising could be started when
 546:.\Generated_Source\PSoC4/BLE_1.c ****                                                   CYBLE_STATE_DISCONNECTED state is
ARM GAS  C:\Users\danielpi\AppData\Local\Temp\ccfzId9l.s 			page 11


 547:.\Generated_Source\PSoC4/BLE_1.c ****                                                   returned.
 548:.\Generated_Source\PSoC4/BLE_1.c **** 
 549:.\Generated_Source\PSoC4/BLE_1.c ****     Parameters:
 550:.\Generated_Source\PSoC4/BLE_1.c ****      uint8 advertisingIntervalType: Fast or slow advertising interval with timings
 551:.\Generated_Source\PSoC4/BLE_1.c ****                                     entered in Advertising settings section of the
 552:.\Generated_Source\PSoC4/BLE_1.c ****                                     customizer.
 553:.\Generated_Source\PSoC4/BLE_1.c ****      * CYBLE_ADVERTISING_FAST   0x00u
 554:.\Generated_Source\PSoC4/BLE_1.c ****      * CYBLE_ADVERTISING_SLOW   0x01u
 555:.\Generated_Source\PSoC4/BLE_1.c ****      * CYBLE_ADVERTISING_CUSTOM 0x02u
 556:.\Generated_Source\PSoC4/BLE_1.c ****     
 557:.\Generated_Source\PSoC4/BLE_1.c ****     Return:
 558:.\Generated_Source\PSoC4/BLE_1.c ****      CYBLE_API_RESULT_T : Return value indicates if the function succeeded or
 559:.\Generated_Source\PSoC4/BLE_1.c ****      failed. Following are the possible error codes.
 560:.\Generated_Source\PSoC4/BLE_1.c ****      <table>
 561:.\Generated_Source\PSoC4/BLE_1.c ****       Errors codes                        Description
 562:.\Generated_Source\PSoC4/BLE_1.c ****       ------------                        -----------
 563:.\Generated_Source\PSoC4/BLE_1.c ****       CYBLE_ERROR_OK                      On successful operation.
 564:.\Generated_Source\PSoC4/BLE_1.c ****       CYBLE_ERROR_INVALID_PARAMETER       On passing an invalid parameter.
 565:.\Generated_Source\PSoC4/BLE_1.c ****       CYBLE_ERROR_INVALID_STATE           On calling this API not in 
 566:.\Generated_Source\PSoC4/BLE_1.c ****                                           Disconnected state.
 567:.\Generated_Source\PSoC4/BLE_1.c ****      </table>
 568:.\Generated_Source\PSoC4/BLE_1.c ****     
 569:.\Generated_Source\PSoC4/BLE_1.c ****     ******************************************************************************/
 570:.\Generated_Source\PSoC4/BLE_1.c ****     CYBLE_API_RESULT_T CyBle_GappStartAdvertisement(uint8 advertisingIntervalType)
 571:.\Generated_Source\PSoC4/BLE_1.c ****     {
 572:.\Generated_Source\PSoC4/BLE_1.c ****         CYBLE_API_RESULT_T apiResult;
 573:.\Generated_Source\PSoC4/BLE_1.c ****         
 574:.\Generated_Source\PSoC4/BLE_1.c ****         if(advertisingIntervalType > CYBLE_ADVERTISING_CUSTOM)
 575:.\Generated_Source\PSoC4/BLE_1.c ****         {
 576:.\Generated_Source\PSoC4/BLE_1.c ****             apiResult = CYBLE_ERROR_INVALID_PARAMETER;
 577:.\Generated_Source\PSoC4/BLE_1.c ****         }
 578:.\Generated_Source\PSoC4/BLE_1.c ****         else if((CYBLE_STATE_DISCONNECTED == CyBle_GetState()) && ((cyBle_eventHandlerFlag & CYBLE_
 579:.\Generated_Source\PSoC4/BLE_1.c ****         {   
 580:.\Generated_Source\PSoC4/BLE_1.c ****             if(advertisingIntervalType == CYBLE_ADVERTISING_FAST)
 581:.\Generated_Source\PSoC4/BLE_1.c ****             {
 582:.\Generated_Source\PSoC4/BLE_1.c ****                 cyBle_discoveryModeInfo.advTo = CYBLE_FAST_ADV_TIMEOUT;
 583:.\Generated_Source\PSoC4/BLE_1.c ****                 cyBle_discoveryModeInfo.advParam->advIntvMin = CYBLE_FAST_ADV_INT_MIN;
 584:.\Generated_Source\PSoC4/BLE_1.c ****                 cyBle_discoveryModeInfo.advParam->advIntvMax = CYBLE_FAST_ADV_INT_MAX;
 585:.\Generated_Source\PSoC4/BLE_1.c ****             }
 586:.\Generated_Source\PSoC4/BLE_1.c ****             else if(advertisingIntervalType == CYBLE_ADVERTISING_SLOW)
 587:.\Generated_Source\PSoC4/BLE_1.c ****             {
 588:.\Generated_Source\PSoC4/BLE_1.c ****                 cyBle_discoveryModeInfo.advTo = CYBLE_SLOW_ADV_TIMEOUT;
 589:.\Generated_Source\PSoC4/BLE_1.c ****                 cyBle_discoveryModeInfo.advParam->advIntvMin = CYBLE_SLOW_ADV_INT_MIN;
 590:.\Generated_Source\PSoC4/BLE_1.c ****                 cyBle_discoveryModeInfo.advParam->advIntvMax = CYBLE_SLOW_ADV_INT_MAX;
 591:.\Generated_Source\PSoC4/BLE_1.c ****             }       
 592:.\Generated_Source\PSoC4/BLE_1.c ****             else /* Do not update advertising intervals */
 593:.\Generated_Source\PSoC4/BLE_1.c ****             {
 594:.\Generated_Source\PSoC4/BLE_1.c ****             }
 595:.\Generated_Source\PSoC4/BLE_1.c ****             cyBle_advertisingIntervalType = advertisingIntervalType;
 596:.\Generated_Source\PSoC4/BLE_1.c ****             apiResult = CyBle_GappEnterDiscoveryMode(&cyBle_discoveryModeInfo);
 597:.\Generated_Source\PSoC4/BLE_1.c ****         
 598:.\Generated_Source\PSoC4/BLE_1.c ****             if(CYBLE_ERROR_OK == apiResult)
 599:.\Generated_Source\PSoC4/BLE_1.c ****             {
 600:.\Generated_Source\PSoC4/BLE_1.c ****                 cyBle_eventHandlerFlag |= CYBLE_START_FLAG;
 601:.\Generated_Source\PSoC4/BLE_1.c ****             }
 602:.\Generated_Source\PSoC4/BLE_1.c ****         }
 603:.\Generated_Source\PSoC4/BLE_1.c ****         else
ARM GAS  C:\Users\danielpi\AppData\Local\Temp\ccfzId9l.s 			page 12


 604:.\Generated_Source\PSoC4/BLE_1.c ****         {
 605:.\Generated_Source\PSoC4/BLE_1.c ****             apiResult = CYBLE_ERROR_INVALID_STATE;
 606:.\Generated_Source\PSoC4/BLE_1.c ****         }
 607:.\Generated_Source\PSoC4/BLE_1.c **** 
 608:.\Generated_Source\PSoC4/BLE_1.c ****         return (apiResult);
 609:.\Generated_Source\PSoC4/BLE_1.c ****     }
 610:.\Generated_Source\PSoC4/BLE_1.c **** 
 611:.\Generated_Source\PSoC4/BLE_1.c ****     
 612:.\Generated_Source\PSoC4/BLE_1.c ****     /******************************************************************************
 613:.\Generated_Source\PSoC4/BLE_1.c ****     ##Function Name: CyBle_GappStopAdvertisement
 614:.\Generated_Source\PSoC4/BLE_1.c ****     *******************************************************************************
 615:.\Generated_Source\PSoC4/BLE_1.c ****     
 616:.\Generated_Source\PSoC4/BLE_1.c ****      Summary:
 617:.\Generated_Source\PSoC4/BLE_1.c ****       This function can be used to exit from discovery mode. After the execution 
 618:.\Generated_Source\PSoC4/BLE_1.c ****       of this function, there will no longer be any advertisements. On stopping 
 619:.\Generated_Source\PSoC4/BLE_1.c ****       advertising, GAP Peripheral receives CYBLE_EVT_GAPP_ADVERTISEMENT_START_STOP
 620:.\Generated_Source\PSoC4/BLE_1.c ****       event. It is expected that the application layer tracks the function call 
 621:.\Generated_Source\PSoC4/BLE_1.c ****       performed before occurrence of this event as this event can occur on making 
 622:.\Generated_Source\PSoC4/BLE_1.c ****       a call to Cy_BleGappStartAdvertisement(), CyBle_GappEnterDiscoveryMode(), 
 623:.\Generated_Source\PSoC4/BLE_1.c ****       or CyBle_GappStartAdvertisement() functions as well.
 624:.\Generated_Source\PSoC4/BLE_1.c ****       
 625:.\Generated_Source\PSoC4/BLE_1.c ****       The following event occurs on invoking this function:
 626:.\Generated_Source\PSoC4/BLE_1.c ****       * CYBLE_EVT_GAPP_ADVERTISEMENT_START_STOP
 627:.\Generated_Source\PSoC4/BLE_1.c ****     
 628:.\Generated_Source\PSoC4/BLE_1.c ****      Parameters:
 629:.\Generated_Source\PSoC4/BLE_1.c ****       None
 630:.\Generated_Source\PSoC4/BLE_1.c ****     
 631:.\Generated_Source\PSoC4/BLE_1.c ****      Return:
 632:.\Generated_Source\PSoC4/BLE_1.c ****       None
 633:.\Generated_Source\PSoC4/BLE_1.c ****     
 634:.\Generated_Source\PSoC4/BLE_1.c ****     ******************************************************************************/
 635:.\Generated_Source\PSoC4/BLE_1.c ****     void CyBle_GappStopAdvertisement(void)
 636:.\Generated_Source\PSoC4/BLE_1.c ****     {
 637:.\Generated_Source\PSoC4/BLE_1.c ****         CyBle_GappExitDiscoveryMode();
 638:.\Generated_Source\PSoC4/BLE_1.c ****         cyBle_eventHandlerFlag |= CYBLE_STOP_FLAG;
 639:.\Generated_Source\PSoC4/BLE_1.c ****     }
 640:.\Generated_Source\PSoC4/BLE_1.c ****     
 641:.\Generated_Source\PSoC4/BLE_1.c ****     
 642:.\Generated_Source\PSoC4/BLE_1.c ****     /******************************************************************************
 643:.\Generated_Source\PSoC4/BLE_1.c ****     ##Function Name: CyBle_ChangeAdDeviceAddress
 644:.\Generated_Source\PSoC4/BLE_1.c ****     *******************************************************************************
 645:.\Generated_Source\PSoC4/BLE_1.c **** 
 646:.\Generated_Source\PSoC4/BLE_1.c ****     Summary:
 647:.\Generated_Source\PSoC4/BLE_1.c ****      This API is used to set the Bluetooth device address into the advertisement 
 648:.\Generated_Source\PSoC4/BLE_1.c ****      or scan response data structure.
 649:.\Generated_Source\PSoC4/BLE_1.c **** 
 650:.\Generated_Source\PSoC4/BLE_1.c ****     Parameters:
 651:.\Generated_Source\PSoC4/BLE_1.c ****      bdAddr: Bluetooth Device address. The variable is of type CYBLE_GAP_BD_ADDR_T
 652:.\Generated_Source\PSoC4/BLE_1.c ****      uint8 dest: 0 - selects advertisement structure, not zero value selects scan 
 653:.\Generated_Source\PSoC4/BLE_1.c ****                  response structure.
 654:.\Generated_Source\PSoC4/BLE_1.c **** 
 655:.\Generated_Source\PSoC4/BLE_1.c ****     Return:
 656:.\Generated_Source\PSoC4/BLE_1.c ****      None
 657:.\Generated_Source\PSoC4/BLE_1.c ****  
 658:.\Generated_Source\PSoC4/BLE_1.c ****     ******************************************************************************/
 659:.\Generated_Source\PSoC4/BLE_1.c ****     void CyBle_ChangeAdDeviceAddress(const CYBLE_GAP_BD_ADDR_T* bdAddr, uint8 dest)
 660:.\Generated_Source\PSoC4/BLE_1.c ****     {
ARM GAS  C:\Users\danielpi\AppData\Local\Temp\ccfzId9l.s 			page 13


 661:.\Generated_Source\PSoC4/BLE_1.c ****         uint8 i;
 662:.\Generated_Source\PSoC4/BLE_1.c ****         uint8 *destBuffer = NULL;
 663:.\Generated_Source\PSoC4/BLE_1.c ****         
 664:.\Generated_Source\PSoC4/BLE_1.c ****         if(dest == 0u)      /* Destination - advertising structure */
 665:.\Generated_Source\PSoC4/BLE_1.c ****         {
 666:.\Generated_Source\PSoC4/BLE_1.c ****             #ifdef CYBLE_ADV_PKT_INDEX_BLUETOOTH_DEVICE_ADDRESS
 667:.\Generated_Source\PSoC4/BLE_1.c ****                 destBuffer = &cyBle_discoveryData.advData[CYBLE_ADV_PKT_INDEX_BLUETOOTH_DEVICE_ADDR
 668:.\Generated_Source\PSoC4/BLE_1.c ****             #endif /* CYBLE_ADV_PKT_INDEX_BLUETOOTH_DEVICE_ADDRESS */
 669:.\Generated_Source\PSoC4/BLE_1.c ****         }
 670:.\Generated_Source\PSoC4/BLE_1.c ****         else                /* Destination - scan response structure */
 671:.\Generated_Source\PSoC4/BLE_1.c ****         {
 672:.\Generated_Source\PSoC4/BLE_1.c ****             #ifdef CYBLE_SCN_PKT_INDEX_BLUETOOTH_DEVICE_ADDRESS
 673:.\Generated_Source\PSoC4/BLE_1.c ****                 destBuffer = &cyBle_scanRspData.scanRspData[CYBLE_SCN_PKT_INDEX_BLUETOOTH_DEVICE_AD
 674:.\Generated_Source\PSoC4/BLE_1.c ****             #endif /* CYBLE_SCN_PKT_INDEX_BLUETOOTH_DEVICE_ADDRESS */    
 675:.\Generated_Source\PSoC4/BLE_1.c ****         }
 676:.\Generated_Source\PSoC4/BLE_1.c ****         
 677:.\Generated_Source\PSoC4/BLE_1.c ****         if(destBuffer != NULL)
 678:.\Generated_Source\PSoC4/BLE_1.c ****         {
 679:.\Generated_Source\PSoC4/BLE_1.c ****             /* Update Device Address type */
 680:.\Generated_Source\PSoC4/BLE_1.c ****             destBuffer[0u] = bdAddr->type;
 681:.\Generated_Source\PSoC4/BLE_1.c ****             
 682:.\Generated_Source\PSoC4/BLE_1.c ****             for(i = 0u; i < CYBLE_GAP_BD_ADDR_SIZE; i++)
 683:.\Generated_Source\PSoC4/BLE_1.c ****             {
 684:.\Generated_Source\PSoC4/BLE_1.c ****                 destBuffer[i + 1u] = bdAddr->bdAddr[i];
 685:.\Generated_Source\PSoC4/BLE_1.c ****             }
 686:.\Generated_Source\PSoC4/BLE_1.c ****         }
 687:.\Generated_Source\PSoC4/BLE_1.c ****     }
 688:.\Generated_Source\PSoC4/BLE_1.c ****   
 689:.\Generated_Source\PSoC4/BLE_1.c **** #endif /* CYBLE_GAP_ROLE_PERIPHERAL || CYBLE_GAP_ROLE_BROADCASTER */
 690:.\Generated_Source\PSoC4/BLE_1.c **** 
 691:.\Generated_Source\PSoC4/BLE_1.c **** 
 692:.\Generated_Source\PSoC4/BLE_1.c **** #if(CYBLE_GAP_ROLE_CENTRAL || CYBLE_GAP_ROLE_OBSERVER)
 693:.\Generated_Source\PSoC4/BLE_1.c **** 
 694:.\Generated_Source\PSoC4/BLE_1.c ****     /******************************************************************************
 695:.\Generated_Source\PSoC4/BLE_1.c ****     ##Function Name: CyBle_GapcStartScan
 696:.\Generated_Source\PSoC4/BLE_1.c ****     *******************************************************************************
 697:.\Generated_Source\PSoC4/BLE_1.c ****     
 698:.\Generated_Source\PSoC4/BLE_1.c ****      Summary:
 699:.\Generated_Source\PSoC4/BLE_1.c ****       This function is used for discovering GAP peripheral devices that are 
 700:.\Generated_Source\PSoC4/BLE_1.c ****       available for connection. It performs the scanning routine using the 
 701:.\Generated_Source\PSoC4/BLE_1.c ****       parameters entered in the component's customizer.
 702:.\Generated_Source\PSoC4/BLE_1.c ****       
 703:.\Generated_Source\PSoC4/BLE_1.c ****       As soon as the discovery operation starts, CYBLE_EVT_GAPC_SCAN_START_STOP 
 704:.\Generated_Source\PSoC4/BLE_1.c ****       event is generated. The CYBLE_EVT_GAPC_SCAN_PROGRESS_RESULT event is 
 705:.\Generated_Source\PSoC4/BLE_1.c ****       generated when a GAP peripheral device is located. There are three discovery
 706:.\Generated_Source\PSoC4/BLE_1.c ****       procedures can be selected in the customizer's GUI:
 707:.\Generated_Source\PSoC4/BLE_1.c ****       
 708:.\Generated_Source\PSoC4/BLE_1.c ****       * Observation procedure: A device performing the observer role receives only
 709:.\Generated_Source\PSoC4/BLE_1.c ****                                advertisement data from devices irrespective of 
 710:.\Generated_Source\PSoC4/BLE_1.c ****                                their discoverable mode settings. Advertisement 
 711:.\Generated_Source\PSoC4/BLE_1.c ****                                data received is provided by the event,      
 712:.\Generated_Source\PSoC4/BLE_1.c ****                                CYBLE_EVT_GAPC_SCAN_PROGRESS_RESULT. This procedure
 713:.\Generated_Source\PSoC4/BLE_1.c ****                                requires the scanType sub parameter to be passive
 714:.\Generated_Source\PSoC4/BLE_1.c ****                                scanning. 
 715:.\Generated_Source\PSoC4/BLE_1.c ****       
 716:.\Generated_Source\PSoC4/BLE_1.c ****       * Limited Discovery procedure: A device performing the limited discovery
 717:.\Generated_Source\PSoC4/BLE_1.c ****                                      procedure receives advertisement data and 
ARM GAS  C:\Users\danielpi\AppData\Local\Temp\ccfzId9l.s 			page 14


 718:.\Generated_Source\PSoC4/BLE_1.c ****                                      scan# response data from devices in the 
 719:.\Generated_Source\PSoC4/BLE_1.c ****                                      limited discoverable mode only. Received data
 720:.\Generated_Source\PSoC4/BLE_1.c ****                                      is provided by the event, 
 721:.\Generated_Source\PSoC4/BLE_1.c ****                                      CYBLE_EVT_GAPC_SCAN_PROGRESS_RESULT. This 
 722:.\Generated_Source\PSoC4/BLE_1.c ****                                      procedure requires the scanType sub-parameter 
 723:.\Generated_Source\PSoC4/BLE_1.c ****                                      to be active scanning.
 724:.\Generated_Source\PSoC4/BLE_1.c ****       
 725:.\Generated_Source\PSoC4/BLE_1.c ****       * General Discovery procedure: A device performing the general discovery 
 726:.\Generated_Source\PSoC4/BLE_1.c ****                                      procedure receives the advertisement data and
 727:.\Generated_Source\PSoC4/BLE_1.c ****                                      scan response data from devices in both 
 728:.\Generated_Source\PSoC4/BLE_1.c ****                                      limited discoverable mode and the general 
 729:.\Generated_Source\PSoC4/BLE_1.c ****                                      discoverable mode. Received data is provided
 730:.\Generated_Source\PSoC4/BLE_1.c ****                                      by the event,
 731:.\Generated_Source\PSoC4/BLE_1.c ****                                      CYBLE_EVT_GAPC_SCAN_PROGRESS_RESULT. This 
 732:.\Generated_Source\PSoC4/BLE_1.c ****                                      procedure requires the scanType sub-parameter
 733:.\Generated_Source\PSoC4/BLE_1.c ****                                      to be active scanning.
 734:.\Generated_Source\PSoC4/BLE_1.c ****       
 735:.\Generated_Source\PSoC4/BLE_1.c ****       Every Advertisement / Scan response packet received results in a new event, 
 736:.\Generated_Source\PSoC4/BLE_1.c ****       CYBLE_EVT_GAPC_SCAN_PROGRESS_RESULT.
 737:.\Generated_Source\PSoC4/BLE_1.c ****       If 'scanTo' sub-parameter is a non-zero value, then upon commencement of 
 738:.\Generated_Source\PSoC4/BLE_1.c ****       discovery procedure and elapsed time = 'scanTo', CYBLE_EVT_TIMEOUT event
 739:.\Generated_Source\PSoC4/BLE_1.c ****       is generated with the event parameter indicating CYBLE_GAP_SCAN_TO.
 740:.\Generated_Source\PSoC4/BLE_1.c ****       Possible generated events are:
 741:.\Generated_Source\PSoC4/BLE_1.c ****       * CYBLE_EVT_GAPC_SCAN_START_STOP: If a device started or stopped scanning. 
 742:.\Generated_Source\PSoC4/BLE_1.c ****                                         Use CyBle_GetState() to determine the 
 743:.\Generated_Source\PSoC4/BLE_1.c ****                                         state. Sequential scanning could be 
 744:.\Generated_Source\PSoC4/BLE_1.c ****                                         started when CYBLE_STATE_DISCONNECTED 
 745:.\Generated_Source\PSoC4/BLE_1.c ****                                         state is returned. 
 746:.\Generated_Source\PSoC4/BLE_1.c ****       * CYBLE_EVT_GAPC_SCAN_PROGRESS_RESULT 
 747:.\Generated_Source\PSoC4/BLE_1.c ****       * CYBLE_EVT_TIMEOUT (CYBLE_GAP_SCAN_TO)
 748:.\Generated_Source\PSoC4/BLE_1.c ****     
 749:.\Generated_Source\PSoC4/BLE_1.c ****      Parameters:
 750:.\Generated_Source\PSoC4/BLE_1.c ****       uint8 scanningIntervalType:  Fast or slow scanning interval with
 751:.\Generated_Source\PSoC4/BLE_1.c ****           timings entered in Scan settings section of the customizer.
 752:.\Generated_Source\PSoC4/BLE_1.c ****     	  * CYBLE_SCANNING_FAST   0x00u
 753:.\Generated_Source\PSoC4/BLE_1.c ****     	  * CYBLE_SCANNING_SLOW   0x01u
 754:.\Generated_Source\PSoC4/BLE_1.c ****     	  * CYBLE_SCANNING_CUSTOM 0x02u
 755:.\Generated_Source\PSoC4/BLE_1.c ****     
 756:.\Generated_Source\PSoC4/BLE_1.c ****     Return:
 757:.\Generated_Source\PSoC4/BLE_1.c ****      CYBLE_API_RESULT_T : Return value indicates if the function succeeded or
 758:.\Generated_Source\PSoC4/BLE_1.c ****      failed. Following are the possible error codes.
 759:.\Generated_Source\PSoC4/BLE_1.c ****      <table>
 760:.\Generated_Source\PSoC4/BLE_1.c ****       Errors codes                        Description
 761:.\Generated_Source\PSoC4/BLE_1.c ****       ------------                        -----------
 762:.\Generated_Source\PSoC4/BLE_1.c ****       CYBLE_ERROR_OK                      On successful operation.
 763:.\Generated_Source\PSoC4/BLE_1.c ****       CYBLE_ERROR_STACK_INTERNAL          An error occurred in the BLE stack.
 764:.\Generated_Source\PSoC4/BLE_1.c ****       CYBLE_ERROR_INVALID_PARAMETER       On passing an invalid parameter.
 765:.\Generated_Source\PSoC4/BLE_1.c ****      </table>
 766:.\Generated_Source\PSoC4/BLE_1.c ****      
 767:.\Generated_Source\PSoC4/BLE_1.c ****     ******************************************************************************/
 768:.\Generated_Source\PSoC4/BLE_1.c ****     CYBLE_API_RESULT_T CyBle_GapcStartScan(uint8 scanningIntervalType)
 769:.\Generated_Source\PSoC4/BLE_1.c ****     {
 770:.\Generated_Source\PSoC4/BLE_1.c ****         CYBLE_API_RESULT_T apiResult;
 771:.\Generated_Source\PSoC4/BLE_1.c **** 
 772:.\Generated_Source\PSoC4/BLE_1.c ****         if(scanningIntervalType > CYBLE_SCANNING_CUSTOM)
 773:.\Generated_Source\PSoC4/BLE_1.c ****         {
 774:.\Generated_Source\PSoC4/BLE_1.c ****             apiResult = CYBLE_ERROR_INVALID_PARAMETER;
ARM GAS  C:\Users\danielpi\AppData\Local\Temp\ccfzId9l.s 			page 15


 775:.\Generated_Source\PSoC4/BLE_1.c ****         }
 776:.\Generated_Source\PSoC4/BLE_1.c ****         else
 777:.\Generated_Source\PSoC4/BLE_1.c ****         {
 778:.\Generated_Source\PSoC4/BLE_1.c ****             if(scanningIntervalType == CYBLE_SCANNING_FAST)
 779:.\Generated_Source\PSoC4/BLE_1.c ****             {
 780:.\Generated_Source\PSoC4/BLE_1.c ****                 cyBle_discoveryInfo.scanTo = CYBLE_FAST_SCAN_TIMEOUT;
 781:.\Generated_Source\PSoC4/BLE_1.c ****                 cyBle_discoveryInfo.scanIntv = CYBLE_FAST_SCAN_INTERVAL;
 782:.\Generated_Source\PSoC4/BLE_1.c ****                 cyBle_discoveryInfo.scanWindow = CYBLE_FAST_SCAN_WINDOW;
 783:.\Generated_Source\PSoC4/BLE_1.c ****             }
 784:.\Generated_Source\PSoC4/BLE_1.c ****             else if(scanningIntervalType == CYBLE_SCANNING_SLOW)
 785:.\Generated_Source\PSoC4/BLE_1.c ****             {
 786:.\Generated_Source\PSoC4/BLE_1.c ****                 cyBle_discoveryInfo.scanTo = CYBLE_SLOW_SCAN_TIMEOUT;
 787:.\Generated_Source\PSoC4/BLE_1.c ****                 cyBle_discoveryInfo.scanIntv = CYBLE_SLOW_SCAN_INTERVAL;
 788:.\Generated_Source\PSoC4/BLE_1.c ****                 cyBle_discoveryInfo.scanWindow = CYBLE_SLOW_SCAN_WINDOW;
 789:.\Generated_Source\PSoC4/BLE_1.c ****             }       
 790:.\Generated_Source\PSoC4/BLE_1.c ****             else /* Do not update scanning intervals */
 791:.\Generated_Source\PSoC4/BLE_1.c ****             {
 792:.\Generated_Source\PSoC4/BLE_1.c ****             }
 793:.\Generated_Source\PSoC4/BLE_1.c ****             
 794:.\Generated_Source\PSoC4/BLE_1.c ****             cyBle_scanningIntervalType = scanningIntervalType;
 795:.\Generated_Source\PSoC4/BLE_1.c ****             apiResult = CyBle_GapcStartDiscovery(&cyBle_discoveryInfo);
 796:.\Generated_Source\PSoC4/BLE_1.c ****         
 797:.\Generated_Source\PSoC4/BLE_1.c ****             if(CYBLE_ERROR_OK == apiResult)
 798:.\Generated_Source\PSoC4/BLE_1.c ****             {
 799:.\Generated_Source\PSoC4/BLE_1.c ****                 cyBle_eventHandlerFlag |= CYBLE_START_FLAG;
 800:.\Generated_Source\PSoC4/BLE_1.c ****             }
 801:.\Generated_Source\PSoC4/BLE_1.c ****         }
 802:.\Generated_Source\PSoC4/BLE_1.c ****        
 803:.\Generated_Source\PSoC4/BLE_1.c ****         return (apiResult);
 804:.\Generated_Source\PSoC4/BLE_1.c ****     }
 805:.\Generated_Source\PSoC4/BLE_1.c ****     
 806:.\Generated_Source\PSoC4/BLE_1.c ****     
 807:.\Generated_Source\PSoC4/BLE_1.c ****     /******************************************************************************
 808:.\Generated_Source\PSoC4/BLE_1.c ****     ##Function Name: CyBle_GapcStopScan
 809:.\Generated_Source\PSoC4/BLE_1.c ****     *******************************************************************************
 810:.\Generated_Source\PSoC4/BLE_1.c ****     
 811:.\Generated_Source\PSoC4/BLE_1.c ****      Summary:
 812:.\Generated_Source\PSoC4/BLE_1.c ****       This function used to stop the discovery of devices. On stopping discovery
 813:.\Generated_Source\PSoC4/BLE_1.c ****       operation, CYBLE_EVT_GAPC_SCAN_START_STOP event is generated. Application
 814:.\Generated_Source\PSoC4/BLE_1.c ****       layer needs to keep track of the function call made before receiving this
 815:.\Generated_Source\PSoC4/BLE_1.c ****       event to associate this event with either the start or stop discovery
 816:.\Generated_Source\PSoC4/BLE_1.c ****       function.
 817:.\Generated_Source\PSoC4/BLE_1.c ****     
 818:.\Generated_Source\PSoC4/BLE_1.c ****       Possible events generated are:
 819:.\Generated_Source\PSoC4/BLE_1.c ****        * CYBLE_EVT_GAPC_SCAN_START_STOP
 820:.\Generated_Source\PSoC4/BLE_1.c ****     
 821:.\Generated_Source\PSoC4/BLE_1.c ****      Parameters:
 822:.\Generated_Source\PSoC4/BLE_1.c ****       None
 823:.\Generated_Source\PSoC4/BLE_1.c ****     
 824:.\Generated_Source\PSoC4/BLE_1.c ****      Return:
 825:.\Generated_Source\PSoC4/BLE_1.c ****       None
 826:.\Generated_Source\PSoC4/BLE_1.c ****     
 827:.\Generated_Source\PSoC4/BLE_1.c ****     ******************************************************************************/
 828:.\Generated_Source\PSoC4/BLE_1.c ****     void CyBle_GapcStopScan(void)
 829:.\Generated_Source\PSoC4/BLE_1.c ****     {
 830:.\Generated_Source\PSoC4/BLE_1.c ****         CyBle_GapcStopDiscovery();
 831:.\Generated_Source\PSoC4/BLE_1.c ****         
ARM GAS  C:\Users\danielpi\AppData\Local\Temp\ccfzId9l.s 			page 16


 832:.\Generated_Source\PSoC4/BLE_1.c ****         cyBle_eventHandlerFlag |= CYBLE_STOP_FLAG;
 833:.\Generated_Source\PSoC4/BLE_1.c ****     }
 834:.\Generated_Source\PSoC4/BLE_1.c **** 
 835:.\Generated_Source\PSoC4/BLE_1.c ****     
 836:.\Generated_Source\PSoC4/BLE_1.c **** #endif /* CYBLE_GAP_ROLE_CENTRAL || CYBLE_GAP_ROLE_OBSERVER */
 837:.\Generated_Source\PSoC4/BLE_1.c **** 
 838:.\Generated_Source\PSoC4/BLE_1.c **** 
 839:.\Generated_Source\PSoC4/BLE_1.c **** #if(CYBLE_GAP_ROLE_CENTRAL)
 840:.\Generated_Source\PSoC4/BLE_1.c **** 
 841:.\Generated_Source\PSoC4/BLE_1.c ****     /******************************************************************************
 842:.\Generated_Source\PSoC4/BLE_1.c ****     ##Function Name: CyBle_GapcConnectDevice
 843:.\Generated_Source\PSoC4/BLE_1.c ****     *******************************************************************************
 844:.\Generated_Source\PSoC4/BLE_1.c ****     
 845:.\Generated_Source\PSoC4/BLE_1.c ****     Summary:
 846:.\Generated_Source\PSoC4/BLE_1.c ****      This function is used to send a connection request to the remote device with
 847:.\Generated_Source\PSoC4/BLE_1.c ****      the connection parameters set in the component customizer. This function needs
 848:.\Generated_Source\PSoC4/BLE_1.c ****      to be called only once after the target device is discovered by 
 849:.\Generated_Source\PSoC4/BLE_1.c ****      CyBle_GapcStartScan() and further scanning has stopped. Scanning is 
 850:.\Generated_Source\PSoC4/BLE_1.c ****      successfully stopped on invoking CyBle_GapcStopScan() and then receiving the
 851:.\Generated_Source\PSoC4/BLE_1.c ****      event CYBLE_EVT_GAPC_SCAN_START_STOP with sub-parameter 'success' = 0x01u.
 852:.\Generated_Source\PSoC4/BLE_1.c ****      
 853:.\Generated_Source\PSoC4/BLE_1.c ****      On successful connection, the following events are generated at the GAP 
 854:.\Generated_Source\PSoC4/BLE_1.c ****      Central device (as well as the GAP Peripheral device), in the following order.
 855:.\Generated_Source\PSoC4/BLE_1.c ****      * CYBLE_EVT_GATT_CONNECT_IND
 856:.\Generated_Source\PSoC4/BLE_1.c ****      * CYBLE_EVT_GAP_DEVICE_CONNECTED
 857:.\Generated_Source\PSoC4/BLE_1.c ****  
 858:.\Generated_Source\PSoC4/BLE_1.c ****      A procedure is considered to have timed out if a connection response packet is 
 859:.\Generated_Source\PSoC4/BLE_1.c ****      not received within time set by cyBle_connectingTimeout global variable
 860:.\Generated_Source\PSoC4/BLE_1.c ****      (30 seconds by default). CYBLE_EVT_TIMEOUT event with CYBLE_GENERIC_TO parameter
 861:.\Generated_Source\PSoC4/BLE_1.c ****      will indicate about connection procedure timeout. Connection will automatically
 862:.\Generated_Source\PSoC4/BLE_1.c ****      be canceled and state will be changed to CYBLE_STATE_DISCONNECTED.
 863:.\Generated_Source\PSoC4/BLE_1.c ****     
 864:.\Generated_Source\PSoC4/BLE_1.c ****     Parameters:
 865:.\Generated_Source\PSoC4/BLE_1.c ****      const CYBLE_GAP_BD_ADDR_T address: The device address of the remote device to 
 866:.\Generated_Source\PSoC4/BLE_1.c ****                                         connect to. 
 867:.\Generated_Source\PSoC4/BLE_1.c ****      timeout: Timeout for which timer to be started in seconds.
 868:.\Generated_Source\PSoC4/BLE_1.c ****  
 869:.\Generated_Source\PSoC4/BLE_1.c ****     Return:
 870:.\Generated_Source\PSoC4/BLE_1.c ****      CYBLE_API_RESULT_T : Return value indicates if the function succeeded or 
 871:.\Generated_Source\PSoC4/BLE_1.c ****      failed. Following are the possible error codes.
 872:.\Generated_Source\PSoC4/BLE_1.c ****      <table>
 873:.\Generated_Source\PSoC4/BLE_1.c ****       Errors codes                        Description
 874:.\Generated_Source\PSoC4/BLE_1.c ****       ------------                        -----------
 875:.\Generated_Source\PSoC4/BLE_1.c ****       CYBLE_ERROR_OK                      On successful operation.
 876:.\Generated_Source\PSoC4/BLE_1.c ****       CYBLE_ERROR_STACK_INTERNAL          On error occurred in the BLE stack.
 877:.\Generated_Source\PSoC4/BLE_1.c ****       CYBLE_ERROR_INVALID_PARAMETER       On passing an invalid parameter.
 878:.\Generated_Source\PSoC4/BLE_1.c ****       CYBLE_ERROR_INVALID_STATE           On calling this API not in 
 879:.\Generated_Source\PSoC4/BLE_1.c ****                                           Disconnected state.
 880:.\Generated_Source\PSoC4/BLE_1.c ****      </table>
 881:.\Generated_Source\PSoC4/BLE_1.c ****  
 882:.\Generated_Source\PSoC4/BLE_1.c ****     ******************************************************************************/
 883:.\Generated_Source\PSoC4/BLE_1.c ****     CYBLE_API_RESULT_T CyBle_GapcConnectDevice(const CYBLE_GAP_BD_ADDR_T * address)
 884:.\Generated_Source\PSoC4/BLE_1.c ****     {
 885:.\Generated_Source\PSoC4/BLE_1.c ****         CYBLE_API_RESULT_T apiResult;
 886:.\Generated_Source\PSoC4/BLE_1.c ****         uint8 i;
 887:.\Generated_Source\PSoC4/BLE_1.c **** 
 888:.\Generated_Source\PSoC4/BLE_1.c ****         if(CYBLE_STATE_DISCONNECTED != CyBle_GetState())
ARM GAS  C:\Users\danielpi\AppData\Local\Temp\ccfzId9l.s 			page 17


 889:.\Generated_Source\PSoC4/BLE_1.c ****         {
 890:.\Generated_Source\PSoC4/BLE_1.c ****             apiResult = CYBLE_ERROR_INVALID_STATE;
 891:.\Generated_Source\PSoC4/BLE_1.c ****         }
 892:.\Generated_Source\PSoC4/BLE_1.c ****         else if(address == NULL)
 893:.\Generated_Source\PSoC4/BLE_1.c ****         {
 894:.\Generated_Source\PSoC4/BLE_1.c ****             apiResult = CYBLE_ERROR_INVALID_PARAMETER;
 895:.\Generated_Source\PSoC4/BLE_1.c ****         }
 896:.\Generated_Source\PSoC4/BLE_1.c ****         else
 897:.\Generated_Source\PSoC4/BLE_1.c ****         {
 898:.\Generated_Source\PSoC4/BLE_1.c ****             for(i = 0u; i < CYBLE_GAP_BD_ADDR_SIZE; i++)
 899:.\Generated_Source\PSoC4/BLE_1.c ****             {
 900:.\Generated_Source\PSoC4/BLE_1.c ****                 cyBle_connectionParameters.peerBdAddr[i] = address->bdAddr[i];
 901:.\Generated_Source\PSoC4/BLE_1.c ****             }
 902:.\Generated_Source\PSoC4/BLE_1.c ****             cyBle_connectionParameters.peerAddrType = address -> type;
 903:.\Generated_Source\PSoC4/BLE_1.c ****             apiResult = CyBle_GapcInitConnection(&cyBle_connectionParameters);
 904:.\Generated_Source\PSoC4/BLE_1.c ****             
 905:.\Generated_Source\PSoC4/BLE_1.c ****             if(CYBLE_ERROR_OK == apiResult)
 906:.\Generated_Source\PSoC4/BLE_1.c ****             {
 907:.\Generated_Source\PSoC4/BLE_1.c ****                 CyBle_SetState(CYBLE_STATE_CONNECTING);
 908:.\Generated_Source\PSoC4/BLE_1.c ****                 if(cyBle_connectingTimeout != 0u)
 909:.\Generated_Source\PSoC4/BLE_1.c ****                 {
 910:.\Generated_Source\PSoC4/BLE_1.c ****                     (void)CyBle_StartTimer(cyBle_connectingTimeout);
 911:.\Generated_Source\PSoC4/BLE_1.c ****                 }
 912:.\Generated_Source\PSoC4/BLE_1.c ****             }
 913:.\Generated_Source\PSoC4/BLE_1.c ****         }
 914:.\Generated_Source\PSoC4/BLE_1.c ****         return (apiResult);
 915:.\Generated_Source\PSoC4/BLE_1.c ****     }
 916:.\Generated_Source\PSoC4/BLE_1.c ****     
 917:.\Generated_Source\PSoC4/BLE_1.c **** 
 918:.\Generated_Source\PSoC4/BLE_1.c ****     /******************************************************************************
 919:.\Generated_Source\PSoC4/BLE_1.c ****     ##Function Name: CyBle_GapcCancelDeviceConnection
 920:.\Generated_Source\PSoC4/BLE_1.c ****     *******************************************************************************
 921:.\Generated_Source\PSoC4/BLE_1.c ****     
 922:.\Generated_Source\PSoC4/BLE_1.c ****     Summary:
 923:.\Generated_Source\PSoC4/BLE_1.c ****      This function cancels a previously initiated connection with the remote 
 924:.\Generated_Source\PSoC4/BLE_1.c ****      device. It is a blocking function. No event is generated on calling this 
 925:.\Generated_Source\PSoC4/BLE_1.c ****      function. If the devices are already connected then this function should not
 926:.\Generated_Source\PSoC4/BLE_1.c ****      be used. If you intend to disconnect from an existing connection, the function
 927:.\Generated_Source\PSoC4/BLE_1.c ****      CyBle_GapDisconnect() should be used.
 928:.\Generated_Source\PSoC4/BLE_1.c **** 
 929:.\Generated_Source\PSoC4/BLE_1.c ****     Parameters:
 930:.\Generated_Source\PSoC4/BLE_1.c ****      None
 931:.\Generated_Source\PSoC4/BLE_1.c **** 
 932:.\Generated_Source\PSoC4/BLE_1.c ****     Return:
 933:.\Generated_Source\PSoC4/BLE_1.c ****      CYBLE_API_RESULT_T : Return value indicates if the function succeeded or 
 934:.\Generated_Source\PSoC4/BLE_1.c ****      failed. Following are the possible error codes.
 935:.\Generated_Source\PSoC4/BLE_1.c ****      <table>
 936:.\Generated_Source\PSoC4/BLE_1.c ****       Errors codes                        Description
 937:.\Generated_Source\PSoC4/BLE_1.c ****       ------------                        -----------
 938:.\Generated_Source\PSoC4/BLE_1.c ****       CYBLE_ERROR_OK                      On successful operation.
 939:.\Generated_Source\PSoC4/BLE_1.c ****       CYBLE_ERROR_STACK_INTERNAL          An error occurred in the 
 940:.\Generated_Source\PSoC4/BLE_1.c ****                                            BLE stack.
 941:.\Generated_Source\PSoC4/BLE_1.c ****       CYBLE_ERROR_INVALID_OPERATION       Device is already connected.
 942:.\Generated_Source\PSoC4/BLE_1.c ****      </table>
 943:.\Generated_Source\PSoC4/BLE_1.c ****  
 944:.\Generated_Source\PSoC4/BLE_1.c ****     ******************************************************************************/
 945:.\Generated_Source\PSoC4/BLE_1.c ****     CYBLE_API_RESULT_T CyBle_GapcCancelDeviceConnection(void)
ARM GAS  C:\Users\danielpi\AppData\Local\Temp\ccfzId9l.s 			page 18


 946:.\Generated_Source\PSoC4/BLE_1.c ****     {
 947:.\Generated_Source\PSoC4/BLE_1.c ****         CYBLE_API_RESULT_T apiResult;
 948:.\Generated_Source\PSoC4/BLE_1.c ****         
 949:.\Generated_Source\PSoC4/BLE_1.c ****         apiResult = CyBle_GapcCancelConnection();
 950:.\Generated_Source\PSoC4/BLE_1.c ****             
 951:.\Generated_Source\PSoC4/BLE_1.c ****         if(cyBle_connectingTimeout != 0u)
 952:.\Generated_Source\PSoC4/BLE_1.c ****         {
 953:.\Generated_Source\PSoC4/BLE_1.c ****             (void)CyBle_StopTimer();
 954:.\Generated_Source\PSoC4/BLE_1.c ****         }
 955:.\Generated_Source\PSoC4/BLE_1.c **** 
 956:.\Generated_Source\PSoC4/BLE_1.c ****         if(CYBLE_ERROR_OK == apiResult)
 957:.\Generated_Source\PSoC4/BLE_1.c ****         {
 958:.\Generated_Source\PSoC4/BLE_1.c ****             CyBle_SetState(CYBLE_STATE_DISCONNECTED);
 959:.\Generated_Source\PSoC4/BLE_1.c ****         }
 960:.\Generated_Source\PSoC4/BLE_1.c ****         return (apiResult);
 961:.\Generated_Source\PSoC4/BLE_1.c ****     }    
 962:.\Generated_Source\PSoC4/BLE_1.c **** 
 963:.\Generated_Source\PSoC4/BLE_1.c ****     
 964:.\Generated_Source\PSoC4/BLE_1.c **** #endif /* CYBLE_GAP_ROLE_CENTRAL */
 965:.\Generated_Source\PSoC4/BLE_1.c **** 
 966:.\Generated_Source\PSoC4/BLE_1.c **** 
 967:.\Generated_Source\PSoC4/BLE_1.c **** #if(CYBLE_GATT_ROLE_SERVER)
 968:.\Generated_Source\PSoC4/BLE_1.c **** 
 969:.\Generated_Source\PSoC4/BLE_1.c **** #if(CYBLE_GAP_ROLE_PERIPHERAL)
 970:.\Generated_Source\PSoC4/BLE_1.c **** 
 971:.\Generated_Source\PSoC4/BLE_1.c ****         /******************************************************************************
 972:.\Generated_Source\PSoC4/BLE_1.c ****         ##Function Name: CyBle_ChangeAdLocalName
 973:.\Generated_Source\PSoC4/BLE_1.c ****         *******************************************************************************
 974:.\Generated_Source\PSoC4/BLE_1.c ****         Summary:
 975:.\Generated_Source\PSoC4/BLE_1.c ****          This API is used to set the local device name in the advertisement or scan 
 976:.\Generated_Source\PSoC4/BLE_1.c ****          response data structure.
 977:.\Generated_Source\PSoC4/BLE_1.c **** 
 978:.\Generated_Source\PSoC4/BLE_1.c ****         Parameters:
 979:.\Generated_Source\PSoC4/BLE_1.c ****          char8 name: The local device name string to be set in advertisement data 
 980:.\Generated_Source\PSoC4/BLE_1.c ****                    structure.
 981:.\Generated_Source\PSoC4/BLE_1.c ****          uint8 dest: 0 - advertisement structure, not zero value selects scan response
 982:.\Generated_Source\PSoC4/BLE_1.c ****                      structure.
 983:.\Generated_Source\PSoC4/BLE_1.c **** 
 984:.\Generated_Source\PSoC4/BLE_1.c ****         Return:
 985:.\Generated_Source\PSoC4/BLE_1.c ****          None
 986:.\Generated_Source\PSoC4/BLE_1.c ****      
 987:.\Generated_Source\PSoC4/BLE_1.c ****         ******************************************************************************/
 988:.\Generated_Source\PSoC4/BLE_1.c ****         static void CyBle_ChangeAdLocalName(const char8 name[], uint8 dest)
 989:.\Generated_Source\PSoC4/BLE_1.c ****         {
  25              		.loc 1 989 0
  26              		.cfi_startproc
  27              	.LVL0:
  28 0000 F0B5     		push	{r4, r5, r6, r7, lr}
  29              		.cfi_def_cfa_offset 20
  30              		.cfi_offset 4, -20
  31              		.cfi_offset 5, -16
  32              		.cfi_offset 6, -12
  33              		.cfi_offset 7, -8
  34              		.cfi_offset 14, -4
  35              	.LVL1:
 990:.\Generated_Source\PSoC4/BLE_1.c ****             uint8 i;
 991:.\Generated_Source\PSoC4/BLE_1.c ****             uint8 flag = 0u;
ARM GAS  C:\Users\danielpi\AppData\Local\Temp\ccfzId9l.s 			page 19


 992:.\Generated_Source\PSoC4/BLE_1.c ****             uint8 adLength = 0u;
 993:.\Generated_Source\PSoC4/BLE_1.c ****             uint8 byteCounter = 0u;
 994:.\Generated_Source\PSoC4/BLE_1.c ****             uint8 *destBuffer;
 995:.\Generated_Source\PSoC4/BLE_1.c ****             uint8 maxLength;
 996:.\Generated_Source\PSoC4/BLE_1.c ****             
 997:.\Generated_Source\PSoC4/BLE_1.c ****             if(dest == 0u)      /* Destination - advertising structure */
  36              		.loc 1 997 0
  37 0002 0029     		cmp	r1, #0
  38 0004 06D1     		bne	.L2
  39              	.LVL2:
 998:.\Generated_Source\PSoC4/BLE_1.c ****             {
 999:.\Generated_Source\PSoC4/BLE_1.c ****                 destBuffer = cyBle_discoveryData.advData;
1000:.\Generated_Source\PSoC4/BLE_1.c ****                 maxLength = cyBle_discoveryData.advDataLen;
  40              		.loc 1 1000 0
  41 0006 1B49     		ldr	r1, .L16
  42              	.LVL3:
  43 0008 CE7F     		ldrb	r6, [r1, #31]
  44              	.LVL4:
  45              	.L4:
1001:.\Generated_Source\PSoC4/BLE_1.c ****             }
1002:.\Generated_Source\PSoC4/BLE_1.c ****             else                /* Destination - scan response structure */
1003:.\Generated_Source\PSoC4/BLE_1.c ****             {
1004:.\Generated_Source\PSoC4/BLE_1.c ****                 destBuffer = cyBle_scanRspData.scanRspData;
1005:.\Generated_Source\PSoC4/BLE_1.c ****                 maxLength = cyBle_scanRspData.scanRspDataLen;
1006:.\Generated_Source\PSoC4/BLE_1.c ****             }
1007:.\Generated_Source\PSoC4/BLE_1.c ****             
1008:.\Generated_Source\PSoC4/BLE_1.c ****             while((byteCounter < maxLength) && (0u == flag))
1009:.\Generated_Source\PSoC4/BLE_1.c ****             {
1010:.\Generated_Source\PSoC4/BLE_1.c ****                 adLength = destBuffer[byteCounter];
1011:.\Generated_Source\PSoC4/BLE_1.c ****                 
1012:.\Generated_Source\PSoC4/BLE_1.c ****                 if(0u != adLength)
1013:.\Generated_Source\PSoC4/BLE_1.c ****                 {
1014:.\Generated_Source\PSoC4/BLE_1.c ****                     /* Increment byte counter so it can point to AD type */
1015:.\Generated_Source\PSoC4/BLE_1.c ****                     byteCounter++;
1016:.\Generated_Source\PSoC4/BLE_1.c ****                     
1017:.\Generated_Source\PSoC4/BLE_1.c ****                     if((CYBLE_SHORT_LOCAL_NAME == destBuffer[byteCounter]) || 
1018:.\Generated_Source\PSoC4/BLE_1.c ****                        (CYBLE_COMPLETE_LOCAL_NAME == destBuffer[byteCounter]))
1019:.\Generated_Source\PSoC4/BLE_1.c ****                     {
1020:.\Generated_Source\PSoC4/BLE_1.c ****                         /* Start of the Local Name AD type was fount. Set flag and exit the loop. *
1021:.\Generated_Source\PSoC4/BLE_1.c ****                         flag = 1u;
  46              		.loc 1 1021 0 discriminator 1
  47 000a 0023     		mov	r3, #0
  48 000c 0022     		mov	r2, #0
  49 000e 0025     		mov	r5, #0
  50 0010 0127     		mov	r7, #1
  51 0012 10E0     		b	.L14
  52              	.LVL5:
  53              	.L2:
1005:.\Generated_Source\PSoC4/BLE_1.c ****                 maxLength = cyBle_scanRspData.scanRspDataLen;
  54              		.loc 1 1005 0
  55 0014 1749     		ldr	r1, .L16
  56              	.LVL6:
  57 0016 2031     		add	r1, r1, #32
  58 0018 CE7F     		ldrb	r6, [r1, #31]
  59              	.LVL7:
  60 001a F6E7     		b	.L4
  61              	.LVL8:
ARM GAS  C:\Users\danielpi\AppData\Local\Temp\ccfzId9l.s 			page 20


  62              	.L7:
1010:.\Generated_Source\PSoC4/BLE_1.c ****                 adLength = destBuffer[byteCounter];
  63              		.loc 1 1010 0
  64 001c CA5C     		ldrb	r2, [r1, r3]
  65              	.LVL9:
1012:.\Generated_Source\PSoC4/BLE_1.c ****                 if(0u != adLength)
  66              		.loc 1 1012 0
  67 001e 002A     		cmp	r2, #0
  68 0020 0DD0     		beq	.L5
1015:.\Generated_Source\PSoC4/BLE_1.c ****                     byteCounter++;
  69              		.loc 1 1015 0
  70 0022 0133     		add	r3, r3, #1
  71              	.LVL10:
  72 0024 DBB2     		uxtb	r3, r3
  73              	.LVL11:
1017:.\Generated_Source\PSoC4/BLE_1.c ****                     if((CYBLE_SHORT_LOCAL_NAME == destBuffer[byteCounter]) || 
  74              		.loc 1 1017 0
  75 0026 CC5C     		ldrb	r4, [r1, r3]
  76 0028 083C     		sub	r4, r4, #8
  77 002a 012C     		cmp	r4, #1
  78 002c 02D9     		bls	.L13
1022:.\Generated_Source\PSoC4/BLE_1.c ****                     }
1023:.\Generated_Source\PSoC4/BLE_1.c ****                     else
1024:.\Generated_Source\PSoC4/BLE_1.c ****                     {
1025:.\Generated_Source\PSoC4/BLE_1.c ****                         byteCounter += adLength;
  79              		.loc 1 1025 0
  80 002e 9B18     		add	r3, r3, r2
  81              	.LVL12:
  82 0030 DBB2     		uxtb	r3, r3
  83              	.LVL13:
  84 0032 00E0     		b	.L14
  85              	.L13:
1021:.\Generated_Source\PSoC4/BLE_1.c ****                         flag = 1u;
  86              		.loc 1 1021 0
  87 0034 3D1C     		mov	r5, r7
  88              	.LVL14:
  89              	.L14:
1008:.\Generated_Source\PSoC4/BLE_1.c ****             while((byteCounter < maxLength) && (0u == flag))
  90              		.loc 1 1008 0 discriminator 1
  91 0036 B342     		cmp	r3, r6
  92 0038 01D2     		bcs	.L5
1008:.\Generated_Source\PSoC4/BLE_1.c ****             while((byteCounter < maxLength) && (0u == flag))
  93              		.loc 1 1008 0 is_stmt 0 discriminator 2
  94 003a 002D     		cmp	r5, #0
  95 003c EED0     		beq	.L7
  96              	.LVL15:
  97              	.L5:
1026:.\Generated_Source\PSoC4/BLE_1.c ****                     }
1027:.\Generated_Source\PSoC4/BLE_1.c ****                 }
1028:.\Generated_Source\PSoC4/BLE_1.c ****                 else
1029:.\Generated_Source\PSoC4/BLE_1.c ****                 {
1030:.\Generated_Source\PSoC4/BLE_1.c ****                     /* The end of advertisement data structure was encountered though exit the loop
1031:.\Generated_Source\PSoC4/BLE_1.c ****                     break;
1032:.\Generated_Source\PSoC4/BLE_1.c ****                 }
1033:.\Generated_Source\PSoC4/BLE_1.c ****             }
1034:.\Generated_Source\PSoC4/BLE_1.c ****             
1035:.\Generated_Source\PSoC4/BLE_1.c ****             if(0u != flag)
ARM GAS  C:\Users\danielpi\AppData\Local\Temp\ccfzId9l.s 			page 21


  98              		.loc 1 1035 0 is_stmt 1
  99 003e 002D     		cmp	r5, #0
 100 0040 16D0     		beq	.L1
1036:.\Generated_Source\PSoC4/BLE_1.c ****             {
1037:.\Generated_Source\PSoC4/BLE_1.c ****                 /* Reuse "adLength" to hold location of the last character of local name in 
1038:.\Generated_Source\PSoC4/BLE_1.c ****                    AD structure. */
1039:.\Generated_Source\PSoC4/BLE_1.c ****                 adLength += byteCounter;
 101              		.loc 1 1039 0
 102 0042 D218     		add	r2, r2, r3
 103              	.LVL16:
 104 0044 D5B2     		uxtb	r5, r2
 105              	.LVL17:
1040:.\Generated_Source\PSoC4/BLE_1.c ****                 
1041:.\Generated_Source\PSoC4/BLE_1.c ****                 /* Increment byte counter to point to start of the local Name string */
1042:.\Generated_Source\PSoC4/BLE_1.c ****                 byteCounter++;
 106              		.loc 1 1042 0
 107 0046 0133     		add	r3, r3, #1
 108              	.LVL18:
 109 0048 DBB2     		uxtb	r3, r3
 110              	.LVL19:
1043:.\Generated_Source\PSoC4/BLE_1.c ****                 
1044:.\Generated_Source\PSoC4/BLE_1.c ****                 for(i = byteCounter; ((i < (adLength)) && (CYBLE_NULL_CHARCTER != name[i - byteCoun
 111              		.loc 1 1044 0
 112 004a 1A1C     		mov	r2, r3
 113              	.LVL20:
 114 004c 02E0     		b	.L9
 115              	.LVL21:
 116              	.L11:
1045:.\Generated_Source\PSoC4/BLE_1.c ****                 {
1046:.\Generated_Source\PSoC4/BLE_1.c ****                     destBuffer[i] = (uint8)name[i - byteCounter];
 117              		.loc 1 1046 0 discriminator 1
 118 004e 8C54     		strb	r4, [r1, r2]
1044:.\Generated_Source\PSoC4/BLE_1.c ****                 for(i = byteCounter; ((i < (adLength)) && (CYBLE_NULL_CHARCTER != name[i - byteCoun
 119              		.loc 1 1044 0 discriminator 1
 120 0050 0132     		add	r2, r2, #1
 121              	.LVL22:
 122 0052 D2B2     		uxtb	r2, r2
 123              	.LVL23:
 124              	.L9:
 125 0054 AA42     		cmp	r2, r5
 126 0056 08D2     		bcs	.L10
1044:.\Generated_Source\PSoC4/BLE_1.c ****                 for(i = byteCounter; ((i < (adLength)) && (CYBLE_NULL_CHARCTER != name[i - byteCoun
 127              		.loc 1 1044 0 is_stmt 0 discriminator 2
 128 0058 D41A     		sub	r4, r2, r3
 129 005a 045D     		ldrb	r4, [r0, r4]
 130 005c 002C     		cmp	r4, #0
 131 005e F6D1     		bne	.L11
 132 0060 03E0     		b	.L10
 133              	.LVL24:
 134              	.L12:
1047:.\Generated_Source\PSoC4/BLE_1.c ****                 }
1048:.\Generated_Source\PSoC4/BLE_1.c ****                 
1049:.\Generated_Source\PSoC4/BLE_1.c ****                 /* This loop handles the case when new local name is shorted than old one.
1050:.\Generated_Source\PSoC4/BLE_1.c ****                    In this case all remaining characters should be null characters. */
1051:.\Generated_Source\PSoC4/BLE_1.c ****                 while(adLength > i)
1052:.\Generated_Source\PSoC4/BLE_1.c ****                 {
1053:.\Generated_Source\PSoC4/BLE_1.c ****                     /* Terminate string */
ARM GAS  C:\Users\danielpi\AppData\Local\Temp\ccfzId9l.s 			page 22


1054:.\Generated_Source\PSoC4/BLE_1.c ****                     destBuffer[i] = (uint8)CYBLE_NULL_CHARCTER;
 135              		.loc 1 1054 0 is_stmt 1
 136 0062 8B54     		strb	r3, [r1, r2]
1055:.\Generated_Source\PSoC4/BLE_1.c ****                     i++;
 137              		.loc 1 1055 0
 138 0064 0132     		add	r2, r2, #1
 139              	.LVL25:
 140 0066 D2B2     		uxtb	r2, r2
 141              	.LVL26:
 142 0068 00E0     		b	.L15
 143              	.LVL27:
 144              	.L10:
1054:.\Generated_Source\PSoC4/BLE_1.c ****                     destBuffer[i] = (uint8)CYBLE_NULL_CHARCTER;
 145              		.loc 1 1054 0 discriminator 1
 146 006a 0023     		mov	r3, #0
 147              	.LVL28:
 148              	.L15:
1051:.\Generated_Source\PSoC4/BLE_1.c ****                 while(adLength > i)
 149              		.loc 1 1051 0 discriminator 1
 150 006c 9542     		cmp	r5, r2
 151 006e F8D8     		bhi	.L12
 152              	.LVL29:
 153              	.L1:
1056:.\Generated_Source\PSoC4/BLE_1.c ****                 }
1057:.\Generated_Source\PSoC4/BLE_1.c ****             }
1058:.\Generated_Source\PSoC4/BLE_1.c ****         }
 154              		.loc 1 1058 0
 155              		@ sp needed
 156              	.LVL30:
 157 0070 F0BD     		pop	{r4, r5, r6, r7, pc}
 158              	.L17:
 159 0072 C046     		.align	2
 160              	.L16:
 161 0074 00000000 		.word	.LANCHOR0
 162              		.cfi_endproc
 163              	.LFE10:
 164              		.size	CyBle_ChangeAdLocalName, .-CyBle_ChangeAdLocalName
 165              		.section	.text.CyBle_ServiceInit,"ax",%progbits
 166              		.align	2
 167              		.global	CyBle_ServiceInit
 168              		.code	16
 169              		.thumb_func
 170              		.type	CyBle_ServiceInit, %function
 171              	CyBle_ServiceInit:
 172              	.LFB3:
 204:.\Generated_Source\PSoC4/BLE_1.c **** {
 173              		.loc 1 204 0
 174              		.cfi_startproc
 175 0000 08B5     		push	{r3, lr}
 176              		.cfi_def_cfa_offset 8
 177              		.cfi_offset 3, -8
 178              		.cfi_offset 14, -4
 255:.\Generated_Source\PSoC4/BLE_1.c ****         CyBle_CustomInit();
 179              		.loc 1 255 0
 180 0002 FFF7FEFF 		bl	CyBle_CustomInit
 181              	.LVL31:
 313:.\Generated_Source\PSoC4/BLE_1.c **** }
ARM GAS  C:\Users\danielpi\AppData\Local\Temp\ccfzId9l.s 			page 23


 182              		.loc 1 313 0
 183              		@ sp needed
 184 0006 08BD     		pop	{r3, pc}
 185              		.cfi_endproc
 186              	.LFE3:
 187              		.size	CyBle_ServiceInit, .-CyBle_ServiceInit
 188              		.section	.text.CyBle_Init,"ax",%progbits
 189              		.align	2
 190              		.global	CyBle_Init
 191              		.code	16
 192              		.thumb_func
 193              		.type	CyBle_Init, %function
 194              	CyBle_Init:
 195              	.LFB2:
 152:.\Generated_Source\PSoC4/BLE_1.c **** {
 196              		.loc 1 152 0
 197              		.cfi_startproc
 198 0000 10B5     		push	{r4, lr}
 199              		.cfi_def_cfa_offset 8
 200              		.cfi_offset 4, -8
 201              		.cfi_offset 14, -4
 153:.\Generated_Source\PSoC4/BLE_1.c ****     cyBle_eventHandlerFlag = 0u;
 202              		.loc 1 153 0
 203 0002 0024     		mov	r4, #0
 204 0004 054B     		ldr	r3, .L20
 205 0006 1C70     		strb	r4, [r3]
 154:.\Generated_Source\PSoC4/BLE_1.c ****     cyBle_busyStatus = CYBLE_STACK_STATE_FREE;
 206              		.loc 1 154 0
 207 0008 054B     		ldr	r3, .L20+4
 208 000a 1C70     		strb	r4, [r3]
 157:.\Generated_Source\PSoC4/BLE_1.c ****         cyBle_advertisingIntervalType = CYBLE_ADVERTISING_FAST; 
 209              		.loc 1 157 0
 210 000c 054B     		ldr	r3, .L20+8
 211 000e 1C70     		strb	r4, [r3]
 180:.\Generated_Source\PSoC4/BLE_1.c ****     CyBle_ServiceInit();
 212              		.loc 1 180 0
 213 0010 FFF7FEFF 		bl	CyBle_ServiceInit
 214              	.LVL32:
 183:.\Generated_Source\PSoC4/BLE_1.c ****     cyBle_pendingFlashWrite = 0u;
 215              		.loc 1 183 0
 216 0014 044B     		ldr	r3, .L20+12
 217 0016 1C70     		strb	r4, [r3]
 186:.\Generated_Source\PSoC4/BLE_1.c **** }
 218              		.loc 1 186 0
 219              		@ sp needed
 220 0018 10BD     		pop	{r4, pc}
 221              	.L21:
 222 001a C046     		.align	2
 223              	.L20:
 224 001c 00000000 		.word	cyBle_eventHandlerFlag
 225 0020 00000000 		.word	cyBle_busyStatus
 226 0024 00000000 		.word	cyBle_advertisingIntervalType
 227 0028 00000000 		.word	cyBle_pendingFlashWrite
 228              		.cfi_endproc
 229              	.LFE2:
 230              		.size	CyBle_Init, .-CyBle_Init
 231              		.section	.text.CyBle_Start,"ax",%progbits
ARM GAS  C:\Users\danielpi\AppData\Local\Temp\ccfzId9l.s 			page 24


 232              		.align	2
 233              		.global	CyBle_Start
 234              		.code	16
 235              		.thumb_func
 236              		.type	CyBle_Start, %function
 237              	CyBle_Start:
 238              	.LFB4:
 366:.\Generated_Source\PSoC4/BLE_1.c **** {
 239              		.loc 1 366 0
 240              		.cfi_startproc
 241              	.LVL33:
 242 0000 10B5     		push	{r4, lr}
 243              		.cfi_def_cfa_offset 8
 244              		.cfi_offset 4, -8
 245              		.cfi_offset 14, -4
 246 0002 8AB0     		sub	sp, sp, #40
 247              		.cfi_def_cfa_offset 48
 248 0004 041C     		mov	r4, r0
 249              	.LVL34:
 370:.\Generated_Source\PSoC4/BLE_1.c ****     if(cyBle_initVar == 0u)
 250              		.loc 1 370 0
 251 0006 164B     		ldr	r3, .L27
 252 0008 1B78     		ldrb	r3, [r3]
 253 000a 002B     		cmp	r3, #0
 254 000c 04D1     		bne	.L23
 372:.\Generated_Source\PSoC4/BLE_1.c ****         CyBle_Init();
 255              		.loc 1 372 0
 256 000e FFF7FEFF 		bl	CyBle_Init
 257              	.LVL35:
 373:.\Generated_Source\PSoC4/BLE_1.c ****         cyBle_initVar = 1u;
 258              		.loc 1 373 0
 259 0012 0122     		mov	r2, #1
 260 0014 124B     		ldr	r3, .L27
 261 0016 1A70     		strb	r2, [r3]
 262              	.L23:
 376:.\Generated_Source\PSoC4/BLE_1.c ****     if(callbackFunc != NULL)
 263              		.loc 1 376 0
 264 0018 002C     		cmp	r4, #0
 265 001a 1ED0     		beq	.L26
 266              	.LBB2:
 379:.\Generated_Source\PSoC4/BLE_1.c ****         CYBLE_STK_APP_DATA_BUFF_T dataBuff[CYBLE_STACK_BUF_COUNT] = 
 267              		.loc 1 379 0
 268 001c 04A8     		add	r0, sp, #16
 269 001e 1149     		ldr	r1, .L27+4
 270 0020 1822     		mov	r2, #24
 271 0022 FFF7FEFF 		bl	memcpy
 272              	.LVL36:
 389:.\Generated_Source\PSoC4/BLE_1.c ****         apiResult = CyBle_StackInit(&CyBle_EventHandler, cyBle_stackMemoryRam, CYBLE_STACK_RAM_SIZE
 273              		.loc 1 389 0
 274 0026 0623     		mov	r3, #6
 275 0028 0093     		str	r3, [sp]
 276 002a 0F4B     		ldr	r3, .L27+8
 277 002c 0193     		str	r3, [sp, #4]
 278 002e 6E23     		mov	r3, #110
 279 0030 FF33     		add	r3, r3, #255
 280 0032 0293     		str	r3, [sp, #8]
 281 0034 0D48     		ldr	r0, .L27+12
ARM GAS  C:\Users\danielpi\AppData\Local\Temp\ccfzId9l.s 			page 25


 282 0036 0E49     		ldr	r1, .L27+16
 283 0038 0E4A     		ldr	r2, .L27+20
 284 003a 04AB     		add	r3, sp, #16
 285 003c FFF7FEFF 		bl	CyBle_StackInit
 286              	.LVL37:
 396:.\Generated_Source\PSoC4/BLE_1.c ****         CyBle_ApplCallback = callbackFunc;
 287              		.loc 1 396 0
 288 0040 0D4B     		ldr	r3, .L27+24
 289 0042 1C60     		str	r4, [r3]
 399:.\Generated_Source\PSoC4/BLE_1.c ****         if(apiResult == CYBLE_ERROR_OK)
 290              		.loc 1 399 0
 291 0044 0028     		cmp	r0, #0
 292 0046 09D1     		bne	.L24
 401:.\Generated_Source\PSoC4/BLE_1.c ****             CyBle_SetState(CYBLE_STATE_INITIALIZING);
 293              		.loc 1 401 0
 294 0048 0122     		mov	r2, #1
 295 004a 0C4B     		ldr	r3, .L27+28
 296 004c 1A70     		strb	r2, [r3]
 408:.\Generated_Source\PSoC4/BLE_1.c ****             apiResult = CyBle_GattsDbRegister(cyBle_gattDB, CYBLE_GATT_DB_INDEX_COUNT, CYBLE_GATT_D
 297              		.loc 1 408 0
 298 004e 0C48     		ldr	r0, .L27+32
 299              	.LVL38:
 300 0050 1521     		mov	r1, #21
 301 0052 0F22     		mov	r2, #15
 302 0054 FFF7FEFF 		bl	CyBle_GattsDbRegister
 303              	.LVL39:
 304 0058 00E0     		b	.L24
 305              	.LVL40:
 306              	.L26:
 307              	.LBE2:
 367:.\Generated_Source\PSoC4/BLE_1.c ****     CYBLE_API_RESULT_T apiResult = CYBLE_ERROR_INVALID_PARAMETER;
 308              		.loc 1 367 0
 309 005a 0120     		mov	r0, #1
 310              	.LVL41:
 311              	.L24:
 414:.\Generated_Source\PSoC4/BLE_1.c **** }
 312              		.loc 1 414 0
 313 005c 0AB0     		add	sp, sp, #40
 314              		@ sp needed
 315              	.LVL42:
 316 005e 10BD     		pop	{r4, pc}
 317              	.L28:
 318              		.align	2
 319              	.L27:
 320 0060 00000000 		.word	.LANCHOR1
 321 0064 00000000 		.word	.LANCHOR2
 322 0068 80000000 		.word	.LANCHOR3
 323 006c 00000000 		.word	CyBle_EventHandler
 324 0070 00000000 		.word	cyBle_stackMemoryRam
 325 0074 C80A0000 		.word	2760
 326 0078 00000000 		.word	CyBle_ApplCallback
 327 007c 00000000 		.word	cyBle_state
 328 0080 00000000 		.word	cyBle_gattDB
 329              		.cfi_endproc
 330              	.LFE4:
 331              		.size	CyBle_Start, .-CyBle_Start
 332              		.section	.text.CyBle_Stop,"ax",%progbits
ARM GAS  C:\Users\danielpi\AppData\Local\Temp\ccfzId9l.s 			page 26


 333              		.align	2
 334              		.global	CyBle_Stop
 335              		.code	16
 336              		.thumb_func
 337              		.type	CyBle_Stop, %function
 338              	CyBle_Stop:
 339              	.LFB5:
 434:.\Generated_Source\PSoC4/BLE_1.c **** {
 340              		.loc 1 434 0
 341              		.cfi_startproc
 342 0000 08B5     		push	{r3, lr}
 343              		.cfi_def_cfa_offset 8
 344              		.cfi_offset 3, -8
 345              		.cfi_offset 14, -4
 435:.\Generated_Source\PSoC4/BLE_1.c ****     CyBle_Shutdown();                         /* Stop all ongoing activities */
 346              		.loc 1 435 0
 347 0002 FFF7FEFF 		bl	CyBle_Shutdown
 348              	.LVL43:
 436:.\Generated_Source\PSoC4/BLE_1.c ****     CyBle_SetState(CYBLE_STATE_STOPPED);
 349              		.loc 1 436 0
 350 0006 0022     		mov	r2, #0
 351 0008 014B     		ldr	r3, .L30
 352 000a 1A70     		strb	r2, [r3]
 437:.\Generated_Source\PSoC4/BLE_1.c **** }
 353              		.loc 1 437 0
 354              		@ sp needed
 355 000c 08BD     		pop	{r3, pc}
 356              	.L31:
 357 000e C046     		.align	2
 358              	.L30:
 359 0010 00000000 		.word	cyBle_state
 360              		.cfi_endproc
 361              	.LFE5:
 362              		.size	CyBle_Stop, .-CyBle_Stop
 363              		.section	.text.CyBle_StoreBondingData,"ax",%progbits
 364              		.align	2
 365              		.global	CyBle_StoreBondingData
 366              		.code	16
 367              		.thumb_func
 368              		.type	CyBle_StoreBondingData, %function
 369              	CyBle_StoreBondingData:
 370              	.LFB6:
 480:.\Generated_Source\PSoC4/BLE_1.c **** {
 371              		.loc 1 480 0
 372              		.cfi_startproc
 373              	.LVL44:
 374 0000 10B5     		push	{r4, lr}
 375              		.cfi_def_cfa_offset 8
 376              		.cfi_offset 4, -8
 377              		.cfi_offset 14, -4
 378 0002 041C     		mov	r4, r0
 379              	.LVL45:
 484:.\Generated_Source\PSoC4/BLE_1.c ****     if((cyBle_pendingFlashWrite & CYBLE_PENDING_STACK_FLASH_WRITE_BIT) != 0u)
 380              		.loc 1 484 0
 381 0004 174A     		ldr	r2, .L38
 382 0006 1278     		ldrb	r2, [r2]
 383 0008 D307     		lsl	r3, r2, #31
ARM GAS  C:\Users\danielpi\AppData\Local\Temp\ccfzId9l.s 			page 27


 384 000a 0BD5     		bpl	.L36
 486:.\Generated_Source\PSoC4/BLE_1.c ****         apiResult = CyBle_StoreStackData(isForceWrite);
 385              		.loc 1 486 0
 386 000c FFF7FEFF 		bl	CyBle_StoreStackData
 387              	.LVL46:
 487:.\Generated_Source\PSoC4/BLE_1.c ****         if(apiResult == CYBLE_ERROR_OK)
 388              		.loc 1 487 0
 389 0010 0028     		cmp	r0, #0
 390 0012 0AD1     		bne	.L33
 489:.\Generated_Source\PSoC4/BLE_1.c ****             cyBle_pendingFlashWrite &= (uint8)~CYBLE_PENDING_STACK_FLASH_WRITE_BIT;
 391              		.loc 1 489 0
 392 0014 1349     		ldr	r1, .L38
 393 0016 0B78     		ldrb	r3, [r1]
 394 0018 0122     		mov	r2, #1
 395 001a 9343     		bic	r3, r2
 396 001c 0B70     		strb	r3, [r1]
 491:.\Generated_Source\PSoC4/BLE_1.c ****             if((cyBle_pendingFlashWrite & CYBLE_PENDING_CCCD_FLASH_WRITE_BIT) != 0u)
 397              		.loc 1 491 0
 398 001e 9A07     		lsl	r2, r3, #30
 399 0020 02D4     		bmi	.L37
 400 0022 02E0     		b	.L33
 401              	.LVL47:
 402              	.L36:
 481:.\Generated_Source\PSoC4/BLE_1.c ****     CYBLE_API_RESULT_T apiResult = CYBLE_ERROR_OK;
 403              		.loc 1 481 0
 404 0024 0020     		mov	r0, #0
 405              	.LVL48:
 406 0026 00E0     		b	.L33
 407              	.LVL49:
 408              	.L37:
 493:.\Generated_Source\PSoC4/BLE_1.c ****                 apiResult = CYBLE_ERROR_FLASH_WRITE_NOT_PERMITED;
 409              		.loc 1 493 0
 410 0028 2820     		mov	r0, #40
 411              	.LVL50:
 412              	.L33:
 499:.\Generated_Source\PSoC4/BLE_1.c ****     if( ((apiResult == CYBLE_ERROR_OK) || (isForceWrite != 0u)) && 
 413              		.loc 1 499 0
 414 002a 0028     		cmp	r0, #0
 415 002c 01D0     		beq	.L34
 499:.\Generated_Source\PSoC4/BLE_1.c ****     if( ((apiResult == CYBLE_ERROR_OK) || (isForceWrite != 0u)) && 
 416              		.loc 1 499 0 is_stmt 0 discriminator 2
 417 002e 002C     		cmp	r4, #0
 418 0030 16D0     		beq	.L35
 419              	.L34:
 500:.\Generated_Source\PSoC4/BLE_1.c ****         ((cyBle_pendingFlashWrite & CYBLE_PENDING_CCCD_FLASH_WRITE_BIT) != 0u) &&
 420              		.loc 1 500 0 is_stmt 1 discriminator 1
 421 0032 0C4B     		ldr	r3, .L38
 422 0034 1B78     		ldrb	r3, [r3]
 499:.\Generated_Source\PSoC4/BLE_1.c ****     if( ((apiResult == CYBLE_ERROR_OK) || (isForceWrite != 0u)) && 
 423              		.loc 1 499 0 discriminator 1
 424 0036 9A07     		lsl	r2, r3, #30
 425 0038 12D5     		bpl	.L35
 501:.\Generated_Source\PSoC4/BLE_1.c ****         (cyBle_connHandle.bdHandle <= CYBLE_GAP_MAX_BONDED_DEVICE))
 426              		.loc 1 501 0
 427 003a 0B4B     		ldr	r3, .L38+4
 428 003c 1978     		ldrb	r1, [r3]
 500:.\Generated_Source\PSoC4/BLE_1.c ****         ((cyBle_pendingFlashWrite & CYBLE_PENDING_CCCD_FLASH_WRITE_BIT) != 0u) &&
ARM GAS  C:\Users\danielpi\AppData\Local\Temp\ccfzId9l.s 			page 28


 429              		.loc 1 500 0
 430 003e 0429     		cmp	r1, #4
 431 0040 0ED8     		bhi	.L35
 503:.\Generated_Source\PSoC4/BLE_1.c ****         apiResult = CyBle_StoreAppData(cyBle_attValuesCCCD, cyBle_attValuesCCCDFlashMemory[cyBle_co
 432              		.loc 1 503 0
 433 0042 8900     		lsl	r1, r1, #2
 434 0044 094B     		ldr	r3, .L38+8
 435 0046 C918     		add	r1, r1, r3
 436 0048 0948     		ldr	r0, .L38+12
 437              	.LVL51:
 438 004a 0422     		mov	r2, #4
 439 004c 231C     		mov	r3, r4
 440 004e FFF7FEFF 		bl	CyBle_StoreAppData
 441              	.LVL52:
 505:.\Generated_Source\PSoC4/BLE_1.c ****         if(apiResult == CYBLE_ERROR_OK)
 442              		.loc 1 505 0
 443 0052 0028     		cmp	r0, #0
 444 0054 04D1     		bne	.L35
 507:.\Generated_Source\PSoC4/BLE_1.c ****             cyBle_pendingFlashWrite &= (uint8)~CYBLE_PENDING_CCCD_FLASH_WRITE_BIT;
 445              		.loc 1 507 0
 446 0056 034B     		ldr	r3, .L38
 447 0058 1978     		ldrb	r1, [r3]
 448 005a 0222     		mov	r2, #2
 449 005c 9143     		bic	r1, r2
 450 005e 1970     		strb	r1, [r3]
 451              	.LVL53:
 452              	.L35:
 512:.\Generated_Source\PSoC4/BLE_1.c **** }
 453              		.loc 1 512 0
 454              		@ sp needed
 455 0060 10BD     		pop	{r4, pc}
 456              	.L39:
 457 0062 C046     		.align	2
 458              	.L38:
 459 0064 00000000 		.word	cyBle_pendingFlashWrite
 460 0068 00000000 		.word	cyBle_connHandle
 461 006c 00000000 		.word	cyBle_attValuesCCCDFlashMemory
 462 0070 00000000 		.word	cyBle_attValuesCCCD
 463              		.cfi_endproc
 464              	.LFE6:
 465              		.size	CyBle_StoreBondingData, .-CyBle_StoreBondingData
 466              		.section	.text.CyBle_GappStartAdvertisement,"ax",%progbits
 467              		.align	2
 468              		.global	CyBle_GappStartAdvertisement
 469              		.code	16
 470              		.thumb_func
 471              		.type	CyBle_GappStartAdvertisement, %function
 472              	CyBle_GappStartAdvertisement:
 473              	.LFB7:
 571:.\Generated_Source\PSoC4/BLE_1.c ****     {
 474              		.loc 1 571 0
 475              		.cfi_startproc
 476              	.LVL54:
 477 0000 08B5     		push	{r3, lr}
 478              		.cfi_def_cfa_offset 8
 479              		.cfi_offset 3, -8
 480              		.cfi_offset 14, -4
ARM GAS  C:\Users\danielpi\AppData\Local\Temp\ccfzId9l.s 			page 29


 574:.\Generated_Source\PSoC4/BLE_1.c ****         if(advertisingIntervalType > CYBLE_ADVERTISING_CUSTOM)
 481              		.loc 1 574 0
 482 0002 0228     		cmp	r0, #2
 483 0004 34D8     		bhi	.L44
 578:.\Generated_Source\PSoC4/BLE_1.c ****         else if((CYBLE_STATE_DISCONNECTED == CyBle_GetState()) && ((cyBle_eventHandlerFlag & CYBLE_
 484              		.loc 1 578 0
 485 0006 1E4B     		ldr	r3, .L47
 486 0008 1B78     		ldrb	r3, [r3]
 487 000a 042B     		cmp	r3, #4
 488 000c 32D1     		bne	.L45
 578:.\Generated_Source\PSoC4/BLE_1.c ****         else if((CYBLE_STATE_DISCONNECTED == CyBle_GetState()) && ((cyBle_eventHandlerFlag & CYBLE_
 489              		.loc 1 578 0 is_stmt 0 discriminator 1
 490 000e 1D4B     		ldr	r3, .L47+4
 491 0010 1B78     		ldrb	r3, [r3]
 492 0012 5907     		lsl	r1, r3, #29
 493 0014 31D4     		bmi	.L46
 580:.\Generated_Source\PSoC4/BLE_1.c ****             if(advertisingIntervalType == CYBLE_ADVERTISING_FAST)
 494              		.loc 1 580 0 is_stmt 1
 495 0016 0028     		cmp	r0, #0
 496 0018 0DD1     		bne	.L42
 582:.\Generated_Source\PSoC4/BLE_1.c ****                 cyBle_discoveryModeInfo.advTo = CYBLE_FAST_ADV_TIMEOUT;
 497              		.loc 1 582 0
 498 001a 1B4B     		ldr	r3, .L47+8
 499 001c 1A1C     		mov	r2, r3
 500 001e 4032     		add	r2, r2, #64
 501 0020 7821     		mov	r1, #120
 502 0022 1182     		strh	r1, [r2, #16]
 583:.\Generated_Source\PSoC4/BLE_1.c ****                 cyBle_discoveryModeInfo.advParam->advIntvMin = CYBLE_FAST_ADV_INT_MIN;
 503              		.loc 1 583 0
 504 0024 A022     		mov	r2, #160
 505 0026 5200     		lsl	r2, r2, #1
 506 0028 596C     		ldr	r1, [r3, #68]
 507 002a 0A80     		strh	r2, [r1]
 584:.\Generated_Source\PSoC4/BLE_1.c ****                 cyBle_discoveryModeInfo.advParam->advIntvMax = CYBLE_FAST_ADV_INT_MAX;
 508              		.loc 1 584 0
 509 002c 5B6C     		ldr	r3, [r3, #68]
 510 002e F022     		mov	r2, #240
 511 0030 5200     		lsl	r2, r2, #1
 512 0032 5A80     		strh	r2, [r3, #2]
 513 0034 0EE0     		b	.L43
 514              	.L42:
 586:.\Generated_Source\PSoC4/BLE_1.c ****             else if(advertisingIntervalType == CYBLE_ADVERTISING_SLOW)
 515              		.loc 1 586 0
 516 0036 0128     		cmp	r0, #1
 517 0038 0CD1     		bne	.L43
 588:.\Generated_Source\PSoC4/BLE_1.c ****                 cyBle_discoveryModeInfo.advTo = CYBLE_SLOW_ADV_TIMEOUT;
 518              		.loc 1 588 0
 519 003a 134B     		ldr	r3, .L47+8
 520 003c 1A1C     		mov	r2, r3
 521 003e 4032     		add	r2, r2, #64
 522 0040 0021     		mov	r1, #0
 523 0042 1182     		strh	r1, [r2, #16]
 589:.\Generated_Source\PSoC4/BLE_1.c ****                 cyBle_discoveryModeInfo.advParam->advIntvMin = CYBLE_SLOW_ADV_INT_MIN;
 524              		.loc 1 589 0
 525 0044 C822     		mov	r2, #200
 526 0046 D200     		lsl	r2, r2, #3
 527 0048 596C     		ldr	r1, [r3, #68]
ARM GAS  C:\Users\danielpi\AppData\Local\Temp\ccfzId9l.s 			page 30


 528 004a 0A80     		strh	r2, [r1]
 590:.\Generated_Source\PSoC4/BLE_1.c ****                 cyBle_discoveryModeInfo.advParam->advIntvMax = CYBLE_SLOW_ADV_INT_MAX;
 529              		.loc 1 590 0
 530 004c 5B6C     		ldr	r3, [r3, #68]
 531 004e 8022     		mov	r2, #128
 532 0050 D201     		lsl	r2, r2, #7
 533 0052 5A80     		strh	r2, [r3, #2]
 534              	.L43:
 595:.\Generated_Source\PSoC4/BLE_1.c ****             cyBle_advertisingIntervalType = advertisingIntervalType;
 535              		.loc 1 595 0
 536 0054 0D4B     		ldr	r3, .L47+12
 537 0056 1870     		strb	r0, [r3]
 596:.\Generated_Source\PSoC4/BLE_1.c ****             apiResult = CyBle_GappEnterDiscoveryMode(&cyBle_discoveryModeInfo);
 538              		.loc 1 596 0
 539 0058 0B48     		ldr	r0, .L47+8
 540              	.LVL55:
 541 005a 4030     		add	r0, r0, #64
 542 005c FFF7FEFF 		bl	CyBle_GappEnterDiscoveryMode
 543              	.LVL56:
 598:.\Generated_Source\PSoC4/BLE_1.c ****             if(CYBLE_ERROR_OK == apiResult)
 544              		.loc 1 598 0
 545 0060 0028     		cmp	r0, #0
 546 0062 0CD1     		bne	.L41
 600:.\Generated_Source\PSoC4/BLE_1.c ****                 cyBle_eventHandlerFlag |= CYBLE_START_FLAG;
 547              		.loc 1 600 0
 548 0064 074B     		ldr	r3, .L47+4
 549 0066 1978     		ldrb	r1, [r3]
 550 0068 0422     		mov	r2, #4
 551 006a 0A43     		orr	r2, r1
 552 006c 1A70     		strb	r2, [r3]
 553 006e 06E0     		b	.L41
 554              	.LVL57:
 555              	.L44:
 576:.\Generated_Source\PSoC4/BLE_1.c ****             apiResult = CYBLE_ERROR_INVALID_PARAMETER;
 556              		.loc 1 576 0
 557 0070 0120     		mov	r0, #1
 558              	.LVL58:
 559 0072 04E0     		b	.L41
 560              	.LVL59:
 561              	.L45:
 605:.\Generated_Source\PSoC4/BLE_1.c ****             apiResult = CYBLE_ERROR_INVALID_STATE;
 562              		.loc 1 605 0
 563 0074 0420     		mov	r0, #4
 564              	.LVL60:
 565 0076 FF30     		add	r0, r0, #255
 566 0078 01E0     		b	.L41
 567              	.LVL61:
 568              	.L46:
 569 007a 0420     		mov	r0, #4
 570              	.LVL62:
 571 007c FF30     		add	r0, r0, #255
 572              	.L41:
 573              	.LVL63:
 609:.\Generated_Source\PSoC4/BLE_1.c ****     }
 574              		.loc 1 609 0
 575              		@ sp needed
 576 007e 08BD     		pop	{r3, pc}
ARM GAS  C:\Users\danielpi\AppData\Local\Temp\ccfzId9l.s 			page 31


 577              	.L48:
 578              		.align	2
 579              	.L47:
 580 0080 00000000 		.word	cyBle_state
 581 0084 00000000 		.word	cyBle_eventHandlerFlag
 582 0088 00000000 		.word	.LANCHOR0
 583 008c 00000000 		.word	cyBle_advertisingIntervalType
 584              		.cfi_endproc
 585              	.LFE7:
 586              		.size	CyBle_GappStartAdvertisement, .-CyBle_GappStartAdvertisement
 587              		.section	.text.CyBle_GappStopAdvertisement,"ax",%progbits
 588              		.align	2
 589              		.global	CyBle_GappStopAdvertisement
 590              		.code	16
 591              		.thumb_func
 592              		.type	CyBle_GappStopAdvertisement, %function
 593              	CyBle_GappStopAdvertisement:
 594              	.LFB8:
 636:.\Generated_Source\PSoC4/BLE_1.c ****     {
 595              		.loc 1 636 0
 596              		.cfi_startproc
 597 0000 08B5     		push	{r3, lr}
 598              		.cfi_def_cfa_offset 8
 599              		.cfi_offset 3, -8
 600              		.cfi_offset 14, -4
 637:.\Generated_Source\PSoC4/BLE_1.c ****         CyBle_GappExitDiscoveryMode();
 601              		.loc 1 637 0
 602 0002 FFF7FEFF 		bl	CyBle_GappExitDiscoveryMode
 603              	.LVL64:
 638:.\Generated_Source\PSoC4/BLE_1.c ****         cyBle_eventHandlerFlag |= CYBLE_STOP_FLAG;
 604              		.loc 1 638 0
 605 0006 034B     		ldr	r3, .L50
 606 0008 1978     		ldrb	r1, [r3]
 607 000a 0822     		mov	r2, #8
 608 000c 0A43     		orr	r2, r1
 609 000e 1A70     		strb	r2, [r3]
 639:.\Generated_Source\PSoC4/BLE_1.c ****     }
 610              		.loc 1 639 0
 611              		@ sp needed
 612 0010 08BD     		pop	{r3, pc}
 613              	.L51:
 614 0012 C046     		.align	2
 615              	.L50:
 616 0014 00000000 		.word	cyBle_eventHandlerFlag
 617              		.cfi_endproc
 618              	.LFE8:
 619              		.size	CyBle_GappStopAdvertisement, .-CyBle_GappStopAdvertisement
 620              		.section	.text.CyBle_ChangeAdDeviceAddress,"ax",%progbits
 621              		.align	2
 622              		.global	CyBle_ChangeAdDeviceAddress
 623              		.code	16
 624              		.thumb_func
 625              		.type	CyBle_ChangeAdDeviceAddress, %function
 626              	CyBle_ChangeAdDeviceAddress:
 627              	.LFB9:
 660:.\Generated_Source\PSoC4/BLE_1.c ****     {
 628              		.loc 1 660 0
ARM GAS  C:\Users\danielpi\AppData\Local\Temp\ccfzId9l.s 			page 32


 629              		.cfi_startproc
 630              	.LVL65:
 687:.\Generated_Source\PSoC4/BLE_1.c ****     }
 631              		.loc 1 687 0
 632              		@ sp needed
 633 0000 7047     		bx	lr
 634              		.cfi_endproc
 635              	.LFE9:
 636              		.size	CyBle_ChangeAdDeviceAddress, .-CyBle_ChangeAdDeviceAddress
 637 0002 C046     		.section	.text.CyBle_GapSetLocalName,"ax",%progbits
 638              		.align	2
 639              		.global	CyBle_GapSetLocalName
 640              		.code	16
 641              		.thumb_func
 642              		.type	CyBle_GapSetLocalName, %function
 643              	CyBle_GapSetLocalName:
 644              	.LFB11:
1059:.\Generated_Source\PSoC4/BLE_1.c ****         
1060:.\Generated_Source\PSoC4/BLE_1.c **** #endif /* (CYBLE_GAP_ROLE_PERIPHERAL) */  
1061:.\Generated_Source\PSoC4/BLE_1.c ****     
1062:.\Generated_Source\PSoC4/BLE_1.c ****     
1063:.\Generated_Source\PSoC4/BLE_1.c ****     /******************************************************************************
1064:.\Generated_Source\PSoC4/BLE_1.c ****     ##Function Name: CyBle_GapSetLocalName
1065:.\Generated_Source\PSoC4/BLE_1.c ****     *******************************************************************************
1066:.\Generated_Source\PSoC4/BLE_1.c ****     Summary:
1067:.\Generated_Source\PSoC4/BLE_1.c ****      This API is used to set the local device name - a Characteristic of the 
1068:.\Generated_Source\PSoC4/BLE_1.c ****      GAP Service. If the characteristic length entered in the component customizer
1069:.\Generated_Source\PSoC4/BLE_1.c ****      is shorter than the string specified by the "name" parameter, the local device
1070:.\Generated_Source\PSoC4/BLE_1.c ****      name will be cut to the length specified in the customizer.
1071:.\Generated_Source\PSoC4/BLE_1.c **** 
1072:.\Generated_Source\PSoC4/BLE_1.c ****     Parameters:
1073:.\Generated_Source\PSoC4/BLE_1.c ****      char8 name: The local device name string. The name string to be written as
1074:.\Generated_Source\PSoC4/BLE_1.c ****                  the local device name. It represents a UTF-8 encoded User
1075:.\Generated_Source\PSoC4/BLE_1.c ****                  Friendly Descriptive Name for the device. The length of the local
1076:.\Generated_Source\PSoC4/BLE_1.c ****                  device string is entered into the component customizer and it can
1077:.\Generated_Source\PSoC4/BLE_1.c ****                  be set to a value from 0 to 248 bytes. If the name contained in
1078:.\Generated_Source\PSoC4/BLE_1.c ****                  the parameter is shorter than the length from the customizer, the
1079:.\Generated_Source\PSoC4/BLE_1.c ****                  end of the name is indicated by a NULL octet (0x00).
1080:.\Generated_Source\PSoC4/BLE_1.c **** 
1081:.\Generated_Source\PSoC4/BLE_1.c ****     Return:
1082:.\Generated_Source\PSoC4/BLE_1.c ****      CYBLE_API_RESULT_T : Return value indicates if the function succeeded or 
1083:.\Generated_Source\PSoC4/BLE_1.c ****      failed. Following are the possible error codes.
1084:.\Generated_Source\PSoC4/BLE_1.c ****      <table>
1085:.\Generated_Source\PSoC4/BLE_1.c ****       Errors codes                        Description
1086:.\Generated_Source\PSoC4/BLE_1.c ****       ------------                        -----------
1087:.\Generated_Source\PSoC4/BLE_1.c ****       CYBLE_ERROR_OK                      Function completed successfully.
1088:.\Generated_Source\PSoC4/BLE_1.c ****       CYBLE_ERROR_INVALID_PARAMETER       On specifying NULL as input parameter
1089:.\Generated_Source\PSoC4/BLE_1.c ****      </table>
1090:.\Generated_Source\PSoC4/BLE_1.c ****  
1091:.\Generated_Source\PSoC4/BLE_1.c ****     ******************************************************************************/
1092:.\Generated_Source\PSoC4/BLE_1.c ****     CYBLE_API_RESULT_T CyBle_GapSetLocalName(const char8 name[])
1093:.\Generated_Source\PSoC4/BLE_1.c ****     {
 645              		.loc 1 1093 0
 646              		.cfi_startproc
 647              	.LVL66:
 648 0000 10B5     		push	{r4, lr}
 649              		.cfi_def_cfa_offset 8
ARM GAS  C:\Users\danielpi\AppData\Local\Temp\ccfzId9l.s 			page 33


 650              		.cfi_offset 4, -8
 651              		.cfi_offset 14, -4
 652 0002 041E     		sub	r4, r0, #0
 653              	.LVL67:
1094:.\Generated_Source\PSoC4/BLE_1.c ****         CYBLE_API_RESULT_T apiResult = CYBLE_ERROR_OK;
1095:.\Generated_Source\PSoC4/BLE_1.c ****         uint8 i;
1096:.\Generated_Source\PSoC4/BLE_1.c ****         char8 *ptr;
1097:.\Generated_Source\PSoC4/BLE_1.c ****         uint8 charLen;
1098:.\Generated_Source\PSoC4/BLE_1.c **** 
1099:.\Generated_Source\PSoC4/BLE_1.c ****         if(NULL != name)
 654              		.loc 1 1099 0
 655 0004 1DD0     		beq	.L59
1100:.\Generated_Source\PSoC4/BLE_1.c ****         {
1101:.\Generated_Source\PSoC4/BLE_1.c ****             /* Get the pointer to the Device Name characteristic  */
1102:.\Generated_Source\PSoC4/BLE_1.c ****             ptr = (char8 *) CYBLE_GATT_DB_ATTR_GET_ATTR_GEN_PTR(CYBLE_GAP_DEVICE_NAME_INDEX + 1u);
 656              		.loc 1 1102 0
 657 0006 104B     		ldr	r3, .L60
 658 0008 9A6B     		ldr	r2, [r3, #56]
 659 000a 5068     		ldr	r0, [r2, #4]
 660              	.LVL68:
1103:.\Generated_Source\PSoC4/BLE_1.c **** 
1104:.\Generated_Source\PSoC4/BLE_1.c ****             /* First need to get the maximum length of the characteristic data in the GATT
1105:.\Generated_Source\PSoC4/BLE_1.c ****                 database to make sure there is enough place for the data. The length
1106:.\Generated_Source\PSoC4/BLE_1.c ****                 can't be longer than 248, so only the LSB of 16 bit of length is to
1107:.\Generated_Source\PSoC4/BLE_1.c ****                 be used. */
1108:.\Generated_Source\PSoC4/BLE_1.c ****             charLen = (uint8)CYBLE_GATT_DB_ATTR_GET_ATTR_GEN_MAX_LEN(CYBLE_GAP_DEVICE_NAME_INDEX + 
 661              		.loc 1 1108 0
 662 000c 998E     		ldrh	r1, [r3, #52]
 663 000e C9B2     		uxtb	r1, r1
 664              	.LVL69:
1109:.\Generated_Source\PSoC4/BLE_1.c **** 
1110:.\Generated_Source\PSoC4/BLE_1.c ****             /* Copy name into characteristic */
1111:.\Generated_Source\PSoC4/BLE_1.c ****             for(i = 0u; ((i < charLen) && (CYBLE_NULL_CHARCTER != name[i])); i++)
 665              		.loc 1 1111 0
 666 0010 0023     		mov	r3, #0
 667 0012 02E0     		b	.L55
 668              	.LVL70:
 669              	.L57:
1112:.\Generated_Source\PSoC4/BLE_1.c ****             {
1113:.\Generated_Source\PSoC4/BLE_1.c ****                 ptr[i] = name[i];
 670              		.loc 1 1113 0 discriminator 1
 671 0014 C254     		strb	r2, [r0, r3]
1111:.\Generated_Source\PSoC4/BLE_1.c ****             for(i = 0u; ((i < charLen) && (CYBLE_NULL_CHARCTER != name[i])); i++)
 672              		.loc 1 1111 0 discriminator 1
 673 0016 0133     		add	r3, r3, #1
 674              	.LVL71:
 675 0018 DBB2     		uxtb	r3, r3
 676              	.LVL72:
 677              	.L55:
 678 001a 8B42     		cmp	r3, r1
 679 001c 02D2     		bcs	.L56
1111:.\Generated_Source\PSoC4/BLE_1.c ****             for(i = 0u; ((i < charLen) && (CYBLE_NULL_CHARCTER != name[i])); i++)
 680              		.loc 1 1111 0 is_stmt 0 discriminator 2
 681 001e E25C     		ldrb	r2, [r4, r3]
 682 0020 002A     		cmp	r2, #0
 683 0022 F7D1     		bne	.L57
 684              	.L56:
ARM GAS  C:\Users\danielpi\AppData\Local\Temp\ccfzId9l.s 			page 34


1114:.\Generated_Source\PSoC4/BLE_1.c ****             }
1115:.\Generated_Source\PSoC4/BLE_1.c **** 
1116:.\Generated_Source\PSoC4/BLE_1.c ****             if(i < charLen)
 685              		.loc 1 1116 0 is_stmt 1
 686 0024 8B42     		cmp	r3, r1
 687 0026 02D2     		bcs	.L58
1117:.\Generated_Source\PSoC4/BLE_1.c ****             {
1118:.\Generated_Source\PSoC4/BLE_1.c ****                 /* Terminate string */
1119:.\Generated_Source\PSoC4/BLE_1.c ****                 ptr[i] = CYBLE_NULL_CHARCTER;
 688              		.loc 1 1119 0
 689 0028 C318     		add	r3, r0, r3
 690              	.LVL73:
 691 002a 0022     		mov	r2, #0
 692 002c 1A70     		strb	r2, [r3]
 693              	.L58:
1120:.\Generated_Source\PSoC4/BLE_1.c ****             }
1121:.\Generated_Source\PSoC4/BLE_1.c ****             
1122:.\Generated_Source\PSoC4/BLE_1.c ****             /* Set new actual length */
1123:.\Generated_Source\PSoC4/BLE_1.c ****             
1124:.\Generated_Source\PSoC4/BLE_1.c ****             /* Update device name in advertising and scan response structure */
1125:.\Generated_Source\PSoC4/BLE_1.c ****             #if(CYBLE_GAP_ROLE_PERIPHERAL)
1126:.\Generated_Source\PSoC4/BLE_1.c ****                 CyBle_ChangeAdLocalName(name, 0u);
 694              		.loc 1 1126 0
 695 002e 201C     		mov	r0, r4
 696              	.LVL74:
 697 0030 0021     		mov	r1, #0
 698              	.LVL75:
 699 0032 FFF7FEFF 		bl	CyBle_ChangeAdLocalName
 700              	.LVL76:
1127:.\Generated_Source\PSoC4/BLE_1.c ****                 CyBle_ChangeAdLocalName(name, 1u);
 701              		.loc 1 1127 0
 702 0036 201C     		mov	r0, r4
 703 0038 0121     		mov	r1, #1
 704 003a FFF7FEFF 		bl	CyBle_ChangeAdLocalName
 705              	.LVL77:
1094:.\Generated_Source\PSoC4/BLE_1.c ****         CYBLE_API_RESULT_T apiResult = CYBLE_ERROR_OK;
 706              		.loc 1 1094 0
 707 003e 0020     		mov	r0, #0
 708 0040 00E0     		b	.L54
 709              	.LVL78:
 710              	.L59:
1128:.\Generated_Source\PSoC4/BLE_1.c ****             #endif /* (CYBLE_GAP_ROLE_PERIPHERAL) */
1129:.\Generated_Source\PSoC4/BLE_1.c ****         }
1130:.\Generated_Source\PSoC4/BLE_1.c ****         else
1131:.\Generated_Source\PSoC4/BLE_1.c ****         {
1132:.\Generated_Source\PSoC4/BLE_1.c ****             apiResult = CYBLE_ERROR_INVALID_PARAMETER;
 711              		.loc 1 1132 0
 712 0042 0120     		mov	r0, #1
 713              	.LVL79:
 714              	.L54:
1133:.\Generated_Source\PSoC4/BLE_1.c ****         }
1134:.\Generated_Source\PSoC4/BLE_1.c ****         
1135:.\Generated_Source\PSoC4/BLE_1.c ****         return(apiResult);
1136:.\Generated_Source\PSoC4/BLE_1.c ****     }
 715              		.loc 1 1136 0
 716              		@ sp needed
 717              	.LVL80:
ARM GAS  C:\Users\danielpi\AppData\Local\Temp\ccfzId9l.s 			page 35


 718 0044 10BD     		pop	{r4, pc}
 719              	.L61:
 720 0046 C046     		.align	2
 721              	.L60:
 722 0048 00000000 		.word	cyBle_gattDB
 723              		.cfi_endproc
 724              	.LFE11:
 725              		.size	CyBle_GapSetLocalName, .-CyBle_GapSetLocalName
 726              		.section	.text.CyBle_GapGetLocalName,"ax",%progbits
 727              		.align	2
 728              		.global	CyBle_GapGetLocalName
 729              		.code	16
 730              		.thumb_func
 731              		.type	CyBle_GapGetLocalName, %function
 732              	CyBle_GapGetLocalName:
 733              	.LFB12:
1137:.\Generated_Source\PSoC4/BLE_1.c **** 
1138:.\Generated_Source\PSoC4/BLE_1.c **** 
1139:.\Generated_Source\PSoC4/BLE_1.c ****     /******************************************************************************
1140:.\Generated_Source\PSoC4/BLE_1.c ****     ##Function Name: CyBle_GapGetLocalName
1141:.\Generated_Source\PSoC4/BLE_1.c ****     *******************************************************************************
1142:.\Generated_Source\PSoC4/BLE_1.c ****  
1143:.\Generated_Source\PSoC4/BLE_1.c ****     Summary:
1144:.\Generated_Source\PSoC4/BLE_1.c ****      This API is used to read the local device name - a Characteristic of the 
1145:.\Generated_Source\PSoC4/BLE_1.c ****      GAP Service.
1146:.\Generated_Source\PSoC4/BLE_1.c **** 
1147:.\Generated_Source\PSoC4/BLE_1.c ****     Parameters:
1148:.\Generated_Source\PSoC4/BLE_1.c ****     char8 name: The local device name string. Used to read the local name to the
1149:.\Generated_Source\PSoC4/BLE_1.c ****                 given string array. It represents a UTF-8 encoded User Friendly 
1150:.\Generated_Source\PSoC4/BLE_1.c ****                 Descriptive Name for the device. The length of the local device
1151:.\Generated_Source\PSoC4/BLE_1.c ****                 string is entered into the component customizer and it can be set
1152:.\Generated_Source\PSoC4/BLE_1.c ****                 to a value from 0 to 248 bytes. If the name contained in the
1153:.\Generated_Source\PSoC4/BLE_1.c ****                 parameter is shorter than the length from the customizer, the end
1154:.\Generated_Source\PSoC4/BLE_1.c ****                 of the name is indicated by a NULL octet (0x00).
1155:.\Generated_Source\PSoC4/BLE_1.c **** 
1156:.\Generated_Source\PSoC4/BLE_1.c ****     Return:
1157:.\Generated_Source\PSoC4/BLE_1.c ****      CYBLE_API_RESULT_T : Return value indicates if the function succeeded or 
1158:.\Generated_Source\PSoC4/BLE_1.c ****      failed. Following are the possible error codes.
1159:.\Generated_Source\PSoC4/BLE_1.c ****      <table>
1160:.\Generated_Source\PSoC4/BLE_1.c ****       Errors codes                        Description
1161:.\Generated_Source\PSoC4/BLE_1.c ****       ------------                        -----------
1162:.\Generated_Source\PSoC4/BLE_1.c ****       CYBLE_ERROR_OK                      Function completed successfully.
1163:.\Generated_Source\PSoC4/BLE_1.c ****       CYBLE_ERROR_INVALID_PARAMETER       On specifying NULL as input parameter
1164:.\Generated_Source\PSoC4/BLE_1.c ****      </table>
1165:.\Generated_Source\PSoC4/BLE_1.c **** 
1166:.\Generated_Source\PSoC4/BLE_1.c ****     ******************************************************************************/
1167:.\Generated_Source\PSoC4/BLE_1.c ****     CYBLE_API_RESULT_T CyBle_GapGetLocalName(char8 name[])
1168:.\Generated_Source\PSoC4/BLE_1.c ****     {
 734              		.loc 1 1168 0
 735              		.cfi_startproc
 736              	.LVL81:
 737 0000 10B5     		push	{r4, lr}
 738              		.cfi_def_cfa_offset 8
 739              		.cfi_offset 4, -8
 740              		.cfi_offset 14, -4
 741              	.LVL82:
1169:.\Generated_Source\PSoC4/BLE_1.c ****         CYBLE_API_RESULT_T apiResult = CYBLE_ERROR_OK;
ARM GAS  C:\Users\danielpi\AppData\Local\Temp\ccfzId9l.s 			page 36


1170:.\Generated_Source\PSoC4/BLE_1.c ****         uint8 charLen;
1171:.\Generated_Source\PSoC4/BLE_1.c ****         uint8 i;
1172:.\Generated_Source\PSoC4/BLE_1.c ****         char8 *ptr;
1173:.\Generated_Source\PSoC4/BLE_1.c **** 
1174:.\Generated_Source\PSoC4/BLE_1.c ****         if(NULL != name)
 742              		.loc 1 1174 0
 743 0002 0028     		cmp	r0, #0
 744 0004 12D0     		beq	.L67
1175:.\Generated_Source\PSoC4/BLE_1.c ****         {
1176:.\Generated_Source\PSoC4/BLE_1.c ****             /* Get the pointer to the Device Name characteristic  */
1177:.\Generated_Source\PSoC4/BLE_1.c ****             ptr = (char8 *) CYBLE_GATT_DB_ATTR_GET_ATTR_GEN_PTR(CYBLE_GAP_DEVICE_NAME_INDEX + 1u);
 745              		.loc 1 1177 0
 746 0006 0A4B     		ldr	r3, .L68
 747 0008 9B6B     		ldr	r3, [r3, #56]
 748 000a 5C68     		ldr	r4, [r3, #4]
 749              	.LVL83:
1178:.\Generated_Source\PSoC4/BLE_1.c **** 
1179:.\Generated_Source\PSoC4/BLE_1.c ****             /* First need to get the length of the characteristic data in the GATT
1180:.\Generated_Source\PSoC4/BLE_1.c ****                 database to make sure there is enough place for the data. The length
1181:.\Generated_Source\PSoC4/BLE_1.c ****                 can't be longer than 248, so only the LSB of 16 bit of length is to
1182:.\Generated_Source\PSoC4/BLE_1.c ****                 be used. */
1183:.\Generated_Source\PSoC4/BLE_1.c ****             charLen = (uint8)CYBLE_GATT_DB_ATTR_GET_ATTR_GEN_LEN(CYBLE_GAP_DEVICE_NAME_INDEX + 1u);
 750              		.loc 1 1183 0
 751 000c 1978     		ldrb	r1, [r3]
 752              	.LVL84:
1184:.\Generated_Source\PSoC4/BLE_1.c **** 
1185:.\Generated_Source\PSoC4/BLE_1.c ****             /* Copy name from characteristic */
1186:.\Generated_Source\PSoC4/BLE_1.c ****             for(i = 0u; ((i < charLen) && (CYBLE_NULL_CHARCTER != ptr[i])); i++)
 753              		.loc 1 1186 0
 754 000e 0023     		mov	r3, #0
 755              	.LVL85:
 756 0010 02E0     		b	.L64
 757              	.LVL86:
 758              	.L66:
1187:.\Generated_Source\PSoC4/BLE_1.c ****             {
1188:.\Generated_Source\PSoC4/BLE_1.c ****                 name[i] = ptr[i];
 759              		.loc 1 1188 0 discriminator 1
 760 0012 C254     		strb	r2, [r0, r3]
1186:.\Generated_Source\PSoC4/BLE_1.c ****             for(i = 0u; ((i < charLen) && (CYBLE_NULL_CHARCTER != ptr[i])); i++)
 761              		.loc 1 1186 0 discriminator 1
 762 0014 0133     		add	r3, r3, #1
 763              	.LVL87:
 764 0016 DBB2     		uxtb	r3, r3
 765              	.LVL88:
 766              	.L64:
 767 0018 8B42     		cmp	r3, r1
 768 001a 02D2     		bcs	.L65
1186:.\Generated_Source\PSoC4/BLE_1.c ****             for(i = 0u; ((i < charLen) && (CYBLE_NULL_CHARCTER != ptr[i])); i++)
 769              		.loc 1 1186 0 is_stmt 0 discriminator 2
 770 001c E25C     		ldrb	r2, [r4, r3]
 771 001e 002A     		cmp	r2, #0
 772 0020 F7D1     		bne	.L66
 773              	.L65:
1189:.\Generated_Source\PSoC4/BLE_1.c ****             }
1190:.\Generated_Source\PSoC4/BLE_1.c **** 
1191:.\Generated_Source\PSoC4/BLE_1.c ****             /* Terminate string */
1192:.\Generated_Source\PSoC4/BLE_1.c ****             name[i] = CYBLE_NULL_CHARCTER;
ARM GAS  C:\Users\danielpi\AppData\Local\Temp\ccfzId9l.s 			page 37


 774              		.loc 1 1192 0 is_stmt 1
 775 0022 C318     		add	r3, r0, r3
 776              	.LVL89:
 777 0024 0022     		mov	r2, #0
 778 0026 1A70     		strb	r2, [r3]
1169:.\Generated_Source\PSoC4/BLE_1.c ****         CYBLE_API_RESULT_T apiResult = CYBLE_ERROR_OK;
 779              		.loc 1 1169 0
 780 0028 0020     		mov	r0, #0
 781              	.LVL90:
 782 002a 00E0     		b	.L63
 783              	.LVL91:
 784              	.L67:
1193:.\Generated_Source\PSoC4/BLE_1.c ****         }
1194:.\Generated_Source\PSoC4/BLE_1.c ****         else
1195:.\Generated_Source\PSoC4/BLE_1.c ****         {
1196:.\Generated_Source\PSoC4/BLE_1.c ****             apiResult = CYBLE_ERROR_INVALID_PARAMETER;
 785              		.loc 1 1196 0
 786 002c 0120     		mov	r0, #1
 787              	.LVL92:
 788              	.L63:
1197:.\Generated_Source\PSoC4/BLE_1.c ****         }
1198:.\Generated_Source\PSoC4/BLE_1.c ****         
1199:.\Generated_Source\PSoC4/BLE_1.c ****         return(apiResult);
1200:.\Generated_Source\PSoC4/BLE_1.c ****     }
 789              		.loc 1 1200 0
 790              		@ sp needed
 791 002e 10BD     		pop	{r4, pc}
 792              	.L69:
 793              		.align	2
 794              	.L68:
 795 0030 00000000 		.word	cyBle_gattDB
 796              		.cfi_endproc
 797              	.LFE12:
 798              		.size	CyBle_GapGetLocalName, .-CyBle_GapGetLocalName
 799              		.section	.text.CyBle_Get16ByPtr,"ax",%progbits
 800              		.align	2
 801              		.global	CyBle_Get16ByPtr
 802              		.code	16
 803              		.thumb_func
 804              		.type	CyBle_Get16ByPtr, %function
 805              	CyBle_Get16ByPtr:
 806              	.LFB13:
1201:.\Generated_Source\PSoC4/BLE_1.c **** 
1202:.\Generated_Source\PSoC4/BLE_1.c **** #endif /* (CYBLE_GATT_ROLE_SERVER) */
1203:.\Generated_Source\PSoC4/BLE_1.c **** 
1204:.\Generated_Source\PSoC4/BLE_1.c **** 
1205:.\Generated_Source\PSoC4/BLE_1.c **** /******************************************************************************
1206:.\Generated_Source\PSoC4/BLE_1.c **** ##Function Name: CyBle_Get16ByPtr
1207:.\Generated_Source\PSoC4/BLE_1.c **** *******************************************************************************
1208:.\Generated_Source\PSoC4/BLE_1.c **** 
1209:.\Generated_Source\PSoC4/BLE_1.c **** Summary:
1210:.\Generated_Source\PSoC4/BLE_1.c ****  Returns the two-bytes value by using a pointer to the LSB.
1211:.\Generated_Source\PSoC4/BLE_1.c **** 
1212:.\Generated_Source\PSoC4/BLE_1.c **** Parameters:
1213:.\Generated_Source\PSoC4/BLE_1.c ****  uint8 * ptr: Pointer to the LSB of two-bytes data (little endian).
1214:.\Generated_Source\PSoC4/BLE_1.c **** 
1215:.\Generated_Source\PSoC4/BLE_1.c **** Return:
ARM GAS  C:\Users\danielpi\AppData\Local\Temp\ccfzId9l.s 			page 38


1216:.\Generated_Source\PSoC4/BLE_1.c ****  uint16 value: Two-bytes data.
1217:.\Generated_Source\PSoC4/BLE_1.c **** 
1218:.\Generated_Source\PSoC4/BLE_1.c **** ******************************************************************************/
1219:.\Generated_Source\PSoC4/BLE_1.c **** uint16 CyBle_Get16ByPtr(const uint8 ptr[])
1220:.\Generated_Source\PSoC4/BLE_1.c **** {
 807              		.loc 1 1220 0
 808              		.cfi_startproc
 809              	.LVL93:
1221:.\Generated_Source\PSoC4/BLE_1.c ****     return ((uint16) ptr[0u] | ((uint16) (((uint16) ptr[1u]) << 8u)));
 810              		.loc 1 1221 0
 811 0000 0378     		ldrb	r3, [r0]
 812 0002 4078     		ldrb	r0, [r0, #1]
 813              	.LVL94:
 814 0004 0002     		lsl	r0, r0, #8
 815 0006 1843     		orr	r0, r3
1222:.\Generated_Source\PSoC4/BLE_1.c **** }
 816              		.loc 1 1222 0
 817              		@ sp needed
 818 0008 7047     		bx	lr
 819              		.cfi_endproc
 820              	.LFE13:
 821              		.size	CyBle_Get16ByPtr, .-CyBle_Get16ByPtr
 822 000a C046     		.section	.text.CyBle_Set16ByPtr,"ax",%progbits
 823              		.align	2
 824              		.global	CyBle_Set16ByPtr
 825              		.code	16
 826              		.thumb_func
 827              		.type	CyBle_Set16ByPtr, %function
 828              	CyBle_Set16ByPtr:
 829              	.LFB14:
1223:.\Generated_Source\PSoC4/BLE_1.c **** 
1224:.\Generated_Source\PSoC4/BLE_1.c **** 
1225:.\Generated_Source\PSoC4/BLE_1.c **** /******************************************************************************
1226:.\Generated_Source\PSoC4/BLE_1.c **** ##Function Name: CyBle_Set16ByPtr
1227:.\Generated_Source\PSoC4/BLE_1.c **** *******************************************************************************
1228:.\Generated_Source\PSoC4/BLE_1.c **** 
1229:.\Generated_Source\PSoC4/BLE_1.c **** Summary:
1230:.\Generated_Source\PSoC4/BLE_1.c ****  Sets the two-bytes value by using a pointer to the LSB.
1231:.\Generated_Source\PSoC4/BLE_1.c **** 
1232:.\Generated_Source\PSoC4/BLE_1.c **** Parameters:
1233:.\Generated_Source\PSoC4/BLE_1.c ****  uint8 * ptr:   Pointer to the LSB of two-bytes data (little endian).
1234:.\Generated_Source\PSoC4/BLE_1.c ****  uint16 value:  Two-bytes data to be written.
1235:.\Generated_Source\PSoC4/BLE_1.c **** 
1236:.\Generated_Source\PSoC4/BLE_1.c **** Return:
1237:.\Generated_Source\PSoC4/BLE_1.c ****  None
1238:.\Generated_Source\PSoC4/BLE_1.c **** 
1239:.\Generated_Source\PSoC4/BLE_1.c **** ******************************************************************************/
1240:.\Generated_Source\PSoC4/BLE_1.c **** void CyBle_Set16ByPtr(uint8 ptr[], uint16 value)
1241:.\Generated_Source\PSoC4/BLE_1.c **** {
 830              		.loc 1 1241 0
 831              		.cfi_startproc
 832              	.LVL95:
1242:.\Generated_Source\PSoC4/BLE_1.c ****     ptr[0u] = (uint8) value;
 833              		.loc 1 1242 0
 834 0000 0170     		strb	r1, [r0]
1243:.\Generated_Source\PSoC4/BLE_1.c ****     ptr[1u] = (uint8) (value >> 8u);
 835              		.loc 1 1243 0
ARM GAS  C:\Users\danielpi\AppData\Local\Temp\ccfzId9l.s 			page 39


 836 0002 090A     		lsr	r1, r1, #8
 837              	.LVL96:
 838 0004 4170     		strb	r1, [r0, #1]
1244:.\Generated_Source\PSoC4/BLE_1.c **** }
 839              		.loc 1 1244 0
 840              		@ sp needed
 841 0006 7047     		bx	lr
 842              		.cfi_endproc
 843              	.LFE14:
 844              		.size	CyBle_Set16ByPtr, .-CyBle_Set16ByPtr
 845              		.global	cyBle_StackFlashptr
 846              		.global	cyBle_sflashDeviceAddress
 847              		.global	cyBle_deviceAddress
 848              		.comm	CyBle_ApplCallback,4,4
 849              		.comm	cyBle_pendingFlashWrite,1,1
 850              		.global	cyBle_discoveryModeInfo
 851              		.global	cyBle_scanRspData
 852              		.global	cyBle_discoveryData
 853              		.global	cyBle_discoveryParam
 854              		.comm	cyBle_stackMemoryRam,2760,8
 855              		.global	cyBle_initVar
 856              		.section	.rodata
 857              		.align	7
 858              		.set	.LANCHOR2,. + 0
 859              		.set	.LANCHOR3,. + 128
 860              	.LC0:
 861 0000 2400     		.short	36
 862 0002 03       		.byte	3
 863 0003 00       		.space	1
 864 0004 1C00     		.short	28
 865 0006 01       		.byte	1
 866 0007 00       		.space	1
 867 0008 3000     		.short	48
 868 000a 01       		.byte	1
 869 000b 00       		.space	1
 870 000c 4800     		.short	72
 871 000e 01       		.byte	1
 872 000f 00       		.space	1
 873 0010 2400     		.short	36
 874 0012 01       		.byte	1
 875 0013 00       		.space	1
 876 0014 2400     		.short	36
 877 0016 01       		.byte	1
 878 0017 00       		.space	1
 879 0018 00000000 		.space	104
 879      00000000 
 879      00000000 
 879      00000000 
 879      00000000 
 880              		.type	cyBle_StackFlashptr, %object
 881              		.size	cyBle_StackFlashptr, 365
 882              	cyBle_StackFlashptr:
 883 0080 00000000 		.space	365
 883      00000000 
 883      00000000 
 883      00000000 
 883      00000000 
ARM GAS  C:\Users\danielpi\AppData\Local\Temp\ccfzId9l.s 			page 40


 884 01ed 00000000 		.data
 884      00000000 
 884      00000000 
 884      00000000 
 884      000000
 885              		.align	2
 886              		.set	.LANCHOR0,. + 0
 887              		.type	cyBle_discoveryData, %object
 888              		.size	cyBle_discoveryData, 32
 889              	cyBle_discoveryData:
 890 0000 02       		.byte	2
 891 0001 01       		.byte	1
 892 0002 06       		.byte	6
 893 0003 0D       		.byte	13
 894 0004 09       		.byte	9
 895 0005 50       		.byte	80
 896 0006 53       		.byte	83
 897 0007 6F       		.byte	111
 898 0008 43       		.byte	67
 899 0009 20       		.byte	32
 900 000a 50       		.byte	80
 901 000b 69       		.byte	105
 902 000c 6F       		.byte	111
 903 000d 6E       		.byte	110
 904 000e 65       		.byte	101
 905 000f 65       		.byte	101
 906 0010 72       		.byte	114
 907 0011 05       		.byte	5
 908 0012 03       		.byte	3
 909 0013 B5       		.byte	-75
 910 0014 CA       		.byte	-54
 911 0015 BB       		.byte	-69
 912 0016 CB       		.byte	-53
 913 0017 00       		.byte	0
 914 0018 00       		.byte	0
 915 0019 00       		.byte	0
 916 001a 00       		.byte	0
 917 001b 00       		.byte	0
 918 001c 00       		.byte	0
 919 001d 00       		.byte	0
 920 001e 00       		.byte	0
 921 001f 17       		.byte	23
 922              		.type	cyBle_scanRspData, %object
 923              		.size	cyBle_scanRspData, 32
 924              	cyBle_scanRspData:
 925 0020 07       		.byte	7
 926 0021 16       		.byte	22
 927 0022 BB       		.byte	-69
 928 0023 CB       		.byte	-53
 929 0024 FF       		.byte	-1
 930 0025 FF       		.byte	-1
 931 0026 FF       		.byte	-1
 932 0027 FF       		.byte	-1
 933 0028 00       		.byte	0
 934 0029 00       		.byte	0
 935 002a 00       		.byte	0
 936 002b 00       		.byte	0
ARM GAS  C:\Users\danielpi\AppData\Local\Temp\ccfzId9l.s 			page 41


 937 002c 00       		.byte	0
 938 002d 00       		.byte	0
 939 002e 00       		.byte	0
 940 002f 00       		.byte	0
 941 0030 00       		.byte	0
 942 0031 00       		.byte	0
 943 0032 00       		.byte	0
 944 0033 00       		.byte	0
 945 0034 00       		.byte	0
 946 0035 00       		.byte	0
 947 0036 00       		.byte	0
 948 0037 00       		.byte	0
 949 0038 00       		.byte	0
 950 0039 00       		.byte	0
 951 003a 00       		.byte	0
 952 003b 00       		.byte	0
 953 003c 00       		.byte	0
 954 003d 00       		.byte	0
 955 003e 00       		.byte	0
 956 003f 08       		.byte	8
 957              		.type	cyBle_discoveryModeInfo, %object
 958              		.size	cyBle_discoveryModeInfo, 20
 959              	cyBle_discoveryModeInfo:
 960 0040 02       		.byte	2
 961 0041 000000   		.space	3
 962 0044 00000000 		.word	cyBle_discoveryParam
 963 0048 00000000 		.word	cyBle_discoveryData
 964 004c 00000000 		.word	cyBle_scanRspData
 965 0050 7800     		.short	120
 966 0052 0000     		.space	2
 967              		.type	cyBle_sflashDeviceAddress, %object
 968              		.size	cyBle_sflashDeviceAddress, 4
 969              	cyBle_sflashDeviceAddress:
 970 0054 00F2FF0F 		.word	268431872
 971              		.type	cyBle_deviceAddress, %object
 972              		.size	cyBle_deviceAddress, 7
 973              	cyBle_deviceAddress:
 974 0058 00       		.byte	0
 975 0059 00       		.byte	0
 976 005a 00       		.byte	0
 977 005b 50       		.byte	80
 978 005c A0       		.byte	-96
 979 005d 00       		.byte	0
 980 005e 00       		.byte	0
 981 005f 00       		.space	1
 982              		.type	cyBle_discoveryParam, %object
 983              		.size	cyBle_discoveryParam, 16
 984              	cyBle_discoveryParam:
 985 0060 4001     		.short	320
 986 0062 E001     		.short	480
 987 0064 00       		.byte	0
 988 0065 00       		.byte	0
 989 0066 00       		.byte	0
 990 0067 00       		.byte	0
 991 0068 00       		.byte	0
 992 0069 00       		.byte	0
 993 006a 50       		.byte	80
ARM GAS  C:\Users\danielpi\AppData\Local\Temp\ccfzId9l.s 			page 42


 994 006b A0       		.byte	-96
 995 006c 00       		.byte	0
 996 006d 07       		.byte	7
 997 006e 00       		.byte	0
 998 006f 00       		.space	1
 999              		.bss
 1000              		.set	.LANCHOR1,. + 0
 1001              		.type	cyBle_initVar, %object
 1002              		.size	cyBle_initVar, 1
 1003              	cyBle_initVar:
 1004 0000 00       		.space	1
 1005              		.text
 1006              	.Letext0:
 1007              		.file 2 ".\\Generated_Source\\PSoC4\\cytypes.h"
 1008              		.file 3 ".\\Generated_Source\\PSoC4\\BLE_1_Stack.h"
 1009              		.file 4 ".\\Generated_Source\\PSoC4\\BLE_1_StackGap.h"
 1010              		.file 5 ".\\Generated_Source\\PSoC4\\BLE_1_StackGatt.h"
 1011              		.file 6 ".\\Generated_Source\\PSoC4\\BLE_1_StackGattDb.h"
 1012              		.file 7 ".\\Generated_Source\\PSoC4\\BLE_1.h"
 1013              		.file 8 ".\\Generated_Source\\PSoC4\\BLE_1_eventHandler.h"
 1014              		.file 9 ".\\Generated_Source\\PSoC4\\BLE_1_gatt.h"
 1015              		.file 10 ".\\Generated_Source\\PSoC4\\BLE_1_custom.h"
 1016              		.file 11 ".\\Generated_Source\\PSoC4\\BLE_1_StackHostMain.h"