ARM GAS  C:\Users\danielpi\AppData\Local\Temp\ccmGehZx.s 			page 1


   1              		.cpu cortex-m0
   2              		.fpu softvfp
   3              		.eabi_attribute 20, 1
   4              		.eabi_attribute 21, 1
   5              		.eabi_attribute 23, 3
   6              		.eabi_attribute 24, 1
   7              		.eabi_attribute 25, 1
   8              		.eabi_attribute 26, 1
   9              		.eabi_attribute 30, 1
  10              		.eabi_attribute 34, 0
  11              		.eabi_attribute 18, 4
  12              		.code	16
  13              		.file	"CapSense_1_SMS.c"
  14              		.text
  15              	.Ltext0:
  16              		.cfi_sections	.debug_frame
  17              		.section	.text.CapSense_1_UpdateThresholds,"ax",%progbits
  18              		.align	2
  19              		.global	CapSense_1_UpdateThresholds
  20              		.code	16
  21              		.thumb_func
  22              		.type	CapSense_1_UpdateThresholds, %function
  23              	CapSense_1_UpdateThresholds:
  24              	.LFB36:
  25              		.file 1 ".\\Generated_Source\\PSoC4\\CapSense_1_SMS.c"
   1:.\Generated_Source\PSoC4/CapSense_1_SMS.c **** /*******************************************************************************
   2:.\Generated_Source\PSoC4/CapSense_1_SMS.c **** * File Name: CapSense_1_SMS.c
   3:.\Generated_Source\PSoC4/CapSense_1_SMS.c **** * Version 2.20
   4:.\Generated_Source\PSoC4/CapSense_1_SMS.c **** *
   5:.\Generated_Source\PSoC4/CapSense_1_SMS.c **** * Description:
   6:.\Generated_Source\PSoC4/CapSense_1_SMS.c **** *  This file provides the source code of wrapper between CapSense CSD component 
   7:.\Generated_Source\PSoC4/CapSense_1_SMS.c **** *  and Auto Tuning library.
   8:.\Generated_Source\PSoC4/CapSense_1_SMS.c **** *
   9:.\Generated_Source\PSoC4/CapSense_1_SMS.c **** * Note:
  10:.\Generated_Source\PSoC4/CapSense_1_SMS.c **** *
  11:.\Generated_Source\PSoC4/CapSense_1_SMS.c **** ********************************************************************************
  12:.\Generated_Source\PSoC4/CapSense_1_SMS.c **** * Copyright 2014, Cypress Semiconductor Corporation.  All rights reserved.
  13:.\Generated_Source\PSoC4/CapSense_1_SMS.c **** * You may use this file only in accordance with the license, terms, conditions,
  14:.\Generated_Source\PSoC4/CapSense_1_SMS.c **** * disclaimers, and limitations in the end user license agreement accompanying
  15:.\Generated_Source\PSoC4/CapSense_1_SMS.c **** * the software package with which this file was provided.
  16:.\Generated_Source\PSoC4/CapSense_1_SMS.c **** *******************************************************************************/
  17:.\Generated_Source\PSoC4/CapSense_1_SMS.c **** 
  18:.\Generated_Source\PSoC4/CapSense_1_SMS.c **** #include "CapSense_1_SMS.h"
  19:.\Generated_Source\PSoC4/CapSense_1_SMS.c **** #include "CapSense_1_PVT.h"
  20:.\Generated_Source\PSoC4/CapSense_1_SMS.c **** 
  21:.\Generated_Source\PSoC4/CapSense_1_SMS.c **** #include "cytypes.h"
  22:.\Generated_Source\PSoC4/CapSense_1_SMS.c **** 
  23:.\Generated_Source\PSoC4/CapSense_1_SMS.c **** #if (CapSense_1_TUNING_METHOD == CapSense_1__TUNING_AUTO)
  24:.\Generated_Source\PSoC4/CapSense_1_SMS.c **** 
  25:.\Generated_Source\PSoC4/CapSense_1_SMS.c **** 
  26:.\Generated_Source\PSoC4/CapSense_1_SMS.c **** /*  Real Charge Divider values */
  27:.\Generated_Source\PSoC4/CapSense_1_SMS.c **** #if (CY_PSOC4_4100BL || CY_PSOC4_4200BL || CY_PSOC4_4100M || CY_PSOC4_4200M)
  28:.\Generated_Source\PSoC4/CapSense_1_SMS.c ****     /*  Dividers are not chained */
  29:.\Generated_Source\PSoC4/CapSense_1_SMS.c **** 	#if (CYDEV_BCLK__HFCLK__MHZ > 24u)
  30:.\Generated_Source\PSoC4/CapSense_1_SMS.c **** 		const uint8 prescalerTable[CapSense_1_PRESCALERS_TBL_SIZE] = {
  31:.\Generated_Source\PSoC4/CapSense_1_SMS.c **** 			4u,     4u,     4u,    8u,    8u,    8u,    8u,    16u,    16u,    16u,    16u,    16u,    16u, 
  32:.\Generated_Source\PSoC4/CapSense_1_SMS.c **** 		};
ARM GAS  C:\Users\danielpi\AppData\Local\Temp\ccmGehZx.s 			page 2


  33:.\Generated_Source\PSoC4/CapSense_1_SMS.c **** 	#elif (CYDEV_BCLK__HFCLK__MHZ >12u)
  34:.\Generated_Source\PSoC4/CapSense_1_SMS.c **** 		const uint8 prescalerTable[CapSense_1_PRESCALERS_TBL_SIZE] = {
  35:.\Generated_Source\PSoC4/CapSense_1_SMS.c **** 			2u,     2u,     2u,    4u,    4u,    4u,    4u,    8u,    8u,    8u,    8u,    8u,    8u,    8u,
  36:.\Generated_Source\PSoC4/CapSense_1_SMS.c **** 		};
  37:.\Generated_Source\PSoC4/CapSense_1_SMS.c **** 	#else   /* (CYDEV_BCLK__HFCLK__MHZ > 12u) */
  38:.\Generated_Source\PSoC4/CapSense_1_SMS.c **** 		const uint8 prescalerTable[CapSense_1_PRESCALERS_TBL_SIZE] = {
  39:.\Generated_Source\PSoC4/CapSense_1_SMS.c **** 			1u,     1u,     1u,    2u,    2u,    2u,    2u,    4u,    4u,    4u,    4u,    4u,    4u,    4u,
  40:.\Generated_Source\PSoC4/CapSense_1_SMS.c **** 		};
  41:.\Generated_Source\PSoC4/CapSense_1_SMS.c **** 	#endif /* (CYDEV_BCLK__HFCLK__MHZ > 24u) */
  42:.\Generated_Source\PSoC4/CapSense_1_SMS.c **** 	
  43:.\Generated_Source\PSoC4/CapSense_1_SMS.c **** #elif (0u != CapSense_1_IS_M0S8PERI_BLOCK)
  44:.\Generated_Source\PSoC4/CapSense_1_SMS.c ****     /*  Dividers are not chained (PSoC 4000) */
  45:.\Generated_Source\PSoC4/CapSense_1_SMS.c **** 	#if (CYDEV_BCLK__HFCLK__MHZ >= 12u)
  46:.\Generated_Source\PSoC4/CapSense_1_SMS.c **** 		const uint8 prescalerTable[CapSense_1_PRESCALERS_TBL_SIZE] = {
  47:.\Generated_Source\PSoC4/CapSense_1_SMS.c **** 			1u,     1u,     1u,    2u,    2u,    2u,    2u,    4u,    4u,    4u,    4u,    4u,    4u,    4u,
  48:.\Generated_Source\PSoC4/CapSense_1_SMS.c **** 		};
  49:.\Generated_Source\PSoC4/CapSense_1_SMS.c **** 
  50:.\Generated_Source\PSoC4/CapSense_1_SMS.c **** 	#elif (CYDEV_BCLK__HFCLK__MHZ >= 6u)
  51:.\Generated_Source\PSoC4/CapSense_1_SMS.c **** 		const uint8 prescalerTable[CapSense_1_PRESCALERS_TBL_SIZE] = {
  52:.\Generated_Source\PSoC4/CapSense_1_SMS.c **** 			1u,     1u,     1u,    1u,    1u,    1u,    1u,    2u,    2u,    2u,    2u,    2u,    2u,    2u,
  53:.\Generated_Source\PSoC4/CapSense_1_SMS.c **** 		};
  54:.\Generated_Source\PSoC4/CapSense_1_SMS.c **** 	#else
  55:.\Generated_Source\PSoC4/CapSense_1_SMS.c **** 		const uint8 prescalerTable[CapSense_1_PRESCALERS_TBL_SIZE] = {
  56:.\Generated_Source\PSoC4/CapSense_1_SMS.c **** 			1u,     1u,     1u,    1u,    1u,    1u,    1u,    1u,    1u,    1u,    1u,    1u,    1u,    1u,
  57:.\Generated_Source\PSoC4/CapSense_1_SMS.c **** 		};
  58:.\Generated_Source\PSoC4/CapSense_1_SMS.c **** 	#endif /* (CYDEV_BCLK__HFCLK__MHZ > 12u) */
  59:.\Generated_Source\PSoC4/CapSense_1_SMS.c **** 
  60:.\Generated_Source\PSoC4/CapSense_1_SMS.c **** #else
  61:.\Generated_Source\PSoC4/CapSense_1_SMS.c ****     /*  Dividers are chained (PSoC 4100, PSoC 4200) */ 
  62:.\Generated_Source\PSoC4/CapSense_1_SMS.c **** 	#if (CYDEV_BCLK__HFCLK__MHZ > 24u)
  63:.\Generated_Source\PSoC4/CapSense_1_SMS.c **** 		const uint8 prescalerTable[CapSense_1_PRESCALERS_TBL_SIZE] = {
  64:.\Generated_Source\PSoC4/CapSense_1_SMS.c **** 			2u,     2u,     2u,    4u,    4u,    4u,    4u,    8u,    8u,    8u,    8u,    8u,    8u,    8u,
  65:.\Generated_Source\PSoC4/CapSense_1_SMS.c **** 		};
  66:.\Generated_Source\PSoC4/CapSense_1_SMS.c **** 
  67:.\Generated_Source\PSoC4/CapSense_1_SMS.c **** 	#elif (CYDEV_BCLK__HFCLK__MHZ >12u)
  68:.\Generated_Source\PSoC4/CapSense_1_SMS.c **** 		const uint8 prescalerTable[CapSense_1_PRESCALERS_TBL_SIZE] = {
  69:.\Generated_Source\PSoC4/CapSense_1_SMS.c **** 			1u,     1u,     1u,    2u,    2u,    2u,    2u,    4u,    4u,    4u,    4u,    4u,    4u,    4u,
  70:.\Generated_Source\PSoC4/CapSense_1_SMS.c **** 		};
  71:.\Generated_Source\PSoC4/CapSense_1_SMS.c **** 	#else   /* (CYDEV_BCLK__HFCLK__MHZ > 12u) */
  72:.\Generated_Source\PSoC4/CapSense_1_SMS.c **** 		const uint8 prescalerTable[CapSense_1_PRESCALERS_TBL_SIZE] = {
  73:.\Generated_Source\PSoC4/CapSense_1_SMS.c **** 			1u,     1u,     1u,    1u,    1u,    1u,    1u,    2u,    2u,    2u,    2u,    2u,    2u,    2u,
  74:.\Generated_Source\PSoC4/CapSense_1_SMS.c **** 		};
  75:.\Generated_Source\PSoC4/CapSense_1_SMS.c **** 	#endif /* (CYDEV_BCLK__HFCLK__MHZ > 24u) */
  76:.\Generated_Source\PSoC4/CapSense_1_SMS.c **** #endif /* (CY_PSOC4_4100BL || CY_PSOC4_4200BL || CY_PSOC4_4100M || CY_PSOC4_4200M) */
  77:.\Generated_Source\PSoC4/CapSense_1_SMS.c **** 
  78:.\Generated_Source\PSoC4/CapSense_1_SMS.c **** 
  79:.\Generated_Source\PSoC4/CapSense_1_SMS.c **** uint8 noiseEnvelopeTbl[CapSense_1_TOTAL_SENSOR_COUNT];
  80:.\Generated_Source\PSoC4/CapSense_1_SMS.c **** uint8 runningDifferenceTbl[CapSense_1_TOTAL_SENSOR_COUNT];
  81:.\Generated_Source\PSoC4/CapSense_1_SMS.c **** uint8 signRegisterTbl[CapSense_1_TOTAL_SENSOR_COUNT];
  82:.\Generated_Source\PSoC4/CapSense_1_SMS.c **** uint16 sampleMinTbl[CapSense_1_TOTAL_SENSOR_COUNT];
  83:.\Generated_Source\PSoC4/CapSense_1_SMS.c **** uint16 sampleMaxTbl[CapSense_1_TOTAL_SENSOR_COUNT];
  84:.\Generated_Source\PSoC4/CapSense_1_SMS.c **** uint16 previousSampleTbl[CapSense_1_TOTAL_SENSOR_COUNT];
  85:.\Generated_Source\PSoC4/CapSense_1_SMS.c **** uint8 kValueTbl[CapSense_1_TOTAL_SENSOR_COUNT];
  86:.\Generated_Source\PSoC4/CapSense_1_SMS.c **** 
  87:.\Generated_Source\PSoC4/CapSense_1_SMS.c **** uint8 SMS_LIB_SensorSensitivity[] = {
  88:.\Generated_Source\PSoC4/CapSense_1_SMS.c ****     2u, 2u, 2u, 2u, 2u, 
  89:.\Generated_Source\PSoC4/CapSense_1_SMS.c **** };
ARM GAS  C:\Users\danielpi\AppData\Local\Temp\ccmGehZx.s 			page 3


  90:.\Generated_Source\PSoC4/CapSense_1_SMS.c **** 
  91:.\Generated_Source\PSoC4/CapSense_1_SMS.c **** CapSense_1_CONFIG_TYPE_P4_v2_20 CapSense_1_config;
  92:.\Generated_Source\PSoC4/CapSense_1_SMS.c **** CapSense_1_CONFIG_TYPE_POINTERS_P4_v2_20 const CapSense_1_configPointers = {
  93:.\Generated_Source\PSoC4/CapSense_1_SMS.c ****     CapSense_1_modulationIDAC,
  94:.\Generated_Source\PSoC4/CapSense_1_SMS.c ****     CapSense_1_compensationIDAC,
  95:.\Generated_Source\PSoC4/CapSense_1_SMS.c ****      SMS_LIB_SensorSensitivity,
  96:.\Generated_Source\PSoC4/CapSense_1_SMS.c ****     CapSense_1_senseClkDividerVal,
  97:.\Generated_Source\PSoC4/CapSense_1_SMS.c ****     CapSense_1_sampleClkDividerVal,
  98:.\Generated_Source\PSoC4/CapSense_1_SMS.c ****     CapSense_1_widgetNumber,
  99:.\Generated_Source\PSoC4/CapSense_1_SMS.c ****     CapSense_1_widgetResolution,
 100:.\Generated_Source\PSoC4/CapSense_1_SMS.c **** 	(const uint8  *)CapSense_1_rawDataIndex,
 101:.\Generated_Source\PSoC4/CapSense_1_SMS.c **** 	(const uint8  *)CapSense_1_numberOfSensors,
 102:.\Generated_Source\PSoC4/CapSense_1_SMS.c ****     &CapSense_1_GetSensorRaw,
 103:.\Generated_Source\PSoC4/CapSense_1_SMS.c ****     &CapSense_1_PreScan,
 104:.\Generated_Source\PSoC4/CapSense_1_SMS.c ****     &CapSense_1_ReadSensorRaw,
 105:.\Generated_Source\PSoC4/CapSense_1_SMS.c ****     &CapSense_1_GetBitValue,
 106:.\Generated_Source\PSoC4/CapSense_1_SMS.c **** 	&CapSense_1_SetBitValue
 107:.\Generated_Source\PSoC4/CapSense_1_SMS.c **** };
 108:.\Generated_Source\PSoC4/CapSense_1_SMS.c **** 
 109:.\Generated_Source\PSoC4/CapSense_1_SMS.c **** 
 110:.\Generated_Source\PSoC4/CapSense_1_SMS.c **** /*******************************************************************************
 111:.\Generated_Source\PSoC4/CapSense_1_SMS.c **** * Function Name: CapSense_1_AutoTune
 112:.\Generated_Source\PSoC4/CapSense_1_SMS.c **** ********************************************************************************
 113:.\Generated_Source\PSoC4/CapSense_1_SMS.c **** *
 114:.\Generated_Source\PSoC4/CapSense_1_SMS.c **** * Summary:
 115:.\Generated_Source\PSoC4/CapSense_1_SMS.c **** *  Provides the tuning procedure for all sensors.
 116:.\Generated_Source\PSoC4/CapSense_1_SMS.c **** *
 117:.\Generated_Source\PSoC4/CapSense_1_SMS.c **** * Parameters:
 118:.\Generated_Source\PSoC4/CapSense_1_SMS.c **** *  None
 119:.\Generated_Source\PSoC4/CapSense_1_SMS.c **** *
 120:.\Generated_Source\PSoC4/CapSense_1_SMS.c **** * Return:
 121:.\Generated_Source\PSoC4/CapSense_1_SMS.c **** *  None
 122:.\Generated_Source\PSoC4/CapSense_1_SMS.c **** *
 123:.\Generated_Source\PSoC4/CapSense_1_SMS.c **** * Global Variables:
 124:.\Generated_Source\PSoC4/CapSense_1_SMS.c **** *   CapSense_1_config: the structure which contains configuration parameters
 125:.\Generated_Source\PSoC4/CapSense_1_SMS.c **** *   CapSense_1_senseClkDividerVal[]: used to store the Analog Switch 
 126:.\Generated_Source\PSoC4/CapSense_1_SMS.c **** *   dividers for each sensor.
 127:.\Generated_Source\PSoC4/CapSense_1_SMS.c **** *   CapSense_1_senseClkDividerVal[]: used to store the 
 128:.\Generated_Source\PSoC4/CapSense_1_SMS.c **** *    Analog Switch divider for all sensors.
 129:.\Generated_Source\PSoC4/CapSense_1_SMS.c **** *   CapSense_1_prescalersTuningDone - used to notify the Tuner GUI that 
 130:.\Generated_Source\PSoC4/CapSense_1_SMS.c **** *   the pre-scalers tuning  is done.
 131:.\Generated_Source\PSoC4/CapSense_1_SMS.c **** *
 132:.\Generated_Source\PSoC4/CapSense_1_SMS.c **** * Side Effects:
 133:.\Generated_Source\PSoC4/CapSense_1_SMS.c **** *  None
 134:.\Generated_Source\PSoC4/CapSense_1_SMS.c **** *
 135:.\Generated_Source\PSoC4/CapSense_1_SMS.c **** *******************************************************************************/
 136:.\Generated_Source\PSoC4/CapSense_1_SMS.c **** void CapSense_1_AutoTune(void)
 137:.\Generated_Source\PSoC4/CapSense_1_SMS.c **** {
 138:.\Generated_Source\PSoC4/CapSense_1_SMS.c **** 	uint32 curSensor;
 139:.\Generated_Source\PSoC4/CapSense_1_SMS.c ****     uint32 widget;
 140:.\Generated_Source\PSoC4/CapSense_1_SMS.c **** 
 141:.\Generated_Source\PSoC4/CapSense_1_SMS.c **** 	CapSense_1_config.totalScanslotsNum = CapSense_1_TOTAL_SCANSLOT_COUNT;
 142:.\Generated_Source\PSoC4/CapSense_1_SMS.c **** 	CapSense_1_config.totalWidgetsNum = CapSense_1_END_OF_WIDGETS_INDEX;
 143:.\Generated_Source\PSoC4/CapSense_1_SMS.c **** 	CapSense_1_config.totalSensorsNum = CapSense_1_TOTAL_SENSOR_COUNT;
 144:.\Generated_Source\PSoC4/CapSense_1_SMS.c **** 	
 145:.\Generated_Source\PSoC4/CapSense_1_SMS.c **** 	CapSense_1_config.hfclkFreq_MHz = CYDEV_BCLK__HFCLK__MHZ;
 146:.\Generated_Source\PSoC4/CapSense_1_SMS.c **** 	CapSense_1_config.sensetivitySeed = CapSense_1_SENSETIVITY_FACTOR;
ARM GAS  C:\Users\danielpi\AppData\Local\Temp\ccmGehZx.s 			page 4


 147:.\Generated_Source\PSoC4/CapSense_1_SMS.c **** 	
 148:.\Generated_Source\PSoC4/CapSense_1_SMS.c ****     CapSense_1_config.pointers = &CapSense_1_configPointers;       
 149:.\Generated_Source\PSoC4/CapSense_1_SMS.c ****     
 150:.\Generated_Source\PSoC4/CapSense_1_SMS.c **** 	CapSense_1_SetAnalogSwitchesSrcDirect();
 151:.\Generated_Source\PSoC4/CapSense_1_SMS.c ****     
 152:.\Generated_Source\PSoC4/CapSense_1_SMS.c ****     for(widget = 0u; widget < CapSense_1_config.totalWidgetsNum; widget++)
 153:.\Generated_Source\PSoC4/CapSense_1_SMS.c ****     {
 154:.\Generated_Source\PSoC4/CapSense_1_SMS.c ****         CapSense_1_widgetResolution[widget] = CapSense_1_CALIBRATION_RESOLUTION;
 155:.\Generated_Source\PSoC4/CapSense_1_SMS.c ****     }
 156:.\Generated_Source\PSoC4/CapSense_1_SMS.c **** 	
 157:.\Generated_Source\PSoC4/CapSense_1_SMS.c **** 
 158:.\Generated_Source\PSoC4/CapSense_1_SMS.c **** 	for(curSensor = 0u; curSensor < CapSense_1_TOTAL_SCANSLOT_COUNT; curSensor++)
 159:.\Generated_Source\PSoC4/CapSense_1_SMS.c ****     {
 160:.\Generated_Source\PSoC4/CapSense_1_SMS.c **** 		CapSense_1_senseClkDividerVal[curSensor] = CapSense_1_CALIBRATION_ASD;
 161:.\Generated_Source\PSoC4/CapSense_1_SMS.c **** 		CapSense_1_sampleClkDividerVal[curSensor] = CapSense_1_CALIBRATION_MD;
 162:.\Generated_Source\PSoC4/CapSense_1_SMS.c **** 	}
 163:.\Generated_Source\PSoC4/CapSense_1_SMS.c ****     
 164:.\Generated_Source\PSoC4/CapSense_1_SMS.c ****     CapSense_1_DisableBaselineIDAC();
 165:.\Generated_Source\PSoC4/CapSense_1_SMS.c **** 
 166:.\Generated_Source\PSoC4/CapSense_1_SMS.c ****     CalibrateSensors_P4_v2_20(&CapSense_1_config, CapSense_1_CAL_RAW_COUNT);
 167:.\Generated_Source\PSoC4/CapSense_1_SMS.c **** 
 168:.\Generated_Source\PSoC4/CapSense_1_SMS.c **** 	#if(0u != CapSense_1_TOTAL_CENTROIDS_COUNT) 
 169:.\Generated_Source\PSoC4/CapSense_1_SMS.c **** 		CapSense_1_NormalizeWidgets(CapSense_1_END_OF_WIDGETS_INDEX, CapSense_1_modulationIDAC);
 170:.\Generated_Source\PSoC4/CapSense_1_SMS.c **** 	#endif /* (0u != CapSense_1_TOTAL_CENTROIDS_COUNT)  */
 171:.\Generated_Source\PSoC4/CapSense_1_SMS.c **** 	
 172:.\Generated_Source\PSoC4/CapSense_1_SMS.c ****     TunePrescalers_P4_v2_20(&CapSense_1_config);
 173:.\Generated_Source\PSoC4/CapSense_1_SMS.c **** 	
 174:.\Generated_Source\PSoC4/CapSense_1_SMS.c **** 	#if(CapSense_1_PRS_OPTIONS != CapSense_1__PRS_NONE)
 175:.\Generated_Source\PSoC4/CapSense_1_SMS.c **** 		CapSense_1_prescalersTuningDone = 1u;
 176:.\Generated_Source\PSoC4/CapSense_1_SMS.c **** 	#endif /* (CapSense_1_PRS_OPTIONS == CapSense_1__PRS_NONE) */
 177:.\Generated_Source\PSoC4/CapSense_1_SMS.c ****        
 178:.\Generated_Source\PSoC4/CapSense_1_SMS.c ****     CalibrateSensors_P4_v2_20(&CapSense_1_config, CapSense_1_CAL_RAW_COUNT);
 179:.\Generated_Source\PSoC4/CapSense_1_SMS.c **** 	#if(0u != CapSense_1_TOTAL_CENTROIDS_COUNT)
 180:.\Generated_Source\PSoC4/CapSense_1_SMS.c **** 		CapSense_1_NormalizeWidgets(CapSense_1_END_OF_WIDGETS_INDEX, CapSense_1_modulationIDAC);
 181:.\Generated_Source\PSoC4/CapSense_1_SMS.c **** 	#endif /* (0u != CapSense_1_TOTAL_CENTROIDS_COUNT)  */
 182:.\Generated_Source\PSoC4/CapSense_1_SMS.c ****     TuneSensitivity_P4_v2_20(&CapSense_1_config);
 183:.\Generated_Source\PSoC4/CapSense_1_SMS.c **** 	
 184:.\Generated_Source\PSoC4/CapSense_1_SMS.c **** 	CapSense_1_EnableBaselineIDAC(&CapSense_1_config);
 185:.\Generated_Source\PSoC4/CapSense_1_SMS.c ****     
 186:.\Generated_Source\PSoC4/CapSense_1_SMS.c ****     for(curSensor = 0u; curSensor < CapSense_1_TOTAL_SCANSLOT_COUNT; curSensor++)
 187:.\Generated_Source\PSoC4/CapSense_1_SMS.c ****     {
 188:.\Generated_Source\PSoC4/CapSense_1_SMS.c ****         CapSense_1_UpdateThresholds(curSensor);
 189:.\Generated_Source\PSoC4/CapSense_1_SMS.c ****     }
 190:.\Generated_Source\PSoC4/CapSense_1_SMS.c **** }
 191:.\Generated_Source\PSoC4/CapSense_1_SMS.c **** 
 192:.\Generated_Source\PSoC4/CapSense_1_SMS.c **** 
 193:.\Generated_Source\PSoC4/CapSense_1_SMS.c **** /*******************************************************************************
 194:.\Generated_Source\PSoC4/CapSense_1_SMS.c **** * Function Name: CapSense_1_UpdateThresholds
 195:.\Generated_Source\PSoC4/CapSense_1_SMS.c **** ********************************************************************************
 196:.\Generated_Source\PSoC4/CapSense_1_SMS.c **** *
 197:.\Generated_Source\PSoC4/CapSense_1_SMS.c **** * Summary:
 198:.\Generated_Source\PSoC4/CapSense_1_SMS.c **** *  The API updates the Finger Threshold, Hysteresis, Noise Threshold, and 
 199:.\Generated_Source\PSoC4/CapSense_1_SMS.c **** *  Negative Noise Threshold in the AutoTuning (Smartsense) Mode.
 200:.\Generated_Source\PSoC4/CapSense_1_SMS.c **** *
 201:.\Generated_Source\PSoC4/CapSense_1_SMS.c **** * Parameters:
 202:.\Generated_Source\PSoC4/CapSense_1_SMS.c **** *  sensor: sensor number.
 203:.\Generated_Source\PSoC4/CapSense_1_SMS.c **** *
ARM GAS  C:\Users\danielpi\AppData\Local\Temp\ccmGehZx.s 			page 5


 204:.\Generated_Source\PSoC4/CapSense_1_SMS.c **** * Return:
 205:.\Generated_Source\PSoC4/CapSense_1_SMS.c **** *  None
 206:.\Generated_Source\PSoC4/CapSense_1_SMS.c **** *
 207:.\Generated_Source\PSoC4/CapSense_1_SMS.c **** * Global Variables:
 208:.\Generated_Source\PSoC4/CapSense_1_SMS.c **** *  CapSense_1_widgetNumber[] - contains widget Number for given sensor.
 209:.\Generated_Source\PSoC4/CapSense_1_SMS.c **** *  0 through 7 (sensor 0 is bit 0, sensor 1 is bit 1).
 210:.\Generated_Source\PSoC4/CapSense_1_SMS.c **** *  For other sensors the array element equals to 255. 
 211:.\Generated_Source\PSoC4/CapSense_1_SMS.c **** *  CapSense_1_numberOfSensors[widget] - Number of sensors in the widget.
 212:.\Generated_Source\PSoC4/CapSense_1_SMS.c **** *   CapSense_1_fingerThreshold[] - contains the level of signal for each sensor
 213:.\Generated_Source\PSoC4/CapSense_1_SMS.c **** *   that determines if a finger present on the sensor.
 214:.\Generated_Source\PSoC4/CapSense_1_SMS.c **** *   CapSense_1_negativeNoiseThreshold[] - negative Noise Threshold
 215:.\Generated_Source\PSoC4/CapSense_1_SMS.c **** *   CapSense_1_hysteresis[] - the array with hysteresis values.
 216:.\Generated_Source\PSoC4/CapSense_1_SMS.c **** *
 217:.\Generated_Source\PSoC4/CapSense_1_SMS.c **** * Side Effects:
 218:.\Generated_Source\PSoC4/CapSense_1_SMS.c **** *  None
 219:.\Generated_Source\PSoC4/CapSense_1_SMS.c **** *
 220:.\Generated_Source\PSoC4/CapSense_1_SMS.c **** *******************************************************************************/
 221:.\Generated_Source\PSoC4/CapSense_1_SMS.c **** void CapSense_1_UpdateThresholds(uint32 sensor)
 222:.\Generated_Source\PSoC4/CapSense_1_SMS.c **** {
  26              		.loc 1 222 0
  27              		.cfi_startproc
  28              	.LVL0:
  29 0000 70B5     		push	{r4, r5, r6, lr}
  30              		.cfi_def_cfa_offset 16
  31              		.cfi_offset 4, -16
  32              		.cfi_offset 5, -12
  33              		.cfi_offset 6, -8
  34              		.cfi_offset 14, -4
  35 0002 82B0     		sub	sp, sp, #8
  36              		.cfi_def_cfa_offset 24
 223:.\Generated_Source\PSoC4/CapSense_1_SMS.c **** 	uint8 fingerThreshold;
 224:.\Generated_Source\PSoC4/CapSense_1_SMS.c **** 	uint32 widget;
 225:.\Generated_Source\PSoC4/CapSense_1_SMS.c **** 	
 226:.\Generated_Source\PSoC4/CapSense_1_SMS.c **** 	widget = CapSense_1_widgetNumber[sensor];
  37              		.loc 1 226 0
  38 0004 164B     		ldr	r3, .L7
  39 0006 1C5C     		ldrb	r4, [r3, r0]
  40              	.LVL1:
 227:.\Generated_Source\PSoC4/CapSense_1_SMS.c **** 
 228:.\Generated_Source\PSoC4/CapSense_1_SMS.c **** 	#if(0u != CapSense_1_FLEXIBLE_THRESHOLDS_EN)
 229:.\Generated_Source\PSoC4/CapSense_1_SMS.c **** 	    fingerThreshold = CapSense_1_fingerThreshold[widget];
 230:.\Generated_Source\PSoC4/CapSense_1_SMS.c ****         /* Update Threshold manually (flexible) */   
 231:.\Generated_Source\PSoC4/CapSense_1_SMS.c **** 		CapSense_1_noiseThreshold[widget] = (uint8)(fingerThreshold >> 1u);
 232:.\Generated_Source\PSoC4/CapSense_1_SMS.c **** 		CapSense_1_negativeNoiseThreshold[widget] = (uint8)(fingerThreshold >> 1u);
 233:.\Generated_Source\PSoC4/CapSense_1_SMS.c **** 		CapSense_1_hysteresis[widget] = (uint8)(fingerThreshold >> 3u);
 234:.\Generated_Source\PSoC4/CapSense_1_SMS.c **** 	#else
 235:.\Generated_Source\PSoC4/CapSense_1_SMS.c **** 		/* Calculate Finger Threshold and Noise Threshold with Smartsense (automatic) */ 	
 236:.\Generated_Source\PSoC4/CapSense_1_SMS.c **** 		CalculateThresholds_P4_v2_20(&CapSense_1_config, (uint8)sensor, CapSense_1_sensorRaw, (uint8)widg
  41              		.loc 1 236 0
  42 0008 C1B2     		uxtb	r1, r0
  43 000a 164E     		ldr	r6, .L7+4
  44 000c 0096     		str	r6, [sp]
  45 000e 164D     		ldr	r5, .L7+8
  46 0010 0195     		str	r5, [sp, #4]
  47 0012 1648     		ldr	r0, .L7+12
  48              	.LVL2:
  49 0014 164A     		ldr	r2, .L7+16
ARM GAS  C:\Users\danielpi\AppData\Local\Temp\ccmGehZx.s 			page 6


  50 0016 231C     		mov	r3, r4
  51 0018 FFF7FEFF 		bl	CalculateThresholds_P4_v2_20
  52              	.LVL3:
 237:.\Generated_Source\PSoC4/CapSense_1_SMS.c **** 		
 238:.\Generated_Source\PSoC4/CapSense_1_SMS.c **** 	    fingerThreshold = CapSense_1_fingerThreshold[widget];
  53              		.loc 1 238 0
  54 001c 335D     		ldrb	r3, [r6, r4]
  55              	.LVL4:
 239:.\Generated_Source\PSoC4/CapSense_1_SMS.c **** 		
 240:.\Generated_Source\PSoC4/CapSense_1_SMS.c **** 	    /* Update Threshold based on calculated with Smartsense (automatic) */
 241:.\Generated_Source\PSoC4/CapSense_1_SMS.c **** 		CapSense_1_negativeNoiseThreshold[widget] = CapSense_1_noiseThreshold[widget];
  56              		.loc 1 241 0
  57 001e 295D     		ldrb	r1, [r5, r4]
  58 0020 144A     		ldr	r2, .L7+20
  59 0022 1155     		strb	r1, [r2, r4]
 242:.\Generated_Source\PSoC4/CapSense_1_SMS.c ****         
 243:.\Generated_Source\PSoC4/CapSense_1_SMS.c **** 		if(fingerThreshold < CapSense_1_THRESHOLD_1)
  60              		.loc 1 243 0
  61 0024 DB2B     		cmp	r3, #219
  62 0026 03D8     		bhi	.L2
 244:.\Generated_Source\PSoC4/CapSense_1_SMS.c **** 		{
 245:.\Generated_Source\PSoC4/CapSense_1_SMS.c **** 			CapSense_1_hysteresis[widget] = (uint8)(fingerThreshold >> 3u);
  63              		.loc 1 245 0
  64 0028 DB08     		lsr	r3, r3, #3
  65 002a 134A     		ldr	r2, .L7+24
  66 002c 1355     		strb	r3, [r2, r4]
  67 002e 14E0     		b	.L1
  68              	.L2:
 246:.\Generated_Source\PSoC4/CapSense_1_SMS.c **** 		}
 247:.\Generated_Source\PSoC4/CapSense_1_SMS.c **** 		else if(fingerThreshold <  CapSense_1_THRESHOLD_2)
  69              		.loc 1 247 0
  70 0030 EC2B     		cmp	r3, #236
  71 0032 03D8     		bhi	.L4
 248:.\Generated_Source\PSoC4/CapSense_1_SMS.c **** 		{
 249:.\Generated_Source\PSoC4/CapSense_1_SMS.c **** 			CapSense_1_hysteresis[widget] = (uint8)(fingerThreshold >> 4u);
  72              		.loc 1 249 0
  73 0034 1B09     		lsr	r3, r3, #4
  74 0036 104A     		ldr	r2, .L7+24
  75 0038 1355     		strb	r3, [r2, r4]
  76 003a 0EE0     		b	.L1
  77              	.L4:
 250:.\Generated_Source\PSoC4/CapSense_1_SMS.c **** 		}
 251:.\Generated_Source\PSoC4/CapSense_1_SMS.c **** 		else if(fingerThreshold <  CapSense_1_THRESHOLD_3)
  78              		.loc 1 251 0
  79 003c F42B     		cmp	r3, #244
  80 003e 03D8     		bhi	.L5
 252:.\Generated_Source\PSoC4/CapSense_1_SMS.c **** 		{
 253:.\Generated_Source\PSoC4/CapSense_1_SMS.c **** 			CapSense_1_hysteresis[widget] = (uint8)(fingerThreshold >> 5u);
  81              		.loc 1 253 0
  82 0040 5B09     		lsr	r3, r3, #5
  83 0042 0D4A     		ldr	r2, .L7+24
  84 0044 1355     		strb	r3, [r2, r4]
  85 0046 08E0     		b	.L1
  86              	.L5:
 254:.\Generated_Source\PSoC4/CapSense_1_SMS.c **** 		}
 255:.\Generated_Source\PSoC4/CapSense_1_SMS.c **** 		else if(fingerThreshold <  CapSense_1_THRESHOLD_4)
  87              		.loc 1 255 0
ARM GAS  C:\Users\danielpi\AppData\Local\Temp\ccmGehZx.s 			page 7


  88 0048 F92B     		cmp	r3, #249
  89 004a 03D8     		bhi	.L6
 256:.\Generated_Source\PSoC4/CapSense_1_SMS.c **** 		{
 257:.\Generated_Source\PSoC4/CapSense_1_SMS.c **** 			CapSense_1_hysteresis[widget] = (uint8)(fingerThreshold >> 6u);
  90              		.loc 1 257 0
  91 004c 9B09     		lsr	r3, r3, #6
  92 004e 0A4A     		ldr	r2, .L7+24
  93 0050 1355     		strb	r3, [r2, r4]
  94 0052 02E0     		b	.L1
  95              	.L6:
 258:.\Generated_Source\PSoC4/CapSense_1_SMS.c **** 		}
 259:.\Generated_Source\PSoC4/CapSense_1_SMS.c **** 		else
 260:.\Generated_Source\PSoC4/CapSense_1_SMS.c **** 		{
 261:.\Generated_Source\PSoC4/CapSense_1_SMS.c **** 			CapSense_1_hysteresis[widget] = 0u;
  96              		.loc 1 261 0
  97 0054 0022     		mov	r2, #0
  98 0056 084B     		ldr	r3, .L7+24
  99 0058 1A55     		strb	r2, [r3, r4]
 100              	.L1:
 262:.\Generated_Source\PSoC4/CapSense_1_SMS.c **** 		}
 263:.\Generated_Source\PSoC4/CapSense_1_SMS.c **** 	#endif /* (0u != CapSense_1_FLEXIBLE_THRESHOLDS_EN)  */
 264:.\Generated_Source\PSoC4/CapSense_1_SMS.c **** }
 101              		.loc 1 264 0
 102 005a 02B0     		add	sp, sp, #8
 103              		@ sp needed
 104              	.LVL5:
 105              	.LVL6:
 106 005c 70BD     		pop	{r4, r5, r6, pc}
 107              	.L8:
 108 005e C046     		.align	2
 109              	.L7:
 110 0060 00000000 		.word	CapSense_1_widgetNumber
 111 0064 00000000 		.word	CapSense_1_fingerThreshold
 112 0068 00000000 		.word	CapSense_1_noiseThreshold
 113 006c 00000000 		.word	CapSense_1_config
 114 0070 00000000 		.word	CapSense_1_sensorRaw
 115 0074 00000000 		.word	CapSense_1_negativeNoiseThreshold
 116 0078 00000000 		.word	CapSense_1_hysteresis
 117              		.cfi_endproc
 118              	.LFE36:
 119              		.size	CapSense_1_UpdateThresholds, .-CapSense_1_UpdateThresholds
 120              		.section	.text.CapSense_1_SetAnalogSwitchesSrcDirect,"ax",%progbits
 121              		.align	2
 122              		.global	CapSense_1_SetAnalogSwitchesSrcDirect
 123              		.code	16
 124              		.thumb_func
 125              		.type	CapSense_1_SetAnalogSwitchesSrcDirect, %function
 126              	CapSense_1_SetAnalogSwitchesSrcDirect:
 127              	.LFB37:
 265:.\Generated_Source\PSoC4/CapSense_1_SMS.c **** 
 266:.\Generated_Source\PSoC4/CapSense_1_SMS.c **** /*******************************************************************************
 267:.\Generated_Source\PSoC4/CapSense_1_SMS.c **** * Function Name: CapSense_1_SetAnalogSwitchesSrcDirect
 268:.\Generated_Source\PSoC4/CapSense_1_SMS.c **** ********************************************************************************
 269:.\Generated_Source\PSoC4/CapSense_1_SMS.c **** *
 270:.\Generated_Source\PSoC4/CapSense_1_SMS.c **** * Summary:
 271:.\Generated_Source\PSoC4/CapSense_1_SMS.c **** *  This API switches the charge clock source to prescaler. 
 272:.\Generated_Source\PSoC4/CapSense_1_SMS.c **** *
ARM GAS  C:\Users\danielpi\AppData\Local\Temp\ccmGehZx.s 			page 8


 273:.\Generated_Source\PSoC4/CapSense_1_SMS.c **** * Parameters:
 274:.\Generated_Source\PSoC4/CapSense_1_SMS.c **** *  None
 275:.\Generated_Source\PSoC4/CapSense_1_SMS.c **** *
 276:.\Generated_Source\PSoC4/CapSense_1_SMS.c **** * Return:
 277:.\Generated_Source\PSoC4/CapSense_1_SMS.c **** *  None
 278:.\Generated_Source\PSoC4/CapSense_1_SMS.c **** *
 279:.\Generated_Source\PSoC4/CapSense_1_SMS.c **** * Global Variables:
 280:.\Generated_Source\PSoC4/CapSense_1_SMS.c **** *  None
 281:.\Generated_Source\PSoC4/CapSense_1_SMS.c **** *
 282:.\Generated_Source\PSoC4/CapSense_1_SMS.c **** * Side Effects:
 283:.\Generated_Source\PSoC4/CapSense_1_SMS.c **** *  None
 284:.\Generated_Source\PSoC4/CapSense_1_SMS.c **** *
 285:.\Generated_Source\PSoC4/CapSense_1_SMS.c **** *******************************************************************************/
 286:.\Generated_Source\PSoC4/CapSense_1_SMS.c **** void CapSense_1_SetAnalogSwitchesSrcDirect(void)
 287:.\Generated_Source\PSoC4/CapSense_1_SMS.c **** {
 128              		.loc 1 287 0
 129              		.cfi_startproc
 288:.\Generated_Source\PSoC4/CapSense_1_SMS.c **** 	CapSense_1_CSD_CFG_REG &= ~(CapSense_1_CSD_CFG_PRS_SELECT);
 130              		.loc 1 288 0
 131 0000 024B     		ldr	r3, .L10
 132 0002 1A68     		ldr	r2, [r3]
 133 0004 4021     		mov	r1, #64
 134 0006 8A43     		bic	r2, r1
 135 0008 1A60     		str	r2, [r3]
 289:.\Generated_Source\PSoC4/CapSense_1_SMS.c **** }
 136              		.loc 1 289 0
 137              		@ sp needed
 138 000a 7047     		bx	lr
 139              	.L11:
 140              		.align	2
 141              	.L10:
 142 000c 04002840 		.word	1076363268
 143              		.cfi_endproc
 144              	.LFE37:
 145              		.size	CapSense_1_SetAnalogSwitchesSrcDirect, .-CapSense_1_SetAnalogSwitchesSrcDirect
 146              		.section	.text.CapSense_1_DisableBaselineIDAC,"ax",%progbits
 147              		.align	2
 148              		.global	CapSense_1_DisableBaselineIDAC
 149              		.code	16
 150              		.thumb_func
 151              		.type	CapSense_1_DisableBaselineIDAC, %function
 152              	CapSense_1_DisableBaselineIDAC:
 153              	.LFB38:
 290:.\Generated_Source\PSoC4/CapSense_1_SMS.c **** 
 291:.\Generated_Source\PSoC4/CapSense_1_SMS.c **** 
 292:.\Generated_Source\PSoC4/CapSense_1_SMS.c **** /*******************************************************************************
 293:.\Generated_Source\PSoC4/CapSense_1_SMS.c **** * Function Name: CapSense_1_DisableBaselineIDAC
 294:.\Generated_Source\PSoC4/CapSense_1_SMS.c **** ********************************************************************************
 295:.\Generated_Source\PSoC4/CapSense_1_SMS.c **** *
 296:.\Generated_Source\PSoC4/CapSense_1_SMS.c **** * Summary:
 297:.\Generated_Source\PSoC4/CapSense_1_SMS.c **** *  The API disables the Compensation IDAC. 
 298:.\Generated_Source\PSoC4/CapSense_1_SMS.c **** *
 299:.\Generated_Source\PSoC4/CapSense_1_SMS.c **** * Parameters:
 300:.\Generated_Source\PSoC4/CapSense_1_SMS.c **** *  None
 301:.\Generated_Source\PSoC4/CapSense_1_SMS.c **** *
 302:.\Generated_Source\PSoC4/CapSense_1_SMS.c **** * Return:
 303:.\Generated_Source\PSoC4/CapSense_1_SMS.c **** *  None
ARM GAS  C:\Users\danielpi\AppData\Local\Temp\ccmGehZx.s 			page 9


 304:.\Generated_Source\PSoC4/CapSense_1_SMS.c **** *
 305:.\Generated_Source\PSoC4/CapSense_1_SMS.c **** * Global Variables:
 306:.\Generated_Source\PSoC4/CapSense_1_SMS.c **** *  None
 307:.\Generated_Source\PSoC4/CapSense_1_SMS.c **** *
 308:.\Generated_Source\PSoC4/CapSense_1_SMS.c **** * Side Effects:
 309:.\Generated_Source\PSoC4/CapSense_1_SMS.c **** *  None
 310:.\Generated_Source\PSoC4/CapSense_1_SMS.c **** *
 311:.\Generated_Source\PSoC4/CapSense_1_SMS.c **** *******************************************************************************/
 312:.\Generated_Source\PSoC4/CapSense_1_SMS.c **** void CapSense_1_DisableBaselineIDAC(void)
 313:.\Generated_Source\PSoC4/CapSense_1_SMS.c **** {
 154              		.loc 1 313 0
 155              		.cfi_startproc
 314:.\Generated_Source\PSoC4/CapSense_1_SMS.c **** 	uint32 newRegValue;
 315:.\Generated_Source\PSoC4/CapSense_1_SMS.c ****     
 316:.\Generated_Source\PSoC4/CapSense_1_SMS.c ****     newRegValue = CapSense_1_CSD_IDAC_REG;
 156              		.loc 1 316 0
 157 0000 044B     		ldr	r3, .L13
 158 0002 1968     		ldr	r1, [r3]
 159              	.LVL7:
 317:.\Generated_Source\PSoC4/CapSense_1_SMS.c ****     
 318:.\Generated_Source\PSoC4/CapSense_1_SMS.c ****     newRegValue &= ~(CapSense_1_CSD_IDAC1_MODE_MASK | CapSense_1_CSD_IDAC2_MODE_MASK);
 160              		.loc 1 318 0
 161 0004 044A     		ldr	r2, .L13+4
 162 0006 0A40     		and	r2, r1
 163              	.LVL8:
 319:.\Generated_Source\PSoC4/CapSense_1_SMS.c ****     newRegValue |= CapSense_1_CSD_IDAC1_MODE_VARIABLE;
 164              		.loc 1 319 0
 165 0008 8021     		mov	r1, #128
 166 000a 8900     		lsl	r1, r1, #2
 167 000c 0A43     		orr	r2, r1
 168              	.LVL9:
 320:.\Generated_Source\PSoC4/CapSense_1_SMS.c ****     
 321:.\Generated_Source\PSoC4/CapSense_1_SMS.c **** 	CapSense_1_CSD_IDAC_REG = newRegValue;
 169              		.loc 1 321 0
 170 000e 1A60     		str	r2, [r3]
 322:.\Generated_Source\PSoC4/CapSense_1_SMS.c **** }
 171              		.loc 1 322 0
 172              		@ sp needed
 173 0010 7047     		bx	lr
 174              	.L14:
 175 0012 C046     		.align	2
 176              	.L13:
 177 0014 08002840 		.word	1076363272
 178 0018 FFFCFFFC 		.word	-50332417
 179              		.cfi_endproc
 180              	.LFE38:
 181              		.size	CapSense_1_DisableBaselineIDAC, .-CapSense_1_DisableBaselineIDAC
 182              		.section	.text.CapSense_1_EnableBaselineIDAC,"ax",%progbits
 183              		.align	2
 184              		.global	CapSense_1_EnableBaselineIDAC
 185              		.code	16
 186              		.thumb_func
 187              		.type	CapSense_1_EnableBaselineIDAC, %function
 188              	CapSense_1_EnableBaselineIDAC:
 189              	.LFB39:
 323:.\Generated_Source\PSoC4/CapSense_1_SMS.c **** 
 324:.\Generated_Source\PSoC4/CapSense_1_SMS.c **** 
ARM GAS  C:\Users\danielpi\AppData\Local\Temp\ccmGehZx.s 			page 10


 325:.\Generated_Source\PSoC4/CapSense_1_SMS.c **** /*******************************************************************************
 326:.\Generated_Source\PSoC4/CapSense_1_SMS.c **** * Function Name: CapSense_1_EnableBaselineIDAC
 327:.\Generated_Source\PSoC4/CapSense_1_SMS.c **** ********************************************************************************
 328:.\Generated_Source\PSoC4/CapSense_1_SMS.c **** *
 329:.\Generated_Source\PSoC4/CapSense_1_SMS.c **** * Summary:
 330:.\Generated_Source\PSoC4/CapSense_1_SMS.c **** *  The API enables the Compensation IDAC. 
 331:.\Generated_Source\PSoC4/CapSense_1_SMS.c **** *
 332:.\Generated_Source\PSoC4/CapSense_1_SMS.c **** * Parameters:
 333:.\Generated_Source\PSoC4/CapSense_1_SMS.c **** *  None
 334:.\Generated_Source\PSoC4/CapSense_1_SMS.c **** *
 335:.\Generated_Source\PSoC4/CapSense_1_SMS.c **** * Return:
 336:.\Generated_Source\PSoC4/CapSense_1_SMS.c **** *  None
 337:.\Generated_Source\PSoC4/CapSense_1_SMS.c **** *
 338:.\Generated_Source\PSoC4/CapSense_1_SMS.c **** * Global Variables:
 339:.\Generated_Source\PSoC4/CapSense_1_SMS.c **** *  CapSense_1_compensationIDAC[] - used to store a 7-bit idac value for all the sensors.
 340:.\Generated_Source\PSoC4/CapSense_1_SMS.c **** *
 341:.\Generated_Source\PSoC4/CapSense_1_SMS.c **** * Side Effects:
 342:.\Generated_Source\PSoC4/CapSense_1_SMS.c **** *  None
 343:.\Generated_Source\PSoC4/CapSense_1_SMS.c **** *
 344:.\Generated_Source\PSoC4/CapSense_1_SMS.c **** *******************************************************************************/
 345:.\Generated_Source\PSoC4/CapSense_1_SMS.c **** void  CapSense_1_EnableBaselineIDAC(const CapSense_1_CONFIG_TYPE_P4_v2_20 *config)
 346:.\Generated_Source\PSoC4/CapSense_1_SMS.c **** {
 190              		.loc 1 346 0
 191              		.cfi_startproc
 192              	.LVL10:
 193 0000 38B5     		push	{r3, r4, r5, lr}
 194              		.cfi_def_cfa_offset 16
 195              		.cfi_offset 3, -16
 196              		.cfi_offset 4, -12
 197              		.cfi_offset 5, -8
 198              		.cfi_offset 14, -4
 199              	.LVL11:
 347:.\Generated_Source\PSoC4/CapSense_1_SMS.c ****     uint32 curSensor;
 348:.\Generated_Source\PSoC4/CapSense_1_SMS.c ****     uint32 newRegValue;
 349:.\Generated_Source\PSoC4/CapSense_1_SMS.c **** 
 350:.\Generated_Source\PSoC4/CapSense_1_SMS.c ****     for(curSensor = 0u; curSensor < config->totalScanslotsNum; curSensor++)
 200              		.loc 1 350 0
 201 0002 0023     		mov	r3, #0
 351:.\Generated_Source\PSoC4/CapSense_1_SMS.c ****     {
 352:.\Generated_Source\PSoC4/CapSense_1_SMS.c **** 		CapSense_1_compensationIDAC[curSensor] = CapSense_1_modulationIDAC[curSensor] / 2u;
 202              		.loc 1 352 0
 203 0004 0D49     		ldr	r1, .L18
 204 0006 0E4D     		ldr	r5, .L18+4
 350:.\Generated_Source\PSoC4/CapSense_1_SMS.c ****     for(curSensor = 0u; curSensor < config->totalScanslotsNum; curSensor++)
 205              		.loc 1 350 0
 206 0008 06E0     		b	.L16
 207              	.LVL12:
 208              	.L17:
 209              		.loc 1 352 0 discriminator 2
 210 000a CA5C     		ldrb	r2, [r1, r3]
 211 000c 5408     		lsr	r4, r2, #1
 212 000e EC54     		strb	r4, [r5, r3]
 353:.\Generated_Source\PSoC4/CapSense_1_SMS.c **** 	    CapSense_1_modulationIDAC[curSensor] = (CapSense_1_modulationIDAC[curSensor] + 1u) / 2u;
 213              		.loc 1 353 0 discriminator 2
 214 0010 0132     		add	r2, r2, #1
 215 0012 5208     		lsr	r2, r2, #1
 216 0014 CA54     		strb	r2, [r1, r3]
ARM GAS  C:\Users\danielpi\AppData\Local\Temp\ccmGehZx.s 			page 11


 350:.\Generated_Source\PSoC4/CapSense_1_SMS.c ****     for(curSensor = 0u; curSensor < config->totalScanslotsNum; curSensor++)
 217              		.loc 1 350 0 discriminator 2
 218 0016 0133     		add	r3, r3, #1
 219              	.LVL13:
 220              	.L16:
 350:.\Generated_Source\PSoC4/CapSense_1_SMS.c ****     for(curSensor = 0u; curSensor < config->totalScanslotsNum; curSensor++)
 221              		.loc 1 350 0 is_stmt 0 discriminator 1
 222 0018 0278     		ldrb	r2, [r0]
 223 001a 9A42     		cmp	r2, r3
 224 001c F5D8     		bhi	.L17
 354:.\Generated_Source\PSoC4/CapSense_1_SMS.c ****     }
 355:.\Generated_Source\PSoC4/CapSense_1_SMS.c **** 	
 356:.\Generated_Source\PSoC4/CapSense_1_SMS.c **** 	CyIntDisable(CapSense_1_ISR_NUMBER);
 225              		.loc 1 356 0 is_stmt 1
 226 001e 1020     		mov	r0, #16
 227              	.LVL14:
 228 0020 FFF7FEFF 		bl	CyIntDisable
 229              	.LVL15:
 357:.\Generated_Source\PSoC4/CapSense_1_SMS.c **** 	
 358:.\Generated_Source\PSoC4/CapSense_1_SMS.c **** 	newRegValue = CapSense_1_CSD_IDAC_REG;
 230              		.loc 1 358 0
 231 0024 074B     		ldr	r3, .L18+8
 232 0026 1968     		ldr	r1, [r3]
 233              	.LVL16:
 359:.\Generated_Source\PSoC4/CapSense_1_SMS.c ****     newRegValue &= ~(CapSense_1_CSD_IDAC1_MODE_MASK | CapSense_1_CSD_IDAC2_MODE_MASK);
 234              		.loc 1 359 0
 235 0028 074A     		ldr	r2, .L18+12
 236 002a 0A40     		and	r2, r1
 237              	.LVL17:
 360:.\Generated_Source\PSoC4/CapSense_1_SMS.c ****     newRegValue |= (CapSense_1_CSD_IDAC1_MODE_VARIABLE | CapSense_1_CSD_IDAC2_MODE_FIXED);
 238              		.loc 1 360 0
 239 002c 0749     		ldr	r1, .L18+16
 240 002e 0A43     		orr	r2, r1
 241              	.LVL18:
 361:.\Generated_Source\PSoC4/CapSense_1_SMS.c ****     CapSense_1_CSD_IDAC_REG = newRegValue;
 242              		.loc 1 361 0
 243 0030 1A60     		str	r2, [r3]
 362:.\Generated_Source\PSoC4/CapSense_1_SMS.c **** 	
 363:.\Generated_Source\PSoC4/CapSense_1_SMS.c **** 	CyIntEnable(CapSense_1_ISR_NUMBER);
 244              		.loc 1 363 0
 245 0032 1020     		mov	r0, #16
 246 0034 FFF7FEFF 		bl	CyIntEnable
 247              	.LVL19:
 364:.\Generated_Source\PSoC4/CapSense_1_SMS.c **** }
 248              		.loc 1 364 0
 249              		@ sp needed
 250 0038 38BD     		pop	{r3, r4, r5, pc}
 251              	.L19:
 252 003a C046     		.align	2
 253              	.L18:
 254 003c 00000000 		.word	CapSense_1_modulationIDAC
 255 0040 00000000 		.word	CapSense_1_compensationIDAC
 256 0044 08002840 		.word	1076363272
 257 0048 FFFCFFFC 		.word	-50332417
 258 004c 00020001 		.word	16777728
 259              		.cfi_endproc
 260              	.LFE39:
ARM GAS  C:\Users\danielpi\AppData\Local\Temp\ccmGehZx.s 			page 12


 261              		.size	CapSense_1_EnableBaselineIDAC, .-CapSense_1_EnableBaselineIDAC
 262              		.section	.text.CapSense_1_AutoTune,"ax",%progbits
 263              		.align	2
 264              		.global	CapSense_1_AutoTune
 265              		.code	16
 266              		.thumb_func
 267              		.type	CapSense_1_AutoTune, %function
 268              	CapSense_1_AutoTune:
 269              	.LFB35:
 137:.\Generated_Source\PSoC4/CapSense_1_SMS.c **** {
 270              		.loc 1 137 0
 271              		.cfi_startproc
 272 0000 70B5     		push	{r4, r5, r6, lr}
 273              		.cfi_def_cfa_offset 16
 274              		.cfi_offset 4, -16
 275              		.cfi_offset 5, -12
 276              		.cfi_offset 6, -8
 277              		.cfi_offset 14, -4
 141:.\Generated_Source\PSoC4/CapSense_1_SMS.c **** 	CapSense_1_config.totalScanslotsNum = CapSense_1_TOTAL_SCANSLOT_COUNT;
 278              		.loc 1 141 0
 279 0002 254B     		ldr	r3, .L27
 280 0004 0522     		mov	r2, #5
 281 0006 1A70     		strb	r2, [r3]
 142:.\Generated_Source\PSoC4/CapSense_1_SMS.c **** 	CapSense_1_config.totalWidgetsNum = CapSense_1_END_OF_WIDGETS_INDEX;
 282              		.loc 1 142 0
 283 0008 0121     		mov	r1, #1
 284 000a 5970     		strb	r1, [r3, #1]
 143:.\Generated_Source\PSoC4/CapSense_1_SMS.c **** 	CapSense_1_config.totalSensorsNum = CapSense_1_TOTAL_SENSOR_COUNT;
 285              		.loc 1 143 0
 286 000c 9A70     		strb	r2, [r3, #2]
 145:.\Generated_Source\PSoC4/CapSense_1_SMS.c **** 	CapSense_1_config.hfclkFreq_MHz = CYDEV_BCLK__HFCLK__MHZ;
 287              		.loc 1 145 0
 288 000e 3022     		mov	r2, #48
 289 0010 DA80     		strh	r2, [r3, #6]
 146:.\Generated_Source\PSoC4/CapSense_1_SMS.c **** 	CapSense_1_config.sensetivitySeed = CapSense_1_SENSETIVITY_FACTOR;
 290              		.loc 1 146 0
 291 0012 224A     		ldr	r2, .L27+4
 292 0014 9A80     		strh	r2, [r3, #4]
 148:.\Generated_Source\PSoC4/CapSense_1_SMS.c ****     CapSense_1_config.pointers = &CapSense_1_configPointers;       
 293              		.loc 1 148 0
 294 0016 224A     		ldr	r2, .L27+8
 295 0018 9A60     		str	r2, [r3, #8]
 150:.\Generated_Source\PSoC4/CapSense_1_SMS.c **** 	CapSense_1_SetAnalogSwitchesSrcDirect();
 296              		.loc 1 150 0
 297 001a FFF7FEFF 		bl	CapSense_1_SetAnalogSwitchesSrcDirect
 298              	.LVL20:
 152:.\Generated_Source\PSoC4/CapSense_1_SMS.c ****     for(widget = 0u; widget < CapSense_1_config.totalWidgetsNum; widget++)
 299              		.loc 1 152 0
 300 001e 0023     		mov	r3, #0
 301 0020 1D49     		ldr	r1, .L27
 154:.\Generated_Source\PSoC4/CapSense_1_SMS.c ****         CapSense_1_widgetResolution[widget] = CapSense_1_CALIBRATION_RESOLUTION;
 302              		.loc 1 154 0
 303 0022 2048     		ldr	r0, .L27+12
 152:.\Generated_Source\PSoC4/CapSense_1_SMS.c ****     for(widget = 0u; widget < CapSense_1_config.totalWidgetsNum; widget++)
 304              		.loc 1 152 0
 305 0024 03E0     		b	.L21
 306              	.LVL21:
ARM GAS  C:\Users\danielpi\AppData\Local\Temp\ccmGehZx.s 			page 13


 307              	.L22:
 154:.\Generated_Source\PSoC4/CapSense_1_SMS.c ****         CapSense_1_widgetResolution[widget] = CapSense_1_CALIBRATION_RESOLUTION;
 308              		.loc 1 154 0 discriminator 2
 309 0026 9A00     		lsl	r2, r3, #2
 310 0028 1F4C     		ldr	r4, .L27+16
 311 002a 1051     		str	r0, [r2, r4]
 152:.\Generated_Source\PSoC4/CapSense_1_SMS.c ****     for(widget = 0u; widget < CapSense_1_config.totalWidgetsNum; widget++)
 312              		.loc 1 152 0 discriminator 2
 313 002c 0133     		add	r3, r3, #1
 314              	.LVL22:
 315              	.L21:
 152:.\Generated_Source\PSoC4/CapSense_1_SMS.c ****     for(widget = 0u; widget < CapSense_1_config.totalWidgetsNum; widget++)
 316              		.loc 1 152 0 is_stmt 0 discriminator 1
 317 002e 4A78     		ldrb	r2, [r1, #1]
 318 0030 9A42     		cmp	r2, r3
 319 0032 F8D8     		bhi	.L22
 320 0034 0023     		mov	r3, #0
 321              	.LVL23:
 160:.\Generated_Source\PSoC4/CapSense_1_SMS.c **** 		CapSense_1_senseClkDividerVal[curSensor] = CapSense_1_CALIBRATION_ASD;
 322              		.loc 1 160 0 is_stmt 1
 323 0036 1D4C     		ldr	r4, .L27+20
 324 0038 1020     		mov	r0, #16
 161:.\Generated_Source\PSoC4/CapSense_1_SMS.c **** 		CapSense_1_sampleClkDividerVal[curSensor] = CapSense_1_CALIBRATION_MD;
 325              		.loc 1 161 0
 326 003a 1D49     		ldr	r1, .L27+24
 327 003c 0422     		mov	r2, #4
 328 003e 02E0     		b	.L23
 329              	.LVL24:
 330              	.L24:
 160:.\Generated_Source\PSoC4/CapSense_1_SMS.c **** 		CapSense_1_senseClkDividerVal[curSensor] = CapSense_1_CALIBRATION_ASD;
 331              		.loc 1 160 0 discriminator 2
 332 0040 E054     		strb	r0, [r4, r3]
 161:.\Generated_Source\PSoC4/CapSense_1_SMS.c **** 		CapSense_1_sampleClkDividerVal[curSensor] = CapSense_1_CALIBRATION_MD;
 333              		.loc 1 161 0 discriminator 2
 334 0042 CA54     		strb	r2, [r1, r3]
 158:.\Generated_Source\PSoC4/CapSense_1_SMS.c **** 	for(curSensor = 0u; curSensor < CapSense_1_TOTAL_SCANSLOT_COUNT; curSensor++)
 335              		.loc 1 158 0 discriminator 2
 336 0044 0133     		add	r3, r3, #1
 337              	.LVL25:
 338              	.L23:
 158:.\Generated_Source\PSoC4/CapSense_1_SMS.c **** 	for(curSensor = 0u; curSensor < CapSense_1_TOTAL_SCANSLOT_COUNT; curSensor++)
 339              		.loc 1 158 0 is_stmt 0 discriminator 1
 340 0046 042B     		cmp	r3, #4
 341 0048 FAD9     		bls	.L24
 164:.\Generated_Source\PSoC4/CapSense_1_SMS.c ****     CapSense_1_DisableBaselineIDAC();
 342              		.loc 1 164 0 is_stmt 1
 343 004a FFF7FEFF 		bl	CapSense_1_DisableBaselineIDAC
 344              	.LVL26:
 166:.\Generated_Source\PSoC4/CapSense_1_SMS.c ****     CalibrateSensors_P4_v2_20(&CapSense_1_config, CapSense_1_CAL_RAW_COUNT);
 345              		.loc 1 166 0
 346 004e 124C     		ldr	r4, .L27
 347 0050 184E     		ldr	r6, .L27+28
 348 0052 201C     		mov	r0, r4
 349 0054 311C     		mov	r1, r6
 350 0056 FFF7FEFF 		bl	CalibrateSensors_P4_v2_20
 351              	.LVL27:
 169:.\Generated_Source\PSoC4/CapSense_1_SMS.c **** 		CapSense_1_NormalizeWidgets(CapSense_1_END_OF_WIDGETS_INDEX, CapSense_1_modulationIDAC);
ARM GAS  C:\Users\danielpi\AppData\Local\Temp\ccmGehZx.s 			page 14


 352              		.loc 1 169 0
 353 005a 174D     		ldr	r5, .L27+32
 354 005c 0120     		mov	r0, #1
 355 005e 291C     		mov	r1, r5
 356 0060 FFF7FEFF 		bl	CapSense_1_NormalizeWidgets
 357              	.LVL28:
 172:.\Generated_Source\PSoC4/CapSense_1_SMS.c ****     TunePrescalers_P4_v2_20(&CapSense_1_config);
 358              		.loc 1 172 0
 359 0064 201C     		mov	r0, r4
 360 0066 FFF7FEFF 		bl	TunePrescalers_P4_v2_20
 361              	.LVL29:
 178:.\Generated_Source\PSoC4/CapSense_1_SMS.c ****     CalibrateSensors_P4_v2_20(&CapSense_1_config, CapSense_1_CAL_RAW_COUNT);
 362              		.loc 1 178 0
 363 006a 201C     		mov	r0, r4
 364 006c 311C     		mov	r1, r6
 365 006e FFF7FEFF 		bl	CalibrateSensors_P4_v2_20
 366              	.LVL30:
 180:.\Generated_Source\PSoC4/CapSense_1_SMS.c **** 		CapSense_1_NormalizeWidgets(CapSense_1_END_OF_WIDGETS_INDEX, CapSense_1_modulationIDAC);
 367              		.loc 1 180 0
 368 0072 0120     		mov	r0, #1
 369 0074 291C     		mov	r1, r5
 370 0076 FFF7FEFF 		bl	CapSense_1_NormalizeWidgets
 371              	.LVL31:
 182:.\Generated_Source\PSoC4/CapSense_1_SMS.c ****     TuneSensitivity_P4_v2_20(&CapSense_1_config);
 372              		.loc 1 182 0
 373 007a 201C     		mov	r0, r4
 374 007c FFF7FEFF 		bl	TuneSensitivity_P4_v2_20
 375              	.LVL32:
 184:.\Generated_Source\PSoC4/CapSense_1_SMS.c **** 	CapSense_1_EnableBaselineIDAC(&CapSense_1_config);
 376              		.loc 1 184 0
 377 0080 201C     		mov	r0, r4
 378 0082 FFF7FEFF 		bl	CapSense_1_EnableBaselineIDAC
 379              	.LVL33:
 186:.\Generated_Source\PSoC4/CapSense_1_SMS.c ****     for(curSensor = 0u; curSensor < CapSense_1_TOTAL_SCANSLOT_COUNT; curSensor++)
 380              		.loc 1 186 0
 381 0086 0024     		mov	r4, #0
 382 0088 03E0     		b	.L25
 383              	.LVL34:
 384              	.L26:
 188:.\Generated_Source\PSoC4/CapSense_1_SMS.c ****         CapSense_1_UpdateThresholds(curSensor);
 385              		.loc 1 188 0 discriminator 2
 386 008a 201C     		mov	r0, r4
 387 008c FFF7FEFF 		bl	CapSense_1_UpdateThresholds
 388              	.LVL35:
 186:.\Generated_Source\PSoC4/CapSense_1_SMS.c ****     for(curSensor = 0u; curSensor < CapSense_1_TOTAL_SCANSLOT_COUNT; curSensor++)
 389              		.loc 1 186 0 discriminator 2
 390 0090 0134     		add	r4, r4, #1
 391              	.LVL36:
 392              	.L25:
 186:.\Generated_Source\PSoC4/CapSense_1_SMS.c ****     for(curSensor = 0u; curSensor < CapSense_1_TOTAL_SCANSLOT_COUNT; curSensor++)
 393              		.loc 1 186 0 is_stmt 0 discriminator 1
 394 0092 042C     		cmp	r4, #4
 395 0094 F9D9     		bls	.L26
 190:.\Generated_Source\PSoC4/CapSense_1_SMS.c **** }
 396              		.loc 1 190 0 is_stmt 1
 397              		@ sp needed
 398              	.LVL37:
ARM GAS  C:\Users\danielpi\AppData\Local\Temp\ccmGehZx.s 			page 15


 399 0096 70BD     		pop	{r4, r5, r6, pc}
 400              	.L28:
 401              		.align	2
 402              	.L27:
 403 0098 00000000 		.word	CapSense_1_config
 404 009c 98090000 		.word	2456
 405 00a0 00000000 		.word	.LANCHOR0
 406 00a4 0000FF0F 		.word	268369920
 407 00a8 00000000 		.word	CapSense_1_widgetResolution
 408 00ac 00000000 		.word	CapSense_1_senseClkDividerVal
 409 00b0 00000000 		.word	CapSense_1_sampleClkDividerVal
 410 00b4 9A0D0000 		.word	3482
 411 00b8 00000000 		.word	CapSense_1_modulationIDAC
 412              		.cfi_endproc
 413              	.LFE35:
 414              		.size	CapSense_1_AutoTune, .-CapSense_1_AutoTune
 415              		.section	.text.CapSense_1_SetSensitivity,"ax",%progbits
 416              		.align	2
 417              		.global	CapSense_1_SetSensitivity
 418              		.code	16
 419              		.thumb_func
 420              		.type	CapSense_1_SetSensitivity, %function
 421              	CapSense_1_SetSensitivity:
 422              	.LFB40:
 365:.\Generated_Source\PSoC4/CapSense_1_SMS.c **** 
 366:.\Generated_Source\PSoC4/CapSense_1_SMS.c **** 
 367:.\Generated_Source\PSoC4/CapSense_1_SMS.c **** /*******************************************************************************
 368:.\Generated_Source\PSoC4/CapSense_1_SMS.c **** * Function Name: CapSense_1_SetSensitivity
 369:.\Generated_Source\PSoC4/CapSense_1_SMS.c **** ********************************************************************************
 370:.\Generated_Source\PSoC4/CapSense_1_SMS.c **** *
 371:.\Generated_Source\PSoC4/CapSense_1_SMS.c **** * Summary:
 372:.\Generated_Source\PSoC4/CapSense_1_SMS.c **** *  This API sets the sensitivity value for the sensor. The sensitivity 
 373:.\Generated_Source\PSoC4/CapSense_1_SMS.c **** *  value is used during the auto-tuning algorithm executed as part of the CapSense_Start API.
 374:.\Generated_Source\PSoC4/CapSense_1_SMS.c **** *  This API is called by the application layer prior to calling the CapSense_Start API. 
 375:.\Generated_Source\PSoC4/CapSense_1_SMS.c **** *  Calling this API after execution of CapSense_Start API has no effect. 
 376:.\Generated_Source\PSoC4/CapSense_1_SMS.c **** *
 377:.\Generated_Source\PSoC4/CapSense_1_SMS.c **** * Parameters: 
 378:.\Generated_Source\PSoC4/CapSense_1_SMS.c **** *  sensor  Sensor index 
 379:.\Generated_Source\PSoC4/CapSense_1_SMS.c **** *  data    Sensitivity of the sensor. Possible values are below
 380:.\Generated_Source\PSoC4/CapSense_1_SMS.c **** *  1 - 0.1pf sensitivity
 381:.\Generated_Source\PSoC4/CapSense_1_SMS.c **** *  2 - 0.2pf sensitivity
 382:.\Generated_Source\PSoC4/CapSense_1_SMS.c **** *  3 - 0.3pf sensitivity
 383:.\Generated_Source\PSoC4/CapSense_1_SMS.c **** *  4 - 0.4pf sensitivity
 384:.\Generated_Source\PSoC4/CapSense_1_SMS.c **** *  5 - 0.5pf sensitivity
 385:.\Generated_Source\PSoC4/CapSense_1_SMS.c **** *  6 - 0.6pf sensitivity
 386:.\Generated_Source\PSoC4/CapSense_1_SMS.c **** *  7 - 0.7pf sensitivity
 387:.\Generated_Source\PSoC4/CapSense_1_SMS.c **** *  8 - 0.8pf sensitivity
 388:.\Generated_Source\PSoC4/CapSense_1_SMS.c **** *  9 - 0.9pf sensitivity
 389:.\Generated_Source\PSoC4/CapSense_1_SMS.c **** *  10 - 1.0pf sensitivity
 390:.\Generated_Source\PSoC4/CapSense_1_SMS.c **** *  All other values, set sensitivity to 1.0pf
 391:.\Generated_Source\PSoC4/CapSense_1_SMS.c **** *
 392:.\Generated_Source\PSoC4/CapSense_1_SMS.c **** *  Return Value:
 393:.\Generated_Source\PSoC4/CapSense_1_SMS.c **** *   None
 394:.\Generated_Source\PSoC4/CapSense_1_SMS.c **** *
 395:.\Generated_Source\PSoC4/CapSense_1_SMS.c **** * Global Variables:
 396:.\Generated_Source\PSoC4/CapSense_1_SMS.c **** * SMS_LIB_SensorSensitivity[] - This 8-bits array contains Sensitivity in the LSB nibble
 397:.\Generated_Source\PSoC4/CapSense_1_SMS.c **** *                                and Noise Reset Counter value in the MSB nibble.      
ARM GAS  C:\Users\danielpi\AppData\Local\Temp\ccmGehZx.s 			page 16


 398:.\Generated_Source\PSoC4/CapSense_1_SMS.c **** *
 399:.\Generated_Source\PSoC4/CapSense_1_SMS.c **** * Side Effects: 
 400:.\Generated_Source\PSoC4/CapSense_1_SMS.c **** *  None
 401:.\Generated_Source\PSoC4/CapSense_1_SMS.c **** *
 402:.\Generated_Source\PSoC4/CapSense_1_SMS.c **** *******************************************************************************/
 403:.\Generated_Source\PSoC4/CapSense_1_SMS.c **** void CapSense_1_SetSensitivity(uint32 sensor, uint32 value)
 404:.\Generated_Source\PSoC4/CapSense_1_SMS.c **** {
 423              		.loc 1 404 0
 424              		.cfi_startproc
 425              	.LVL38:
 426 0000 10B5     		push	{r4, lr}
 427              		.cfi_def_cfa_offset 8
 428              		.cfi_offset 4, -8
 429              		.cfi_offset 14, -4
 405:.\Generated_Source\PSoC4/CapSense_1_SMS.c **** 	if(value > 10u)
 430              		.loc 1 405 0
 431 0002 0A29     		cmp	r1, #10
 432 0004 00D9     		bls	.L30
 406:.\Generated_Source\PSoC4/CapSense_1_SMS.c **** 	{
 407:.\Generated_Source\PSoC4/CapSense_1_SMS.c **** 		value = 10u;
 433              		.loc 1 407 0
 434 0006 0A21     		mov	r1, #10
 435              	.LVL39:
 436              	.L30:
 408:.\Generated_Source\PSoC4/CapSense_1_SMS.c **** 	}
 409:.\Generated_Source\PSoC4/CapSense_1_SMS.c **** 	
 410:.\Generated_Source\PSoC4/CapSense_1_SMS.c ****     /* Clear SensorSensitivity value in LSB nibble */
 411:.\Generated_Source\PSoC4/CapSense_1_SMS.c **** 	SMS_LIB_SensorSensitivity[sensor] &= (uint8)~CapSense_1_SENSITIVITY_MASK;
 437              		.loc 1 411 0
 438 0008 034B     		ldr	r3, .L32
 439 000a 1A5C     		ldrb	r2, [r3, r0]
 440 000c 0F24     		mov	r4, #15
 441 000e A243     		bic	r2, r4
 412:.\Generated_Source\PSoC4/CapSense_1_SMS.c **** 	/* Set SensorSensitivity value in LSB nibble */
 413:.\Generated_Source\PSoC4/CapSense_1_SMS.c **** 	SMS_LIB_SensorSensitivity[sensor] |= (uint8)value;
 442              		.loc 1 413 0
 443 0010 1143     		orr	r1, r2
 444              	.LVL40:
 445 0012 1954     		strb	r1, [r3, r0]
 414:.\Generated_Source\PSoC4/CapSense_1_SMS.c **** }
 446              		.loc 1 414 0
 447              		@ sp needed
 448 0014 10BD     		pop	{r4, pc}
 449              	.L33:
 450 0016 C046     		.align	2
 451              	.L32:
 452 0018 00000000 		.word	.LANCHOR1
 453              		.cfi_endproc
 454              	.LFE40:
 455              		.size	CapSense_1_SetSensitivity, .-CapSense_1_SetSensitivity
 456              		.section	.text.CapSense_1_GetSensitivityCoefficient,"ax",%progbits
 457              		.align	2
 458              		.global	CapSense_1_GetSensitivityCoefficient
 459              		.code	16
 460              		.thumb_func
 461              		.type	CapSense_1_GetSensitivityCoefficient, %function
 462              	CapSense_1_GetSensitivityCoefficient:
ARM GAS  C:\Users\danielpi\AppData\Local\Temp\ccmGehZx.s 			page 17


 463              	.LFB41:
 415:.\Generated_Source\PSoC4/CapSense_1_SMS.c **** 
 416:.\Generated_Source\PSoC4/CapSense_1_SMS.c **** 
 417:.\Generated_Source\PSoC4/CapSense_1_SMS.c **** /*******************************************************************************
 418:.\Generated_Source\PSoC4/CapSense_1_SMS.c **** * Function Name: CapSense_1_GetSensitivityCoefficient
 419:.\Generated_Source\PSoC4/CapSense_1_SMS.c **** ********************************************************************************
 420:.\Generated_Source\PSoC4/CapSense_1_SMS.c **** *
 421:.\Generated_Source\PSoC4/CapSense_1_SMS.c **** * Summary:
 422:.\Generated_Source\PSoC4/CapSense_1_SMS.c **** *  This API returns the K coefficient for the appropriate sensor. 
 423:.\Generated_Source\PSoC4/CapSense_1_SMS.c **** *
 424:.\Generated_Source\PSoC4/CapSense_1_SMS.c **** * Parameters: 
 425:.\Generated_Source\PSoC4/CapSense_1_SMS.c **** *  sensor:  Sensor index 
 426:.\Generated_Source\PSoC4/CapSense_1_SMS.c **** *
 427:.\Generated_Source\PSoC4/CapSense_1_SMS.c **** *  Return Value:
 428:.\Generated_Source\PSoC4/CapSense_1_SMS.c **** *   K - value for the appropriate sensor.
 429:.\Generated_Source\PSoC4/CapSense_1_SMS.c **** *
 430:.\Generated_Source\PSoC4/CapSense_1_SMS.c **** * Global Variables:
 431:.\Generated_Source\PSoC4/CapSense_1_SMS.c **** *  kValueTbl[] - This 8-bits array contains the K value for each sensor.
 432:.\Generated_Source\PSoC4/CapSense_1_SMS.c **** *
 433:.\Generated_Source\PSoC4/CapSense_1_SMS.c **** * Side Effects: 
 434:.\Generated_Source\PSoC4/CapSense_1_SMS.c **** *  None
 435:.\Generated_Source\PSoC4/CapSense_1_SMS.c **** *
 436:.\Generated_Source\PSoC4/CapSense_1_SMS.c **** *******************************************************************************/
 437:.\Generated_Source\PSoC4/CapSense_1_SMS.c **** uint8 CapSense_1_GetSensitivityCoefficient(uint32 sensor)
 438:.\Generated_Source\PSoC4/CapSense_1_SMS.c **** {
 464              		.loc 1 438 0
 465              		.cfi_startproc
 466              	.LVL41:
 439:.\Generated_Source\PSoC4/CapSense_1_SMS.c **** 	return (kValueTbl[sensor]);
 467              		.loc 1 439 0
 468 0000 014B     		ldr	r3, .L35
 469 0002 185C     		ldrb	r0, [r3, r0]
 470              	.LVL42:
 440:.\Generated_Source\PSoC4/CapSense_1_SMS.c **** }
 471              		.loc 1 440 0
 472              		@ sp needed
 473 0004 7047     		bx	lr
 474              	.L36:
 475 0006 C046     		.align	2
 476              	.L35:
 477 0008 00000000 		.word	kValueTbl
 478              		.cfi_endproc
 479              	.LFE41:
 480              		.size	CapSense_1_GetSensitivityCoefficient, .-CapSense_1_GetSensitivityCoefficient
 481              		.section	.text.CapSense_1_GetNoiseEnvelope,"ax",%progbits
 482              		.align	2
 483              		.global	CapSense_1_GetNoiseEnvelope
 484              		.code	16
 485              		.thumb_func
 486              		.type	CapSense_1_GetNoiseEnvelope, %function
 487              	CapSense_1_GetNoiseEnvelope:
 488              	.LFB42:
 441:.\Generated_Source\PSoC4/CapSense_1_SMS.c **** 
 442:.\Generated_Source\PSoC4/CapSense_1_SMS.c **** 
 443:.\Generated_Source\PSoC4/CapSense_1_SMS.c **** /*******************************************************************************
 444:.\Generated_Source\PSoC4/CapSense_1_SMS.c **** * Function Name: CapSense_1_GetNoiseEnvelope
 445:.\Generated_Source\PSoC4/CapSense_1_SMS.c **** ********************************************************************************
ARM GAS  C:\Users\danielpi\AppData\Local\Temp\ccmGehZx.s 			page 18


 446:.\Generated_Source\PSoC4/CapSense_1_SMS.c **** *
 447:.\Generated_Source\PSoC4/CapSense_1_SMS.c **** * Summary:
 448:.\Generated_Source\PSoC4/CapSense_1_SMS.c **** *  This function returns the noise value of a
 449:.\Generated_Source\PSoC4/CapSense_1_SMS.c **** *  component.
 450:.\Generated_Source\PSoC4/CapSense_1_SMS.c **** *
 451:.\Generated_Source\PSoC4/CapSense_1_SMS.c **** * Parameters:
 452:.\Generated_Source\PSoC4/CapSense_1_SMS.c **** *  sensor - Sensor number.
 453:.\Generated_Source\PSoC4/CapSense_1_SMS.c **** *
 454:.\Generated_Source\PSoC4/CapSense_1_SMS.c **** * Return:
 455:.\Generated_Source\PSoC4/CapSense_1_SMS.c **** *  The noise envelope value of the sensor
 456:.\Generated_Source\PSoC4/CapSense_1_SMS.c **** *  indicated by argument.
 457:.\Generated_Source\PSoC4/CapSense_1_SMS.c **** *
 458:.\Generated_Source\PSoC4/CapSense_1_SMS.c **** * Global Variables:
 459:.\Generated_Source\PSoC4/CapSense_1_SMS.c **** *  baNoiseEnvelope[] - array with Noise Envelope.
 460:.\Generated_Source\PSoC4/CapSense_1_SMS.c **** *
 461:.\Generated_Source\PSoC4/CapSense_1_SMS.c **** * Side Effects:
 462:.\Generated_Source\PSoC4/CapSense_1_SMS.c **** *  None
 463:.\Generated_Source\PSoC4/CapSense_1_SMS.c **** *
 464:.\Generated_Source\PSoC4/CapSense_1_SMS.c **** *******************************************************************************/
 465:.\Generated_Source\PSoC4/CapSense_1_SMS.c **** uint16 CapSense_1_GetNoiseEnvelope(uint32 sensor)
 466:.\Generated_Source\PSoC4/CapSense_1_SMS.c **** {
 489              		.loc 1 466 0
 490              		.cfi_startproc
 491              	.LVL43:
 467:.\Generated_Source\PSoC4/CapSense_1_SMS.c ****     return((uint16)((uint16)noiseEnvelopeTbl[sensor] << 1u) + 1u);
 492              		.loc 1 467 0
 493 0000 024B     		ldr	r3, .L38
 494 0002 185C     		ldrb	r0, [r3, r0]
 495              	.LVL44:
 496 0004 4000     		lsl	r0, r0, #1
 497 0006 0130     		add	r0, r0, #1
 468:.\Generated_Source\PSoC4/CapSense_1_SMS.c **** }
 498              		.loc 1 468 0
 499              		@ sp needed
 500 0008 7047     		bx	lr
 501              	.L39:
 502 000a C046     		.align	2
 503              	.L38:
 504 000c 00000000 		.word	noiseEnvelopeTbl
 505              		.cfi_endproc
 506              	.LFE42:
 507              		.size	CapSense_1_GetNoiseEnvelope, .-CapSense_1_GetNoiseEnvelope
 508              		.global	__aeabi_uidiv
 509              		.section	.text.CapSense_1_GetNormalizedDiffCountData,"ax",%progbits
 510              		.align	2
 511              		.global	CapSense_1_GetNormalizedDiffCountData
 512              		.code	16
 513              		.thumb_func
 514              		.type	CapSense_1_GetNormalizedDiffCountData, %function
 515              	CapSense_1_GetNormalizedDiffCountData:
 516              	.LFB43:
 469:.\Generated_Source\PSoC4/CapSense_1_SMS.c **** 
 470:.\Generated_Source\PSoC4/CapSense_1_SMS.c **** 
 471:.\Generated_Source\PSoC4/CapSense_1_SMS.c **** /*******************************************************************************
 472:.\Generated_Source\PSoC4/CapSense_1_SMS.c **** * Function Name: CapSense_1_GetNormalizedDiffCountData
 473:.\Generated_Source\PSoC4/CapSense_1_SMS.c **** ********************************************************************************
 474:.\Generated_Source\PSoC4/CapSense_1_SMS.c **** *
ARM GAS  C:\Users\danielpi\AppData\Local\Temp\ccmGehZx.s 			page 19


 475:.\Generated_Source\PSoC4/CapSense_1_SMS.c **** * Summary:
 476:.\Generated_Source\PSoC4/CapSense_1_SMS.c **** *  This API returns normalized difference count data.
 477:.\Generated_Source\PSoC4/CapSense_1_SMS.c **** *
 478:.\Generated_Source\PSoC4/CapSense_1_SMS.c **** * Parameters:
 479:.\Generated_Source\PSoC4/CapSense_1_SMS.c **** *  sensor:  Sensor number.
 480:.\Generated_Source\PSoC4/CapSense_1_SMS.c **** *
 481:.\Generated_Source\PSoC4/CapSense_1_SMS.c **** * Return:
 482:.\Generated_Source\PSoC4/CapSense_1_SMS.c **** *  This API returns a normalized count value of the sensor indicated by the 
 483:.\Generated_Source\PSoC4/CapSense_1_SMS.c **** *  argument. 
 484:.\Generated_Source\PSoC4/CapSense_1_SMS.c **** *
 485:.\Generated_Source\PSoC4/CapSense_1_SMS.c **** * Global Variables:
 486:.\Generated_Source\PSoC4/CapSense_1_SMS.c **** *  CapSense_1_sensorSignal[] - array with difference counts for sensors
 487:.\Generated_Source\PSoC4/CapSense_1_SMS.c **** * 
 488:.\Generated_Source\PSoC4/CapSense_1_SMS.c **** * Side Effects:
 489:.\Generated_Source\PSoC4/CapSense_1_SMS.c **** *  None
 490:.\Generated_Source\PSoC4/CapSense_1_SMS.c **** *
 491:.\Generated_Source\PSoC4/CapSense_1_SMS.c **** *******************************************************************************/
 492:.\Generated_Source\PSoC4/CapSense_1_SMS.c **** uint16 CapSense_1_GetNormalizedDiffCountData(uint32 sensor)
 493:.\Generated_Source\PSoC4/CapSense_1_SMS.c **** {
 517              		.loc 1 493 0
 518              		.cfi_startproc
 519              	.LVL45:
 520 0000 08B5     		push	{r3, lr}
 521              		.cfi_def_cfa_offset 8
 522              		.cfi_offset 3, -8
 523              		.cfi_offset 14, -4
 524 0002 031C     		mov	r3, r0
 494:.\Generated_Source\PSoC4/CapSense_1_SMS.c **** 	return (uint16)(((uint32)CapSense_1_sensorSignal[sensor] << 7u) / kValueTbl[sensor]);
 525              		.loc 1 494 0
 526 0004 044A     		ldr	r2, .L41
 527 0006 105C     		ldrb	r0, [r2, r0]
 528              	.LVL46:
 529 0008 C001     		lsl	r0, r0, #7
 530 000a 044A     		ldr	r2, .L41+4
 531 000c D15C     		ldrb	r1, [r2, r3]
 532 000e FFF7FEFF 		bl	__aeabi_uidiv
 533              	.LVL47:
 534 0012 80B2     		uxth	r0, r0
 495:.\Generated_Source\PSoC4/CapSense_1_SMS.c **** }
 535              		.loc 1 495 0
 536              		@ sp needed
 537 0014 08BD     		pop	{r3, pc}
 538              	.L42:
 539 0016 C046     		.align	2
 540              	.L41:
 541 0018 00000000 		.word	CapSense_1_sensorSignal
 542 001c 00000000 		.word	kValueTbl
 543              		.cfi_endproc
 544              	.LFE43:
 545              		.size	CapSense_1_GetNormalizedDiffCountData, .-CapSense_1_GetNormalizedDiffCountData
 546              		.global	CapSense_1_configPointers
 547              		.comm	CapSense_1_config,12,4
 548              		.global	SMS_LIB_SensorSensitivity
 549              		.comm	kValueTbl,5,4
 550              		.comm	previousSampleTbl,10,4
 551              		.comm	sampleMaxTbl,10,4
 552              		.comm	sampleMinTbl,10,4
ARM GAS  C:\Users\danielpi\AppData\Local\Temp\ccmGehZx.s 			page 20


 553              		.comm	signRegisterTbl,5,4
 554              		.comm	runningDifferenceTbl,5,4
 555              		.comm	noiseEnvelopeTbl,5,4
 556              		.global	prescalerTable
 557              		.section	.rodata
 558              		.align	2
 559              		.set	.LANCHOR0,. + 0
 560              		.type	CapSense_1_configPointers, %object
 561              		.size	CapSense_1_configPointers, 56
 562              	CapSense_1_configPointers:
 563 0000 00000000 		.word	CapSense_1_modulationIDAC
 564 0004 00000000 		.word	CapSense_1_compensationIDAC
 565 0008 00000000 		.word	SMS_LIB_SensorSensitivity
 566 000c 00000000 		.word	CapSense_1_senseClkDividerVal
 567 0010 00000000 		.word	CapSense_1_sampleClkDividerVal
 568 0014 00000000 		.word	CapSense_1_widgetNumber
 569 0018 00000000 		.word	CapSense_1_widgetResolution
 570 001c 00000000 		.word	CapSense_1_rawDataIndex
 571 0020 00000000 		.word	CapSense_1_numberOfSensors
 572 0024 00000000 		.word	CapSense_1_GetSensorRaw
 573 0028 00000000 		.word	CapSense_1_PreScan
 574 002c 00000000 		.word	CapSense_1_ReadSensorRaw
 575 0030 00000000 		.word	CapSense_1_GetBitValue
 576 0034 00000000 		.word	CapSense_1_SetBitValue
 577              		.type	prescalerTable, %object
 578              		.size	prescalerTable, 16
 579              	prescalerTable:
 580 0038 04       		.byte	4
 581 0039 04       		.byte	4
 582 003a 04       		.byte	4
 583 003b 08       		.byte	8
 584 003c 08       		.byte	8
 585 003d 08       		.byte	8
 586 003e 08       		.byte	8
 587 003f 10       		.byte	16
 588 0040 10       		.byte	16
 589 0041 10       		.byte	16
 590 0042 10       		.byte	16
 591 0043 10       		.byte	16
 592 0044 10       		.byte	16
 593 0045 10       		.byte	16
 594 0046 10       		.byte	16
 595 0047 10       		.byte	16
 596              		.data
 597              		.align	2
 598              		.set	.LANCHOR1,. + 0
 599              		.type	SMS_LIB_SensorSensitivity, %object
 600              		.size	SMS_LIB_SensorSensitivity, 5
 601              	SMS_LIB_SensorSensitivity:
 602 0000 02       		.byte	2
 603 0001 02       		.byte	2
 604 0002 02       		.byte	2
 605 0003 02       		.byte	2
 606 0004 02       		.byte	2
 607 0005 000000   		.text
 608              	.Letext0:
 609              		.file 2 ".\\Generated_Source\\PSoC4\\cytypes.h"
ARM GAS  C:\Users\danielpi\AppData\Local\Temp\ccmGehZx.s 			page 21


 610              		.file 3 ".\\Generated_Source\\PSoC4\\CapSense_1_PVT.h"
 611              		.file 4 ".\\Generated_Source\\PSoC4\\CapSense_1.h"
 612              		.file 5 ".\\Generated_Source\\PSoC4\\CapSense_1_CSHL.h"
 613              		.file 6 ".\\Generated_Source\\PSoC4\\CyLib.h"