ARM GAS  C:\Users\danielpi\AppData\Local\Temp\cccuTXvj.s 			page 1


   1              		.cpu cortex-m0
   2              		.fpu softvfp
   3              		.eabi_attribute 20, 1
   4              		.eabi_attribute 21, 1
   5              		.eabi_attribute 23, 3
   6              		.eabi_attribute 24, 1
   7              		.eabi_attribute 25, 1
   8              		.eabi_attribute 26, 1
   9              		.eabi_attribute 30, 1
  10              		.eabi_attribute 34, 0
  11              		.eabi_attribute 18, 4
  12              		.code	16
  13              		.file	"CapSense_1.c"
  14              		.text
  15              	.Ltext0:
  16              		.cfi_sections	.debug_frame
  17              		.section	.text.CapSense_1_CsdHwBlockInit,"ax",%progbits
  18              		.align	2
  19              		.global	CapSense_1_CsdHwBlockInit
  20              		.code	16
  21              		.thumb_func
  22              		.type	CapSense_1_CsdHwBlockInit, %function
  23              	CapSense_1_CsdHwBlockInit:
  24              	.LFB36:
  25              		.file 1 ".\\Generated_Source\\PSoC4\\CapSense_1.c"
   1:.\Generated_Source\PSoC4/CapSense_1.c **** /*******************************************************************************
   2:.\Generated_Source\PSoC4/CapSense_1.c **** * File Name: CapSense_1.c
   3:.\Generated_Source\PSoC4/CapSense_1.c **** * Version 2.20
   4:.\Generated_Source\PSoC4/CapSense_1.c **** *
   5:.\Generated_Source\PSoC4/CapSense_1.c **** * Description:
   6:.\Generated_Source\PSoC4/CapSense_1.c **** *  This file provides the source code for scanning APIs for the CapSense CSD 
   7:.\Generated_Source\PSoC4/CapSense_1.c **** *  component.
   8:.\Generated_Source\PSoC4/CapSense_1.c **** *
   9:.\Generated_Source\PSoC4/CapSense_1.c **** * Note:
  10:.\Generated_Source\PSoC4/CapSense_1.c **** *
  11:.\Generated_Source\PSoC4/CapSense_1.c **** ********************************************************************************
  12:.\Generated_Source\PSoC4/CapSense_1.c **** * Copyright 2014, Cypress Semiconductor Corporation.  All rights reserved.
  13:.\Generated_Source\PSoC4/CapSense_1.c **** * You may use this file only in accordance with the license, terms, conditions,
  14:.\Generated_Source\PSoC4/CapSense_1.c **** * disclaimers, and limitations in the end user license agreement accompanying
  15:.\Generated_Source\PSoC4/CapSense_1.c **** * the software package with which this file was provided.
  16:.\Generated_Source\PSoC4/CapSense_1.c **** *******************************************************************************/
  17:.\Generated_Source\PSoC4/CapSense_1.c **** 
  18:.\Generated_Source\PSoC4/CapSense_1.c **** #include "CapSense_1.h"
  19:.\Generated_Source\PSoC4/CapSense_1.c **** #include "CapSense_1_PVT.h"
  20:.\Generated_Source\PSoC4/CapSense_1.c **** #include "cypins.h"
  21:.\Generated_Source\PSoC4/CapSense_1.c **** 
  22:.\Generated_Source\PSoC4/CapSense_1.c **** #if(0u != CapSense_1_CSHL_API_GENERATE)
  23:.\Generated_Source\PSoC4/CapSense_1.c **** 	#include "CapSense_1_CSHL.h"
  24:.\Generated_Source\PSoC4/CapSense_1.c **** #endif /* (0u != CapSense_1_CSHL_API_GENERATE) */
  25:.\Generated_Source\PSoC4/CapSense_1.c **** 
  26:.\Generated_Source\PSoC4/CapSense_1.c **** /* This definition is intended to prevent unexpected linker error. 
  27:.\Generated_Source\PSoC4/CapSense_1.c ****    For more details please see the IAR Technical Note 49981 */
  28:.\Generated_Source\PSoC4/CapSense_1.c **** #if defined(__ICCARM__)
  29:.\Generated_Source\PSoC4/CapSense_1.c **** 	extern void CapSense_1_EnableSensor(uint32 sensor);
  30:.\Generated_Source\PSoC4/CapSense_1.c **** 	extern void CapSense_1_DisableSensor(uint32 sensor);
  31:.\Generated_Source\PSoC4/CapSense_1.c **** #endif /* (__ICCARM__) */	
  32:.\Generated_Source\PSoC4/CapSense_1.c **** 
ARM GAS  C:\Users\danielpi\AppData\Local\Temp\cccuTXvj.s 			page 2


  33:.\Generated_Source\PSoC4/CapSense_1.c **** /* SmartSense functions */
  34:.\Generated_Source\PSoC4/CapSense_1.c **** #if (CapSense_1_TUNING_METHOD == CapSense_1__TUNING_AUTO)
  35:.\Generated_Source\PSoC4/CapSense_1.c ****     uint8 CapSense_1_lowLevelTuningDone = 0u;
  36:.\Generated_Source\PSoC4/CapSense_1.c **** 	uint8 scanSpeedTbl[((CapSense_1_TOTAL_SENSOR_COUNT - 1u) / 8u) + 1u];
  37:.\Generated_Source\PSoC4/CapSense_1.c **** #endif /* (CapSense_1_TUNING_METHOD == CapSense_1__TUNING_AUTO) */
  38:.\Generated_Source\PSoC4/CapSense_1.c **** 
  39:.\Generated_Source\PSoC4/CapSense_1.c **** #if(CapSense_1_PRS_OPTIONS != CapSense_1__PRS_NONE)
  40:.\Generated_Source\PSoC4/CapSense_1.c **** 	uint8 CapSense_1_prescalersTuningDone = 0u;
  41:.\Generated_Source\PSoC4/CapSense_1.c **** #endif /* (CapSense_1_PRS_OPTIONS == CapSense_1__PRS_NONE) */
  42:.\Generated_Source\PSoC4/CapSense_1.c ****             
  43:.\Generated_Source\PSoC4/CapSense_1.c **** /* Global software variables */
  44:.\Generated_Source\PSoC4/CapSense_1.c **** volatile uint8 CapSense_1_csdStatusVar = 0u;   /* CapSense CSD status, variable */
  45:.\Generated_Source\PSoC4/CapSense_1.c **** volatile uint8 CapSense_1_sensorIndex = 0u;    /* Index of scannig sensor */
  46:.\Generated_Source\PSoC4/CapSense_1.c **** 
  47:.\Generated_Source\PSoC4/CapSense_1.c **** /* Global array of Raw Counts */
  48:.\Generated_Source\PSoC4/CapSense_1.c **** uint16 CapSense_1_sensorRaw[CapSense_1_TOTAL_SENSOR_COUNT] = {0u};
  49:.\Generated_Source\PSoC4/CapSense_1.c **** 
  50:.\Generated_Source\PSoC4/CapSense_1.c **** /* Backup variables for trim registers*/
  51:.\Generated_Source\PSoC4/CapSense_1.c **** #if (CapSense_1_IDAC1_POLARITY == CapSense_1__IDAC_SINK)
  52:.\Generated_Source\PSoC4/CapSense_1.c **** 	uint8 CapSense_1_csdTrim2;   
  53:.\Generated_Source\PSoC4/CapSense_1.c **** #else
  54:.\Generated_Source\PSoC4/CapSense_1.c ****     uint8 CapSense_1_csdTrim1;	
  55:.\Generated_Source\PSoC4/CapSense_1.c **** #endif /* (CapSense_1_IDAC1_POLARITY == CapSense_1__IDAC_SINK) */
  56:.\Generated_Source\PSoC4/CapSense_1.c **** 
  57:.\Generated_Source\PSoC4/CapSense_1.c **** /* Global array of un-scanned sensors state */
  58:.\Generated_Source\PSoC4/CapSense_1.c **** uint8 CapSense_1_unscannedSnsDriveMode[CapSense_1_TOTAL_SENSOR_COUNT];
  59:.\Generated_Source\PSoC4/CapSense_1.c **** 
  60:.\Generated_Source\PSoC4/CapSense_1.c **** /* Backup array for CapSense_1_sensorEnableMask */
  61:.\Generated_Source\PSoC4/CapSense_1.c **** uint8 CapSense_1_sensorEnableMaskBackup[(((CapSense_1_TOTAL_SENSOR_COUNT - 1u) / 8u) + 1u)];
  62:.\Generated_Source\PSoC4/CapSense_1.c **** 
  63:.\Generated_Source\PSoC4/CapSense_1.c **** /* Configured constants and arrays by Customizer */
  64:.\Generated_Source\PSoC4/CapSense_1.c **** uint8 CapSense_1_sensorEnableMask[(((CapSense_1_TOTAL_SENSOR_COUNT - 1u) / 8u) + 1u)] = {
  65:.\Generated_Source\PSoC4/CapSense_1.c **** 0x1Fu, };
  66:.\Generated_Source\PSoC4/CapSense_1.c **** 
  67:.\Generated_Source\PSoC4/CapSense_1.c **** reg32 * CapSense_1_pcTable[] = {
  68:.\Generated_Source\PSoC4/CapSense_1.c ****     (reg32 *)CapSense_1_Sns__LinearSlider0_e0__LS__PC, 
  69:.\Generated_Source\PSoC4/CapSense_1.c ****     (reg32 *)CapSense_1_Sns__LinearSlider0_e1__LS__PC, 
  70:.\Generated_Source\PSoC4/CapSense_1.c ****     (reg32 *)CapSense_1_Sns__LinearSlider0_e2__LS__PC, 
  71:.\Generated_Source\PSoC4/CapSense_1.c ****     (reg32 *)CapSense_1_Sns__LinearSlider0_e3__LS__PC, 
  72:.\Generated_Source\PSoC4/CapSense_1.c ****     (reg32 *)CapSense_1_Sns__LinearSlider0_e4__LS__PC, 
  73:.\Generated_Source\PSoC4/CapSense_1.c **** };
  74:.\Generated_Source\PSoC4/CapSense_1.c **** 
  75:.\Generated_Source\PSoC4/CapSense_1.c **** const uint8 CapSense_1_portTable[] = {
  76:.\Generated_Source\PSoC4/CapSense_1.c ****     CapSense_1_Sns__LinearSlider0_e0__LS__PORT, 
  77:.\Generated_Source\PSoC4/CapSense_1.c ****     CapSense_1_Sns__LinearSlider0_e1__LS__PORT, 
  78:.\Generated_Source\PSoC4/CapSense_1.c ****     CapSense_1_Sns__LinearSlider0_e2__LS__PORT, 
  79:.\Generated_Source\PSoC4/CapSense_1.c ****     CapSense_1_Sns__LinearSlider0_e3__LS__PORT, 
  80:.\Generated_Source\PSoC4/CapSense_1.c ****     CapSense_1_Sns__LinearSlider0_e4__LS__PORT, 
  81:.\Generated_Source\PSoC4/CapSense_1.c **** };
  82:.\Generated_Source\PSoC4/CapSense_1.c **** 
  83:.\Generated_Source\PSoC4/CapSense_1.c **** const uint32 CapSense_1_maskTable[] = {
  84:.\Generated_Source\PSoC4/CapSense_1.c ****     CapSense_1_Sns__LinearSlider0_e0__LS__MASK, 
  85:.\Generated_Source\PSoC4/CapSense_1.c ****     CapSense_1_Sns__LinearSlider0_e1__LS__MASK, 
  86:.\Generated_Source\PSoC4/CapSense_1.c ****     CapSense_1_Sns__LinearSlider0_e2__LS__MASK, 
  87:.\Generated_Source\PSoC4/CapSense_1.c ****     CapSense_1_Sns__LinearSlider0_e3__LS__MASK, 
  88:.\Generated_Source\PSoC4/CapSense_1.c ****     CapSense_1_Sns__LinearSlider0_e4__LS__MASK, 
  89:.\Generated_Source\PSoC4/CapSense_1.c **** };
ARM GAS  C:\Users\danielpi\AppData\Local\Temp\cccuTXvj.s 			page 3


  90:.\Generated_Source\PSoC4/CapSense_1.c **** 
  91:.\Generated_Source\PSoC4/CapSense_1.c **** const uint8 CapSense_1_pinShiftTbl[] = {
  92:.\Generated_Source\PSoC4/CapSense_1.c ****     (uint8) CapSense_1_Sns__LinearSlider0_e0__LS__SHIFT, 
  93:.\Generated_Source\PSoC4/CapSense_1.c ****     (uint8) CapSense_1_Sns__LinearSlider0_e1__LS__SHIFT, 
  94:.\Generated_Source\PSoC4/CapSense_1.c ****     (uint8) CapSense_1_Sns__LinearSlider0_e2__LS__SHIFT, 
  95:.\Generated_Source\PSoC4/CapSense_1.c ****     (uint8) CapSense_1_Sns__LinearSlider0_e3__LS__SHIFT, 
  96:.\Generated_Source\PSoC4/CapSense_1.c ****     (uint8) CapSense_1_Sns__LinearSlider0_e4__LS__SHIFT, 
  97:.\Generated_Source\PSoC4/CapSense_1.c **** };
  98:.\Generated_Source\PSoC4/CapSense_1.c **** 
  99:.\Generated_Source\PSoC4/CapSense_1.c **** uint8 CapSense_1_modulationIDAC[CapSense_1_TOTAL_SENSOR_COUNT];
 100:.\Generated_Source\PSoC4/CapSense_1.c **** uint8 CapSense_1_compensationIDAC[CapSense_1_TOTAL_SENSOR_COUNT];
 101:.\Generated_Source\PSoC4/CapSense_1.c **** 
 102:.\Generated_Source\PSoC4/CapSense_1.c **** uint32 CapSense_1_widgetResolution[CapSense_1_RESOLUTIONS_TBL_SIZE] = {
 103:.\Generated_Source\PSoC4/CapSense_1.c ****     CapSense_1_RESOLUTION_12_BITS,
 104:.\Generated_Source\PSoC4/CapSense_1.c **** };
 105:.\Generated_Source\PSoC4/CapSense_1.c **** 
 106:.\Generated_Source\PSoC4/CapSense_1.c **** uint8 CapSense_1_senseClkDividerVal[CapSense_1_TOTAL_SCANSLOT_COUNT];
 107:.\Generated_Source\PSoC4/CapSense_1.c **** uint8 CapSense_1_sampleClkDividerVal[CapSense_1_TOTAL_SCANSLOT_COUNT];
 108:.\Generated_Source\PSoC4/CapSense_1.c **** 
 109:.\Generated_Source\PSoC4/CapSense_1.c **** const uint8 CapSense_1_widgetNumber[CapSense_1_TOTAL_SENSOR_COUNT] = {
 110:.\Generated_Source\PSoC4/CapSense_1.c ****     0u, 0u, 0u, 0u, 0u, /* LinearSlider0__LS */
 111:.\Generated_Source\PSoC4/CapSense_1.c **** };
 112:.\Generated_Source\PSoC4/CapSense_1.c **** 
 113:.\Generated_Source\PSoC4/CapSense_1.c **** 
 114:.\Generated_Source\PSoC4/CapSense_1.c **** 
 115:.\Generated_Source\PSoC4/CapSense_1.c **** reg32* const CapSense_1_prtSelTbl[] = {
 116:.\Generated_Source\PSoC4/CapSense_1.c **** /* CY_PSOC4_4000 is default*/
 117:.\Generated_Source\PSoC4/CapSense_1.c **** 	((reg32 *) CYREG_HSIOM_PORT_SEL0),
 118:.\Generated_Source\PSoC4/CapSense_1.c **** 	((reg32 *) CYREG_HSIOM_PORT_SEL1),
 119:.\Generated_Source\PSoC4/CapSense_1.c **** 	((reg32 *) CYREG_HSIOM_PORT_SEL2),
 120:.\Generated_Source\PSoC4/CapSense_1.c **** 	((reg32 *) CYREG_HSIOM_PORT_SEL3),
 121:.\Generated_Source\PSoC4/CapSense_1.c **** #if (CapSense_1_CFG_REG_TBL_SIZE == 5u)
 122:.\Generated_Source\PSoC4/CapSense_1.c **** 	((reg32 *) CYREG_HSIOM_PORT_SEL4)
 123:.\Generated_Source\PSoC4/CapSense_1.c **** #elif(CapSense_1_CFG_REG_TBL_SIZE == 6u)
 124:.\Generated_Source\PSoC4/CapSense_1.c **** 	((reg32 *) CYREG_HSIOM_PORT_SEL4),
 125:.\Generated_Source\PSoC4/CapSense_1.c **** 	((reg32 *) CYREG_HSIOM_PORT_SEL5)
 126:.\Generated_Source\PSoC4/CapSense_1.c **** #elif(CapSense_1_CFG_REG_TBL_SIZE == 8u)
 127:.\Generated_Source\PSoC4/CapSense_1.c **** 	((reg32 *) CYREG_HSIOM_PORT_SEL4),
 128:.\Generated_Source\PSoC4/CapSense_1.c **** 	((reg32 *) CYREG_HSIOM_PORT_SEL5),
 129:.\Generated_Source\PSoC4/CapSense_1.c **** 	((reg32 *) CYREG_HSIOM_PORT_SEL6),
 130:.\Generated_Source\PSoC4/CapSense_1.c **** 	((reg32 *) CYREG_HSIOM_PORT_SEL7)
 131:.\Generated_Source\PSoC4/CapSense_1.c **** #endif /* (CY_PSOC4_4200) */
 132:.\Generated_Source\PSoC4/CapSense_1.c **** };
 133:.\Generated_Source\PSoC4/CapSense_1.c **** 
 134:.\Generated_Source\PSoC4/CapSense_1.c **** reg32* const CapSense_1_prtCfgTbl[] = {
 135:.\Generated_Source\PSoC4/CapSense_1.c **** /* CY_PSOC4_4000 is default*/
 136:.\Generated_Source\PSoC4/CapSense_1.c **** 	((reg32 *) CYREG_GPIO_PRT0_PC),
 137:.\Generated_Source\PSoC4/CapSense_1.c **** 	((reg32 *) CYREG_GPIO_PRT1_PC),
 138:.\Generated_Source\PSoC4/CapSense_1.c **** 	((reg32 *) CYREG_GPIO_PRT2_PC),
 139:.\Generated_Source\PSoC4/CapSense_1.c **** 	((reg32 *) CYREG_GPIO_PRT3_PC),
 140:.\Generated_Source\PSoC4/CapSense_1.c **** #if (CapSense_1_CFG_REG_TBL_SIZE == 5u)
 141:.\Generated_Source\PSoC4/CapSense_1.c **** 	((reg32 *) CYREG_GPIO_PRT4_PC)
 142:.\Generated_Source\PSoC4/CapSense_1.c **** #elif(CapSense_1_CFG_REG_TBL_SIZE == 6u)
 143:.\Generated_Source\PSoC4/CapSense_1.c **** 	((reg32 *) CYREG_GPIO_PRT4_PC),
 144:.\Generated_Source\PSoC4/CapSense_1.c **** 	((reg32 *) CYREG_GPIO_PRT5_PC)
 145:.\Generated_Source\PSoC4/CapSense_1.c **** #elif(CapSense_1_CFG_REG_TBL_SIZE == 8u)
 146:.\Generated_Source\PSoC4/CapSense_1.c **** 	((reg32 *) CYREG_GPIO_PRT4_PC),
ARM GAS  C:\Users\danielpi\AppData\Local\Temp\cccuTXvj.s 			page 4


 147:.\Generated_Source\PSoC4/CapSense_1.c **** 	((reg32 *) CYREG_GPIO_PRT5_PC),
 148:.\Generated_Source\PSoC4/CapSense_1.c **** 	((reg32 *) CYREG_GPIO_PRT6_PC),
 149:.\Generated_Source\PSoC4/CapSense_1.c **** 	((reg32 *) CYREG_GPIO_PRT7_PC)
 150:.\Generated_Source\PSoC4/CapSense_1.c **** #endif /* (CY_PSOC4_4200) */	
 151:.\Generated_Source\PSoC4/CapSense_1.c **** };
 152:.\Generated_Source\PSoC4/CapSense_1.c **** 
 153:.\Generated_Source\PSoC4/CapSense_1.c **** reg32* const CapSense_1_prtDRTbl[] = {
 154:.\Generated_Source\PSoC4/CapSense_1.c **** /* CY_PSOC4_4000 is default*/
 155:.\Generated_Source\PSoC4/CapSense_1.c **** 	((reg32 *) CYREG_GPIO_PRT0_DR),
 156:.\Generated_Source\PSoC4/CapSense_1.c **** 	((reg32 *) CYREG_GPIO_PRT1_DR),
 157:.\Generated_Source\PSoC4/CapSense_1.c **** 	((reg32 *) CYREG_GPIO_PRT2_DR),
 158:.\Generated_Source\PSoC4/CapSense_1.c **** 	((reg32 *) CYREG_GPIO_PRT3_DR),
 159:.\Generated_Source\PSoC4/CapSense_1.c **** #if (CapSense_1_CFG_REG_TBL_SIZE == 5u)
 160:.\Generated_Source\PSoC4/CapSense_1.c **** 	((reg32 *) CYREG_GPIO_PRT4_DR)
 161:.\Generated_Source\PSoC4/CapSense_1.c **** #elif(CapSense_1_CFG_REG_TBL_SIZE == 6u)
 162:.\Generated_Source\PSoC4/CapSense_1.c **** 	((reg32 *) CYREG_GPIO_PRT4_DR),
 163:.\Generated_Source\PSoC4/CapSense_1.c **** 	((reg32 *) CYREG_GPIO_PRT5_DR),
 164:.\Generated_Source\PSoC4/CapSense_1.c **** #elif(CapSense_1_CFG_REG_TBL_SIZE == 8u)
 165:.\Generated_Source\PSoC4/CapSense_1.c **** 	((reg32 *) CYREG_GPIO_PRT4_DR),
 166:.\Generated_Source\PSoC4/CapSense_1.c **** 	((reg32 *) CYREG_GPIO_PRT5_DR),
 167:.\Generated_Source\PSoC4/CapSense_1.c **** 	((reg32 *) CYREG_GPIO_PRT6_DR),
 168:.\Generated_Source\PSoC4/CapSense_1.c **** 	((reg32 *) CYREG_GPIO_PRT7_DR),
 169:.\Generated_Source\PSoC4/CapSense_1.c **** #endif /* (CY_PSOC4_4200) */	
 170:.\Generated_Source\PSoC4/CapSense_1.c **** };
 171:.\Generated_Source\PSoC4/CapSense_1.c ****     
 172:.\Generated_Source\PSoC4/CapSense_1.c **** 
 173:.\Generated_Source\PSoC4/CapSense_1.c **** /*******************************************************************************
 174:.\Generated_Source\PSoC4/CapSense_1.c **** * Function Name: CapSense_1_Init
 175:.\Generated_Source\PSoC4/CapSense_1.c **** ********************************************************************************
 176:.\Generated_Source\PSoC4/CapSense_1.c **** *
 177:.\Generated_Source\PSoC4/CapSense_1.c **** * Summary:
 178:.\Generated_Source\PSoC4/CapSense_1.c **** *  API initializes default CapSense configuration provided by the customizer that defines 
 179:.\Generated_Source\PSoC4/CapSense_1.c **** *  the mode of component operations and resets all the sensors to an inactive state.
 180:.\Generated_Source\PSoC4/CapSense_1.c **** *
 181:.\Generated_Source\PSoC4/CapSense_1.c **** * Parameters:
 182:.\Generated_Source\PSoC4/CapSense_1.c **** *  None
 183:.\Generated_Source\PSoC4/CapSense_1.c **** *
 184:.\Generated_Source\PSoC4/CapSense_1.c **** * Return:
 185:.\Generated_Source\PSoC4/CapSense_1.c **** *  None
 186:.\Generated_Source\PSoC4/CapSense_1.c **** *
 187:.\Generated_Source\PSoC4/CapSense_1.c **** * Global Variables:
 188:.\Generated_Source\PSoC4/CapSense_1.c **** *  CapSense_1_immunityIndex - defines immunity level.
 189:.\Generated_Source\PSoC4/CapSense_1.c **** *
 190:.\Generated_Source\PSoC4/CapSense_1.c **** * Side Effects:
 191:.\Generated_Source\PSoC4/CapSense_1.c **** *  None
 192:.\Generated_Source\PSoC4/CapSense_1.c **** * 
 193:.\Generated_Source\PSoC4/CapSense_1.c **** *******************************************************************************/
 194:.\Generated_Source\PSoC4/CapSense_1.c **** void CapSense_1_Init(void)
 195:.\Generated_Source\PSoC4/CapSense_1.c **** {   
 196:.\Generated_Source\PSoC4/CapSense_1.c **** 	uint32 curSensor;
 197:.\Generated_Source\PSoC4/CapSense_1.c **** 	
 198:.\Generated_Source\PSoC4/CapSense_1.c **** 	#if(CapSense_1_IS_SHIELD_ENABLE)
 199:.\Generated_Source\PSoC4/CapSense_1.c **** 		
 200:.\Generated_Source\PSoC4/CapSense_1.c **** 		#if((CapSense_1_CSH_TANK_PREGARGE_OPTION == CapSense_1__CAPPRIOBUF) || (0u != CapSense_1_CSH_TANK
 201:.\Generated_Source\PSoC4/CapSense_1.c **** 			uint32 newRegValue;
 202:.\Generated_Source\PSoC4/CapSense_1.c **** 			
 203:.\Generated_Source\PSoC4/CapSense_1.c **** 			newRegValue = CapSense_1_CTANK_CONNECTION_REG;
ARM GAS  C:\Users\danielpi\AppData\Local\Temp\cccuTXvj.s 			page 5


 204:.\Generated_Source\PSoC4/CapSense_1.c **** 	        newRegValue &= ~(CapSense_1_CSD_CTANK_CONNECTION_MASK);
 205:.\Generated_Source\PSoC4/CapSense_1.c **** 			newRegValue |= CapSense_1_CSD_CTANK_TO_AMUXBUS_B;
 206:.\Generated_Source\PSoC4/CapSense_1.c **** 	        CapSense_1_CTANK_CONNECTION_REG = newRegValue;
 207:.\Generated_Source\PSoC4/CapSense_1.c **** 			
 208:.\Generated_Source\PSoC4/CapSense_1.c **** 			#if(CapSense_1_CSH_TANK_PREGARGE_OPTION == CapSense_1__CAPPRIOBUF)
 209:.\Generated_Source\PSoC4/CapSense_1.c **** 				newRegValue = CapSense_1_CTANK_PORT_PC_REG;
 210:.\Generated_Source\PSoC4/CapSense_1.c **** 		        newRegValue &= ~(CapSense_1_CSD_CTANK_PC_MASK);
 211:.\Generated_Source\PSoC4/CapSense_1.c **** 				newRegValue |= CapSense_1_CTANK_PC_STRONG_MODE;
 212:.\Generated_Source\PSoC4/CapSense_1.c **** 		        CapSense_1_CTANK_PORT_PC_REG = newRegValue;
 213:.\Generated_Source\PSoC4/CapSense_1.c **** 				
 214:.\Generated_Source\PSoC4/CapSense_1.c **** 				newRegValue = CapSense_1_CTANK_PORT_DR_REG;
 215:.\Generated_Source\PSoC4/CapSense_1.c **** 		        newRegValue &= ~(CapSense_1_CTANK_DR_MASK);
 216:.\Generated_Source\PSoC4/CapSense_1.c **** 				newRegValue |= CapSense_1_CTANK_DR_CONFIG;
 217:.\Generated_Source\PSoC4/CapSense_1.c **** 		        CapSense_1_CTANK_PORT_DR_REG = newRegValue;
 218:.\Generated_Source\PSoC4/CapSense_1.c **** 			#endif /* (CapSense_1_CSH_TANK_PREGARGE_OPTION == CapSense_1__CAPPRIOBUF) */
 219:.\Generated_Source\PSoC4/CapSense_1.c **** 	        
 220:.\Generated_Source\PSoC4/CapSense_1.c **** 		#endif /* ((CapSense_1_CSH_TANK_PREGARGE_OPTION == CapSense_1__CAPPRIOBUF) || (CapSense_1_CSH_TAN
 221:.\Generated_Source\PSoC4/CapSense_1.c **** 		
 222:.\Generated_Source\PSoC4/CapSense_1.c **** 		CapSense_1_EnableShieldElectrode((uint32)CapSense_1_SHIELD_PIN_NUMBER, (uint32)CapSense_1_SHIELD_
 223:.\Generated_Source\PSoC4/CapSense_1.c **** 		
 224:.\Generated_Source\PSoC4/CapSense_1.c **** 	#endif /* (CapSense_1_IS_SHIELD_ENABLE) */
 225:.\Generated_Source\PSoC4/CapSense_1.c **** 	
 226:.\Generated_Source\PSoC4/CapSense_1.c **** 	for(curSensor = 0u; curSensor < CapSense_1_TOTAL_SENSOR_COUNT; curSensor++)
 227:.\Generated_Source\PSoC4/CapSense_1.c **** 	{
 228:.\Generated_Source\PSoC4/CapSense_1.c **** 		CapSense_1_unscannedSnsDriveMode[curSensor] = CapSense_1_CONNECT_INACTIVE_SNS;
 229:.\Generated_Source\PSoC4/CapSense_1.c **** 	}
 230:.\Generated_Source\PSoC4/CapSense_1.c ****     
 231:.\Generated_Source\PSoC4/CapSense_1.c **** 	CapSense_1_CsdHwBlockInit();
 232:.\Generated_Source\PSoC4/CapSense_1.c ****     CapSense_1_SetShieldDelay(CapSense_1_SHIELD_DELAY );
 233:.\Generated_Source\PSoC4/CapSense_1.c **** 	
 234:.\Generated_Source\PSoC4/CapSense_1.c **** 	/* Clear all sensors */
 235:.\Generated_Source\PSoC4/CapSense_1.c ****     CapSense_1_ClearSensors();
 236:.\Generated_Source\PSoC4/CapSense_1.c **** }
 237:.\Generated_Source\PSoC4/CapSense_1.c **** 
 238:.\Generated_Source\PSoC4/CapSense_1.c **** /*******************************************************************************
 239:.\Generated_Source\PSoC4/CapSense_1.c **** * Function Name: CapSense_1_CsdHwBlockInit
 240:.\Generated_Source\PSoC4/CapSense_1.c **** ********************************************************************************
 241:.\Generated_Source\PSoC4/CapSense_1.c **** *
 242:.\Generated_Source\PSoC4/CapSense_1.c **** * Summary:
 243:.\Generated_Source\PSoC4/CapSense_1.c **** *  Initialises the hardware parameters of the CSD block 
 244:.\Generated_Source\PSoC4/CapSense_1.c **** *
 245:.\Generated_Source\PSoC4/CapSense_1.c **** * Parameters:
 246:.\Generated_Source\PSoC4/CapSense_1.c **** *  None
 247:.\Generated_Source\PSoC4/CapSense_1.c **** *
 248:.\Generated_Source\PSoC4/CapSense_1.c **** * Return:
 249:.\Generated_Source\PSoC4/CapSense_1.c **** *  None
 250:.\Generated_Source\PSoC4/CapSense_1.c **** *
 251:.\Generated_Source\PSoC4/CapSense_1.c **** * Global Variables:
 252:.\Generated_Source\PSoC4/CapSense_1.c **** *  CapSense_1_csdTrim1 - Contains IDAC trim register value for Sourcing Mode.
 253:.\Generated_Source\PSoC4/CapSense_1.c **** *  CapSense_1_csdTrim2 - Contains IDAC trim register value for Sinking Mode.
 254:.\Generated_Source\PSoC4/CapSense_1.c **** *
 255:.\Generated_Source\PSoC4/CapSense_1.c **** * Side Effects:
 256:.\Generated_Source\PSoC4/CapSense_1.c **** *  None
 257:.\Generated_Source\PSoC4/CapSense_1.c **** * 
 258:.\Generated_Source\PSoC4/CapSense_1.c **** *******************************************************************************/
 259:.\Generated_Source\PSoC4/CapSense_1.c **** void CapSense_1_CsdHwBlockInit(void)
 260:.\Generated_Source\PSoC4/CapSense_1.c **** {
ARM GAS  C:\Users\danielpi\AppData\Local\Temp\cccuTXvj.s 			page 6


  26              		.loc 1 260 0
  27              		.cfi_startproc
  28 0000 38B5     		push	{r3, r4, r5, lr}
  29              		.cfi_def_cfa_offset 16
  30              		.cfi_offset 3, -16
  31              		.cfi_offset 4, -12
  32              		.cfi_offset 5, -8
  33              		.cfi_offset 14, -4
 261:.\Generated_Source\PSoC4/CapSense_1.c **** 	uint32 newRegValue;
 262:.\Generated_Source\PSoC4/CapSense_1.c **** 	
 263:.\Generated_Source\PSoC4/CapSense_1.c **** 	    /* Set trim registers for CSD Mode */
 264:.\Generated_Source\PSoC4/CapSense_1.c ****     #if (CapSense_1_IDAC1_POLARITY == CapSense_1__IDAC_SINK)
 265:.\Generated_Source\PSoC4/CapSense_1.c **** 		/* iDAC1 Sinking Mode */ 
 266:.\Generated_Source\PSoC4/CapSense_1.c **** 		CapSense_1_csdTrim2 = (uint8)CapSense_1_CSD_TRIM2_REG;
 267:.\Generated_Source\PSoC4/CapSense_1.c **** 		newRegValue = CapSense_1_csdTrim2;
 268:.\Generated_Source\PSoC4/CapSense_1.c **** 		newRegValue &= CapSense_1_CSD_IDAC1_TRIM_MASK;
 269:.\Generated_Source\PSoC4/CapSense_1.c **** 		newRegValue |= (uint32)((uint32)CapSense_1_SFLASH_CSD_TRIM2_REG & (uint32)CapSense_1_CSFLASH_TRIM
 270:.\Generated_Source\PSoC4/CapSense_1.c **** 		
 271:.\Generated_Source\PSoC4/CapSense_1.c **** 		#if (CapSense_1_IDAC_CNT == 2u)
 272:.\Generated_Source\PSoC4/CapSense_1.c **** 		    /* iDAC2 Sinking Mode */ 
 273:.\Generated_Source\PSoC4/CapSense_1.c **** 			newRegValue &= CapSense_1_CSD_IDAC2_TRIM_MASK;
 274:.\Generated_Source\PSoC4/CapSense_1.c **** 			newRegValue |= (uint32)((uint32)CapSense_1_SFLASH_CSD_TRIM2_REG & (uint32)CapSense_1_CSFLASH_TRI
 275:.\Generated_Source\PSoC4/CapSense_1.c **** 		#endif /* (CapSense_1_IDAC_CNT == 2u) */
 276:.\Generated_Source\PSoC4/CapSense_1.c **** 		CapSense_1_CSD_TRIM2_REG = newRegValue;
 277:.\Generated_Source\PSoC4/CapSense_1.c ****     #else   
 278:.\Generated_Source\PSoC4/CapSense_1.c **** 		/* iDAC1 Sourcing Mode */ 
 279:.\Generated_Source\PSoC4/CapSense_1.c **** 		CapSense_1_csdTrim1 = (uint8)CapSense_1_CSD_TRIM1_REG;
  34              		.loc 1 279 0
  35 0002 164A     		ldr	r2, .L2
  36 0004 1168     		ldr	r1, [r2]
  37 0006 C9B2     		uxtb	r1, r1
  38 0008 154B     		ldr	r3, .L2+4
  39 000a 1970     		strb	r1, [r3]
  40              	.LVL0:
 280:.\Generated_Source\PSoC4/CapSense_1.c **** 		newRegValue = CapSense_1_csdTrim1;
 281:.\Generated_Source\PSoC4/CapSense_1.c **** 		newRegValue &= CapSense_1_CSD_IDAC1_TRIM_MASK;
  41              		.loc 1 281 0
  42 000c 0F23     		mov	r3, #15
  43 000e 0C1C     		mov	r4, r1
  44 0010 9C43     		bic	r4, r3
  45              	.LVL1:
 282:.\Generated_Source\PSoC4/CapSense_1.c **** 		newRegValue |= (uint32)((uint32)CapSense_1_SFLASH_CSD_TRIM1_REG & (uint32)CapSense_1_CSFLASH_TRIM
  46              		.loc 1 282 0
  47 0012 1449     		ldr	r1, .L2+8
  48 0014 0D78     		ldrb	r5, [r1]
  49 0016 0F20     		mov	r0, #15
  50 0018 2840     		and	r0, r5
  51 001a 2043     		orr	r0, r4
  52              	.LVL2:
 283:.\Generated_Source\PSoC4/CapSense_1.c **** 		#if (CapSense_1_IDAC_CNT == 2u)
 284:.\Generated_Source\PSoC4/CapSense_1.c **** 		     /* iDAC2 Sourcing Mode */ 
 285:.\Generated_Source\PSoC4/CapSense_1.c **** 			newRegValue &= CapSense_1_CSD_IDAC2_TRIM_MASK;
  53              		.loc 1 285 0
  54 001c F024     		mov	r4, #240
  55 001e A043     		bic	r0, r4
  56              	.LVL3:
 286:.\Generated_Source\PSoC4/CapSense_1.c **** 			newRegValue |= (uint32)((uint32)CapSense_1_SFLASH_CSD_TRIM1_REG & (uint32)CapSense_1_CSFLASH_TRI
ARM GAS  C:\Users\danielpi\AppData\Local\Temp\cccuTXvj.s 			page 7


  57              		.loc 1 286 0
  58 0020 0978     		ldrb	r1, [r1]
  59 0022 9943     		bic	r1, r3
  60 0024 0143     		orr	r1, r0
  61              	.LVL4:
 287:.\Generated_Source\PSoC4/CapSense_1.c **** 		#endif		
 288:.\Generated_Source\PSoC4/CapSense_1.c **** 		CapSense_1_CSD_TRIM1_REG = newRegValue;
  62              		.loc 1 288 0
  63 0026 1160     		str	r1, [r2]
 289:.\Generated_Source\PSoC4/CapSense_1.c ****     #endif /* (CapSense_1_IDAC1_POLARITY == CapSense_1__IDAC_SINK) */
 290:.\Generated_Source\PSoC4/CapSense_1.c **** 	
 291:.\Generated_Source\PSoC4/CapSense_1.c **** 	/* Configure CSD and IDAC */
 292:.\Generated_Source\PSoC4/CapSense_1.c **** 	#if (CapSense_1_IDAC_CNT > 1u)
 293:.\Generated_Source\PSoC4/CapSense_1.c **** 		CapSense_1_CSD_IDAC_REG = CapSense_1_DEFAULT_CSD_IDAC_CONFIG;
  64              		.loc 1 293 0
  65 0028 0F49     		ldr	r1, .L2+12
  66              	.LVL5:
  67 002a 104A     		ldr	r2, .L2+16
  68              	.LVL6:
  69 002c 1160     		str	r1, [r2]
  70              	.LVL7:
 294:.\Generated_Source\PSoC4/CapSense_1.c **** 		CapSense_1_CSD_CFG_REG = CapSense_1_DEFAULT_CSD_CONFIG;
  71              		.loc 1 294 0
  72 002e 1049     		ldr	r1, .L2+20
  73 0030 104A     		ldr	r2, .L2+24
  74 0032 1160     		str	r1, [r2]
 295:.\Generated_Source\PSoC4/CapSense_1.c **** 	#else
 296:.\Generated_Source\PSoC4/CapSense_1.c **** 		CapSense_1_CSD_IDAC_REG &= ~(CapSense_1_CSD_IDAC1_MODE_MASK  | CapSense_1_CSD_IDAC1_DATA_MASK);
 297:.\Generated_Source\PSoC4/CapSense_1.c **** 		CapSense_1_CSD_IDAC_REG |= CapSense_1_DEFAULT_CSD_IDAC_CONFIG;
 298:.\Generated_Source\PSoC4/CapSense_1.c **** 		
 299:.\Generated_Source\PSoC4/CapSense_1.c **** 		CapSense_1_CSD_CFG_REG &= ~(CapSense_1_CSD_CONFIG_MASK);
 300:.\Generated_Source\PSoC4/CapSense_1.c **** 		CapSense_1_CSD_CFG_REG |= (CapSense_1_DEFAULT_CSD_CONFIG);
 301:.\Generated_Source\PSoC4/CapSense_1.c **** 	#endif /* (CapSense_1_IDAC_CNT > 1u) */
 302:.\Generated_Source\PSoC4/CapSense_1.c **** 	
 303:.\Generated_Source\PSoC4/CapSense_1.c **** 	
 304:.\Generated_Source\PSoC4/CapSense_1.c **** 	/* Connect Cmod to AMUX bus */ 
 305:.\Generated_Source\PSoC4/CapSense_1.c **** 	newRegValue = CapSense_1_CMOD_CONNECTION_REG; 
  75              		.loc 1 305 0
  76 0034 104A     		ldr	r2, .L2+28
  77 0036 1168     		ldr	r1, [r2]
  78              	.LVL8:
 306:.\Generated_Source\PSoC4/CapSense_1.c ****     newRegValue &= ~(CapSense_1_CSD_CMOD_CONNECTION_MASK);
  79              		.loc 1 306 0
  80 0038 9943     		bic	r1, r3
  81              	.LVL9:
  82 003a 0B1C     		mov	r3, r1
  83              	.LVL10:
 307:.\Generated_Source\PSoC4/CapSense_1.c ****     newRegValue |= CapSense_1_CSD_CMOD_TO_AMUXBUS_A;
  84              		.loc 1 307 0
  85 003c 0621     		mov	r1, #6
  86              	.LVL11:
  87 003e 0B43     		orr	r3, r1
  88              	.LVL12:
 308:.\Generated_Source\PSoC4/CapSense_1.c ****     CapSense_1_CMOD_CONNECTION_REG = newRegValue;
  89              		.loc 1 308 0
  90 0040 1360     		str	r3, [r2]
 309:.\Generated_Source\PSoC4/CapSense_1.c **** 	
ARM GAS  C:\Users\danielpi\AppData\Local\Temp\cccuTXvj.s 			page 8


 310:.\Generated_Source\PSoC4/CapSense_1.c **** 	/* Configure Dead Band PWM if it is enabled */
 311:.\Generated_Source\PSoC4/CapSense_1.c **** 	#if(CapSense_1_CSD_4B_PWM_MODE != CapSense_1__PWM_OFF)
 312:.\Generated_Source\PSoC4/CapSense_1.c **** 		CapSense_1_CSD_4B_PWM_REG = CapSense_1_DEFAULT_CSD_4B_PWM_CONFIG;
 313:.\Generated_Source\PSoC4/CapSense_1.c **** 	#endif /* (CapSense_1_CSD_4B_PWM_MODE != CapSense_1__PWM_OFF) */
 314:.\Generated_Source\PSoC4/CapSense_1.c **** 
 315:.\Generated_Source\PSoC4/CapSense_1.c **** 	/* Setup ISR */
 316:.\Generated_Source\PSoC4/CapSense_1.c **** 	CyIntDisable(CapSense_1_ISR_NUMBER);
  91              		.loc 1 316 0
  92 0042 1020     		mov	r0, #16
  93 0044 FFF7FEFF 		bl	CyIntDisable
  94              	.LVL13:
 317:.\Generated_Source\PSoC4/CapSense_1.c **** 	#if !defined(CY_EXTERNAL_INTERRUPT_CONFIG)		
 318:.\Generated_Source\PSoC4/CapSense_1.c **** 	    (void)CyIntSetVector(CapSense_1_ISR_NUMBER, &CapSense_1_ISR);
  95              		.loc 1 318 0
  96 0048 1020     		mov	r0, #16
  97 004a 0C49     		ldr	r1, .L2+32
  98 004c FFF7FEFF 		bl	CyIntSetVector
  99              	.LVL14:
 319:.\Generated_Source\PSoC4/CapSense_1.c **** 	    CyIntSetPriority(CapSense_1_ISR_NUMBER, CapSense_1_ISR_PRIORITY);
 100              		.loc 1 319 0
 101 0050 1020     		mov	r0, #16
 102 0052 0321     		mov	r1, #3
 103 0054 FFF7FEFF 		bl	CyIntSetPriority
 104              	.LVL15:
 320:.\Generated_Source\PSoC4/CapSense_1.c **** 	#endif /* (CY_EXTERNAL_INTERRUPT_CONFIG) */
 321:.\Generated_Source\PSoC4/CapSense_1.c **** }
 105              		.loc 1 321 0
 106              		@ sp needed
 107 0058 38BD     		pop	{r3, r4, r5, pc}
 108              	.L3:
 109 005a C046     		.align	2
 110              	.L2:
 111 005c 00FF2840 		.word	1076428544
 112 0060 00000000 		.word	CapSense_1_csdTrim1
 113 0064 62F1FF0F 		.word	268431714
 114 0068 00020001 		.word	16777728
 115 006c 08002840 		.word	1076363272
 116 0070 0008A001 		.word	27265024
 117 0074 04002840 		.word	1076363268
 118 0078 00040240 		.word	1073873920
 119 007c 00000000 		.word	CapSense_1_ISR
 120              		.cfi_endproc
 121              	.LFE36:
 122              		.size	CapSense_1_CsdHwBlockInit, .-CapSense_1_CsdHwBlockInit
 123              		.section	.text.CapSense_1_Enable,"ax",%progbits
 124              		.align	2
 125              		.global	CapSense_1_Enable
 126              		.code	16
 127              		.thumb_func
 128              		.type	CapSense_1_Enable, %function
 129              	CapSense_1_Enable:
 130              	.LFB37:
 322:.\Generated_Source\PSoC4/CapSense_1.c **** 
 323:.\Generated_Source\PSoC4/CapSense_1.c **** 
 324:.\Generated_Source\PSoC4/CapSense_1.c **** /*******************************************************************************
 325:.\Generated_Source\PSoC4/CapSense_1.c **** * Function Name: CapSense_1_Enable
 326:.\Generated_Source\PSoC4/CapSense_1.c **** ********************************************************************************
ARM GAS  C:\Users\danielpi\AppData\Local\Temp\cccuTXvj.s 			page 9


 327:.\Generated_Source\PSoC4/CapSense_1.c **** *
 328:.\Generated_Source\PSoC4/CapSense_1.c **** * Summary:
 329:.\Generated_Source\PSoC4/CapSense_1.c **** *  Enables the CSD block and related resources to an active mode.
 330:.\Generated_Source\PSoC4/CapSense_1.c **** *
 331:.\Generated_Source\PSoC4/CapSense_1.c **** * Parameters:
 332:.\Generated_Source\PSoC4/CapSense_1.c **** *  None
 333:.\Generated_Source\PSoC4/CapSense_1.c **** *
 334:.\Generated_Source\PSoC4/CapSense_1.c **** * Return:
 335:.\Generated_Source\PSoC4/CapSense_1.c **** *  None
 336:.\Generated_Source\PSoC4/CapSense_1.c **** *
 337:.\Generated_Source\PSoC4/CapSense_1.c **** * Global Variables:
 338:.\Generated_Source\PSoC4/CapSense_1.c **** *  None.
 339:.\Generated_Source\PSoC4/CapSense_1.c **** *
 340:.\Generated_Source\PSoC4/CapSense_1.c **** * Side Effects:
 341:.\Generated_Source\PSoC4/CapSense_1.c **** *  None
 342:.\Generated_Source\PSoC4/CapSense_1.c **** * 
 343:.\Generated_Source\PSoC4/CapSense_1.c **** *******************************************************************************/
 344:.\Generated_Source\PSoC4/CapSense_1.c **** void CapSense_1_Enable(void)
 345:.\Generated_Source\PSoC4/CapSense_1.c **** {
 131              		.loc 1 345 0
 132              		.cfi_startproc
 133 0000 08B5     		push	{r3, lr}
 134              		.cfi_def_cfa_offset 8
 135              		.cfi_offset 3, -8
 136              		.cfi_offset 14, -4
 346:.\Generated_Source\PSoC4/CapSense_1.c ****     uint32 newRegValue;
 347:.\Generated_Source\PSoC4/CapSense_1.c ****     
 348:.\Generated_Source\PSoC4/CapSense_1.c ****     /* Enable Clocks */
 349:.\Generated_Source\PSoC4/CapSense_1.c **** 	CapSense_1_SenseClk_Stop();
 137              		.loc 1 349 0
 138 0002 FFF7FEFF 		bl	CapSense_1_SenseClk_Stop
 139              	.LVL16:
 350:.\Generated_Source\PSoC4/CapSense_1.c **** 	CapSense_1_SampleClk_Stop();
 140              		.loc 1 350 0
 141 0006 FFF7FEFF 		bl	CapSense_1_SampleClk_Stop
 142              	.LVL17:
 351:.\Generated_Source\PSoC4/CapSense_1.c **** 	
 352:.\Generated_Source\PSoC4/CapSense_1.c **** 	CapSense_1_SampleClk_SetDividerValue((uint16)CapSense_1_INITIAL_CLK_DIVIDER);
 143              		.loc 1 352 0
 144 000a 0020     		mov	r0, #0
 145 000c 0021     		mov	r1, #0
 146 000e FFF7FEFF 		bl	CapSense_1_SampleClk_SetFractionalDividerRegister
 147              	.LVL18:
 353:.\Generated_Source\PSoC4/CapSense_1.c **** 	CapSense_1_SenseClk_SetDividerValue((uint16)CapSense_1_INITIAL_CLK_DIVIDER);
 148              		.loc 1 353 0
 149 0012 0020     		mov	r0, #0
 150 0014 0021     		mov	r1, #0
 151 0016 FFF7FEFF 		bl	CapSense_1_SenseClk_SetFractionalDividerRegister
 152              	.LVL19:
 354:.\Generated_Source\PSoC4/CapSense_1.c **** 	
 355:.\Generated_Source\PSoC4/CapSense_1.c **** 	#if (0u == CapSense_1_IS_M0S8PERI_BLOCK)
 356:.\Generated_Source\PSoC4/CapSense_1.c **** 		CapSense_1_SenseClk_Start();
 357:.\Generated_Source\PSoC4/CapSense_1.c **** 		CapSense_1_SampleClk_Start();
 358:.\Generated_Source\PSoC4/CapSense_1.c **** 	#else
 359:.\Generated_Source\PSoC4/CapSense_1.c **** 		CapSense_1_SampleClk_Start();
 153              		.loc 1 359 0
 154 001a FF20     		mov	r0, #255
ARM GAS  C:\Users\danielpi\AppData\Local\Temp\cccuTXvj.s 			page 10


 155 001c FFF7FEFF 		bl	CapSense_1_SampleClk_StartEx
 156              	.LVL20:
 360:.\Generated_Source\PSoC4/CapSense_1.c **** 		CapSense_1_SenseClk_StartEx(CapSense_1_SampleClk__DIV_ID);
 157              		.loc 1 360 0
 158 0020 4020     		mov	r0, #64
 159 0022 FFF7FEFF 		bl	CapSense_1_SenseClk_StartEx
 160              	.LVL21:
 361:.\Generated_Source\PSoC4/CapSense_1.c **** 	#endif /* (0u == CapSense_1_IS_M0S8PERI_BLOCK) */
 362:.\Generated_Source\PSoC4/CapSense_1.c **** 	
 363:.\Generated_Source\PSoC4/CapSense_1.c **** 	/* Enable the CSD block */
 364:.\Generated_Source\PSoC4/CapSense_1.c ****     newRegValue = CapSense_1_CSD_CFG_REG;
 161              		.loc 1 364 0
 162 0026 044B     		ldr	r3, .L5
 163 0028 1A68     		ldr	r2, [r3]
 164              	.LVL22:
 365:.\Generated_Source\PSoC4/CapSense_1.c ****     newRegValue |= (CapSense_1_CSD_CFG_ENABLE | CapSense_1_CSD_CFG_SENSE_COMP_EN 
 165              		.loc 1 365 0
 166 002a 0449     		ldr	r1, .L5+4
 167 002c 0A43     		orr	r2, r1
 168              	.LVL23:
 366:.\Generated_Source\PSoC4/CapSense_1.c ****                                                    | CapSense_1_CSD_CFG_SENSE_EN);    
 367:.\Generated_Source\PSoC4/CapSense_1.c ****     CapSense_1_CSD_CFG_REG = newRegValue;
 169              		.loc 1 367 0
 170 002e 1A60     		str	r2, [r3]
 368:.\Generated_Source\PSoC4/CapSense_1.c **** 
 369:.\Generated_Source\PSoC4/CapSense_1.c ****     /* Enable interrupt */
 370:.\Generated_Source\PSoC4/CapSense_1.c ****     CyIntEnable(CapSense_1_ISR_NUMBER);
 171              		.loc 1 370 0
 172 0030 1020     		mov	r0, #16
 173 0032 FFF7FEFF 		bl	CyIntEnable
 174              	.LVL24:
 371:.\Generated_Source\PSoC4/CapSense_1.c **** }
 175              		.loc 1 371 0
 176              		@ sp needed
 177 0036 08BD     		pop	{r3, pc}
 178              	.L6:
 179              		.align	2
 180              	.L5:
 181 0038 04002840 		.word	1076363268
 182 003c 00100880 		.word	-2146955264
 183              		.cfi_endproc
 184              	.LFE37:
 185              		.size	CapSense_1_Enable, .-CapSense_1_Enable
 186              		.section	.text.CapSense_1_Stop,"ax",%progbits
 187              		.align	2
 188              		.global	CapSense_1_Stop
 189              		.code	16
 190              		.thumb_func
 191              		.type	CapSense_1_Stop, %function
 192              	CapSense_1_Stop:
 193              	.LFB39:
 372:.\Generated_Source\PSoC4/CapSense_1.c **** 
 373:.\Generated_Source\PSoC4/CapSense_1.c **** 
 374:.\Generated_Source\PSoC4/CapSense_1.c **** /*******************************************************************************
 375:.\Generated_Source\PSoC4/CapSense_1.c **** * Function Name: CapSense_1_Start
 376:.\Generated_Source\PSoC4/CapSense_1.c **** ********************************************************************************
 377:.\Generated_Source\PSoC4/CapSense_1.c **** *
ARM GAS  C:\Users\danielpi\AppData\Local\Temp\cccuTXvj.s 			page 11


 378:.\Generated_Source\PSoC4/CapSense_1.c **** * Summary:
 379:.\Generated_Source\PSoC4/CapSense_1.c **** *  This is the preferred method to begin the component operation. CapSense_Start() 
 380:.\Generated_Source\PSoC4/CapSense_1.c **** *  calls the CapSense_Init() function, and then calls the CapSense_Enable() 
 381:.\Generated_Source\PSoC4/CapSense_1.c **** *  function. Initializes the registers and starts the CSD method of the CapSense 
 382:.\Generated_Source\PSoC4/CapSense_1.c **** *  component. Resets all the sensors to an inactive state. Enables interrupts for 
 383:.\Generated_Source\PSoC4/CapSense_1.c **** *  sensors scanning. When the SmartSense tuning mode is selected, the tuning procedure
 384:.\Generated_Source\PSoC4/CapSense_1.c **** *  is applied for all the sensors. The CapSense_Start() routine must be called before 
 385:.\Generated_Source\PSoC4/CapSense_1.c **** *  any other API routines.
 386:.\Generated_Source\PSoC4/CapSense_1.c **** *
 387:.\Generated_Source\PSoC4/CapSense_1.c **** * Parameters:
 388:.\Generated_Source\PSoC4/CapSense_1.c **** *  None
 389:.\Generated_Source\PSoC4/CapSense_1.c **** *
 390:.\Generated_Source\PSoC4/CapSense_1.c **** * Return:
 391:.\Generated_Source\PSoC4/CapSense_1.c **** *  None
 392:.\Generated_Source\PSoC4/CapSense_1.c **** *
 393:.\Generated_Source\PSoC4/CapSense_1.c **** * Global Variables:
 394:.\Generated_Source\PSoC4/CapSense_1.c **** *   CapSense_1_initVar - used to check the initial configuration, 
 395:.\Generated_Source\PSoC4/CapSense_1.c **** *   modified on the first function call.
 396:.\Generated_Source\PSoC4/CapSense_1.c **** *  CapSense_1_lowLevelTuningDone - Used to notify the Tuner GUI that 
 397:.\Generated_Source\PSoC4/CapSense_1.c **** *   tuning of the scanning parameters is done. 
 398:.\Generated_Source\PSoC4/CapSense_1.c **** *
 399:.\Generated_Source\PSoC4/CapSense_1.c **** * Side Effects:
 400:.\Generated_Source\PSoC4/CapSense_1.c **** *  None
 401:.\Generated_Source\PSoC4/CapSense_1.c **** * 
 402:.\Generated_Source\PSoC4/CapSense_1.c **** *******************************************************************************/
 403:.\Generated_Source\PSoC4/CapSense_1.c **** void CapSense_1_Start(void)
 404:.\Generated_Source\PSoC4/CapSense_1.c **** {
 405:.\Generated_Source\PSoC4/CapSense_1.c **** 
 406:.\Generated_Source\PSoC4/CapSense_1.c **** 	static uint8 CapSense_1_initVar = 0u;
 407:.\Generated_Source\PSoC4/CapSense_1.c **** 
 408:.\Generated_Source\PSoC4/CapSense_1.c **** 	#if((0u != CapSense_1_AUTOCALIBRATION_ENABLE) && (CapSense_1_TUNING_METHOD != CapSense_1__TUNING_A
 409:.\Generated_Source\PSoC4/CapSense_1.c **** 		uint32 curSensor;
 410:.\Generated_Source\PSoC4/CapSense_1.c **** 		uint32 rawLevel;
 411:.\Generated_Source\PSoC4/CapSense_1.c **** 		uint32 widget;
 412:.\Generated_Source\PSoC4/CapSense_1.c ****     #endif /* ((0u != CapSense_1_AUTOCALIBRATION_ENABLE) && (CapSense_1_TUNING_METHOD != CapSense_1
 413:.\Generated_Source\PSoC4/CapSense_1.c **** 	
 414:.\Generated_Source\PSoC4/CapSense_1.c ****     if (CapSense_1_initVar == 0u)
 415:.\Generated_Source\PSoC4/CapSense_1.c ****     {
 416:.\Generated_Source\PSoC4/CapSense_1.c ****         CapSense_1_Init();
 417:.\Generated_Source\PSoC4/CapSense_1.c ****         CapSense_1_initVar = 1u;
 418:.\Generated_Source\PSoC4/CapSense_1.c ****     }
 419:.\Generated_Source\PSoC4/CapSense_1.c ****     CapSense_1_Enable();
 420:.\Generated_Source\PSoC4/CapSense_1.c **** 	
 421:.\Generated_Source\PSoC4/CapSense_1.c ****     /* AutoTunning start */
 422:.\Generated_Source\PSoC4/CapSense_1.c ****     #if(CapSense_1_TUNING_METHOD == CapSense_1__TUNING_AUTO)
 423:.\Generated_Source\PSoC4/CapSense_1.c **** 		#if(0u != CapSense_1_CSHL_API_GENERATE)
 424:.\Generated_Source\PSoC4/CapSense_1.c **** 	        CapSense_1_AutoTune();
 425:.\Generated_Source\PSoC4/CapSense_1.c **** 	        CapSense_1_lowLevelTuningDone = 1u;
 426:.\Generated_Source\PSoC4/CapSense_1.c **** 		#endif /* (0u != CapSense_1_CSHL_API_GENERATE) */
 427:.\Generated_Source\PSoC4/CapSense_1.c **** 	#else
 428:.\Generated_Source\PSoC4/CapSense_1.c **** 		#if(0u != CapSense_1_AUTOCALIBRATION_ENABLE)
 429:.\Generated_Source\PSoC4/CapSense_1.c **** 			
 430:.\Generated_Source\PSoC4/CapSense_1.c **** 			#if(CapSense_1_IDAC_CNT > 1u)
 431:.\Generated_Source\PSoC4/CapSense_1.c **** 				CapSense_1_CSD_IDAC_REG &= ~(CapSense_1_CSD_IDAC2_MODE_MASK);	
 432:.\Generated_Source\PSoC4/CapSense_1.c **** 			#endif /* (CapSense_1_IDAC_CNT > 1u) */
 433:.\Generated_Source\PSoC4/CapSense_1.c **** 			
 434:.\Generated_Source\PSoC4/CapSense_1.c **** 			for(curSensor = 0u; curSensor < CapSense_1_TOTAL_SCANSLOT_COUNT; curSensor++)
ARM GAS  C:\Users\danielpi\AppData\Local\Temp\cccuTXvj.s 			page 12


 435:.\Generated_Source\PSoC4/CapSense_1.c **** 			{
 436:.\Generated_Source\PSoC4/CapSense_1.c **** 				widget = CapSense_1_widgetNumber[curSensor];
 437:.\Generated_Source\PSoC4/CapSense_1.c **** 				rawLevel = CapSense_1_widgetResolution[widget] >> CapSense_1_RESOLUTION_OFFSET;
 438:.\Generated_Source\PSoC4/CapSense_1.c **** 				
 439:.\Generated_Source\PSoC4/CapSense_1.c **** 				/* Calibration level should be equal to 85% from scanning resolution */
 440:.\Generated_Source\PSoC4/CapSense_1.c **** 				rawLevel = (rawLevel * 85u) / 100u;
 441:.\Generated_Source\PSoC4/CapSense_1.c **** 				
 442:.\Generated_Source\PSoC4/CapSense_1.c **** 				CapSense_1_CalibrateSensor(curSensor, rawLevel, CapSense_1_modulationIDAC);
 443:.\Generated_Source\PSoC4/CapSense_1.c **** 			}
 444:.\Generated_Source\PSoC4/CapSense_1.c **** 
 445:.\Generated_Source\PSoC4/CapSense_1.c **** 			#if(0u != CapSense_1_TOTAL_CENTROIDS_COUNT) 
 446:.\Generated_Source\PSoC4/CapSense_1.c **** 				CapSense_1_NormalizeWidgets(CapSense_1_END_OF_WIDGETS_INDEX, CapSense_1_modulationIDAC);
 447:.\Generated_Source\PSoC4/CapSense_1.c **** 			#endif /* (0u != CapSense_1_TOTAL_CENTROIDS_COUNT)  */
 448:.\Generated_Source\PSoC4/CapSense_1.c **** 
 449:.\Generated_Source\PSoC4/CapSense_1.c **** 			#if(CapSense_1_IDAC_CNT > 1u)
 450:.\Generated_Source\PSoC4/CapSense_1.c **** 				for(curSensor = 0u; curSensor < CapSense_1_TOTAL_SCANSLOT_COUNT; curSensor++)
 451:.\Generated_Source\PSoC4/CapSense_1.c **** 			    {
 452:.\Generated_Source\PSoC4/CapSense_1.c **** 					CapSense_1_compensationIDAC[curSensor] = CapSense_1_modulationIDAC[curSensor] / 2u;
 453:.\Generated_Source\PSoC4/CapSense_1.c **** 					CapSense_1_modulationIDAC[curSensor] = (CapSense_1_modulationIDAC[curSensor] + 1u) / 2u;
 454:.\Generated_Source\PSoC4/CapSense_1.c **** 			    }
 455:.\Generated_Source\PSoC4/CapSense_1.c **** 				CapSense_1_CSD_IDAC_REG |= CapSense_1_CSD_IDAC2_MODE_FIXED;
 456:.\Generated_Source\PSoC4/CapSense_1.c **** 			#endif /* (CapSense_1_IDAC_CNT > 1u) */
 457:.\Generated_Source\PSoC4/CapSense_1.c **** 			
 458:.\Generated_Source\PSoC4/CapSense_1.c ****         #endif /* (0u != CapSense_1_AUTOCALIBRATION_ENABLE) */ 
 459:.\Generated_Source\PSoC4/CapSense_1.c **** 					
 460:.\Generated_Source\PSoC4/CapSense_1.c ****     #endif /* ((CapSense_1_TUNING_METHOD == CapSense_1__TUNING_AUTO) */	
 461:.\Generated_Source\PSoC4/CapSense_1.c **** 	
 462:.\Generated_Source\PSoC4/CapSense_1.c **** 	/* Initialize Advanced Centroid */
 463:.\Generated_Source\PSoC4/CapSense_1.c **** 	#if(CapSense_1_TOTAL_TRACKPAD_GESTURES_COUNT > 0u)
 464:.\Generated_Source\PSoC4/CapSense_1.c **** 		CapSense_1_AdvancedCentroidInit();
 465:.\Generated_Source\PSoC4/CapSense_1.c **** 	#endif /* (CapSense_1_TOTAL_TRACKPAD_GESTURES_COUNT > 0u) */
 466:.\Generated_Source\PSoC4/CapSense_1.c **** 	
 467:.\Generated_Source\PSoC4/CapSense_1.c **** 	/* Connect sense comparator input to AMUXA */
 468:.\Generated_Source\PSoC4/CapSense_1.c **** 	CapSense_1_CSD_CFG_REG |= CapSense_1_CSD_CFG_SENSE_INSEL;
 469:.\Generated_Source\PSoC4/CapSense_1.c **** }
 470:.\Generated_Source\PSoC4/CapSense_1.c **** 
 471:.\Generated_Source\PSoC4/CapSense_1.c **** 
 472:.\Generated_Source\PSoC4/CapSense_1.c **** /*******************************************************************************
 473:.\Generated_Source\PSoC4/CapSense_1.c **** * Function Name: CapSense_1_Stop
 474:.\Generated_Source\PSoC4/CapSense_1.c **** ********************************************************************************
 475:.\Generated_Source\PSoC4/CapSense_1.c **** *
 476:.\Generated_Source\PSoC4/CapSense_1.c **** * Summary:
 477:.\Generated_Source\PSoC4/CapSense_1.c **** *  Stops the sensor scanning, disables component interrupts, and resets all the 
 478:.\Generated_Source\PSoC4/CapSense_1.c **** *  sensors to an inactive state. Disables the Active mode power template bits for
 479:.\Generated_Source\PSoC4/CapSense_1.c **** *  the subcomponents used within CapSense.
 480:.\Generated_Source\PSoC4/CapSense_1.c **** *
 481:.\Generated_Source\PSoC4/CapSense_1.c **** * Parameters:
 482:.\Generated_Source\PSoC4/CapSense_1.c **** *  None
 483:.\Generated_Source\PSoC4/CapSense_1.c **** *
 484:.\Generated_Source\PSoC4/CapSense_1.c **** * Return:
 485:.\Generated_Source\PSoC4/CapSense_1.c **** *  None
 486:.\Generated_Source\PSoC4/CapSense_1.c **** *
 487:.\Generated_Source\PSoC4/CapSense_1.c **** * Global Variables:
 488:.\Generated_Source\PSoC4/CapSense_1.c **** *  CapSense_1_csdTrim1 - Contains the IDAC trim register value for the Sourcing Mode.
 489:.\Generated_Source\PSoC4/CapSense_1.c **** *  CapSense_1_csdTrim2 - Contains the IDAC trim register value for vSinking Mode.
 490:.\Generated_Source\PSoC4/CapSense_1.c **** *
 491:.\Generated_Source\PSoC4/CapSense_1.c **** * Side Effects:
ARM GAS  C:\Users\danielpi\AppData\Local\Temp\cccuTXvj.s 			page 13


 492:.\Generated_Source\PSoC4/CapSense_1.c **** *  This function should be called after scans are completed.
 493:.\Generated_Source\PSoC4/CapSense_1.c **** *
 494:.\Generated_Source\PSoC4/CapSense_1.c **** *******************************************************************************/
 495:.\Generated_Source\PSoC4/CapSense_1.c **** void CapSense_1_Stop(void)
 496:.\Generated_Source\PSoC4/CapSense_1.c **** {
 194              		.loc 1 496 0
 195              		.cfi_startproc
 196 0000 08B5     		push	{r3, lr}
 197              		.cfi_def_cfa_offset 8
 198              		.cfi_offset 3, -8
 199              		.cfi_offset 14, -4
 497:.\Generated_Source\PSoC4/CapSense_1.c ****     /* Disable interrupt */
 498:.\Generated_Source\PSoC4/CapSense_1.c ****     CyIntDisable(CapSense_1_ISR_NUMBER);
 200              		.loc 1 498 0
 201 0002 1020     		mov	r0, #16
 202 0004 FFF7FEFF 		bl	CyIntDisable
 203              	.LVL25:
 499:.\Generated_Source\PSoC4/CapSense_1.c **** 	
 500:.\Generated_Source\PSoC4/CapSense_1.c **** 	CapSense_1_CSD_CFG_REG &= ~(CapSense_1_CSD_CFG_SENSE_COMP_EN | CapSense_1_CSD_CFG_SENSE_EN);
 204              		.loc 1 500 0
 205 0008 064B     		ldr	r3, .L8
 206 000a 1968     		ldr	r1, [r3]
 207 000c 064A     		ldr	r2, .L8+4
 208 000e 0A40     		and	r2, r1
 209 0010 1A60     		str	r2, [r3]
 501:.\Generated_Source\PSoC4/CapSense_1.c **** 	
 502:.\Generated_Source\PSoC4/CapSense_1.c **** 	#if(CapSense_1_IDAC_CNT == 2u)
 503:.\Generated_Source\PSoC4/CapSense_1.c **** 		CapSense_1_CSD_CFG_REG &= ~(CapSense_1_CSD_CFG_ENABLE);
 210              		.loc 1 503 0
 211 0012 1A68     		ldr	r2, [r3]
 212 0014 5200     		lsl	r2, r2, #1
 213 0016 5208     		lsr	r2, r2, #1
 214 0018 1A60     		str	r2, [r3]
 504:.\Generated_Source\PSoC4/CapSense_1.c **** 	#endif /* (CapSense_1_IDAC_CNT == 2u) */
 505:.\Generated_Source\PSoC4/CapSense_1.c **** 
 506:.\Generated_Source\PSoC4/CapSense_1.c ****     /* Disable the Clocks */
 507:.\Generated_Source\PSoC4/CapSense_1.c ****     CapSense_1_SenseClk_Stop();
 215              		.loc 1 507 0
 216 001a FFF7FEFF 		bl	CapSense_1_SenseClk_Stop
 217              	.LVL26:
 508:.\Generated_Source\PSoC4/CapSense_1.c ****     CapSense_1_SampleClk_Stop();
 218              		.loc 1 508 0
 219 001e FFF7FEFF 		bl	CapSense_1_SampleClk_Stop
 220              	.LVL27:
 509:.\Generated_Source\PSoC4/CapSense_1.c **** }
 221              		.loc 1 509 0
 222              		@ sp needed
 223 0022 08BD     		pop	{r3, pc}
 224              	.L9:
 225              		.align	2
 226              	.L8:
 227 0024 04002840 		.word	1076363268
 228 0028 FFEFF7FF 		.word	-528385
 229              		.cfi_endproc
 230              	.LFE39:
 231              		.size	CapSense_1_Stop, .-CapSense_1_Stop
 232              		.section	.text.CapSense_1_IsBusy,"ax",%progbits
ARM GAS  C:\Users\danielpi\AppData\Local\Temp\cccuTXvj.s 			page 14


 233              		.align	2
 234              		.global	CapSense_1_IsBusy
 235              		.code	16
 236              		.thumb_func
 237              		.type	CapSense_1_IsBusy, %function
 238              	CapSense_1_IsBusy:
 239              	.LFB44:
 510:.\Generated_Source\PSoC4/CapSense_1.c **** 
 511:.\Generated_Source\PSoC4/CapSense_1.c **** 
 512:.\Generated_Source\PSoC4/CapSense_1.c **** /*******************************************************************************
 513:.\Generated_Source\PSoC4/CapSense_1.c **** * Function Name: CapSense_1_FindNextSensor
 514:.\Generated_Source\PSoC4/CapSense_1.c **** ********************************************************************************
 515:.\Generated_Source\PSoC4/CapSense_1.c **** *
 516:.\Generated_Source\PSoC4/CapSense_1.c **** * Summary:
 517:.\Generated_Source\PSoC4/CapSense_1.c **** *  Finds the next sensor to scan. 
 518:.\Generated_Source\PSoC4/CapSense_1.c **** *
 519:.\Generated_Source\PSoC4/CapSense_1.c **** * Parameters:
 520:.\Generated_Source\PSoC4/CapSense_1.c **** *  snsIndex:  Current index of sensor.
 521:.\Generated_Source\PSoC4/CapSense_1.c **** *
 522:.\Generated_Source\PSoC4/CapSense_1.c **** * Return:
 523:.\Generated_Source\PSoC4/CapSense_1.c **** *  Returns the next sensor index to scan.
 524:.\Generated_Source\PSoC4/CapSense_1.c **** *
 525:.\Generated_Source\PSoC4/CapSense_1.c **** * Global Variables:
 526:.\Generated_Source\PSoC4/CapSense_1.c **** *  CapSense_1_sensorEnableMask[] - used to store bit masks of the enabled sensors.
 527:.\Generated_Source\PSoC4/CapSense_1.c **** *
 528:.\Generated_Source\PSoC4/CapSense_1.c **** * Side Effects:
 529:.\Generated_Source\PSoC4/CapSense_1.c **** *  This function affects the  current scanning and should not
 530:.\Generated_Source\PSoC4/CapSense_1.c **** *  be used outside the component.
 531:.\Generated_Source\PSoC4/CapSense_1.c **** *
 532:.\Generated_Source\PSoC4/CapSense_1.c **** *******************************************************************************/
 533:.\Generated_Source\PSoC4/CapSense_1.c **** uint8 CapSense_1_FindNextSensor(uint8 snsIndex)
 534:.\Generated_Source\PSoC4/CapSense_1.c **** {
 535:.\Generated_Source\PSoC4/CapSense_1.c ****     uint32 enableFlag;
 536:.\Generated_Source\PSoC4/CapSense_1.c ****     
 537:.\Generated_Source\PSoC4/CapSense_1.c ****     /* Check if sensor enabled */
 538:.\Generated_Source\PSoC4/CapSense_1.c ****     do
 539:.\Generated_Source\PSoC4/CapSense_1.c ****     {
 540:.\Generated_Source\PSoC4/CapSense_1.c ****         /* Proceed with next sensor */
 541:.\Generated_Source\PSoC4/CapSense_1.c ****         snsIndex++;
 542:.\Generated_Source\PSoC4/CapSense_1.c ****         if(snsIndex == CapSense_1_TOTAL_SENSOR_COUNT)
 543:.\Generated_Source\PSoC4/CapSense_1.c ****         {
 544:.\Generated_Source\PSoC4/CapSense_1.c ****             break;
 545:.\Generated_Source\PSoC4/CapSense_1.c ****         }
 546:.\Generated_Source\PSoC4/CapSense_1.c ****         enableFlag = CapSense_1_GetBitValue(CapSense_1_sensorEnableMask, (uint32)snsIndex);
 547:.\Generated_Source\PSoC4/CapSense_1.c ****     }    
 548:.\Generated_Source\PSoC4/CapSense_1.c ****     while(enableFlag == 0u);
 549:.\Generated_Source\PSoC4/CapSense_1.c ****     
 550:.\Generated_Source\PSoC4/CapSense_1.c ****     return ((uint8)snsIndex);
 551:.\Generated_Source\PSoC4/CapSense_1.c **** }
 552:.\Generated_Source\PSoC4/CapSense_1.c **** 
 553:.\Generated_Source\PSoC4/CapSense_1.c **** 
 554:.\Generated_Source\PSoC4/CapSense_1.c **** /*******************************************************************************
 555:.\Generated_Source\PSoC4/CapSense_1.c **** * Function Name: CapSense_1_ScanSensor
 556:.\Generated_Source\PSoC4/CapSense_1.c **** ********************************************************************************
 557:.\Generated_Source\PSoC4/CapSense_1.c **** *
 558:.\Generated_Source\PSoC4/CapSense_1.c **** * Summary:
 559:.\Generated_Source\PSoC4/CapSense_1.c **** *  Sets the scan settings and starts scanning a sensor. After scanning is complete,
ARM GAS  C:\Users\danielpi\AppData\Local\Temp\cccuTXvj.s 			page 15


 560:.\Generated_Source\PSoC4/CapSense_1.c **** *  the ISR copies the measured sensor raw data to the global raw sensor array. 
 561:.\Generated_Source\PSoC4/CapSense_1.c **** *  Use of the ISR ensures this function is non-blocking. 
 562:.\Generated_Source\PSoC4/CapSense_1.c **** *  Each sensor has a unique number within the sensor array. 
 563:.\Generated_Source\PSoC4/CapSense_1.c **** *  This number is assigned by the CapSense customizer in sequence.
 564:.\Generated_Source\PSoC4/CapSense_1.c **** *
 565:.\Generated_Source\PSoC4/CapSense_1.c **** * Parameters:
 566:.\Generated_Source\PSoC4/CapSense_1.c **** *  sensor:  Sensor number.
 567:.\Generated_Source\PSoC4/CapSense_1.c **** *
 568:.\Generated_Source\PSoC4/CapSense_1.c **** * Return:
 569:.\Generated_Source\PSoC4/CapSense_1.c **** *  None
 570:.\Generated_Source\PSoC4/CapSense_1.c **** *
 571:.\Generated_Source\PSoC4/CapSense_1.c **** * Global Variables:
 572:.\Generated_Source\PSoC4/CapSense_1.c **** *  CapSense_1_csdStatusVar - used to provide the status and mode of the scanning process. 
 573:.\Generated_Source\PSoC4/CapSense_1.c **** *  Sets the busy status(scan in progress) and mode of scan as single scan.
 574:.\Generated_Source\PSoC4/CapSense_1.c **** *  CapSense_1_sensorIndex - used to store a sensor scanning sensor number.
 575:.\Generated_Source\PSoC4/CapSense_1.c **** *  Sets to the provided sensor argument.
 576:.\Generated_Source\PSoC4/CapSense_1.c **** *
 577:.\Generated_Source\PSoC4/CapSense_1.c **** * Side Effects:
 578:.\Generated_Source\PSoC4/CapSense_1.c **** *  None
 579:.\Generated_Source\PSoC4/CapSense_1.c **** * 
 580:.\Generated_Source\PSoC4/CapSense_1.c **** *******************************************************************************/
 581:.\Generated_Source\PSoC4/CapSense_1.c **** void CapSense_1_ScanSensor(uint32 sensor)
 582:.\Generated_Source\PSoC4/CapSense_1.c **** {
 583:.\Generated_Source\PSoC4/CapSense_1.c ****     /* Clears status/control variable and set sensorIndex */
 584:.\Generated_Source\PSoC4/CapSense_1.c ****     CapSense_1_csdStatusVar = 0u;
 585:.\Generated_Source\PSoC4/CapSense_1.c ****     CapSense_1_sensorIndex = (uint8)sensor;
 586:.\Generated_Source\PSoC4/CapSense_1.c ****     
 587:.\Generated_Source\PSoC4/CapSense_1.c ****     /* Start of sensor scan */
 588:.\Generated_Source\PSoC4/CapSense_1.c ****     CapSense_1_csdStatusVar = (CapSense_1_SW_STS_BUSY | CapSense_1_SW_CTRL_SINGLE_SCAN);
 589:.\Generated_Source\PSoC4/CapSense_1.c ****     CapSense_1_PreScan(sensor);
 590:.\Generated_Source\PSoC4/CapSense_1.c **** }
 591:.\Generated_Source\PSoC4/CapSense_1.c **** 
 592:.\Generated_Source\PSoC4/CapSense_1.c **** 
 593:.\Generated_Source\PSoC4/CapSense_1.c **** #if(0u != CapSense_1_CSHL_API_GENERATE)
 594:.\Generated_Source\PSoC4/CapSense_1.c **** /*******************************************************************************
 595:.\Generated_Source\PSoC4/CapSense_1.c **** * Function Name: CapSense_1_ScanWidget
 596:.\Generated_Source\PSoC4/CapSense_1.c **** ********************************************************************************
 597:.\Generated_Source\PSoC4/CapSense_1.c **** *
 598:.\Generated_Source\PSoC4/CapSense_1.c **** * Summary:
 599:.\Generated_Source\PSoC4/CapSense_1.c **** *  Sets the scan settings and starts scanning a widget.
 600:.\Generated_Source\PSoC4/CapSense_1.c **** *
 601:.\Generated_Source\PSoC4/CapSense_1.c **** * Parameters:
 602:.\Generated_Source\PSoC4/CapSense_1.c **** *  uint32 widget: Widget number.
 603:.\Generated_Source\PSoC4/CapSense_1.c **** *
 604:.\Generated_Source\PSoC4/CapSense_1.c **** * Return:
 605:.\Generated_Source\PSoC4/CapSense_1.c **** *  None
 606:.\Generated_Source\PSoC4/CapSense_1.c **** *
 607:.\Generated_Source\PSoC4/CapSense_1.c **** * Global Variables:
 608:.\Generated_Source\PSoC4/CapSense_1.c **** *  CapSense_1_csdStatusVar - used to provide the status and mode of the scanning process. 
 609:.\Generated_Source\PSoC4/CapSense_1.c **** *  Sets the busy status(scan in progress) and clears the single scan mode.
 610:.\Generated_Source\PSoC4/CapSense_1.c **** *  CapSense_1_sensorIndex - used to store a sensor scanning sensor number.
 611:.\Generated_Source\PSoC4/CapSense_1.c **** *  Sets to 0xFF and provided to function CapSense_1_FindNextSensor or
 612:.\Generated_Source\PSoC4/CapSense_1.c **** *  CapSense_1_sensorEnableMask[] - used to store bit masks of the enabled sensors.
 613:.\Generated_Source\PSoC4/CapSense_1.c **** *  CapSense_1_sensorEnableMaskBackup[] - used to backup bit masks of the enabled
 614:.\Generated_Source\PSoC4/CapSense_1.c **** *   sensors.
 615:.\Generated_Source\PSoC4/CapSense_1.c **** *
 616:.\Generated_Source\PSoC4/CapSense_1.c **** * Side Effects:
ARM GAS  C:\Users\danielpi\AppData\Local\Temp\cccuTXvj.s 			page 16


 617:.\Generated_Source\PSoC4/CapSense_1.c **** *  None
 618:.\Generated_Source\PSoC4/CapSense_1.c **** * 
 619:.\Generated_Source\PSoC4/CapSense_1.c **** *******************************************************************************/
 620:.\Generated_Source\PSoC4/CapSense_1.c **** void CapSense_1_ScanWidget(uint32 widget)
 621:.\Generated_Source\PSoC4/CapSense_1.c **** {
 622:.\Generated_Source\PSoC4/CapSense_1.c ****     uint32 sensorsPerWidget;
 623:.\Generated_Source\PSoC4/CapSense_1.c ****     uint32 lastSensor;
 624:.\Generated_Source\PSoC4/CapSense_1.c ****     uint32 snsIndex;
 625:.\Generated_Source\PSoC4/CapSense_1.c **** 
 626:.\Generated_Source\PSoC4/CapSense_1.c **** 	/* Get first sensor in widget */
 627:.\Generated_Source\PSoC4/CapSense_1.c **** 	CapSense_1_sensorIndex = CapSense_1_rawDataIndex[widget];
 628:.\Generated_Source\PSoC4/CapSense_1.c **** 	
 629:.\Generated_Source\PSoC4/CapSense_1.c **** 	/* Get number of sensors in widget */
 630:.\Generated_Source\PSoC4/CapSense_1.c **** 	sensorsPerWidget = CapSense_1_numberOfSensors[widget];
 631:.\Generated_Source\PSoC4/CapSense_1.c **** 	
 632:.\Generated_Source\PSoC4/CapSense_1.c **** 	/* Check if generic Sensor */
 633:.\Generated_Source\PSoC4/CapSense_1.c **** 	if(sensorsPerWidget == 0u)
 634:.\Generated_Source\PSoC4/CapSense_1.c **** 	{
 635:.\Generated_Source\PSoC4/CapSense_1.c **** 		sensorsPerWidget = 1u;
 636:.\Generated_Source\PSoC4/CapSense_1.c **** 	}
 637:.\Generated_Source\PSoC4/CapSense_1.c **** 	
 638:.\Generated_Source\PSoC4/CapSense_1.c **** 	/* Get last sensor in widget */
 639:.\Generated_Source\PSoC4/CapSense_1.c **** 	lastSensor = (CapSense_1_rawDataIndex[widget] + sensorsPerWidget) - 1u;
 640:.\Generated_Source\PSoC4/CapSense_1.c **** 
 641:.\Generated_Source\PSoC4/CapSense_1.c **** 	/* Backup sensorEnableMask array */
 642:.\Generated_Source\PSoC4/CapSense_1.c **** 	for(snsIndex = 0u; snsIndex < CapSense_1_TOTAL_SENSOR_MASK; snsIndex++)
 643:.\Generated_Source\PSoC4/CapSense_1.c **** 	{
 644:.\Generated_Source\PSoC4/CapSense_1.c **** 		/* Backup sensorEnableMask array */
 645:.\Generated_Source\PSoC4/CapSense_1.c **** 		CapSense_1_sensorEnableMaskBackup[snsIndex] = CapSense_1_sensorEnableMask[snsIndex];
 646:.\Generated_Source\PSoC4/CapSense_1.c **** 	}
 647:.\Generated_Source\PSoC4/CapSense_1.c **** 
 648:.\Generated_Source\PSoC4/CapSense_1.c **** 	/* Update sensorEnableMask to scan the sensors that belong to widget */
 649:.\Generated_Source\PSoC4/CapSense_1.c **** 	for(snsIndex = 0u; snsIndex < CapSense_1_TOTAL_SENSOR_COUNT; snsIndex++)
 650:.\Generated_Source\PSoC4/CapSense_1.c **** 	{
 651:.\Generated_Source\PSoC4/CapSense_1.c **** 		/* Update sensorEnableMask array bits to scan the widget only */ 
 652:.\Generated_Source\PSoC4/CapSense_1.c **** 	    if((snsIndex >= CapSense_1_sensorIndex) && (snsIndex <= lastSensor))
 653:.\Generated_Source\PSoC4/CapSense_1.c **** 		{
 654:.\Generated_Source\PSoC4/CapSense_1.c **** 		    /* Set sensor bit to scan */
 655:.\Generated_Source\PSoC4/CapSense_1.c **** 			CapSense_1_SetBitValue(CapSense_1_sensorEnableMask, snsIndex, 1u);
 656:.\Generated_Source\PSoC4/CapSense_1.c **** 		}
 657:.\Generated_Source\PSoC4/CapSense_1.c **** 		else
 658:.\Generated_Source\PSoC4/CapSense_1.c **** 		{
 659:.\Generated_Source\PSoC4/CapSense_1.c **** 		    /* Reset sensor bit to do not scan */
 660:.\Generated_Source\PSoC4/CapSense_1.c **** 		    CapSense_1_SetBitValue(CapSense_1_sensorEnableMask, snsIndex, 0u);
 661:.\Generated_Source\PSoC4/CapSense_1.c **** 		}
 662:.\Generated_Source\PSoC4/CapSense_1.c **** 	}
 663:.\Generated_Source\PSoC4/CapSense_1.c **** 
 664:.\Generated_Source\PSoC4/CapSense_1.c ****     /* Check end of scan condition */
 665:.\Generated_Source\PSoC4/CapSense_1.c ****     if(CapSense_1_sensorIndex < CapSense_1_TOTAL_SENSOR_COUNT)
 666:.\Generated_Source\PSoC4/CapSense_1.c ****     {
 667:.\Generated_Source\PSoC4/CapSense_1.c **** 		/* Set widget busy bit in status/control variable*/ 
 668:.\Generated_Source\PSoC4/CapSense_1.c **** 		CapSense_1_csdStatusVar = (CapSense_1_SW_STS_BUSY | CapSense_1_SW_CTRL_WIDGET_SCAN);
 669:.\Generated_Source\PSoC4/CapSense_1.c **** 		/* Scan first sensor of widget*/ 
 670:.\Generated_Source\PSoC4/CapSense_1.c ****         CapSense_1_PreScan((uint32)CapSense_1_sensorIndex);
 671:.\Generated_Source\PSoC4/CapSense_1.c ****     }
 672:.\Generated_Source\PSoC4/CapSense_1.c **** }
 673:.\Generated_Source\PSoC4/CapSense_1.c **** #endif /* (0u != CapSense_1_CSHL_API_GENERATE) */
ARM GAS  C:\Users\danielpi\AppData\Local\Temp\cccuTXvj.s 			page 17


 674:.\Generated_Source\PSoC4/CapSense_1.c **** 
 675:.\Generated_Source\PSoC4/CapSense_1.c **** 
 676:.\Generated_Source\PSoC4/CapSense_1.c **** /*******************************************************************************
 677:.\Generated_Source\PSoC4/CapSense_1.c **** * Function Name: CapSense_1_ScanEnableWidgets
 678:.\Generated_Source\PSoC4/CapSense_1.c **** ********************************************************************************
 679:.\Generated_Source\PSoC4/CapSense_1.c **** *
 680:.\Generated_Source\PSoC4/CapSense_1.c **** * Summary:
 681:.\Generated_Source\PSoC4/CapSense_1.c **** *  This is the preferred method to scan all of the enabled widgets. 
 682:.\Generated_Source\PSoC4/CapSense_1.c **** *  The API starts scanning a sensor within the enabled widgets. 
 683:.\Generated_Source\PSoC4/CapSense_1.c **** *  The ISR continues scanning the sensors until all the enabled widgets are scanned. 
 684:.\Generated_Source\PSoC4/CapSense_1.c **** *  Use of the ISR ensures this function is non-blocking.
 685:.\Generated_Source\PSoC4/CapSense_1.c **** *  All the widgets are enabled by default except proximity widgets. 
 686:.\Generated_Source\PSoC4/CapSense_1.c **** *  The proximity widgets must be manually enabled as their long scan time 
 687:.\Generated_Source\PSoC4/CapSense_1.c **** *  is incompatible with a fast response required of other widget types.
 688:.\Generated_Source\PSoC4/CapSense_1.c **** *
 689:.\Generated_Source\PSoC4/CapSense_1.c **** * Parameters:
 690:.\Generated_Source\PSoC4/CapSense_1.c **** *  None
 691:.\Generated_Source\PSoC4/CapSense_1.c **** *
 692:.\Generated_Source\PSoC4/CapSense_1.c **** * Return:
 693:.\Generated_Source\PSoC4/CapSense_1.c **** *  None
 694:.\Generated_Source\PSoC4/CapSense_1.c **** *
 695:.\Generated_Source\PSoC4/CapSense_1.c **** * Global Variables:
 696:.\Generated_Source\PSoC4/CapSense_1.c **** *  CapSense_1_csdStatusVar - used to provide the status and mode of the scanning process. 
 697:.\Generated_Source\PSoC4/CapSense_1.c **** *  Sets the busy status(scan in progress) and clears the single scan mode.
 698:.\Generated_Source\PSoC4/CapSense_1.c **** *  CapSense_1_sensorIndex - used to store a sensor scanning sensor number.
 699:.\Generated_Source\PSoC4/CapSense_1.c **** *  Sets to 0xFF and provided to function CapSense_1_FindNextSensor or
 700:.\Generated_Source\PSoC4/CapSense_1.c **** *
 701:.\Generated_Source\PSoC4/CapSense_1.c **** * Side Effects:
 702:.\Generated_Source\PSoC4/CapSense_1.c **** *  None
 703:.\Generated_Source\PSoC4/CapSense_1.c **** * 
 704:.\Generated_Source\PSoC4/CapSense_1.c **** *******************************************************************************/
 705:.\Generated_Source\PSoC4/CapSense_1.c **** void CapSense_1_ScanEnabledWidgets(void)
 706:.\Generated_Source\PSoC4/CapSense_1.c **** {
 707:.\Generated_Source\PSoC4/CapSense_1.c ****     /* Clears status/control variable and set sensorIndex */
 708:.\Generated_Source\PSoC4/CapSense_1.c ****     CapSense_1_csdStatusVar = 0u;
 709:.\Generated_Source\PSoC4/CapSense_1.c ****     CapSense_1_sensorIndex = 0xFFu;
 710:.\Generated_Source\PSoC4/CapSense_1.c ****     
 711:.\Generated_Source\PSoC4/CapSense_1.c ****     /* Find next sensor */
 712:.\Generated_Source\PSoC4/CapSense_1.c ****     CapSense_1_sensorIndex = (uint8)CapSense_1_FindNextSensor(CapSense_1_sensorIndex);
 713:.\Generated_Source\PSoC4/CapSense_1.c **** 
 714:.\Generated_Source\PSoC4/CapSense_1.c ****     /* Check end of scan condition */
 715:.\Generated_Source\PSoC4/CapSense_1.c ****     if(CapSense_1_sensorIndex < CapSense_1_TOTAL_SENSOR_COUNT)
 716:.\Generated_Source\PSoC4/CapSense_1.c ****     {
 717:.\Generated_Source\PSoC4/CapSense_1.c ****         CapSense_1_csdStatusVar |= CapSense_1_SW_STS_BUSY;
 718:.\Generated_Source\PSoC4/CapSense_1.c ****         CapSense_1_PreScan((uint32)CapSense_1_sensorIndex);
 719:.\Generated_Source\PSoC4/CapSense_1.c ****     }
 720:.\Generated_Source\PSoC4/CapSense_1.c **** }
 721:.\Generated_Source\PSoC4/CapSense_1.c **** 
 722:.\Generated_Source\PSoC4/CapSense_1.c **** 
 723:.\Generated_Source\PSoC4/CapSense_1.c **** /*******************************************************************************
 724:.\Generated_Source\PSoC4/CapSense_1.c **** * Function Name: CapSense_1_IsBusy
 725:.\Generated_Source\PSoC4/CapSense_1.c **** ********************************************************************************
 726:.\Generated_Source\PSoC4/CapSense_1.c **** *
 727:.\Generated_Source\PSoC4/CapSense_1.c **** * Summary:
 728:.\Generated_Source\PSoC4/CapSense_1.c **** *  Returns the state of the CapSense component. 1 means that scanning in 
 729:.\Generated_Source\PSoC4/CapSense_1.c **** *  progress and 0 means that scanning is complete.
 730:.\Generated_Source\PSoC4/CapSense_1.c **** *
ARM GAS  C:\Users\danielpi\AppData\Local\Temp\cccuTXvj.s 			page 18


 731:.\Generated_Source\PSoC4/CapSense_1.c **** * Parameters:
 732:.\Generated_Source\PSoC4/CapSense_1.c **** *  None
 733:.\Generated_Source\PSoC4/CapSense_1.c **** *
 734:.\Generated_Source\PSoC4/CapSense_1.c **** * Return:
 735:.\Generated_Source\PSoC4/CapSense_1.c **** *  Returns the state of scanning. 1 - scanning in progress, 0 - scanning 
 736:.\Generated_Source\PSoC4/CapSense_1.c **** *  completed.
 737:.\Generated_Source\PSoC4/CapSense_1.c **** *
 738:.\Generated_Source\PSoC4/CapSense_1.c **** * Global Variables:
 739:.\Generated_Source\PSoC4/CapSense_1.c **** *  CapSense_1_csdStatusVar - used to provide the status and mode of the scanning process. 
 740:.\Generated_Source\PSoC4/CapSense_1.c **** *  Checks the busy status.
 741:.\Generated_Source\PSoC4/CapSense_1.c **** *
 742:.\Generated_Source\PSoC4/CapSense_1.c **** * Side Effects:
 743:.\Generated_Source\PSoC4/CapSense_1.c **** *  None
 744:.\Generated_Source\PSoC4/CapSense_1.c **** * 
 745:.\Generated_Source\PSoC4/CapSense_1.c **** *******************************************************************************/
 746:.\Generated_Source\PSoC4/CapSense_1.c **** uint32 CapSense_1_IsBusy(void)
 747:.\Generated_Source\PSoC4/CapSense_1.c **** {
 240              		.loc 1 747 0
 241              		.cfi_startproc
 748:.\Generated_Source\PSoC4/CapSense_1.c ****     return ((uint32)((0u != (CapSense_1_csdStatusVar & CapSense_1_SW_STS_BUSY)) ? 1u : 0u));
 242              		.loc 1 748 0
 243 0000 024B     		ldr	r3, .L11
 244 0002 1878     		ldrb	r0, [r3]
 245 0004 0123     		mov	r3, #1
 246 0006 1840     		and	r0, r3
 749:.\Generated_Source\PSoC4/CapSense_1.c **** }
 247              		.loc 1 749 0
 248              		@ sp needed
 249 0008 7047     		bx	lr
 250              	.L12:
 251 000a C046     		.align	2
 252              	.L11:
 253 000c 00000000 		.word	.LANCHOR0
 254              		.cfi_endproc
 255              	.LFE44:
 256              		.size	CapSense_1_IsBusy, .-CapSense_1_IsBusy
 257              		.section	.text.CapSense_1_ReadSensorRaw,"ax",%progbits
 258              		.align	2
 259              		.global	CapSense_1_ReadSensorRaw
 260              		.code	16
 261              		.thumb_func
 262              		.type	CapSense_1_ReadSensorRaw, %function
 263              	CapSense_1_ReadSensorRaw:
 264              	.LFB45:
 750:.\Generated_Source\PSoC4/CapSense_1.c **** 
 751:.\Generated_Source\PSoC4/CapSense_1.c **** 
 752:.\Generated_Source\PSoC4/CapSense_1.c **** /*******************************************************************************
 753:.\Generated_Source\PSoC4/CapSense_1.c **** * Function Name: CapSense_1_ReadSensorRaw
 754:.\Generated_Source\PSoC4/CapSense_1.c **** ********************************************************************************
 755:.\Generated_Source\PSoC4/CapSense_1.c **** *
 756:.\Generated_Source\PSoC4/CapSense_1.c **** * Summary:
 757:.\Generated_Source\PSoC4/CapSense_1.c **** *  Returns sensor raw data from the global CapSense_sensorRaw[ ] array. 
 758:.\Generated_Source\PSoC4/CapSense_1.c **** *  Each scan sensor has a unique number within the sensor array. 
 759:.\Generated_Source\PSoC4/CapSense_1.c **** *  This number is assigned by the CapSense customizer in sequence. 
 760:.\Generated_Source\PSoC4/CapSense_1.c **** *  Raw data can be used to perform calculations outside of the CapSense 
 761:.\Generated_Source\PSoC4/CapSense_1.c **** *  provided framework.
 762:.\Generated_Source\PSoC4/CapSense_1.c **** *
ARM GAS  C:\Users\danielpi\AppData\Local\Temp\cccuTXvj.s 			page 19


 763:.\Generated_Source\PSoC4/CapSense_1.c **** * Parameters:
 764:.\Generated_Source\PSoC4/CapSense_1.c **** *  sensor:  Sensor number.
 765:.\Generated_Source\PSoC4/CapSense_1.c **** *
 766:.\Generated_Source\PSoC4/CapSense_1.c **** * Return:
 767:.\Generated_Source\PSoC4/CapSense_1.c **** *  Returns the current raw data value for a defined sensor number.
 768:.\Generated_Source\PSoC4/CapSense_1.c **** *
 769:.\Generated_Source\PSoC4/CapSense_1.c **** * Global Variables:
 770:.\Generated_Source\PSoC4/CapSense_1.c **** *  CapSense_1_sensorRaw[] - used to store sensors raw data.
 771:.\Generated_Source\PSoC4/CapSense_1.c **** *
 772:.\Generated_Source\PSoC4/CapSense_1.c **** * Side Effects: 
 773:.\Generated_Source\PSoC4/CapSense_1.c **** *  None
 774:.\Generated_Source\PSoC4/CapSense_1.c **** *
 775:.\Generated_Source\PSoC4/CapSense_1.c **** *******************************************************************************/
 776:.\Generated_Source\PSoC4/CapSense_1.c **** uint16 CapSense_1_ReadSensorRaw(uint32 sensor)
 777:.\Generated_Source\PSoC4/CapSense_1.c **** {
 265              		.loc 1 777 0
 266              		.cfi_startproc
 267              	.LVL28:
 778:.\Generated_Source\PSoC4/CapSense_1.c ****     return CapSense_1_sensorRaw[sensor];
 268              		.loc 1 778 0
 269 0000 4000     		lsl	r0, r0, #1
 270              	.LVL29:
 271 0002 024B     		ldr	r3, .L14
 272 0004 1818     		add	r0, r3, r0
 273 0006 8088     		ldrh	r0, [r0, #4]
 779:.\Generated_Source\PSoC4/CapSense_1.c **** }
 274              		.loc 1 779 0
 275              		@ sp needed
 276 0008 7047     		bx	lr
 277              	.L15:
 278 000a C046     		.align	2
 279              	.L14:
 280 000c 00000000 		.word	.LANCHOR0
 281              		.cfi_endproc
 282              	.LFE45:
 283              		.size	CapSense_1_ReadSensorRaw, .-CapSense_1_ReadSensorRaw
 284              		.section	.text.CapSense_1_WriteSensorRaw,"ax",%progbits
 285              		.align	2
 286              		.global	CapSense_1_WriteSensorRaw
 287              		.code	16
 288              		.thumb_func
 289              		.type	CapSense_1_WriteSensorRaw, %function
 290              	CapSense_1_WriteSensorRaw:
 291              	.LFB46:
 780:.\Generated_Source\PSoC4/CapSense_1.c **** 
 781:.\Generated_Source\PSoC4/CapSense_1.c **** 
 782:.\Generated_Source\PSoC4/CapSense_1.c **** /*******************************************************************************
 783:.\Generated_Source\PSoC4/CapSense_1.c **** * Function Name: CapSense_1_WriteSensorRaw
 784:.\Generated_Source\PSoC4/CapSense_1.c **** ********************************************************************************
 785:.\Generated_Source\PSoC4/CapSense_1.c **** *
 786:.\Generated_Source\PSoC4/CapSense_1.c **** * Summary:
 787:.\Generated_Source\PSoC4/CapSense_1.c **** *  This API writes the raw count value passed as an argument to the sensor Raw count array.
 788:.\Generated_Source\PSoC4/CapSense_1.c **** *
 789:.\Generated_Source\PSoC4/CapSense_1.c **** * Parameters:
 790:.\Generated_Source\PSoC4/CapSense_1.c **** *  sensor:  Sensor number.
 791:.\Generated_Source\PSoC4/CapSense_1.c **** *  value: Raw count value.
 792:.\Generated_Source\PSoC4/CapSense_1.c **** *
ARM GAS  C:\Users\danielpi\AppData\Local\Temp\cccuTXvj.s 			page 20


 793:.\Generated_Source\PSoC4/CapSense_1.c **** * Global Variables:
 794:.\Generated_Source\PSoC4/CapSense_1.c **** *  CapSense_1_sensorRaw[] - used to store sensors raw data.
 795:.\Generated_Source\PSoC4/CapSense_1.c **** *
 796:.\Generated_Source\PSoC4/CapSense_1.c **** * Return:
 797:.\Generated_Source\PSoC4/CapSense_1.c **** *  None
 798:.\Generated_Source\PSoC4/CapSense_1.c **** *
 799:.\Generated_Source\PSoC4/CapSense_1.c **** * Side Effects: 
 800:.\Generated_Source\PSoC4/CapSense_1.c **** *  None
 801:.\Generated_Source\PSoC4/CapSense_1.c **** *
 802:.\Generated_Source\PSoC4/CapSense_1.c **** *******************************************************************************/
 803:.\Generated_Source\PSoC4/CapSense_1.c **** void CapSense_1_WriteSensorRaw(uint32 sensor, uint16 value)
 804:.\Generated_Source\PSoC4/CapSense_1.c **** {
 292              		.loc 1 804 0
 293              		.cfi_startproc
 294              	.LVL30:
 805:.\Generated_Source\PSoC4/CapSense_1.c **** 	CapSense_1_sensorRaw[sensor] = value;
 295              		.loc 1 805 0
 296 0000 4000     		lsl	r0, r0, #1
 297              	.LVL31:
 298 0002 024B     		ldr	r3, .L17
 299 0004 1818     		add	r0, r3, r0
 300 0006 8180     		strh	r1, [r0, #4]
 806:.\Generated_Source\PSoC4/CapSense_1.c **** }
 301              		.loc 1 806 0
 302              		@ sp needed
 303 0008 7047     		bx	lr
 304              	.L18:
 305 000a C046     		.align	2
 306              	.L17:
 307 000c 00000000 		.word	.LANCHOR0
 308              		.cfi_endproc
 309              	.LFE46:
 310              		.size	CapSense_1_WriteSensorRaw, .-CapSense_1_WriteSensorRaw
 311              		.section	.text.CapSense_1_SetScanResolution,"ax",%progbits
 312              		.align	2
 313              		.global	CapSense_1_SetScanResolution
 314              		.code	16
 315              		.thumb_func
 316              		.type	CapSense_1_SetScanResolution, %function
 317              	CapSense_1_SetScanResolution:
 318              	.LFB47:
 807:.\Generated_Source\PSoC4/CapSense_1.c **** 
 808:.\Generated_Source\PSoC4/CapSense_1.c **** 
 809:.\Generated_Source\PSoC4/CapSense_1.c **** #if (CapSense_1_TUNING_METHOD != CapSense_1__TUNING_NONE)
 810:.\Generated_Source\PSoC4/CapSense_1.c **** 	/*******************************************************************************
 811:.\Generated_Source\PSoC4/CapSense_1.c **** 	* Function Name: CapSense_1_SetScanResolution
 812:.\Generated_Source\PSoC4/CapSense_1.c **** 	********************************************************************************
 813:.\Generated_Source\PSoC4/CapSense_1.c **** 	*
 814:.\Generated_Source\PSoC4/CapSense_1.c **** 	* Summary:
 815:.\Generated_Source\PSoC4/CapSense_1.c **** 	*  Sets a value of the sensor scan resolution for a widget. 
 816:.\Generated_Source\PSoC4/CapSense_1.c **** 	*  The MIN resolution can be set 8-bit. The MAX Resolution can be set 16 bit.
 817:.\Generated_Source\PSoC4/CapSense_1.c **** 	*  This function is not available for the tuning mode "None".
 818:.\Generated_Source\PSoC4/CapSense_1.c **** 	*
 819:.\Generated_Source\PSoC4/CapSense_1.c **** 	* Parameters:
 820:.\Generated_Source\PSoC4/CapSense_1.c **** 	*  widget:     Widget index.
 821:.\Generated_Source\PSoC4/CapSense_1.c **** 	*  resolution: Represents the resolution value. The following defines which are available in the
 822:.\Generated_Source\PSoC4/CapSense_1.c **** 	*			   CapSense_1.h file should be used:
ARM GAS  C:\Users\danielpi\AppData\Local\Temp\cccuTXvj.s 			page 21


 823:.\Generated_Source\PSoC4/CapSense_1.c **** 	*			   CapSense_1_RESOLUTION_6_BITS
 824:.\Generated_Source\PSoC4/CapSense_1.c **** 	*			   CapSense_1_RESOLUTION_7_BITS
 825:.\Generated_Source\PSoC4/CapSense_1.c **** 	*			   CapSense_1_RESOLUTION_8_BITS
 826:.\Generated_Source\PSoC4/CapSense_1.c **** 	*			   CapSense_1_RESOLUTION_9_BITS
 827:.\Generated_Source\PSoC4/CapSense_1.c **** 	*			   CapSense_1_RESOLUTION_10_BITS
 828:.\Generated_Source\PSoC4/CapSense_1.c **** 	*			   CapSense_1_RESOLUTION_11_BITS
 829:.\Generated_Source\PSoC4/CapSense_1.c **** 	*			   CapSense_1_RESOLUTION_12_BITS
 830:.\Generated_Source\PSoC4/CapSense_1.c **** 	*			   CapSense_1_RESOLUTION_13_BITS
 831:.\Generated_Source\PSoC4/CapSense_1.c **** 	*			   CapSense_1_RESOLUTION_14_BITS
 832:.\Generated_Source\PSoC4/CapSense_1.c **** 	*			   CapSense_1_RESOLUTION_15_BITS
 833:.\Generated_Source\PSoC4/CapSense_1.c **** 	*			   CapSense_1_RESOLUTION_16_BITS
 834:.\Generated_Source\PSoC4/CapSense_1.c **** 	*
 835:.\Generated_Source\PSoC4/CapSense_1.c **** 	* Return:
 836:.\Generated_Source\PSoC4/CapSense_1.c **** 	*  None
 837:.\Generated_Source\PSoC4/CapSense_1.c **** 	*
 838:.\Generated_Source\PSoC4/CapSense_1.c **** 	* Global Variables:
 839:.\Generated_Source\PSoC4/CapSense_1.c **** 	*  CapSense_1_widgetResolution[] - used to store scan resolution of each widget.
 840:.\Generated_Source\PSoC4/CapSense_1.c **** 	*
 841:.\Generated_Source\PSoC4/CapSense_1.c **** 	* Side Effects: 
 842:.\Generated_Source\PSoC4/CapSense_1.c **** 	*  None
 843:.\Generated_Source\PSoC4/CapSense_1.c **** 	*
 844:.\Generated_Source\PSoC4/CapSense_1.c **** 	*******************************************************************************/
 845:.\Generated_Source\PSoC4/CapSense_1.c **** 	void CapSense_1_SetScanResolution(uint32 widget, uint32 resolution)
 846:.\Generated_Source\PSoC4/CapSense_1.c **** 	{ 
 319              		.loc 1 846 0
 320              		.cfi_startproc
 321              	.LVL32:
 847:.\Generated_Source\PSoC4/CapSense_1.c ****         CapSense_1_widgetResolution[widget] = resolution;
 322              		.loc 1 847 0
 323 0000 8000     		lsl	r0, r0, #2
 324              	.LVL33:
 325 0002 014B     		ldr	r3, .L20
 326 0004 C150     		str	r1, [r0, r3]
 848:.\Generated_Source\PSoC4/CapSense_1.c **** 	}
 327              		.loc 1 848 0
 328              		@ sp needed
 329 0006 7047     		bx	lr
 330              	.L21:
 331              		.align	2
 332              	.L20:
 333 0008 00000000 		.word	.LANCHOR1
 334              		.cfi_endproc
 335              	.LFE47:
 336              		.size	CapSense_1_SetScanResolution, .-CapSense_1_SetScanResolution
 337              		.section	.text.CapSense_1_GetScanResolution,"ax",%progbits
 338              		.align	2
 339              		.global	CapSense_1_GetScanResolution
 340              		.code	16
 341              		.thumb_func
 342              		.type	CapSense_1_GetScanResolution, %function
 343              	CapSense_1_GetScanResolution:
 344              	.LFB48:
 849:.\Generated_Source\PSoC4/CapSense_1.c **** #endif /* (CapSense_1_TUNING_METHOD != CapSense_1__TUNING_NONE) */
 850:.\Generated_Source\PSoC4/CapSense_1.c **** 
 851:.\Generated_Source\PSoC4/CapSense_1.c **** 
 852:.\Generated_Source\PSoC4/CapSense_1.c **** /*******************************************************************************
 853:.\Generated_Source\PSoC4/CapSense_1.c **** * Function Name: CapSense_1_GetScanResolution
ARM GAS  C:\Users\danielpi\AppData\Local\Temp\cccuTXvj.s 			page 22


 854:.\Generated_Source\PSoC4/CapSense_1.c **** ********************************************************************************
 855:.\Generated_Source\PSoC4/CapSense_1.c **** *
 856:.\Generated_Source\PSoC4/CapSense_1.c **** * Summary:
 857:.\Generated_Source\PSoC4/CapSense_1.c **** *  Returns the resolution value for the appropriate sensor.
 858:.\Generated_Source\PSoC4/CapSense_1.c **** *  This function is not available for tuning mode "None".
 859:.\Generated_Source\PSoC4/CapSense_1.c **** *
 860:.\Generated_Source\PSoC4/CapSense_1.c **** * Parameters:
 861:.\Generated_Source\PSoC4/CapSense_1.c **** *  widget:     Widget index.
 862:.\Generated_Source\PSoC4/CapSense_1.c **** *
 863:.\Generated_Source\PSoC4/CapSense_1.c **** * Return:
 864:.\Generated_Source\PSoC4/CapSense_1.c **** *  resolution: Returns the resolution value for the appropriate sensor. 
 865:.\Generated_Source\PSoC4/CapSense_1.c **** *              The resolution values are defined in the CapSense_1.h file 
 866:.\Generated_Source\PSoC4/CapSense_1.c **** *              The defines are encountered below:
 867:.\Generated_Source\PSoC4/CapSense_1.c **** *			   CapSense_1_RESOLUTION_6_BITS
 868:.\Generated_Source\PSoC4/CapSense_1.c **** *			   CapSense_1_RESOLUTION_7_BITS
 869:.\Generated_Source\PSoC4/CapSense_1.c **** *			   CapSense_1_RESOLUTION_8_BITS
 870:.\Generated_Source\PSoC4/CapSense_1.c **** *			   CapSense_1_RESOLUTION_9_BITS
 871:.\Generated_Source\PSoC4/CapSense_1.c **** *			   CapSense_1_RESOLUTION_10_BITS
 872:.\Generated_Source\PSoC4/CapSense_1.c **** *			   CapSense_1_RESOLUTION_11_BITS
 873:.\Generated_Source\PSoC4/CapSense_1.c **** *			   CapSense_1_RESOLUTION_12_BITS
 874:.\Generated_Source\PSoC4/CapSense_1.c **** *			   CapSense_1_RESOLUTION_13_BITS
 875:.\Generated_Source\PSoC4/CapSense_1.c **** *			   CapSense_1_RESOLUTION_14_BITS
 876:.\Generated_Source\PSoC4/CapSense_1.c **** *			   CapSense_1_RESOLUTION_15_BITS
 877:.\Generated_Source\PSoC4/CapSense_1.c **** *			   CapSense_1_RESOLUTION_16_BITS
 878:.\Generated_Source\PSoC4/CapSense_1.c **** *
 879:.\Generated_Source\PSoC4/CapSense_1.c **** * Global Variables:
 880:.\Generated_Source\PSoC4/CapSense_1.c **** *  CapSense_1_widgetResolution[] - used to store scan resolution of every widget.
 881:.\Generated_Source\PSoC4/CapSense_1.c **** *
 882:.\Generated_Source\PSoC4/CapSense_1.c **** * Side Effects: 
 883:.\Generated_Source\PSoC4/CapSense_1.c **** *  None
 884:.\Generated_Source\PSoC4/CapSense_1.c **** *
 885:.\Generated_Source\PSoC4/CapSense_1.c **** *******************************************************************************/
 886:.\Generated_Source\PSoC4/CapSense_1.c **** uint32 CapSense_1_GetScanResolution(uint32 widget)
 887:.\Generated_Source\PSoC4/CapSense_1.c **** {
 345              		.loc 1 887 0
 346              		.cfi_startproc
 347              	.LVL34:
 888:.\Generated_Source\PSoC4/CapSense_1.c **** 	return(CapSense_1_widgetResolution[widget]);
 348              		.loc 1 888 0
 349 0000 8000     		lsl	r0, r0, #2
 350              	.LVL35:
 351 0002 014B     		ldr	r3, .L23
 352 0004 C058     		ldr	r0, [r0, r3]
 889:.\Generated_Source\PSoC4/CapSense_1.c **** }
 353              		.loc 1 889 0
 354              		@ sp needed
 355 0006 7047     		bx	lr
 356              	.L24:
 357              		.align	2
 358              	.L23:
 359 0008 00000000 		.word	.LANCHOR1
 360              		.cfi_endproc
 361              	.LFE48:
 362              		.size	CapSense_1_GetScanResolution, .-CapSense_1_GetScanResolution
 363              		.section	.text.CapSense_1_EnableSensor,"ax",%progbits
 364              		.align	2
 365              		.global	CapSense_1_EnableSensor
ARM GAS  C:\Users\danielpi\AppData\Local\Temp\cccuTXvj.s 			page 23


 366              		.code	16
 367              		.thumb_func
 368              		.type	CapSense_1_EnableSensor, %function
 369              	CapSense_1_EnableSensor:
 370              	.LFB50:
 890:.\Generated_Source\PSoC4/CapSense_1.c **** 
 891:.\Generated_Source\PSoC4/CapSense_1.c **** 
 892:.\Generated_Source\PSoC4/CapSense_1.c **** /*******************************************************************************
 893:.\Generated_Source\PSoC4/CapSense_1.c **** * Function Name: CapSense_1_ClearSensors
 894:.\Generated_Source\PSoC4/CapSense_1.c **** ********************************************************************************
 895:.\Generated_Source\PSoC4/CapSense_1.c **** *
 896:.\Generated_Source\PSoC4/CapSense_1.c **** * Summary:
 897:.\Generated_Source\PSoC4/CapSense_1.c **** *  Resets all the sensors to the non-sampling state by sequentially disconnecting
 898:.\Generated_Source\PSoC4/CapSense_1.c **** *  all the sensors from Analog MUX Bus and putting them to an inactive state.
 899:.\Generated_Source\PSoC4/CapSense_1.c **** *
 900:.\Generated_Source\PSoC4/CapSense_1.c **** * Parameters:
 901:.\Generated_Source\PSoC4/CapSense_1.c **** *  None
 902:.\Generated_Source\PSoC4/CapSense_1.c **** *
 903:.\Generated_Source\PSoC4/CapSense_1.c **** * Return:
 904:.\Generated_Source\PSoC4/CapSense_1.c **** *  None
 905:.\Generated_Source\PSoC4/CapSense_1.c **** *
 906:.\Generated_Source\PSoC4/CapSense_1.c **** * Global Variables:
 907:.\Generated_Source\PSoC4/CapSense_1.c **** *  None
 908:.\Generated_Source\PSoC4/CapSense_1.c **** *
 909:.\Generated_Source\PSoC4/CapSense_1.c **** * Side Effects: 
 910:.\Generated_Source\PSoC4/CapSense_1.c **** *  None
 911:.\Generated_Source\PSoC4/CapSense_1.c **** *
 912:.\Generated_Source\PSoC4/CapSense_1.c **** *******************************************************************************/
 913:.\Generated_Source\PSoC4/CapSense_1.c **** void CapSense_1_ClearSensors(void)
 914:.\Generated_Source\PSoC4/CapSense_1.c **** {
 915:.\Generated_Source\PSoC4/CapSense_1.c **** 	uint32 snsIndex;
 916:.\Generated_Source\PSoC4/CapSense_1.c **** 	
 917:.\Generated_Source\PSoC4/CapSense_1.c ****     for (snsIndex = 0u; snsIndex < CapSense_1_TOTAL_SENSOR_COUNT; snsIndex++)
 918:.\Generated_Source\PSoC4/CapSense_1.c ****     {
 919:.\Generated_Source\PSoC4/CapSense_1.c ****         CapSense_1_DisableScanSlot(snsIndex);
 920:.\Generated_Source\PSoC4/CapSense_1.c ****     }
 921:.\Generated_Source\PSoC4/CapSense_1.c **** }
 922:.\Generated_Source\PSoC4/CapSense_1.c **** 
 923:.\Generated_Source\PSoC4/CapSense_1.c **** 
 924:.\Generated_Source\PSoC4/CapSense_1.c **** #if (CapSense_1_IS_COMPLEX_SCANSLOTS)
 925:.\Generated_Source\PSoC4/CapSense_1.c ****     /*******************************************************************************
 926:.\Generated_Source\PSoC4/CapSense_1.c ****     * Function Name: CapSense_1_EnableScanSlot
 927:.\Generated_Source\PSoC4/CapSense_1.c ****     ********************************************************************************
 928:.\Generated_Source\PSoC4/CapSense_1.c ****     *
 929:.\Generated_Source\PSoC4/CapSense_1.c ****     * Summary:
 930:.\Generated_Source\PSoC4/CapSense_1.c ****     *  Configures the selected slot to measure during the next measurement 
 931:.\Generated_Source\PSoC4/CapSense_1.c ****     *  cycle. The corresponding pin/pins are set to Analog High-Z mode and 
 932:.\Generated_Source\PSoC4/CapSense_1.c ****     *  connected to the Analog Mux Bus. This also enables the comparator function.
 933:.\Generated_Source\PSoC4/CapSense_1.c ****     *
 934:.\Generated_Source\PSoC4/CapSense_1.c ****     * Parameters:
 935:.\Generated_Source\PSoC4/CapSense_1.c ****     *  slot:  Slot number.
 936:.\Generated_Source\PSoC4/CapSense_1.c ****     *
 937:.\Generated_Source\PSoC4/CapSense_1.c ****     * Return:
 938:.\Generated_Source\PSoC4/CapSense_1.c ****     *  None
 939:.\Generated_Source\PSoC4/CapSense_1.c ****     *
 940:.\Generated_Source\PSoC4/CapSense_1.c ****     * Global Constants:
 941:.\Generated_Source\PSoC4/CapSense_1.c ****     *  CapSense_1_portTable[]  - used to store the port number that pin 
ARM GAS  C:\Users\danielpi\AppData\Local\Temp\cccuTXvj.s 			page 24


 942:.\Generated_Source\PSoC4/CapSense_1.c ****     *  belongs to for each sensor.
 943:.\Generated_Source\PSoC4/CapSense_1.c ****     *  CapSense_1_maskTable[]  - used to store the pin within the port for 
 944:.\Generated_Source\PSoC4/CapSense_1.c ****     *  each sensor.
 945:.\Generated_Source\PSoC4/CapSense_1.c ****     *  CapSense_1_indexTable[] - used to store indexes of complex sensors.
 946:.\Generated_Source\PSoC4/CapSense_1.c ****     *  The offset and position in this array are stored in a port and mask table for 
 947:.\Generated_Source\PSoC4/CapSense_1.c ****     *  complex sensors.
 948:.\Generated_Source\PSoC4/CapSense_1.c ****     *  Bit 7 (msb) is used to define the sensor type: single or complex.
 949:.\Generated_Source\PSoC4/CapSense_1.c ****     *
 950:.\Generated_Source\PSoC4/CapSense_1.c **** 	* Side Effects: 
 951:.\Generated_Source\PSoC4/CapSense_1.c **** 	*  None
 952:.\Generated_Source\PSoC4/CapSense_1.c **** 	*
 953:.\Generated_Source\PSoC4/CapSense_1.c ****     *******************************************************************************/
 954:.\Generated_Source\PSoC4/CapSense_1.c ****     void CapSense_1_EnableScanSlot(uint32 slot)
 955:.\Generated_Source\PSoC4/CapSense_1.c ****     {
 956:.\Generated_Source\PSoC4/CapSense_1.c ****         uint8 j;
 957:.\Generated_Source\PSoC4/CapSense_1.c ****         uint8 snsNumber;
 958:.\Generated_Source\PSoC4/CapSense_1.c ****         const uint8 *index;
 959:.\Generated_Source\PSoC4/CapSense_1.c ****         /* Read sensor type: single or complex */
 960:.\Generated_Source\PSoC4/CapSense_1.c ****         uint8 snsType = CapSense_1_portTable[slot];
 961:.\Generated_Source\PSoC4/CapSense_1.c **** 
 962:.\Generated_Source\PSoC4/CapSense_1.c ****         /* Check if sensor is complex */
 963:.\Generated_Source\PSoC4/CapSense_1.c ****         if ((snsType & CapSense_1_COMPLEX_SS_FLAG) == 0u)
 964:.\Generated_Source\PSoC4/CapSense_1.c ****         {
 965:.\Generated_Source\PSoC4/CapSense_1.c ****             /* Enable sensor (single) */
 966:.\Generated_Source\PSoC4/CapSense_1.c ****             CapSense_1_EnableSensor(slot);
 967:.\Generated_Source\PSoC4/CapSense_1.c ****         }
 968:.\Generated_Source\PSoC4/CapSense_1.c ****         else
 969:.\Generated_Source\PSoC4/CapSense_1.c ****         {
 970:.\Generated_Source\PSoC4/CapSense_1.c ****             /* Enable complex sensor */
 971:.\Generated_Source\PSoC4/CapSense_1.c ****             snsType &= ~CapSense_1_COMPLEX_SS_FLAG;
 972:.\Generated_Source\PSoC4/CapSense_1.c ****             index = &CapSense_1_indexTable[snsType];
 973:.\Generated_Source\PSoC4/CapSense_1.c ****             snsNumber = CapSense_1_maskTable[slot];
 974:.\Generated_Source\PSoC4/CapSense_1.c ****                         
 975:.\Generated_Source\PSoC4/CapSense_1.c ****             for (j = 0u; j < snsNumber; j++)
 976:.\Generated_Source\PSoC4/CapSense_1.c ****             {
 977:.\Generated_Source\PSoC4/CapSense_1.c ****                 CapSense_1_EnableSensor(index[j]);
 978:.\Generated_Source\PSoC4/CapSense_1.c ****             }
 979:.\Generated_Source\PSoC4/CapSense_1.c ****         }
 980:.\Generated_Source\PSoC4/CapSense_1.c ****     }
 981:.\Generated_Source\PSoC4/CapSense_1.c ****     
 982:.\Generated_Source\PSoC4/CapSense_1.c ****     
 983:.\Generated_Source\PSoC4/CapSense_1.c ****     /*******************************************************************************
 984:.\Generated_Source\PSoC4/CapSense_1.c ****     * Function Name: CapSense_1_DisableScanSlot
 985:.\Generated_Source\PSoC4/CapSense_1.c ****     ********************************************************************************
 986:.\Generated_Source\PSoC4/CapSense_1.c ****     *
 987:.\Generated_Source\PSoC4/CapSense_1.c ****     * Summary:
 988:.\Generated_Source\PSoC4/CapSense_1.c ****     *  Disables the selected slot. The corresponding pin/pins is/are disconnected 
 989:.\Generated_Source\PSoC4/CapSense_1.c ****     *  from the Analog Mux Bus and connected to GND, High_Z or Shield electrode.
 990:.\Generated_Source\PSoC4/CapSense_1.c ****     *
 991:.\Generated_Source\PSoC4/CapSense_1.c ****     * Parameters:
 992:.\Generated_Source\PSoC4/CapSense_1.c ****     *  slot:  Slot number.
 993:.\Generated_Source\PSoC4/CapSense_1.c ****     *
 994:.\Generated_Source\PSoC4/CapSense_1.c ****     * Return:
 995:.\Generated_Source\PSoC4/CapSense_1.c ****     *  None
 996:.\Generated_Source\PSoC4/CapSense_1.c ****     *
 997:.\Generated_Source\PSoC4/CapSense_1.c ****     * Global Variables:
 998:.\Generated_Source\PSoC4/CapSense_1.c ****     *  CapSense_1_portTable[]  - used to store the port number that pin 
ARM GAS  C:\Users\danielpi\AppData\Local\Temp\cccuTXvj.s 			page 25


 999:.\Generated_Source\PSoC4/CapSense_1.c ****     *  belongs to for each sensor.
1000:.\Generated_Source\PSoC4/CapSense_1.c ****     *  CapSense_1_maskTable[]  - used to store the pin within the port for 
1001:.\Generated_Source\PSoC4/CapSense_1.c ****     *  each sensor.
1002:.\Generated_Source\PSoC4/CapSense_1.c ****     *  CapSense_1_indexTable[] - used to store indexes of complex sensors.
1003:.\Generated_Source\PSoC4/CapSense_1.c ****     *  The offset and position in this array are stored in a port and mask table for 
1004:.\Generated_Source\PSoC4/CapSense_1.c ****     *  complex sensors.
1005:.\Generated_Source\PSoC4/CapSense_1.c ****     *  7bit(msb) is used to define the sensor type: single or complex.
1006:.\Generated_Source\PSoC4/CapSense_1.c ****     *
1007:.\Generated_Source\PSoC4/CapSense_1.c **** 	* Side Effects: 
1008:.\Generated_Source\PSoC4/CapSense_1.c **** 	*  None
1009:.\Generated_Source\PSoC4/CapSense_1.c **** 	*
1010:.\Generated_Source\PSoC4/CapSense_1.c ****     *******************************************************************************/
1011:.\Generated_Source\PSoC4/CapSense_1.c ****     void CapSense_1_DisableScanSlot(uint32 slot)
1012:.\Generated_Source\PSoC4/CapSense_1.c ****     {
1013:.\Generated_Source\PSoC4/CapSense_1.c ****         uint8 j;
1014:.\Generated_Source\PSoC4/CapSense_1.c ****         uint8 snsNumber;
1015:.\Generated_Source\PSoC4/CapSense_1.c ****         const uint8 *index;
1016:.\Generated_Source\PSoC4/CapSense_1.c **** 
1017:.\Generated_Source\PSoC4/CapSense_1.c ****         /* Read sensor type: single or complex */
1018:.\Generated_Source\PSoC4/CapSense_1.c ****         uint8 snsType = CapSense_1_portTable[slot];
1019:.\Generated_Source\PSoC4/CapSense_1.c ****         
1020:.\Generated_Source\PSoC4/CapSense_1.c ****         /* Check if sensor is complex */
1021:.\Generated_Source\PSoC4/CapSense_1.c ****         if ((snsType & CapSense_1_COMPLEX_SS_FLAG) == 0u)
1022:.\Generated_Source\PSoC4/CapSense_1.c ****         {
1023:.\Generated_Source\PSoC4/CapSense_1.c ****             /* Disable sensor (single) */
1024:.\Generated_Source\PSoC4/CapSense_1.c ****             CapSense_1_DisableSensor(slot);
1025:.\Generated_Source\PSoC4/CapSense_1.c ****         }
1026:.\Generated_Source\PSoC4/CapSense_1.c ****         else
1027:.\Generated_Source\PSoC4/CapSense_1.c ****         {
1028:.\Generated_Source\PSoC4/CapSense_1.c ****             /* Disable complex sensor */
1029:.\Generated_Source\PSoC4/CapSense_1.c ****             snsType &= ~CapSense_1_COMPLEX_SS_FLAG;
1030:.\Generated_Source\PSoC4/CapSense_1.c ****             index = &CapSense_1_indexTable[snsType];
1031:.\Generated_Source\PSoC4/CapSense_1.c ****             snsNumber = CapSense_1_maskTable[slot];
1032:.\Generated_Source\PSoC4/CapSense_1.c ****                         
1033:.\Generated_Source\PSoC4/CapSense_1.c ****             for (j=0; j < snsNumber; j++)
1034:.\Generated_Source\PSoC4/CapSense_1.c ****             {
1035:.\Generated_Source\PSoC4/CapSense_1.c ****                 CapSense_1_DisableSensor(index[j]);
1036:.\Generated_Source\PSoC4/CapSense_1.c ****             }
1037:.\Generated_Source\PSoC4/CapSense_1.c ****         } 
1038:.\Generated_Source\PSoC4/CapSense_1.c ****     }
1039:.\Generated_Source\PSoC4/CapSense_1.c **** #endif  /* CapSense_1_IS_COMPLEX_SCANSLOTS */
1040:.\Generated_Source\PSoC4/CapSense_1.c **** 
1041:.\Generated_Source\PSoC4/CapSense_1.c **** 
1042:.\Generated_Source\PSoC4/CapSense_1.c **** /*******************************************************************************
1043:.\Generated_Source\PSoC4/CapSense_1.c **** * Function Name: CapSense_1_EnableSensor
1044:.\Generated_Source\PSoC4/CapSense_1.c **** ********************************************************************************
1045:.\Generated_Source\PSoC4/CapSense_1.c **** *
1046:.\Generated_Source\PSoC4/CapSense_1.c **** * Summary:
1047:.\Generated_Source\PSoC4/CapSense_1.c **** *  Configures the selected sensor to measure during the next measurement cycle.
1048:.\Generated_Source\PSoC4/CapSense_1.c **** *  The corresponding pins are set to Analog High-Z mode and connected to the
1049:.\Generated_Source\PSoC4/CapSense_1.c **** *  Analog Mux Bus. This also enables the comparator function.
1050:.\Generated_Source\PSoC4/CapSense_1.c **** *
1051:.\Generated_Source\PSoC4/CapSense_1.c **** * Parameters:
1052:.\Generated_Source\PSoC4/CapSense_1.c **** *  sensor:  Sensor number.
1053:.\Generated_Source\PSoC4/CapSense_1.c **** *
1054:.\Generated_Source\PSoC4/CapSense_1.c **** * Return:
1055:.\Generated_Source\PSoC4/CapSense_1.c **** *  None
ARM GAS  C:\Users\danielpi\AppData\Local\Temp\cccuTXvj.s 			page 26


1056:.\Generated_Source\PSoC4/CapSense_1.c **** *
1057:.\Generated_Source\PSoC4/CapSense_1.c **** * Global Variables:
1058:.\Generated_Source\PSoC4/CapSense_1.c **** *  CapSense_1_portTable[] - used to store the port number that pin 
1059:.\Generated_Source\PSoC4/CapSense_1.c **** *  belongs to for each sensor.
1060:.\Generated_Source\PSoC4/CapSense_1.c **** *  CapSense_1_pinShiftTbl[] - used to store position of pin that 
1061:.\Generated_Source\PSoC4/CapSense_1.c **** *  configured as sensor in port. 
1062:.\Generated_Source\PSoC4/CapSense_1.c **** *  CapSense_1_prtSelTbl[] - Contains pointers to the HSIOM 
1063:.\Generated_Source\PSoC4/CapSense_1.c **** *  registers for each port. 
1064:.\Generated_Source\PSoC4/CapSense_1.c **** *  CapSense_1_PrtCfgTb[] - Contains pointers to the port config 
1065:.\Generated_Source\PSoC4/CapSense_1.c **** *  registers for each port.
1066:.\Generated_Source\PSoC4/CapSense_1.c **** *
1067:.\Generated_Source\PSoC4/CapSense_1.c **** * Side Effects: 
1068:.\Generated_Source\PSoC4/CapSense_1.c **** *  None
1069:.\Generated_Source\PSoC4/CapSense_1.c **** *
1070:.\Generated_Source\PSoC4/CapSense_1.c **** *******************************************************************************/
1071:.\Generated_Source\PSoC4/CapSense_1.c **** void CapSense_1_EnableSensor(uint32 sensor)
1072:.\Generated_Source\PSoC4/CapSense_1.c **** {
 371              		.loc 1 1072 0
 372              		.cfi_startproc
 373              	.LVL36:
 374 0000 F8B5     		push	{r3, r4, r5, r6, r7, lr}
 375              		.cfi_def_cfa_offset 24
 376              		.cfi_offset 3, -24
 377              		.cfi_offset 4, -20
 378              		.cfi_offset 5, -16
 379              		.cfi_offset 6, -12
 380              		.cfi_offset 7, -8
 381              		.cfi_offset 14, -4
1073:.\Generated_Source\PSoC4/CapSense_1.c **** 	uint8  pinModeShift;
1074:.\Generated_Source\PSoC4/CapSense_1.c ****     uint8  pinHSIOMShift;
1075:.\Generated_Source\PSoC4/CapSense_1.c **** 	uint8 interruptState;
1076:.\Generated_Source\PSoC4/CapSense_1.c **** 	uint32 newRegisterValue;
1077:.\Generated_Source\PSoC4/CapSense_1.c ****     uint32 port;
1078:.\Generated_Source\PSoC4/CapSense_1.c **** 	
1079:.\Generated_Source\PSoC4/CapSense_1.c **** 	port = (uint32) CapSense_1_portTable[sensor];
 382              		.loc 1 1079 0
 383 0002 104C     		ldr	r4, .L26
 384 0004 275C     		ldrb	r7, [r4, r0]
 385              	.LVL37:
1080:.\Generated_Source\PSoC4/CapSense_1.c ****     pinModeShift = CapSense_1_pinShiftTbl[sensor]  * CapSense_1_PC_PIN_CFG_SIZE;
 386              		.loc 1 1080 0
 387 0006 2018     		add	r0, r4, r0
 388              	.LVL38:
 389 0008 037A     		ldrb	r3, [r0, #8]
 390 000a 5E00     		lsl	r6, r3, #1
 391 000c 9E19     		add	r6, r3, r6
 392 000e F6B2     		uxtb	r6, r6
 393              	.LVL39:
1081:.\Generated_Source\PSoC4/CapSense_1.c ****     pinHSIOMShift = CapSense_1_pinShiftTbl[sensor] * CapSense_1_HSIOM_PIN_CFG_SIZE;
 394              		.loc 1 1081 0
 395 0010 9B00     		lsl	r3, r3, #2
 396 0012 DDB2     		uxtb	r5, r3
 397              	.LVL40:
1082:.\Generated_Source\PSoC4/CapSense_1.c **** 
1083:.\Generated_Source\PSoC4/CapSense_1.c **** 	interruptState = CyEnterCriticalSection();
 398              		.loc 1 1083 0
 399 0014 FFF7FEFF 		bl	CyEnterCriticalSection
ARM GAS  C:\Users\danielpi\AppData\Local\Temp\cccuTXvj.s 			page 27


 400              	.LVL41:
1084:.\Generated_Source\PSoC4/CapSense_1.c **** 	
1085:.\Generated_Source\PSoC4/CapSense_1.c **** 	newRegisterValue = *CapSense_1_prtSelTbl[port];
 401              		.loc 1 1085 0
 402 0018 BF00     		lsl	r7, r7, #2
 403              	.LVL42:
 404 001a E419     		add	r4, r4, r7
 405              	.LVL43:
 406 001c 2269     		ldr	r2, [r4, #16]
 407 001e 1168     		ldr	r1, [r2]
 408              	.LVL44:
1086:.\Generated_Source\PSoC4/CapSense_1.c **** 	newRegisterValue &= ~(CapSense_1_CSD_HSIOM_MASK << pinHSIOMShift);
 409              		.loc 1 1086 0
 410 0020 0F23     		mov	r3, #15
 411 0022 AB40     		lsl	r3, r3, r5
 412 0024 9943     		bic	r1, r3
 413              	.LVL45:
1087:.\Generated_Source\PSoC4/CapSense_1.c **** 	newRegisterValue |= (uint32)((uint32)CapSense_1_CSD_SENSE_PORT_MODE << pinHSIOMShift);
 414              		.loc 1 1087 0
 415 0026 0423     		mov	r3, #4
 416 0028 AB40     		lsl	r3, r3, r5
 417 002a 1D1C     		mov	r5, r3
 418              	.LVL46:
 419 002c 0D43     		orr	r5, r1
 420              	.LVL47:
1088:.\Generated_Source\PSoC4/CapSense_1.c ****    
1089:.\Generated_Source\PSoC4/CapSense_1.c ****     *CapSense_1_prtCfgTbl[port] &= (uint32)~((uint32)CapSense_1_CSD_PIN_MODE_MASK << pinModeShift);
 421              		.loc 1 1089 0
 422 002e A16A     		ldr	r1, [r4, #40]
 423 0030 0B68     		ldr	r3, [r1]
 424 0032 0724     		mov	r4, #7
 425 0034 B440     		lsl	r4, r4, r6
 426 0036 A343     		bic	r3, r4
 427 0038 0B60     		str	r3, [r1]
1090:.\Generated_Source\PSoC4/CapSense_1.c ****     *CapSense_1_prtSelTbl[port] = newRegisterValue;
 428              		.loc 1 1090 0
 429 003a 1560     		str	r5, [r2]
1091:.\Generated_Source\PSoC4/CapSense_1.c **** 	
1092:.\Generated_Source\PSoC4/CapSense_1.c **** 	CyExitCriticalSection(interruptState);
 430              		.loc 1 1092 0
 431 003c FFF7FEFF 		bl	CyExitCriticalSection
 432              	.LVL48:
1093:.\Generated_Source\PSoC4/CapSense_1.c **** }
 433              		.loc 1 1093 0
 434              		@ sp needed
 435              	.LVL49:
 436              	.LVL50:
 437 0040 F8BD     		pop	{r3, r4, r5, r6, r7, pc}
 438              	.L27:
 439 0042 C046     		.align	2
 440              	.L26:
 441 0044 00000000 		.word	.LANCHOR2
 442              		.cfi_endproc
 443              	.LFE50:
 444              		.size	CapSense_1_EnableSensor, .-CapSense_1_EnableSensor
 445              		.section	.text.CapSense_1_DisableSensor,"ax",%progbits
 446              		.align	2
ARM GAS  C:\Users\danielpi\AppData\Local\Temp\cccuTXvj.s 			page 28


 447              		.global	CapSense_1_DisableSensor
 448              		.code	16
 449              		.thumb_func
 450              		.type	CapSense_1_DisableSensor, %function
 451              	CapSense_1_DisableSensor:
 452              	.LFB51:
1094:.\Generated_Source\PSoC4/CapSense_1.c **** 
1095:.\Generated_Source\PSoC4/CapSense_1.c **** 
1096:.\Generated_Source\PSoC4/CapSense_1.c **** /*******************************************************************************
1097:.\Generated_Source\PSoC4/CapSense_1.c **** * Function Name: CapSense_1_DisableSensor
1098:.\Generated_Source\PSoC4/CapSense_1.c **** ********************************************************************************
1099:.\Generated_Source\PSoC4/CapSense_1.c **** *
1100:.\Generated_Source\PSoC4/CapSense_1.c **** * Summary:
1101:.\Generated_Source\PSoC4/CapSense_1.c **** *  Disables the selected sensor. The corresponding pin is disconnected from the
1102:.\Generated_Source\PSoC4/CapSense_1.c **** *  Analog Mux Bus and connected to GND, High_Z or Shield electrode.
1103:.\Generated_Source\PSoC4/CapSense_1.c **** *
1104:.\Generated_Source\PSoC4/CapSense_1.c **** * Parameters:
1105:.\Generated_Source\PSoC4/CapSense_1.c **** *  sensor:  Sensor number
1106:.\Generated_Source\PSoC4/CapSense_1.c **** *
1107:.\Generated_Source\PSoC4/CapSense_1.c **** * Return:
1108:.\Generated_Source\PSoC4/CapSense_1.c **** *  None
1109:.\Generated_Source\PSoC4/CapSense_1.c **** *
1110:.\Generated_Source\PSoC4/CapSense_1.c **** * Global Variables:
1111:.\Generated_Source\PSoC4/CapSense_1.c **** *  CapSense_1_portTable[] - used to store the port number that pin 
1112:.\Generated_Source\PSoC4/CapSense_1.c **** *  belongs to for each sensor.
1113:.\Generated_Source\PSoC4/CapSense_1.c **** *  CapSense_1_pinShiftTbl[] - used to store position of pin that 
1114:.\Generated_Source\PSoC4/CapSense_1.c **** *  configured as a sensor in the port. 
1115:.\Generated_Source\PSoC4/CapSense_1.c **** *  CapSense_1_prtSelTbl[] - Contains pointers to the HSIOM 
1116:.\Generated_Source\PSoC4/CapSense_1.c **** *  registers for each port. 
1117:.\Generated_Source\PSoC4/CapSense_1.c **** *  CapSense_1_PrtCfgTb[] - Contains pointers to the port config 
1118:.\Generated_Source\PSoC4/CapSense_1.c **** *  registers for each port.
1119:.\Generated_Source\PSoC4/CapSense_1.c **** *
1120:.\Generated_Source\PSoC4/CapSense_1.c **** * Side Effects: 
1121:.\Generated_Source\PSoC4/CapSense_1.c **** *  None
1122:.\Generated_Source\PSoC4/CapSense_1.c **** *
1123:.\Generated_Source\PSoC4/CapSense_1.c **** *******************************************************************************/
1124:.\Generated_Source\PSoC4/CapSense_1.c **** void CapSense_1_DisableSensor(uint32 sensor)
1125:.\Generated_Source\PSoC4/CapSense_1.c **** {
 453              		.loc 1 1125 0
 454              		.cfi_startproc
 455              	.LVL51:
 456 0000 F8B5     		push	{r3, r4, r5, r6, r7, lr}
 457              		.cfi_def_cfa_offset 24
 458              		.cfi_offset 3, -24
 459              		.cfi_offset 4, -20
 460              		.cfi_offset 5, -16
 461              		.cfi_offset 6, -12
 462              		.cfi_offset 7, -8
 463              		.cfi_offset 14, -4
1126:.\Generated_Source\PSoC4/CapSense_1.c ****     uint8 interruptState;
1127:.\Generated_Source\PSoC4/CapSense_1.c **** 	uint32 newRegisterValue;
1128:.\Generated_Source\PSoC4/CapSense_1.c **** 	
1129:.\Generated_Source\PSoC4/CapSense_1.c ****     uint32 port = (uint32) CapSense_1_portTable[sensor];
 464              		.loc 1 1129 0
 465 0002 194B     		ldr	r3, .L33
 466 0004 1D5C     		ldrb	r5, [r3, r0]
 467              	.LVL52:
ARM GAS  C:\Users\danielpi\AppData\Local\Temp\cccuTXvj.s 			page 29


1130:.\Generated_Source\PSoC4/CapSense_1.c ****     uint8  pinHSIOMShift = CapSense_1_pinShiftTbl[sensor] * CapSense_1_HSIOM_PIN_CFG_SIZE;
 468              		.loc 1 1130 0
 469 0006 1A18     		add	r2, r3, r0
 470 0008 147A     		ldrb	r4, [r2, #8]
 471 000a A700     		lsl	r7, r4, #2
 472 000c FFB2     		uxtb	r7, r7
 473              	.LVL53:
1131:.\Generated_Source\PSoC4/CapSense_1.c ****     uint8  pinModeShift = CapSense_1_pinShiftTbl[sensor]  * CapSense_1_PC_PIN_CFG_SIZE;
 474              		.loc 1 1131 0
 475 000e 6600     		lsl	r6, r4, #1
 476 0010 A619     		add	r6, r4, r6
 477 0012 F6B2     		uxtb	r6, r6
 478              	.LVL54:
1132:.\Generated_Source\PSoC4/CapSense_1.c **** 
1133:.\Generated_Source\PSoC4/CapSense_1.c **** 	uint32 inactiveConnect = CapSense_1_SNS_HIZANALOG_CONNECT;
1134:.\Generated_Source\PSoC4/CapSense_1.c **** 	uint32 sensorState = CapSense_1_unscannedSnsDriveMode[sensor];
 479              		.loc 1 1134 0
 480 0014 154A     		ldr	r2, .L33+4
 481 0016 125C     		ldrb	r2, [r2, r0]
 482              	.LVL55:
1135:.\Generated_Source\PSoC4/CapSense_1.c **** 
1136:.\Generated_Source\PSoC4/CapSense_1.c ****     *CapSense_1_prtSelTbl[port] &= ~(CapSense_1_CSD_HSIOM_MASK << pinHSIOMShift);
 483              		.loc 1 1136 0
 484 0018 A900     		lsl	r1, r5, #2
 485 001a 5B18     		add	r3, r3, r1
 486 001c 1B69     		ldr	r3, [r3, #16]
 487 001e 1968     		ldr	r1, [r3]
 488 0020 0F20     		mov	r0, #15
 489              	.LVL56:
 490 0022 B840     		lsl	r0, r0, r7
 491 0024 8143     		bic	r1, r0
 492 0026 1960     		str	r1, [r3]
1137:.\Generated_Source\PSoC4/CapSense_1.c **** 
1138:.\Generated_Source\PSoC4/CapSense_1.c **** 	#if(CapSense_1_IS_SHIELD_ENABLE != 0)
1139:.\Generated_Source\PSoC4/CapSense_1.c **** 	if(sensorState != (uint32)CapSense_1__SHIELD)
1140:.\Generated_Source\PSoC4/CapSense_1.c **** 	{
1141:.\Generated_Source\PSoC4/CapSense_1.c **** 	#else
1142:.\Generated_Source\PSoC4/CapSense_1.c **** 	    /* Connected to Ground if shield is disabled */
1143:.\Generated_Source\PSoC4/CapSense_1.c **** 	    if(sensorState == (uint32)CapSense_1__SHIELD)
 493              		.loc 1 1143 0
 494 0028 022A     		cmp	r2, #2
 495 002a 00D1     		bne	.L29
1144:.\Generated_Source\PSoC4/CapSense_1.c **** 		{
1145:.\Generated_Source\PSoC4/CapSense_1.c **** 			sensorState = (uint32)CapSense_1__GROUND;
 496              		.loc 1 1145 0
 497 002c 0022     		mov	r2, #0
 498              	.LVL57:
 499              	.L29:
1146:.\Generated_Source\PSoC4/CapSense_1.c **** 		}
1147:.\Generated_Source\PSoC4/CapSense_1.c **** 	#endif /* (CapSense_1_IS_SHIELD_ENABLE) */
1148:.\Generated_Source\PSoC4/CapSense_1.c **** 	    if(sensorState != (uint32)CapSense_1__HIZ_ANALOG)
 500              		.loc 1 1148 0
 501 002e 012A     		cmp	r2, #1
 502 0030 01D1     		bne	.L32
1133:.\Generated_Source\PSoC4/CapSense_1.c **** 	uint32 inactiveConnect = CapSense_1_SNS_HIZANALOG_CONNECT;
 503              		.loc 1 1133 0
 504 0032 0027     		mov	r7, #0
ARM GAS  C:\Users\danielpi\AppData\Local\Temp\cccuTXvj.s 			page 30


 505              	.LVL58:
 506 0034 00E0     		b	.L30
 507              	.L32:
1149:.\Generated_Source\PSoC4/CapSense_1.c **** 		{   
1150:.\Generated_Source\PSoC4/CapSense_1.c **** 		    /* Connected to Ground */
1151:.\Generated_Source\PSoC4/CapSense_1.c **** 		    inactiveConnect = (uint32)CapSense_1_SNS_GROUND_CONNECT;
 508              		.loc 1 1151 0
 509 0036 0627     		mov	r7, #6
 510              	.L30:
 511              	.LVL59:
1152:.\Generated_Source\PSoC4/CapSense_1.c **** 		}
1153:.\Generated_Source\PSoC4/CapSense_1.c **** 		
1154:.\Generated_Source\PSoC4/CapSense_1.c ****         interruptState = CyEnterCriticalSection();
 512              		.loc 1 1154 0
 513 0038 FFF7FEFF 		bl	CyEnterCriticalSection
 514              	.LVL60:
1155:.\Generated_Source\PSoC4/CapSense_1.c **** 
1156:.\Generated_Source\PSoC4/CapSense_1.c ****         /* Set drive mode */
1157:.\Generated_Source\PSoC4/CapSense_1.c ****     	newRegisterValue = *CapSense_1_prtCfgTbl[port];
 515              		.loc 1 1157 0
 516 003c AD00     		lsl	r5, r5, #2
 517              	.LVL61:
 518 003e 0A4B     		ldr	r3, .L33
 519              	.LVL62:
 520 0040 5D19     		add	r5, r3, r5
 521 0042 AB6A     		ldr	r3, [r5, #40]
 522              	.LVL63:
 523 0044 1A68     		ldr	r2, [r3]
 524              	.LVL64:
1158:.\Generated_Source\PSoC4/CapSense_1.c ****     	newRegisterValue &= ~(CapSense_1_CSD_PIN_MODE_MASK << pinModeShift);
 525              		.loc 1 1158 0
 526 0046 0721     		mov	r1, #7
 527 0048 B140     		lsl	r1, r1, r6
 528 004a 8A43     		bic	r2, r1
 529              	.LVL65:
1159:.\Generated_Source\PSoC4/CapSense_1.c ****     	newRegisterValue |=  (uint32)(inactiveConnect << pinModeShift);
 530              		.loc 1 1159 0
 531 004c B740     		lsl	r7, r7, r6
 532              	.LVL66:
 533 004e 3E1C     		mov	r6, r7
 534              	.LVL67:
 535 0050 1643     		orr	r6, r2
 536              	.LVL68:
1160:.\Generated_Source\PSoC4/CapSense_1.c ****         *CapSense_1_prtCfgTbl[port] =  newRegisterValue;
 537              		.loc 1 1160 0
 538 0052 1E60     		str	r6, [r3]
1161:.\Generated_Source\PSoC4/CapSense_1.c ****         
1162:.\Generated_Source\PSoC4/CapSense_1.c ****         CyExitCriticalSection(interruptState);
 539              		.loc 1 1162 0
 540 0054 FFF7FEFF 		bl	CyExitCriticalSection
 541              	.LVL69:
1163:.\Generated_Source\PSoC4/CapSense_1.c **** 
1164:.\Generated_Source\PSoC4/CapSense_1.c ****     	*CapSense_1_prtDRTbl[port]  &=  (uint32)~(uint32)((uint32)1u << CapSense_1_pinShiftTbl[sensor]
 542              		.loc 1 1164 0
 543 0058 2B6C     		ldr	r3, [r5, #64]
 544 005a 1A68     		ldr	r2, [r3]
 545 005c 0121     		mov	r1, #1
ARM GAS  C:\Users\danielpi\AppData\Local\Temp\cccuTXvj.s 			page 31


 546 005e A140     		lsl	r1, r1, r4
 547 0060 8A43     		bic	r2, r1
 548 0062 1A60     		str	r2, [r3]
1165:.\Generated_Source\PSoC4/CapSense_1.c **** 	#if(CapSense_1_IS_SHIELD_ENABLE != 0)
1166:.\Generated_Source\PSoC4/CapSense_1.c **** 	}
1167:.\Generated_Source\PSoC4/CapSense_1.c **** 	else
1168:.\Generated_Source\PSoC4/CapSense_1.c **** 	{
1169:.\Generated_Source\PSoC4/CapSense_1.c **** 		/* Connect to Shield */
1170:.\Generated_Source\PSoC4/CapSense_1.c **** 		*CapSense_1_prtSelTbl[port] |= (CapSense_1_CSD_SHIELD_PORT_MODE << pinHSIOMShift);
1171:.\Generated_Source\PSoC4/CapSense_1.c **** 	}
1172:.\Generated_Source\PSoC4/CapSense_1.c **** 	#endif /* (CapSense_1_IS_SHIELD_ENABLE) */
1173:.\Generated_Source\PSoC4/CapSense_1.c **** }
 549              		.loc 1 1173 0
 550              		@ sp needed
 551              	.LVL70:
 552              	.LVL71:
 553 0064 F8BD     		pop	{r3, r4, r5, r6, r7, pc}
 554              	.L34:
 555 0066 C046     		.align	2
 556              	.L33:
 557 0068 00000000 		.word	.LANCHOR2
 558 006c 00000000 		.word	CapSense_1_unscannedSnsDriveMode
 559              		.cfi_endproc
 560              	.LFE51:
 561              		.size	CapSense_1_DisableSensor, .-CapSense_1_DisableSensor
 562              		.section	.text.CapSense_1_ClearSensors,"ax",%progbits
 563              		.align	2
 564              		.global	CapSense_1_ClearSensors
 565              		.code	16
 566              		.thumb_func
 567              		.type	CapSense_1_ClearSensors, %function
 568              	CapSense_1_ClearSensors:
 569              	.LFB49:
 914:.\Generated_Source\PSoC4/CapSense_1.c **** {
 570              		.loc 1 914 0
 571              		.cfi_startproc
 572 0000 10B5     		push	{r4, lr}
 573              		.cfi_def_cfa_offset 8
 574              		.cfi_offset 4, -8
 575              		.cfi_offset 14, -4
 576              	.LVL72:
 917:.\Generated_Source\PSoC4/CapSense_1.c ****     for (snsIndex = 0u; snsIndex < CapSense_1_TOTAL_SENSOR_COUNT; snsIndex++)
 577              		.loc 1 917 0
 578 0002 0024     		mov	r4, #0
 579 0004 03E0     		b	.L36
 580              	.LVL73:
 581              	.L37:
 919:.\Generated_Source\PSoC4/CapSense_1.c ****         CapSense_1_DisableScanSlot(snsIndex);
 582              		.loc 1 919 0 discriminator 2
 583 0006 201C     		mov	r0, r4
 584 0008 FFF7FEFF 		bl	CapSense_1_DisableSensor
 585              	.LVL74:
 917:.\Generated_Source\PSoC4/CapSense_1.c ****     for (snsIndex = 0u; snsIndex < CapSense_1_TOTAL_SENSOR_COUNT; snsIndex++)
 586              		.loc 1 917 0 discriminator 2
 587 000c 0134     		add	r4, r4, #1
 588              	.LVL75:
 589              	.L36:
ARM GAS  C:\Users\danielpi\AppData\Local\Temp\cccuTXvj.s 			page 32


 917:.\Generated_Source\PSoC4/CapSense_1.c ****     for (snsIndex = 0u; snsIndex < CapSense_1_TOTAL_SENSOR_COUNT; snsIndex++)
 590              		.loc 1 917 0 is_stmt 0 discriminator 1
 591 000e 042C     		cmp	r4, #4
 592 0010 F9D9     		bls	.L37
 921:.\Generated_Source\PSoC4/CapSense_1.c **** }
 593              		.loc 1 921 0 is_stmt 1
 594              		@ sp needed
 595              	.LVL76:
 596 0012 10BD     		pop	{r4, pc}
 597              		.cfi_endproc
 598              	.LFE49:
 599              		.size	CapSense_1_ClearSensors, .-CapSense_1_ClearSensors
 600              		.section	.text.CapSense_1_SetPinDriveMode,"ax",%progbits
 601              		.align	2
 602              		.global	CapSense_1_SetPinDriveMode
 603              		.code	16
 604              		.thumb_func
 605              		.type	CapSense_1_SetPinDriveMode, %function
 606              	CapSense_1_SetPinDriveMode:
 607              	.LFB54:
1174:.\Generated_Source\PSoC4/CapSense_1.c **** 
1175:.\Generated_Source\PSoC4/CapSense_1.c **** 
1176:.\Generated_Source\PSoC4/CapSense_1.c **** /*******************************************************************************
1177:.\Generated_Source\PSoC4/CapSense_1.c **** * Function Name: CapSense_1_SetDriveModeAllPins
1178:.\Generated_Source\PSoC4/CapSense_1.c **** ********************************************************************************
1179:.\Generated_Source\PSoC4/CapSense_1.c **** *
1180:.\Generated_Source\PSoC4/CapSense_1.c **** * Summary:
1181:.\Generated_Source\PSoC4/CapSense_1.c **** * This API sets the drive mode of port pins used by the CapSense
1182:.\Generated_Source\PSoC4/CapSense_1.c **** * component (sensors, guard, shield, shield tank and Cmod) to drive the 
1183:.\Generated_Source\PSoC4/CapSense_1.c **** * mode specified by the argument.
1184:.\Generated_Source\PSoC4/CapSense_1.c **** *
1185:.\Generated_Source\PSoC4/CapSense_1.c **** * Parameters:
1186:.\Generated_Source\PSoC4/CapSense_1.c **** *  driveMode:  Drive mode definition.
1187:.\Generated_Source\PSoC4/CapSense_1.c **** *
1188:.\Generated_Source\PSoC4/CapSense_1.c **** * Return:
1189:.\Generated_Source\PSoC4/CapSense_1.c **** *  None
1190:.\Generated_Source\PSoC4/CapSense_1.c **** *
1191:.\Generated_Source\PSoC4/CapSense_1.c **** * Global Variables:
1192:.\Generated_Source\PSoC4/CapSense_1.c **** *  CapSense_1_portTable[] - used to store the port number that pin 
1193:.\Generated_Source\PSoC4/CapSense_1.c **** *  belongs to for each sensor.
1194:.\Generated_Source\PSoC4/CapSense_1.c **** *  CapSense_1_pinShiftTbl[] - used to store position of pin that 
1195:.\Generated_Source\PSoC4/CapSense_1.c **** *  configured as a sensor in the port. 
1196:.\Generated_Source\PSoC4/CapSense_1.c **** *
1197:.\Generated_Source\PSoC4/CapSense_1.c **** * Side Effects: 
1198:.\Generated_Source\PSoC4/CapSense_1.c **** *  This API shall be called only after CapSense component is stopped.
1199:.\Generated_Source\PSoC4/CapSense_1.c **** *
1200:.\Generated_Source\PSoC4/CapSense_1.c **** *******************************************************************************/
1201:.\Generated_Source\PSoC4/CapSense_1.c **** void CapSense_1_SetDriveModeAllPins(uint32 driveMode)
1202:.\Generated_Source\PSoC4/CapSense_1.c **** {
1203:.\Generated_Source\PSoC4/CapSense_1.c **** 	uint8 curSensor;
1204:.\Generated_Source\PSoC4/CapSense_1.c **** 	#if (CapSense_1_IS_COMPLEX_SCANSLOTS)
1205:.\Generated_Source\PSoC4/CapSense_1.c **** 		uint8 snsNumber;
1206:.\Generated_Source\PSoC4/CapSense_1.c **** 		uint8 snsType;
1207:.\Generated_Source\PSoC4/CapSense_1.c **** 	#endif  /* CapSense_1_IS_COMPLEX_SCANSLOTS */
1208:.\Generated_Source\PSoC4/CapSense_1.c **** 	uint32 prtNumberTmp;
1209:.\Generated_Source\PSoC4/CapSense_1.c **** 	uint32 pinNumberTmp;
1210:.\Generated_Source\PSoC4/CapSense_1.c **** 
ARM GAS  C:\Users\danielpi\AppData\Local\Temp\cccuTXvj.s 			page 33


1211:.\Generated_Source\PSoC4/CapSense_1.c **** 	for(curSensor = 0u; curSensor < CapSense_1_TOTAL_SENSOR_COUNT; curSensor++)
1212:.\Generated_Source\PSoC4/CapSense_1.c **** 	{	
1213:.\Generated_Source\PSoC4/CapSense_1.c **** 		#if (CapSense_1_IS_COMPLEX_SCANSLOTS)
1214:.\Generated_Source\PSoC4/CapSense_1.c **** 			/* Read sensor type: single or complex */
1215:.\Generated_Source\PSoC4/CapSense_1.c **** 			snsType = CapSense_1_portTable[curSensor];
1216:.\Generated_Source\PSoC4/CapSense_1.c **** 		
1217:.\Generated_Source\PSoC4/CapSense_1.c **** 			/* Check if sensor is complex */
1218:.\Generated_Source\PSoC4/CapSense_1.c **** 			if ((snsType & CapSense_1_COMPLEX_SS_FLAG) == 0u)
1219:.\Generated_Source\PSoC4/CapSense_1.c **** 			{
1220:.\Generated_Source\PSoC4/CapSense_1.c **** 				/* The sensor is not complex */
1221:.\Generated_Source\PSoC4/CapSense_1.c **** 				snsNumber = curSensor;
1222:.\Generated_Source\PSoC4/CapSense_1.c **** 			}
1223:.\Generated_Source\PSoC4/CapSense_1.c **** 			else
1224:.\Generated_Source\PSoC4/CapSense_1.c **** 			{
1225:.\Generated_Source\PSoC4/CapSense_1.c **** 				/* Get dedicated sensor ID of the complex sensor */
1226:.\Generated_Source\PSoC4/CapSense_1.c **** 				snsType &= ~CapSense_1_COMPLEX_SS_FLAG;
1227:.\Generated_Source\PSoC4/CapSense_1.c **** 				snsNumber = CapSense_1_indexTable[snsType];
1228:.\Generated_Source\PSoC4/CapSense_1.c **** 			}
1229:.\Generated_Source\PSoC4/CapSense_1.c **** 
1230:.\Generated_Source\PSoC4/CapSense_1.c **** 			prtNumberTmp = CapSense_1_portTable[snsNumber];
1231:.\Generated_Source\PSoC4/CapSense_1.c **** 			pinNumberTmp = CapSense_1_pinShiftTbl[snsNumber];
1232:.\Generated_Source\PSoC4/CapSense_1.c **** 		#else
1233:.\Generated_Source\PSoC4/CapSense_1.c **** 			prtNumberTmp = CapSense_1_portTable[curSensor];
1234:.\Generated_Source\PSoC4/CapSense_1.c **** 			pinNumberTmp = CapSense_1_pinShiftTbl[curSensor];
1235:.\Generated_Source\PSoC4/CapSense_1.c **** 		#endif  /* CapSense_1_IS_COMPLEX_SCANSLOTS */
1236:.\Generated_Source\PSoC4/CapSense_1.c **** 	
1237:.\Generated_Source\PSoC4/CapSense_1.c **** 		CapSense_1_SetPinDriveMode(driveMode, pinNumberTmp, prtNumberTmp);
1238:.\Generated_Source\PSoC4/CapSense_1.c **** 	}
1239:.\Generated_Source\PSoC4/CapSense_1.c **** 	
1240:.\Generated_Source\PSoC4/CapSense_1.c **** 	CapSense_1_SetPinDriveMode(driveMode, (uint32)CapSense_1_CMOD_PIN_NUMBER, (uint32)CapSense_1_CMOD_
1241:.\Generated_Source\PSoC4/CapSense_1.c **** 	
1242:.\Generated_Source\PSoC4/CapSense_1.c **** 	#if(0u != CapSense_1_CSH_TANK_ENABLE)
1243:.\Generated_Source\PSoC4/CapSense_1.c **** 		CapSense_1_SetPinDriveMode(driveMode, (uint32)CapSense_1_CTANK_PIN_NUMBER, (uint32)CapSense_1_CTA
1244:.\Generated_Source\PSoC4/CapSense_1.c **** 	#endif /* (0u != CapSense_1_CSH_TANK_ENABLE) */	
1245:.\Generated_Source\PSoC4/CapSense_1.c **** 	
1246:.\Generated_Source\PSoC4/CapSense_1.c **** 	#if(0u != CapSense_1_IS_SHIELD_ENABLE)
1247:.\Generated_Source\PSoC4/CapSense_1.c **** 		CapSense_1_SetPinDriveMode(driveMode, (uint32)CapSense_1_SHIELD_PIN_NUMBER, (uint32)CapSense_1_SH
1248:.\Generated_Source\PSoC4/CapSense_1.c **** 	#endif /* (0u != CapSense_1_IS_SHIELD_ENABLE) */	
1249:.\Generated_Source\PSoC4/CapSense_1.c **** }
1250:.\Generated_Source\PSoC4/CapSense_1.c **** 
1251:.\Generated_Source\PSoC4/CapSense_1.c **** 
1252:.\Generated_Source\PSoC4/CapSense_1.c **** /*******************************************************************************
1253:.\Generated_Source\PSoC4/CapSense_1.c **** * Function Name: CapSense_1_RestoreDriveModeAllPins
1254:.\Generated_Source\PSoC4/CapSense_1.c **** ********************************************************************************
1255:.\Generated_Source\PSoC4/CapSense_1.c **** *
1256:.\Generated_Source\PSoC4/CapSense_1.c **** * Summary:
1257:.\Generated_Source\PSoC4/CapSense_1.c **** *  This API restores the drive for all the CapSense port pins to the original
1258:.\Generated_Source\PSoC4/CapSense_1.c **** *  state.
1259:.\Generated_Source\PSoC4/CapSense_1.c **** *
1260:.\Generated_Source\PSoC4/CapSense_1.c **** * Parameters:
1261:.\Generated_Source\PSoC4/CapSense_1.c **** *  None
1262:.\Generated_Source\PSoC4/CapSense_1.c **** *
1263:.\Generated_Source\PSoC4/CapSense_1.c **** * Return:
1264:.\Generated_Source\PSoC4/CapSense_1.c **** *  None
1265:.\Generated_Source\PSoC4/CapSense_1.c **** *
1266:.\Generated_Source\PSoC4/CapSense_1.c **** * Global Variables:
1267:.\Generated_Source\PSoC4/CapSense_1.c **** *  CapSense_1_prtSelTbl[] - Contains pointers to the HSIOM 
ARM GAS  C:\Users\danielpi\AppData\Local\Temp\cccuTXvj.s 			page 34


1268:.\Generated_Source\PSoC4/CapSense_1.c **** *  registers for each port. 
1269:.\Generated_Source\PSoC4/CapSense_1.c **** *
1270:.\Generated_Source\PSoC4/CapSense_1.c **** * Side Effects: 
1271:.\Generated_Source\PSoC4/CapSense_1.c **** *  This API is called only after the CapSense component is stopped.
1272:.\Generated_Source\PSoC4/CapSense_1.c **** *
1273:.\Generated_Source\PSoC4/CapSense_1.c **** *******************************************************************************/
1274:.\Generated_Source\PSoC4/CapSense_1.c **** void CapSense_1_RestoreDriveModeAllPins(void)
1275:.\Generated_Source\PSoC4/CapSense_1.c **** {
1276:.\Generated_Source\PSoC4/CapSense_1.c **** 	uint32 newRegisterValue;
1277:.\Generated_Source\PSoC4/CapSense_1.c **** 	
1278:.\Generated_Source\PSoC4/CapSense_1.c **** 	CapSense_1_SetDriveModeAllPins(CY_SYS_PINS_DM_ALG_HIZ);
1279:.\Generated_Source\PSoC4/CapSense_1.c **** 	
1280:.\Generated_Source\PSoC4/CapSense_1.c **** 	newRegisterValue = CapSense_1_CMOD_CONNECTION_REG; 
1281:.\Generated_Source\PSoC4/CapSense_1.c ****     newRegisterValue &= ~(CapSense_1_CSD_CMOD_CONNECTION_MASK);
1282:.\Generated_Source\PSoC4/CapSense_1.c ****     newRegisterValue |= CapSense_1_CSD_CMOD_TO_AMUXBUS_A;
1283:.\Generated_Source\PSoC4/CapSense_1.c ****     CapSense_1_CMOD_CONNECTION_REG = newRegisterValue;
1284:.\Generated_Source\PSoC4/CapSense_1.c **** 	
1285:.\Generated_Source\PSoC4/CapSense_1.c **** 	#if(0u != CapSense_1_CSH_TANK_ENABLE)
1286:.\Generated_Source\PSoC4/CapSense_1.c **** 		newRegisterValue = CapSense_1_CTANK_CONNECTION_REG;
1287:.\Generated_Source\PSoC4/CapSense_1.c ****         newRegisterValue &= ~(CapSense_1_CSD_CTANK_CONNECTION_MASK);
1288:.\Generated_Source\PSoC4/CapSense_1.c **** 		newRegisterValue |= CapSense_1_CSD_CTANK_TO_AMUXBUS_B;
1289:.\Generated_Source\PSoC4/CapSense_1.c ****         CapSense_1_CTANK_CONNECTION_REG = newRegisterValue;
1290:.\Generated_Source\PSoC4/CapSense_1.c **** 	#endif/* (0u != CapSense_1_CSH_TANK_ENABLE) */
1291:.\Generated_Source\PSoC4/CapSense_1.c **** 	
1292:.\Generated_Source\PSoC4/CapSense_1.c **** 	#if(0u != CapSense_1_IS_SHIELD_ENABLE)
1293:.\Generated_Source\PSoC4/CapSense_1.c **** 		newRegisterValue = *CapSense_1_prtSelTbl[CapSense_1_SHIELD_PORT_NUMBER];
1294:.\Generated_Source\PSoC4/CapSense_1.c ****         newRegisterValue &= ~(CapSense_1_CSD_HSIOM_MASK << ((uint32)CapSense_1_SHIELD_PIN_NUMBER * 
1295:.\Generated_Source\PSoC4/CapSense_1.c ****         newRegisterValue |= (CapSense_1_CSD_SHIELD_PORT_MODE << ((uint32)CapSense_1_SHIELD_PIN_NUMB
1296:.\Generated_Source\PSoC4/CapSense_1.c ****         *CapSense_1_prtSelTbl[CapSense_1_SHIELD_PORT_NUMBER] = newRegisterValue;
1297:.\Generated_Source\PSoC4/CapSense_1.c **** 	#endif /* (0u != CapSense_1_IS_SHIELD_ENABLE) */	
1298:.\Generated_Source\PSoC4/CapSense_1.c **** }
1299:.\Generated_Source\PSoC4/CapSense_1.c **** 
1300:.\Generated_Source\PSoC4/CapSense_1.c **** 
1301:.\Generated_Source\PSoC4/CapSense_1.c **** /*******************************************************************************
1302:.\Generated_Source\PSoC4/CapSense_1.c **** * Function Name: CapSense_1_SetPinDriveMode
1303:.\Generated_Source\PSoC4/CapSense_1.c **** ********************************************************************************
1304:.\Generated_Source\PSoC4/CapSense_1.c **** *
1305:.\Generated_Source\PSoC4/CapSense_1.c **** * Summary:
1306:.\Generated_Source\PSoC4/CapSense_1.c **** * This API sets the drive mode for the appropriate port/pin.
1307:.\Generated_Source\PSoC4/CapSense_1.c **** *
1308:.\Generated_Source\PSoC4/CapSense_1.c **** * Parameters:
1309:.\Generated_Source\PSoC4/CapSense_1.c **** *  driveMode:  Drive mode definition.
1310:.\Generated_Source\PSoC4/CapSense_1.c **** *  portNumber: contains port number (0, 1, 2).
1311:.\Generated_Source\PSoC4/CapSense_1.c **** *  pinNumber: contains pin number (0, 1, 2, ... , 7).
1312:.\Generated_Source\PSoC4/CapSense_1.c **** *
1313:.\Generated_Source\PSoC4/CapSense_1.c **** * Return:
1314:.\Generated_Source\PSoC4/CapSense_1.c **** *  None
1315:.\Generated_Source\PSoC4/CapSense_1.c **** *
1316:.\Generated_Source\PSoC4/CapSense_1.c **** * Global Variables:
1317:.\Generated_Source\PSoC4/CapSense_1.c **** *  CapSense_1_prtSelTbl[] - Contains pointers to the HSIOM 
1318:.\Generated_Source\PSoC4/CapSense_1.c **** *  registers for each port. 
1319:.\Generated_Source\PSoC4/CapSense_1.c **** *  CapSense_1_prtCfgTb[] - Contains pointers to the port config 
1320:.\Generated_Source\PSoC4/CapSense_1.c **** *  registers for each port.
1321:.\Generated_Source\PSoC4/CapSense_1.c **** *
1322:.\Generated_Source\PSoC4/CapSense_1.c **** * Side Effects: 
1323:.\Generated_Source\PSoC4/CapSense_1.c **** *  This API is called only after CapSense component is stopped.
1324:.\Generated_Source\PSoC4/CapSense_1.c **** *
ARM GAS  C:\Users\danielpi\AppData\Local\Temp\cccuTXvj.s 			page 35


1325:.\Generated_Source\PSoC4/CapSense_1.c **** *******************************************************************************/
1326:.\Generated_Source\PSoC4/CapSense_1.c **** void CapSense_1_SetPinDriveMode(uint32 driveMode, uint32 pinNumber, uint32 portNumber)
1327:.\Generated_Source\PSoC4/CapSense_1.c **** {	
 608              		.loc 1 1327 0
 609              		.cfi_startproc
 610              	.LVL77:
 611 0000 10B5     		push	{r4, lr}
 612              		.cfi_def_cfa_offset 8
 613              		.cfi_offset 4, -8
 614              		.cfi_offset 14, -4
1328:.\Generated_Source\PSoC4/CapSense_1.c **** 	uint32  pinModeShift;
1329:.\Generated_Source\PSoC4/CapSense_1.c **** 	uint32 newRegisterValue;
1330:.\Generated_Source\PSoC4/CapSense_1.c **** 	
1331:.\Generated_Source\PSoC4/CapSense_1.c **** 	pinModeShift  = pinNumber * CapSense_1_PC_PIN_CFG_SIZE;
 615              		.loc 1 1331 0
 616 0002 4B00     		lsl	r3, r1, #1
 617 0004 5918     		add	r1, r3, r1
 618              	.LVL78:
1332:.\Generated_Source\PSoC4/CapSense_1.c **** 	
1333:.\Generated_Source\PSoC4/CapSense_1.c **** 	newRegisterValue = *CapSense_1_prtCfgTbl[portNumber];
 619              		.loc 1 1333 0
 620 0006 9200     		lsl	r2, r2, #2
 621              	.LVL79:
 622 0008 054B     		ldr	r3, .L39
 623 000a 9A18     		add	r2, r3, r2
 624 000c 936A     		ldr	r3, [r2, #40]
 625 000e 1A68     		ldr	r2, [r3]
 626              	.LVL80:
1334:.\Generated_Source\PSoC4/CapSense_1.c **** 	newRegisterValue &= ~(CapSense_1_CSD_PIN_MODE_MASK << pinModeShift);
 627              		.loc 1 1334 0
 628 0010 0724     		mov	r4, #7
 629 0012 8C40     		lsl	r4, r4, r1
 630 0014 A243     		bic	r2, r4
 631              	.LVL81:
1335:.\Generated_Source\PSoC4/CapSense_1.c **** 	newRegisterValue |=  (uint32)((uint32)driveMode << pinModeShift);
 632              		.loc 1 1335 0
 633 0016 8840     		lsl	r0, r0, r1
 634              	.LVL82:
 635 0018 011C     		mov	r1, r0
 636              	.LVL83:
 637 001a 1143     		orr	r1, r2
 638              	.LVL84:
1336:.\Generated_Source\PSoC4/CapSense_1.c ****     *CapSense_1_prtCfgTbl[portNumber] =  newRegisterValue;
 639              		.loc 1 1336 0
 640 001c 1960     		str	r1, [r3]
1337:.\Generated_Source\PSoC4/CapSense_1.c **** }
 641              		.loc 1 1337 0
 642              		@ sp needed
 643 001e 10BD     		pop	{r4, pc}
 644              	.L40:
 645              		.align	2
 646              	.L39:
 647 0020 00000000 		.word	.LANCHOR2
 648              		.cfi_endproc
 649              	.LFE54:
 650              		.size	CapSense_1_SetPinDriveMode, .-CapSense_1_SetPinDriveMode
 651              		.section	.text.CapSense_1_SetDriveModeAllPins,"ax",%progbits
ARM GAS  C:\Users\danielpi\AppData\Local\Temp\cccuTXvj.s 			page 36


 652              		.align	2
 653              		.global	CapSense_1_SetDriveModeAllPins
 654              		.code	16
 655              		.thumb_func
 656              		.type	CapSense_1_SetDriveModeAllPins, %function
 657              	CapSense_1_SetDriveModeAllPins:
 658              	.LFB52:
1202:.\Generated_Source\PSoC4/CapSense_1.c **** {
 659              		.loc 1 1202 0
 660              		.cfi_startproc
 661              	.LVL85:
 662 0000 70B5     		push	{r4, r5, r6, lr}
 663              		.cfi_def_cfa_offset 16
 664              		.cfi_offset 4, -16
 665              		.cfi_offset 5, -12
 666              		.cfi_offset 6, -8
 667              		.cfi_offset 14, -4
 668 0002 061C     		mov	r6, r0
 669              	.LVL86:
1211:.\Generated_Source\PSoC4/CapSense_1.c **** 	for(curSensor = 0u; curSensor < CapSense_1_TOTAL_SENSOR_COUNT; curSensor++)
 670              		.loc 1 1211 0
 671 0004 0024     		mov	r4, #0
1233:.\Generated_Source\PSoC4/CapSense_1.c **** 			prtNumberTmp = CapSense_1_portTable[curSensor];
 672              		.loc 1 1233 0
 673 0006 094D     		ldr	r5, .L44
1211:.\Generated_Source\PSoC4/CapSense_1.c **** 	for(curSensor = 0u; curSensor < CapSense_1_TOTAL_SENSOR_COUNT; curSensor++)
 674              		.loc 1 1211 0
 675 0008 07E0     		b	.L42
 676              	.LVL87:
 677              	.L43:
1233:.\Generated_Source\PSoC4/CapSense_1.c **** 			prtNumberTmp = CapSense_1_portTable[curSensor];
 678              		.loc 1 1233 0 discriminator 2
 679 000a 2A5D     		ldrb	r2, [r5, r4]
 680              	.LVL88:
1234:.\Generated_Source\PSoC4/CapSense_1.c **** 			pinNumberTmp = CapSense_1_pinShiftTbl[curSensor];
 681              		.loc 1 1234 0 discriminator 2
 682 000c 2B19     		add	r3, r5, r4
 683 000e 197A     		ldrb	r1, [r3, #8]
 684              	.LVL89:
1237:.\Generated_Source\PSoC4/CapSense_1.c **** 		CapSense_1_SetPinDriveMode(driveMode, pinNumberTmp, prtNumberTmp);
 685              		.loc 1 1237 0 discriminator 2
 686 0010 301C     		mov	r0, r6
 687 0012 FFF7FEFF 		bl	CapSense_1_SetPinDriveMode
 688              	.LVL90:
1211:.\Generated_Source\PSoC4/CapSense_1.c **** 	for(curSensor = 0u; curSensor < CapSense_1_TOTAL_SENSOR_COUNT; curSensor++)
 689              		.loc 1 1211 0 discriminator 2
 690 0016 0134     		add	r4, r4, #1
 691              	.LVL91:
 692 0018 E4B2     		uxtb	r4, r4
 693              	.LVL92:
 694              	.L42:
1211:.\Generated_Source\PSoC4/CapSense_1.c **** 	for(curSensor = 0u; curSensor < CapSense_1_TOTAL_SENSOR_COUNT; curSensor++)
 695              		.loc 1 1211 0 is_stmt 0 discriminator 1
 696 001a 042C     		cmp	r4, #4
 697 001c F5D9     		bls	.L43
1240:.\Generated_Source\PSoC4/CapSense_1.c **** 	CapSense_1_SetPinDriveMode(driveMode, (uint32)CapSense_1_CMOD_PIN_NUMBER, (uint32)CapSense_1_CMOD_
 698              		.loc 1 1240 0 is_stmt 1
ARM GAS  C:\Users\danielpi\AppData\Local\Temp\cccuTXvj.s 			page 37


 699 001e 301C     		mov	r0, r6
 700 0020 0021     		mov	r1, #0
 701 0022 0422     		mov	r2, #4
 702 0024 FFF7FEFF 		bl	CapSense_1_SetPinDriveMode
 703              	.LVL93:
1249:.\Generated_Source\PSoC4/CapSense_1.c **** }
 704              		.loc 1 1249 0
 705              		@ sp needed
 706              	.LVL94:
 707              	.LVL95:
 708 0028 70BD     		pop	{r4, r5, r6, pc}
 709              	.L45:
 710 002a C046     		.align	2
 711              	.L44:
 712 002c 00000000 		.word	.LANCHOR2
 713              		.cfi_endproc
 714              	.LFE52:
 715              		.size	CapSense_1_SetDriveModeAllPins, .-CapSense_1_SetDriveModeAllPins
 716              		.section	.text.CapSense_1_RestoreDriveModeAllPins,"ax",%progbits
 717              		.align	2
 718              		.global	CapSense_1_RestoreDriveModeAllPins
 719              		.code	16
 720              		.thumb_func
 721              		.type	CapSense_1_RestoreDriveModeAllPins, %function
 722              	CapSense_1_RestoreDriveModeAllPins:
 723              	.LFB53:
1275:.\Generated_Source\PSoC4/CapSense_1.c **** {
 724              		.loc 1 1275 0
 725              		.cfi_startproc
 726 0000 08B5     		push	{r3, lr}
 727              		.cfi_def_cfa_offset 8
 728              		.cfi_offset 3, -8
 729              		.cfi_offset 14, -4
1278:.\Generated_Source\PSoC4/CapSense_1.c **** 	CapSense_1_SetDriveModeAllPins(CY_SYS_PINS_DM_ALG_HIZ);
 730              		.loc 1 1278 0
 731 0002 0020     		mov	r0, #0
 732 0004 FFF7FEFF 		bl	CapSense_1_SetDriveModeAllPins
 733              	.LVL96:
1280:.\Generated_Source\PSoC4/CapSense_1.c **** 	newRegisterValue = CapSense_1_CMOD_CONNECTION_REG; 
 734              		.loc 1 1280 0
 735 0008 034B     		ldr	r3, .L47
 736 000a 1A68     		ldr	r2, [r3]
 737              	.LVL97:
1281:.\Generated_Source\PSoC4/CapSense_1.c ****     newRegisterValue &= ~(CapSense_1_CSD_CMOD_CONNECTION_MASK);
 738              		.loc 1 1281 0
 739 000c 0F21     		mov	r1, #15
 740 000e 8A43     		bic	r2, r1
 741              	.LVL98:
1282:.\Generated_Source\PSoC4/CapSense_1.c ****     newRegisterValue |= CapSense_1_CSD_CMOD_TO_AMUXBUS_A;
 742              		.loc 1 1282 0
 743 0010 0621     		mov	r1, #6
 744 0012 0A43     		orr	r2, r1
 745              	.LVL99:
1283:.\Generated_Source\PSoC4/CapSense_1.c ****     CapSense_1_CMOD_CONNECTION_REG = newRegisterValue;
 746              		.loc 1 1283 0
 747 0014 1A60     		str	r2, [r3]
1298:.\Generated_Source\PSoC4/CapSense_1.c **** }
ARM GAS  C:\Users\danielpi\AppData\Local\Temp\cccuTXvj.s 			page 38


 748              		.loc 1 1298 0
 749              		@ sp needed
 750 0016 08BD     		pop	{r3, pc}
 751              	.L48:
 752              		.align	2
 753              	.L47:
 754 0018 00040240 		.word	1073873920
 755              		.cfi_endproc
 756              	.LFE53:
 757              		.size	CapSense_1_RestoreDriveModeAllPins, .-CapSense_1_RestoreDriveModeAllPins
 758              		.section	.text.CapSense_1_EnableShieldElectrode,"ax",%progbits
 759              		.align	2
 760              		.global	CapSense_1_EnableShieldElectrode
 761              		.code	16
 762              		.thumb_func
 763              		.type	CapSense_1_EnableShieldElectrode, %function
 764              	CapSense_1_EnableShieldElectrode:
 765              	.LFB57:
1338:.\Generated_Source\PSoC4/CapSense_1.c **** 
1339:.\Generated_Source\PSoC4/CapSense_1.c **** 
1340:.\Generated_Source\PSoC4/CapSense_1.c **** /*******************************************************************************
1341:.\Generated_Source\PSoC4/CapSense_1.c **** * Function Name: CapSense_1_PreScan
1342:.\Generated_Source\PSoC4/CapSense_1.c **** ********************************************************************************
1343:.\Generated_Source\PSoC4/CapSense_1.c **** *
1344:.\Generated_Source\PSoC4/CapSense_1.c **** * Summary:
1345:.\Generated_Source\PSoC4/CapSense_1.c **** *  Sets required settings, enables a sensor, removes Vref from AMUX and starts the 
1346:.\Generated_Source\PSoC4/CapSense_1.c **** *  scanning process of the sensor.
1347:.\Generated_Source\PSoC4/CapSense_1.c **** *
1348:.\Generated_Source\PSoC4/CapSense_1.c **** * Parameters:
1349:.\Generated_Source\PSoC4/CapSense_1.c **** *  sensor:  Sensor number.
1350:.\Generated_Source\PSoC4/CapSense_1.c **** *
1351:.\Generated_Source\PSoC4/CapSense_1.c **** * Return:
1352:.\Generated_Source\PSoC4/CapSense_1.c **** *  None
1353:.\Generated_Source\PSoC4/CapSense_1.c **** *
1354:.\Generated_Source\PSoC4/CapSense_1.c **** * Global Variables:
1355:.\Generated_Source\PSoC4/CapSense_1.c **** * CapSense_1_widgetNumber[] - This array contains numbers of widgets for each sensor.
1356:.\Generated_Source\PSoC4/CapSense_1.c **** * CapSense_1_widgetResolution[] - Contains the widget resolution.
1357:.\Generated_Source\PSoC4/CapSense_1.c **** *
1358:.\Generated_Source\PSoC4/CapSense_1.c **** * Side Effects: 
1359:.\Generated_Source\PSoC4/CapSense_1.c **** *  None
1360:.\Generated_Source\PSoC4/CapSense_1.c **** *
1361:.\Generated_Source\PSoC4/CapSense_1.c **** *******************************************************************************/
1362:.\Generated_Source\PSoC4/CapSense_1.c **** void CapSense_1_PreScan(uint32 sensor)
1363:.\Generated_Source\PSoC4/CapSense_1.c **** {
1364:.\Generated_Source\PSoC4/CapSense_1.c ****     uint8 widget;
1365:.\Generated_Source\PSoC4/CapSense_1.c ****     uint8 interruptState;
1366:.\Generated_Source\PSoC4/CapSense_1.c **** 	uint32 newRegValue;
1367:.\Generated_Source\PSoC4/CapSense_1.c **** 	uint32 counterResolution;
1368:.\Generated_Source\PSoC4/CapSense_1.c **** 	
1369:.\Generated_Source\PSoC4/CapSense_1.c **** 	#if(CapSense_1_PRS_OPTIONS == CapSense_1__PRS_AUTO)
1370:.\Generated_Source\PSoC4/CapSense_1.c **** 		uint8 senseClkDivMath;
1371:.\Generated_Source\PSoC4/CapSense_1.c **** 		uint8 sampleClkDivMath;
1372:.\Generated_Source\PSoC4/CapSense_1.c **** 	#endif /* (CapSense_1_PRS_OPTIONS == CapSense_1__PRS_AUTO) */	
1373:.\Generated_Source\PSoC4/CapSense_1.c **** 	
1374:.\Generated_Source\PSoC4/CapSense_1.c **** 	#if ((CapSense_1_TUNING_METHOD == CapSense_1__TUNING_AUTO) &&\
1375:.\Generated_Source\PSoC4/CapSense_1.c **** 		 (0 != CapSense_1_IS_OVERSAMPLING_EN))
1376:.\Generated_Source\PSoC4/CapSense_1.c **** 		uint32 oversamplingFactor;
ARM GAS  C:\Users\danielpi\AppData\Local\Temp\cccuTXvj.s 			page 39


1377:.\Generated_Source\PSoC4/CapSense_1.c **** 	#endif /* ((CapSense_1_TUNING_METHOD == CapSense_1__TUNING_AUTO) &&\
1378:.\Generated_Source\PSoC4/CapSense_1.c **** 	           (0 != CapSense_1_IS_OVERSAMPLING_EN)) */
1379:.\Generated_Source\PSoC4/CapSense_1.c **** 
1380:.\Generated_Source\PSoC4/CapSense_1.c ****     /* Define widget sensor belongs to */
1381:.\Generated_Source\PSoC4/CapSense_1.c ****     widget = CapSense_1_widgetNumber[sensor];
1382:.\Generated_Source\PSoC4/CapSense_1.c **** 
1383:.\Generated_Source\PSoC4/CapSense_1.c **** 	/* Recalculate Counter Resolution to MSB 16 bits */
1384:.\Generated_Source\PSoC4/CapSense_1.c **** 	counterResolution = CapSense_1_widgetResolution[widget];
1385:.\Generated_Source\PSoC4/CapSense_1.c **** 	
1386:.\Generated_Source\PSoC4/CapSense_1.c **** 	#if ((CapSense_1_TUNING_METHOD == CapSense_1__TUNING_AUTO) &&\
1387:.\Generated_Source\PSoC4/CapSense_1.c **** 		 (0 != CapSense_1_IS_OVERSAMPLING_EN))
1388:.\Generated_Source\PSoC4/CapSense_1.c **** 	    oversamplingFactor = CapSense_1_GetBitValue(scanSpeedTbl, sensor);
1389:.\Generated_Source\PSoC4/CapSense_1.c **** 
1390:.\Generated_Source\PSoC4/CapSense_1.c **** 		if(counterResolution < CapSense_1_RESOLUTION_16_BITS)
1391:.\Generated_Source\PSoC4/CapSense_1.c **** 		{
1392:.\Generated_Source\PSoC4/CapSense_1.c **** 			counterResolution <<= oversamplingFactor;
1393:.\Generated_Source\PSoC4/CapSense_1.c **** 			counterResolution |= (uint32)(CapSense_1_RESOLUTION_8_BITS);
1394:.\Generated_Source\PSoC4/CapSense_1.c **** 		}
1395:.\Generated_Source\PSoC4/CapSense_1.c **** 	#endif /* ((CapSense_1_TUNING_METHOD == CapSense_1__TUNING_AUTO) &&\
1396:.\Generated_Source\PSoC4/CapSense_1.c **** 	           (0 != CapSense_1_IS_OVERSAMPLING_EN)) */
1397:.\Generated_Source\PSoC4/CapSense_1.c **** 	
1398:.\Generated_Source\PSoC4/CapSense_1.c **** 	#if (0u != CapSense_1_IS_M0S8PERI_BLOCK)
1399:.\Generated_Source\PSoC4/CapSense_1.c **** 		CapSense_1_SenseClk_Stop();
1400:.\Generated_Source\PSoC4/CapSense_1.c **** 		CapSense_1_SampleClk_Stop();
1401:.\Generated_Source\PSoC4/CapSense_1.c **** 	#endif /* (0u != CapSense_1_IS_M0S8PERI_BLOCK) */
1402:.\Generated_Source\PSoC4/CapSense_1.c **** 
1403:.\Generated_Source\PSoC4/CapSense_1.c **** 	#if (0u != CapSense_1_MULTIPLE_FREQUENCY_SET)
1404:.\Generated_Source\PSoC4/CapSense_1.c **** 		CapSense_1_SampleClk_SetDividerValue((uint16)CapSense_1_sampleClkDividerVal[sensor]);
1405:.\Generated_Source\PSoC4/CapSense_1.c **** 		CapSense_1_SenseClk_SetDividerValue((uint16)CapSense_1_senseClkDividerVal[sensor]);
1406:.\Generated_Source\PSoC4/CapSense_1.c **** 	#else
1407:.\Generated_Source\PSoC4/CapSense_1.c **** 		CapSense_1_SampleClk_SetDividerValue((uint16)CapSense_1_sampleClkDividerVal);
1408:.\Generated_Source\PSoC4/CapSense_1.c **** 		CapSense_1_SenseClk_SetDividerValue((uint16)CapSense_1_senseClkDividerVal);
1409:.\Generated_Source\PSoC4/CapSense_1.c **** 	#endif /* (0u != CapSense_1_MULTIPLE_FREQUENCY_SET) */
1410:.\Generated_Source\PSoC4/CapSense_1.c **** 
1411:.\Generated_Source\PSoC4/CapSense_1.c **** 	#if (0u != CapSense_1_IS_M0S8PERI_BLOCK)
1412:.\Generated_Source\PSoC4/CapSense_1.c **** 		CapSense_1_SampleClk_Start();
1413:.\Generated_Source\PSoC4/CapSense_1.c **** 		CapSense_1_SenseClk_StartEx(CapSense_1_SampleClk__DIV_ID);
1414:.\Generated_Source\PSoC4/CapSense_1.c **** 		
1415:.\Generated_Source\PSoC4/CapSense_1.c **** 		#if(CapSense_1_PRS_OPTIONS == CapSense_1__PRS_NONE)
1416:.\Generated_Source\PSoC4/CapSense_1.c **** 			CyIntDisable(CapSense_1_ISR_NUMBER);
1417:.\Generated_Source\PSoC4/CapSense_1.c **** 			CapSense_1_CSD_CNT_REG = CapSense_1_ONE_CYCLE;
1418:.\Generated_Source\PSoC4/CapSense_1.c **** 			while(0u != (CapSense_1_CSD_CNT_REG & CapSense_1_RESOLUTION_16_BITS))
1419:.\Generated_Source\PSoC4/CapSense_1.c **** 			{
1420:.\Generated_Source\PSoC4/CapSense_1.c **** 			/* Wait until scanning is complete */ 
1421:.\Generated_Source\PSoC4/CapSense_1.c **** 			}
1422:.\Generated_Source\PSoC4/CapSense_1.c **** 			CapSense_1_CSD_INTR_REG = 1u;
1423:.\Generated_Source\PSoC4/CapSense_1.c **** 			CyIntClearPending(CapSense_1_ISR_NUMBER);
1424:.\Generated_Source\PSoC4/CapSense_1.c **** 			CyIntEnable(CapSense_1_ISR_NUMBER); 
1425:.\Generated_Source\PSoC4/CapSense_1.c **** 		#endif /* CapSense_1_PRS_OPTIONS == CapSense_1__PRS_NONE */
1426:.\Generated_Source\PSoC4/CapSense_1.c **** 	#endif /* (0u != CapSense_1_IS_M0S8PERI_BLOCK) */
1427:.\Generated_Source\PSoC4/CapSense_1.c **** 
1428:.\Generated_Source\PSoC4/CapSense_1.c **** #if(CapSense_1_PRS_OPTIONS != CapSense_1__PRS_NONE)
1429:.\Generated_Source\PSoC4/CapSense_1.c **** 
1430:.\Generated_Source\PSoC4/CapSense_1.c **** 	#if(CapSense_1_TUNING_METHOD == CapSense_1__TUNING_AUTO)
1431:.\Generated_Source\PSoC4/CapSense_1.c **** 		if(CapSense_1_prescalersTuningDone != 0u)
1432:.\Generated_Source\PSoC4/CapSense_1.c **** 		{
1433:.\Generated_Source\PSoC4/CapSense_1.c **** 	#endif /* (CapSense_1_TUNING_METHOD == CapSense_1__TUNING_AUTO) */
ARM GAS  C:\Users\danielpi\AppData\Local\Temp\cccuTXvj.s 			page 40


1434:.\Generated_Source\PSoC4/CapSense_1.c **** 			
1435:.\Generated_Source\PSoC4/CapSense_1.c **** 			CyIntDisable(CapSense_1_ISR_NUMBER);
1436:.\Generated_Source\PSoC4/CapSense_1.c **** 			
1437:.\Generated_Source\PSoC4/CapSense_1.c **** 			newRegValue = CapSense_1_CSD_CFG_REG;
1438:.\Generated_Source\PSoC4/CapSense_1.c **** 			newRegValue |= CapSense_1_CSD_CFG_PRS_SELECT;
1439:.\Generated_Source\PSoC4/CapSense_1.c **** 			
1440:.\Generated_Source\PSoC4/CapSense_1.c **** 			#if(CapSense_1_PRS_OPTIONS == CapSense_1__PRS_AUTO)
1441:.\Generated_Source\PSoC4/CapSense_1.c **** 				
1442:.\Generated_Source\PSoC4/CapSense_1.c **** 				newRegValue &= ~(CapSense_1_PRS_MODE_MASK);
1443:.\Generated_Source\PSoC4/CapSense_1.c **** 				
1444:.\Generated_Source\PSoC4/CapSense_1.c **** 				#if (0u != CapSense_1_MULTIPLE_FREQUENCY_SET)
1445:.\Generated_Source\PSoC4/CapSense_1.c **** 					senseClkDivMath = CapSense_1_senseClkDividerVal[sensor];
1446:.\Generated_Source\PSoC4/CapSense_1.c **** 					sampleClkDivMath = CapSense_1_sampleClkDividerVal[sensor];
1447:.\Generated_Source\PSoC4/CapSense_1.c **** 				#else
1448:.\Generated_Source\PSoC4/CapSense_1.c **** 					senseClkDivMath = CapSense_1_senseClkDividerVal;
1449:.\Generated_Source\PSoC4/CapSense_1.c **** 					sampleClkDivMath = CapSense_1_sampleClkDividerVal;
1450:.\Generated_Source\PSoC4/CapSense_1.c **** 				#endif /* ( CapSense_1_MULTIPLE_FREQUENCY_SET) */
1451:.\Generated_Source\PSoC4/CapSense_1.c **** 				
1452:.\Generated_Source\PSoC4/CapSense_1.c **** 				#if(0u == CapSense_1_IS_M0S8PERI_BLOCK)
1453:.\Generated_Source\PSoC4/CapSense_1.c **** 					senseClkDivMath *= sampleClkDivMath;
1454:.\Generated_Source\PSoC4/CapSense_1.c **** 				#endif /* (0u == CapSense_1_IS_M0S8PERI_BLOCK) */	
1455:.\Generated_Source\PSoC4/CapSense_1.c **** 				
1456:.\Generated_Source\PSoC4/CapSense_1.c **** 				if((senseClkDivMath * CapSense_1_RESOLUTION_12_BITS) <
1457:.\Generated_Source\PSoC4/CapSense_1.c **** 				   (sampleClkDivMath * CapSense_1_widgetResolution[widget]))
1458:.\Generated_Source\PSoC4/CapSense_1.c **** 				{
1459:.\Generated_Source\PSoC4/CapSense_1.c **** 					newRegValue |= CapSense_1_CSD_PRS_12_BIT;
1460:.\Generated_Source\PSoC4/CapSense_1.c **** 				}
1461:.\Generated_Source\PSoC4/CapSense_1.c **** 			#endif /* (CapSense_1_PRS_OPTIONS == CapSense_1__PRS_AUTO) */
1462:.\Generated_Source\PSoC4/CapSense_1.c **** 			
1463:.\Generated_Source\PSoC4/CapSense_1.c **** 			CapSense_1_CSD_CFG_REG = newRegValue;
1464:.\Generated_Source\PSoC4/CapSense_1.c **** 			
1465:.\Generated_Source\PSoC4/CapSense_1.c **** 			CyIntEnable(CapSense_1_ISR_NUMBER);
1466:.\Generated_Source\PSoC4/CapSense_1.c **** 			
1467:.\Generated_Source\PSoC4/CapSense_1.c **** 	#if(CapSense_1_TUNING_METHOD == CapSense_1__TUNING_AUTO)	
1468:.\Generated_Source\PSoC4/CapSense_1.c **** 		}
1469:.\Generated_Source\PSoC4/CapSense_1.c **** 	#endif /* (CapSense_1_PRS_OPTIONS != CapSense_1__PRS_NONE) */
1470:.\Generated_Source\PSoC4/CapSense_1.c **** 
1471:.\Generated_Source\PSoC4/CapSense_1.c **** #endif /* (CapSense_1_PRS_OPTIONS == CapSense_1__PRS_NONE) */
1472:.\Generated_Source\PSoC4/CapSense_1.c **** 	
1473:.\Generated_Source\PSoC4/CapSense_1.c **** 	/* Set Idac Value */
1474:.\Generated_Source\PSoC4/CapSense_1.c **** 	CyIntDisable(CapSense_1_ISR_NUMBER);
1475:.\Generated_Source\PSoC4/CapSense_1.c ****     newRegValue = CapSense_1_CSD_IDAC_REG;
1476:.\Generated_Source\PSoC4/CapSense_1.c ****  
1477:.\Generated_Source\PSoC4/CapSense_1.c **** #if (CapSense_1_IDAC_CNT == 1u)    
1478:.\Generated_Source\PSoC4/CapSense_1.c **** 	newRegValue &= ~(CapSense_1_CSD_IDAC1_DATA_MASK);
1479:.\Generated_Source\PSoC4/CapSense_1.c **** 	newRegValue |= CapSense_1_modulationIDAC[sensor];
1480:.\Generated_Source\PSoC4/CapSense_1.c **** #else
1481:.\Generated_Source\PSoC4/CapSense_1.c **** 	newRegValue &= ~(CapSense_1_CSD_IDAC1_DATA_MASK | CapSense_1_CSD_IDAC2_DATA_MASK);
1482:.\Generated_Source\PSoC4/CapSense_1.c **** 	newRegValue |= (CapSense_1_modulationIDAC[sensor] | 
1483:.\Generated_Source\PSoC4/CapSense_1.c **** 							(uint32)((uint32)CapSense_1_compensationIDAC[sensor] <<
1484:.\Generated_Source\PSoC4/CapSense_1.c **** 							CapSense_1_CSD_IDAC2_DATA_OFFSET));                               
1485:.\Generated_Source\PSoC4/CapSense_1.c **** #endif /* (CapSense_1_IDAC_CNT == 1u) */
1486:.\Generated_Source\PSoC4/CapSense_1.c **** 	
1487:.\Generated_Source\PSoC4/CapSense_1.c **** 	CapSense_1_CSD_IDAC_REG = newRegValue;
1488:.\Generated_Source\PSoC4/CapSense_1.c **** 
1489:.\Generated_Source\PSoC4/CapSense_1.c **** #if(CapSense_1_CMOD_PREGARGE_OPTION == CapSense_1__CAPPRIOBUF)
1490:.\Generated_Source\PSoC4/CapSense_1.c **** 	newRegValue = CapSense_1_CMOD_CONNECTION_REG;
ARM GAS  C:\Users\danielpi\AppData\Local\Temp\cccuTXvj.s 			page 41


1491:.\Generated_Source\PSoC4/CapSense_1.c **** 	newRegValue &= ~(CapSense_1_CSD_CMOD_CONNECTION_MASK);
1492:.\Generated_Source\PSoC4/CapSense_1.c **** 	newRegValue |= CapSense_1_CSD_CMOD_TO_AMUXBUS_A;
1493:.\Generated_Source\PSoC4/CapSense_1.c **** 	CapSense_1_CMOD_CONNECTION_REG = newRegValue;
1494:.\Generated_Source\PSoC4/CapSense_1.c **** 	
1495:.\Generated_Source\PSoC4/CapSense_1.c **** 	newRegValue = CapSense_1_CMOD_PORT_PC_REG;
1496:.\Generated_Source\PSoC4/CapSense_1.c **** 	newRegValue &= ~(CapSense_1_CSD_CMOD_PC_MASK);
1497:.\Generated_Source\PSoC4/CapSense_1.c **** 	newRegValue |= CapSense_1_CMOD_PC_HIGH_Z_MODE;
1498:.\Generated_Source\PSoC4/CapSense_1.c **** 	CapSense_1_CMOD_PORT_PC_REG = newRegValue;
1499:.\Generated_Source\PSoC4/CapSense_1.c **** #endif /* (CapSense_1_CMOD_PREGARGE_OPTION == CapSense_1__CAPPRIOBUF) */
1500:.\Generated_Source\PSoC4/CapSense_1.c **** 
1501:.\Generated_Source\PSoC4/CapSense_1.c ****     /* Disconnect Vref Buffer from AMUX */
1502:.\Generated_Source\PSoC4/CapSense_1.c **** 	newRegValue = CapSense_1_CSD_CFG_REG;
1503:.\Generated_Source\PSoC4/CapSense_1.c **** 	newRegValue &= ~(CapSense_1_PRECHARGE_CONFIG_MASK);
1504:.\Generated_Source\PSoC4/CapSense_1.c **** 	newRegValue |= CapSense_1_CTANK_PRECHARGE_CONFIG;
1505:.\Generated_Source\PSoC4/CapSense_1.c **** 	
1506:.\Generated_Source\PSoC4/CapSense_1.c **** 	CyIntEnable(CapSense_1_ISR_NUMBER);
1507:.\Generated_Source\PSoC4/CapSense_1.c **** 	
1508:.\Generated_Source\PSoC4/CapSense_1.c ****     /* Enable Sensor */
1509:.\Generated_Source\PSoC4/CapSense_1.c ****     CapSense_1_EnableScanSlot(sensor);
1510:.\Generated_Source\PSoC4/CapSense_1.c ****     
1511:.\Generated_Source\PSoC4/CapSense_1.c **** 	interruptState = CyEnterCriticalSection();
1512:.\Generated_Source\PSoC4/CapSense_1.c **** 	CapSense_1_CSD_CFG_REG = newRegValue;
1513:.\Generated_Source\PSoC4/CapSense_1.c **** 	
1514:.\Generated_Source\PSoC4/CapSense_1.c **** 	/* `#START CapSense_1_PreSettlingDelay_Debug` */
1515:.\Generated_Source\PSoC4/CapSense_1.c **** 
1516:.\Generated_Source\PSoC4/CapSense_1.c **** 	/* `#END` */
1517:.\Generated_Source\PSoC4/CapSense_1.c **** 	
1518:.\Generated_Source\PSoC4/CapSense_1.c **** 	CyDelayCycles(CapSense_1_GLITCH_ELIMINATION_CYCLES);
1519:.\Generated_Source\PSoC4/CapSense_1.c **** 	
1520:.\Generated_Source\PSoC4/CapSense_1.c **** 	/* `#START CapSense_1_PreScan_Debug` */
1521:.\Generated_Source\PSoC4/CapSense_1.c **** 
1522:.\Generated_Source\PSoC4/CapSense_1.c **** 	/* `#END` */
1523:.\Generated_Source\PSoC4/CapSense_1.c **** 	
1524:.\Generated_Source\PSoC4/CapSense_1.c ****     CapSense_1_CSD_CNT_REG = counterResolution;
1525:.\Generated_Source\PSoC4/CapSense_1.c ****     CyExitCriticalSection(interruptState);
1526:.\Generated_Source\PSoC4/CapSense_1.c **** }
1527:.\Generated_Source\PSoC4/CapSense_1.c **** 
1528:.\Generated_Source\PSoC4/CapSense_1.c **** 
1529:.\Generated_Source\PSoC4/CapSense_1.c **** /*******************************************************************************
1530:.\Generated_Source\PSoC4/CapSense_1.c **** * Function Name: CapSense_1_PostScan
1531:.\Generated_Source\PSoC4/CapSense_1.c **** ********************************************************************************
1532:.\Generated_Source\PSoC4/CapSense_1.c **** *
1533:.\Generated_Source\PSoC4/CapSense_1.c **** * Summary:
1534:.\Generated_Source\PSoC4/CapSense_1.c **** *  Stores the results of measurement in the CapSense_1_sensorRaw[] array,
1535:.\Generated_Source\PSoC4/CapSense_1.c **** *  sets the scanning sensor in the non-sampling state, turns off Idac(Current Source IDAC),
1536:.\Generated_Source\PSoC4/CapSense_1.c **** *  disconnects the IDAC(Sink mode), and applies Vref on AMUX.
1537:.\Generated_Source\PSoC4/CapSense_1.c **** *
1538:.\Generated_Source\PSoC4/CapSense_1.c **** * Parameters:
1539:.\Generated_Source\PSoC4/CapSense_1.c **** *  sensor:  Sensor number.
1540:.\Generated_Source\PSoC4/CapSense_1.c **** *
1541:.\Generated_Source\PSoC4/CapSense_1.c **** * Return:
1542:.\Generated_Source\PSoC4/CapSense_1.c **** *  None
1543:.\Generated_Source\PSoC4/CapSense_1.c **** *
1544:.\Generated_Source\PSoC4/CapSense_1.c **** * Global Variables:
1545:.\Generated_Source\PSoC4/CapSense_1.c **** *  CapSense_1_sensorRaw[] - used to store sensors raw data.
1546:.\Generated_Source\PSoC4/CapSense_1.c **** *
1547:.\Generated_Source\PSoC4/CapSense_1.c **** * Side Effects: 
ARM GAS  C:\Users\danielpi\AppData\Local\Temp\cccuTXvj.s 			page 42


1548:.\Generated_Source\PSoC4/CapSense_1.c **** *  None
1549:.\Generated_Source\PSoC4/CapSense_1.c **** *
1550:.\Generated_Source\PSoC4/CapSense_1.c **** *******************************************************************************/
1551:.\Generated_Source\PSoC4/CapSense_1.c **** void CapSense_1_PostScan(uint32 sensor)
1552:.\Generated_Source\PSoC4/CapSense_1.c **** {	
1553:.\Generated_Source\PSoC4/CapSense_1.c **** 	uint32 newRegValue;
1554:.\Generated_Source\PSoC4/CapSense_1.c **** #if ((CapSense_1_TUNING_METHOD == CapSense_1__TUNING_AUTO) &&\
1555:.\Generated_Source\PSoC4/CapSense_1.c **** 	 (0 != CapSense_1_IS_OVERSAMPLING_EN))
1556:.\Generated_Source\PSoC4/CapSense_1.c ****     uint32 oversamplingFactor;
1557:.\Generated_Source\PSoC4/CapSense_1.c ****     uint32 widget;
1558:.\Generated_Source\PSoC4/CapSense_1.c **** #endif /* ((CapSense_1_TUNING_METHOD == CapSense_1__TUNING_AUTO) &&\
1559:.\Generated_Source\PSoC4/CapSense_1.c **** 		   (0 != CapSense_1_IS_OVERSAMPLING_EN)) */	
1560:.\Generated_Source\PSoC4/CapSense_1.c **** 
1561:.\Generated_Source\PSoC4/CapSense_1.c **** 	/* `#START CapSense_1_PostScan_Debug` */
1562:.\Generated_Source\PSoC4/CapSense_1.c **** 
1563:.\Generated_Source\PSoC4/CapSense_1.c **** 	/* `#END` */
1564:.\Generated_Source\PSoC4/CapSense_1.c **** 
1565:.\Generated_Source\PSoC4/CapSense_1.c **** 
1566:.\Generated_Source\PSoC4/CapSense_1.c ****     /* Read SlotResult from Raw Counter */
1567:.\Generated_Source\PSoC4/CapSense_1.c ****     CapSense_1_sensorRaw[sensor]  = (uint16)CapSense_1_CSD_CNT_REG;
1568:.\Generated_Source\PSoC4/CapSense_1.c **** 	
1569:.\Generated_Source\PSoC4/CapSense_1.c **** #if ((CapSense_1_TUNING_METHOD == CapSense_1__TUNING_AUTO) &&\
1570:.\Generated_Source\PSoC4/CapSense_1.c **** 	 (0 != CapSense_1_IS_OVERSAMPLING_EN))
1571:.\Generated_Source\PSoC4/CapSense_1.c **** 	widget = CapSense_1_widgetNumber[sensor];
1572:.\Generated_Source\PSoC4/CapSense_1.c **** 	if(CapSense_1_widgetResolution[widget] < CapSense_1_RESOLUTION_16_BITS)
1573:.\Generated_Source\PSoC4/CapSense_1.c **** 	{
1574:.\Generated_Source\PSoC4/CapSense_1.c **** 		oversamplingFactor = CapSense_1_GetBitValue(scanSpeedTbl, sensor);
1575:.\Generated_Source\PSoC4/CapSense_1.c **** 		CapSense_1_sensorRaw[sensor] >>= oversamplingFactor;
1576:.\Generated_Source\PSoC4/CapSense_1.c **** 	}
1577:.\Generated_Source\PSoC4/CapSense_1.c **** #endif /* ((CapSense_1_TUNING_METHOD == CapSense_1__TUNING_AUTO) &&\
1578:.\Generated_Source\PSoC4/CapSense_1.c **** 		   (0 != CapSense_1_IS_OVERSAMPLING_EN)) */
1579:.\Generated_Source\PSoC4/CapSense_1.c **** 
1580:.\Generated_Source\PSoC4/CapSense_1.c ****     /* Disable Sensor */
1581:.\Generated_Source\PSoC4/CapSense_1.c ****     CapSense_1_DisableScanSlot(sensor);
1582:.\Generated_Source\PSoC4/CapSense_1.c **** 
1583:.\Generated_Source\PSoC4/CapSense_1.c **** 	CyIntDisable(CapSense_1_ISR_NUMBER);
1584:.\Generated_Source\PSoC4/CapSense_1.c **** 	
1585:.\Generated_Source\PSoC4/CapSense_1.c **** #if(CapSense_1_CMOD_PREGARGE_OPTION == CapSense_1__CAPPRIOBUF)
1586:.\Generated_Source\PSoC4/CapSense_1.c **** 	newRegValue = CapSense_1_CMOD_CONNECTION_REG;
1587:.\Generated_Source\PSoC4/CapSense_1.c **** 	newRegValue &= ~(CapSense_1_CSD_CMOD_CONNECTION_MASK);
1588:.\Generated_Source\PSoC4/CapSense_1.c **** 	newRegValue |= CapSense_1_CSD_CMOD_TO_AMUXBUS_B;
1589:.\Generated_Source\PSoC4/CapSense_1.c **** 	CapSense_1_CMOD_CONNECTION_REG = newRegValue;
1590:.\Generated_Source\PSoC4/CapSense_1.c **** 	
1591:.\Generated_Source\PSoC4/CapSense_1.c **** 	newRegValue = CapSense_1_CMOD_PORT_PC_REG;
1592:.\Generated_Source\PSoC4/CapSense_1.c **** 	newRegValue &= ~(CapSense_1_CSD_CMOD_PC_MASK);
1593:.\Generated_Source\PSoC4/CapSense_1.c **** 	newRegValue |= CapSense_1_CMOD_PC_STRONG_MODE;
1594:.\Generated_Source\PSoC4/CapSense_1.c **** 	CapSense_1_CMOD_PORT_PC_REG = newRegValue;
1595:.\Generated_Source\PSoC4/CapSense_1.c **** 		
1596:.\Generated_Source\PSoC4/CapSense_1.c **** 	newRegValue = CapSense_1_CMOD_PORT_DR_REG;
1597:.\Generated_Source\PSoC4/CapSense_1.c ****     newRegValue &= ~(CapSense_1_CMOD_DR_MASK);
1598:.\Generated_Source\PSoC4/CapSense_1.c **** 	newRegValue |= CapSense_1_CMOD_DR_CONFIG;
1599:.\Generated_Source\PSoC4/CapSense_1.c ****     CapSense_1_CMOD_PORT_DR_REG = newRegValue;    
1600:.\Generated_Source\PSoC4/CapSense_1.c **** #endif /* (CapSense_1_CMOD_PREGARGE_OPTION == CapSense_1__CAPPRIOBUF) */
1601:.\Generated_Source\PSoC4/CapSense_1.c **** 	
1602:.\Generated_Source\PSoC4/CapSense_1.c **** 	/* Connect Vref Buffer to AMUX bus  */
1603:.\Generated_Source\PSoC4/CapSense_1.c **** 	newRegValue = CapSense_1_CSD_CFG_REG;
1604:.\Generated_Source\PSoC4/CapSense_1.c **** 	newRegValue &= ~(CapSense_1_PRECHARGE_CONFIG_MASK);
ARM GAS  C:\Users\danielpi\AppData\Local\Temp\cccuTXvj.s 			page 43


1605:.\Generated_Source\PSoC4/CapSense_1.c **** 	newRegValue |= CapSense_1_CMOD_PRECHARGE_CONFIG;
1606:.\Generated_Source\PSoC4/CapSense_1.c **** 	CapSense_1_CSD_CFG_REG = newRegValue;
1607:.\Generated_Source\PSoC4/CapSense_1.c **** 
1608:.\Generated_Source\PSoC4/CapSense_1.c **** 	/* Set Idac Value = 0 */
1609:.\Generated_Source\PSoC4/CapSense_1.c **** #if (CapSense_1_IDAC_CNT == 1u)   
1610:.\Generated_Source\PSoC4/CapSense_1.c **** 	CapSense_1_CSD_IDAC_REG &= ~(CapSense_1_CSD_IDAC1_DATA_MASK);
1611:.\Generated_Source\PSoC4/CapSense_1.c **** #else
1612:.\Generated_Source\PSoC4/CapSense_1.c **** 	CapSense_1_CSD_IDAC_REG &= ~(CapSense_1_CSD_IDAC1_DATA_MASK | CapSense_1_CSD_IDAC2_DATA_MASK);    
1613:.\Generated_Source\PSoC4/CapSense_1.c **** #endif /* (CapSense_1_IDAC_CNT == 1u) */
1614:.\Generated_Source\PSoC4/CapSense_1.c **** 
1615:.\Generated_Source\PSoC4/CapSense_1.c **** 	CyIntEnable(CapSense_1_ISR_NUMBER);
1616:.\Generated_Source\PSoC4/CapSense_1.c **** }
1617:.\Generated_Source\PSoC4/CapSense_1.c **** 
1618:.\Generated_Source\PSoC4/CapSense_1.c **** 
1619:.\Generated_Source\PSoC4/CapSense_1.c **** /*******************************************************************************
1620:.\Generated_Source\PSoC4/CapSense_1.c **** * Function Name: CapSense_1_EnableShieldElectrode
1621:.\Generated_Source\PSoC4/CapSense_1.c **** ********************************************************************************
1622:.\Generated_Source\PSoC4/CapSense_1.c **** *
1623:.\Generated_Source\PSoC4/CapSense_1.c **** * Summary:
1624:.\Generated_Source\PSoC4/CapSense_1.c **** *  This API enables or disables the shield electrode on a specified port pin.
1625:.\Generated_Source\PSoC4/CapSense_1.c **** *
1626:.\Generated_Source\PSoC4/CapSense_1.c **** * Parameters:
1627:.\Generated_Source\PSoC4/CapSense_1.c **** *  portNumber: contains the shield electrode port number (0, 1, 2).
1628:.\Generated_Source\PSoC4/CapSense_1.c **** *  pinNumber: contains the shield electrode pin number (0, 1, 2, ... , 7).
1629:.\Generated_Source\PSoC4/CapSense_1.c **** *
1630:.\Generated_Source\PSoC4/CapSense_1.c **** * Return:
1631:.\Generated_Source\PSoC4/CapSense_1.c **** *  None
1632:.\Generated_Source\PSoC4/CapSense_1.c **** *
1633:.\Generated_Source\PSoC4/CapSense_1.c **** * Global Variables:
1634:.\Generated_Source\PSoC4/CapSense_1.c **** *  CapSense_1_prtCfgTbl[] - Contains pointers to the port config registers for each port.
1635:.\Generated_Source\PSoC4/CapSense_1.c **** *  CapSense_1_prtSelTbl[] - Contains pointers to the HSIOM registers for each port.
1636:.\Generated_Source\PSoC4/CapSense_1.c **** *
1637:.\Generated_Source\PSoC4/CapSense_1.c **** * Side Effects: 
1638:.\Generated_Source\PSoC4/CapSense_1.c **** *  None
1639:.\Generated_Source\PSoC4/CapSense_1.c **** *
1640:.\Generated_Source\PSoC4/CapSense_1.c **** *******************************************************************************/
1641:.\Generated_Source\PSoC4/CapSense_1.c **** void CapSense_1_EnableShieldElectrode(uint32 pinNumber, uint32 portNumber)
1642:.\Generated_Source\PSoC4/CapSense_1.c **** {
 766              		.loc 1 1642 0
 767              		.cfi_startproc
 768              	.LVL100:
 769 0000 30B5     		push	{r4, r5, lr}
 770              		.cfi_def_cfa_offset 12
 771              		.cfi_offset 4, -12
 772              		.cfi_offset 5, -8
 773              		.cfi_offset 14, -4
1643:.\Generated_Source\PSoC4/CapSense_1.c **** 	uint32 newRegValue;
1644:.\Generated_Source\PSoC4/CapSense_1.c **** 	
1645:.\Generated_Source\PSoC4/CapSense_1.c **** 	*CapSense_1_prtCfgTbl[portNumber] &= ~(CapSense_1_CSD_PIN_MODE_MASK << (pinNumber * CapSense_1_PC_
 774              		.loc 1 1645 0
 775 0002 8900     		lsl	r1, r1, #2
 776              	.LVL101:
 777 0004 0A4B     		ldr	r3, .L50
 778 0006 5918     		add	r1, r3, r1
 779 0008 8B6A     		ldr	r3, [r1, #40]
 780 000a 1A68     		ldr	r2, [r3]
 781 000c 4400     		lsl	r4, r0, #1
ARM GAS  C:\Users\danielpi\AppData\Local\Temp\cccuTXvj.s 			page 44


 782 000e 2418     		add	r4, r4, r0
 783 0010 0725     		mov	r5, #7
 784 0012 A540     		lsl	r5, r5, r4
 785 0014 AA43     		bic	r2, r5
 786 0016 1A60     		str	r2, [r3]
1646:.\Generated_Source\PSoC4/CapSense_1.c **** 	newRegValue = *CapSense_1_prtSelTbl[portNumber];
 787              		.loc 1 1646 0
 788 0018 0B69     		ldr	r3, [r1, #16]
 789 001a 1A68     		ldr	r2, [r3]
 790              	.LVL102:
1647:.\Generated_Source\PSoC4/CapSense_1.c ****     newRegValue &= ~(CapSense_1_CSD_HSIOM_MASK << (pinNumber * CapSense_1_HSIOM_PIN_CFG_SIZE));
 791              		.loc 1 1647 0
 792 001c 8000     		lsl	r0, r0, #2
 793              	.LVL103:
 794 001e 0F21     		mov	r1, #15
 795 0020 8140     		lsl	r1, r1, r0
 796 0022 8A43     		bic	r2, r1
 797              	.LVL104:
1648:.\Generated_Source\PSoC4/CapSense_1.c ****     newRegValue |= (CapSense_1_CSD_SHIELD_PORT_MODE << (pinNumber * CapSense_1_HSIOM_PIN_CFG_SIZE))
 798              		.loc 1 1648 0
 799 0024 0521     		mov	r1, #5
 800 0026 8140     		lsl	r1, r1, r0
 801 0028 081C     		mov	r0, r1
 802 002a 1043     		orr	r0, r2
 803              	.LVL105:
1649:.\Generated_Source\PSoC4/CapSense_1.c ****     *CapSense_1_prtSelTbl[portNumber] = newRegValue;
 804              		.loc 1 1649 0
 805 002c 1860     		str	r0, [r3]
1650:.\Generated_Source\PSoC4/CapSense_1.c **** }
 806              		.loc 1 1650 0
 807              		@ sp needed
 808 002e 30BD     		pop	{r4, r5, pc}
 809              	.L51:
 810              		.align	2
 811              	.L50:
 812 0030 00000000 		.word	.LANCHOR2
 813              		.cfi_endproc
 814              	.LFE57:
 815              		.size	CapSense_1_EnableShieldElectrode, .-CapSense_1_EnableShieldElectrode
 816              		.section	.text.CapSense_1_SetShieldDelay,"ax",%progbits
 817              		.align	2
 818              		.global	CapSense_1_SetShieldDelay
 819              		.code	16
 820              		.thumb_func
 821              		.type	CapSense_1_SetShieldDelay, %function
 822              	CapSense_1_SetShieldDelay:
 823              	.LFB58:
1651:.\Generated_Source\PSoC4/CapSense_1.c **** 
1652:.\Generated_Source\PSoC4/CapSense_1.c **** 
1653:.\Generated_Source\PSoC4/CapSense_1.c **** /*******************************************************************************
1654:.\Generated_Source\PSoC4/CapSense_1.c **** * Function Name: CapSense_1_SetShieldDelay
1655:.\Generated_Source\PSoC4/CapSense_1.c **** ********************************************************************************
1656:.\Generated_Source\PSoC4/CapSense_1.c **** *
1657:.\Generated_Source\PSoC4/CapSense_1.c **** * Summary:
1658:.\Generated_Source\PSoC4/CapSense_1.c **** *  This API sets a shield delay.
1659:.\Generated_Source\PSoC4/CapSense_1.c **** *
1660:.\Generated_Source\PSoC4/CapSense_1.c **** * Parameters:
ARM GAS  C:\Users\danielpi\AppData\Local\Temp\cccuTXvj.s 			page 45


1661:.\Generated_Source\PSoC4/CapSense_1.c **** *  delay:  shield delay value:
1662:.\Generated_Source\PSoC4/CapSense_1.c **** *                               0 - no delay
1663:.\Generated_Source\PSoC4/CapSense_1.c **** *                               1 - 1 cycle delay
1664:.\Generated_Source\PSoC4/CapSense_1.c **** *                               2 - 2 cycles delay
1665:.\Generated_Source\PSoC4/CapSense_1.c **** *
1666:.\Generated_Source\PSoC4/CapSense_1.c **** * Return:
1667:.\Generated_Source\PSoC4/CapSense_1.c **** *  None
1668:.\Generated_Source\PSoC4/CapSense_1.c **** *
1669:.\Generated_Source\PSoC4/CapSense_1.c **** * Global Variables:
1670:.\Generated_Source\PSoC4/CapSense_1.c **** *  None
1671:.\Generated_Source\PSoC4/CapSense_1.c **** *
1672:.\Generated_Source\PSoC4/CapSense_1.c **** * Side Effects: 
1673:.\Generated_Source\PSoC4/CapSense_1.c **** *  None
1674:.\Generated_Source\PSoC4/CapSense_1.c **** *
1675:.\Generated_Source\PSoC4/CapSense_1.c **** *******************************************************************************/
1676:.\Generated_Source\PSoC4/CapSense_1.c **** void CapSense_1_SetShieldDelay(uint32 delay)
1677:.\Generated_Source\PSoC4/CapSense_1.c **** {
 824              		.loc 1 1677 0
 825              		.cfi_startproc
 826              	.LVL106:
1678:.\Generated_Source\PSoC4/CapSense_1.c ****     uint32 newRegValue;
1679:.\Generated_Source\PSoC4/CapSense_1.c ****     
1680:.\Generated_Source\PSoC4/CapSense_1.c ****     delay &= 0x03u;
 827              		.loc 1 1680 0
 828 0000 0323     		mov	r3, #3
 829 0002 1840     		and	r0, r3
 830              	.LVL107:
1681:.\Generated_Source\PSoC4/CapSense_1.c ****     
1682:.\Generated_Source\PSoC4/CapSense_1.c ****     newRegValue = CapSense_1_CSD_CFG_REG;
 831              		.loc 1 1682 0
 832 0004 024B     		ldr	r3, .L53
 833 0006 1A68     		ldr	r2, [r3]
 834              	.LVL108:
1683:.\Generated_Source\PSoC4/CapSense_1.c ****     newRegValue &= (uint32)(~(uint32)CapSense_1_SHIELD_DELAY);    
1684:.\Generated_Source\PSoC4/CapSense_1.c ****     newRegValue |= (delay << CapSense_1_CSD_CFG_SHIELD_DELAY_POS);    
 835              		.loc 1 1684 0
 836 0008 4002     		lsl	r0, r0, #9
 837              	.LVL109:
 838 000a 1043     		orr	r0, r2
 839              	.LVL110:
1685:.\Generated_Source\PSoC4/CapSense_1.c ****     CapSense_1_CSD_CFG_REG = newRegValue;
 840              		.loc 1 1685 0
 841 000c 1860     		str	r0, [r3]
1686:.\Generated_Source\PSoC4/CapSense_1.c **** }
 842              		.loc 1 1686 0
 843              		@ sp needed
 844 000e 7047     		bx	lr
 845              	.L54:
 846              		.align	2
 847              	.L53:
 848 0010 04002840 		.word	1076363268
 849              		.cfi_endproc
 850              	.LFE58:
 851              		.size	CapSense_1_SetShieldDelay, .-CapSense_1_SetShieldDelay
 852              		.section	.text.CapSense_1_Init,"ax",%progbits
 853              		.align	2
 854              		.global	CapSense_1_Init
ARM GAS  C:\Users\danielpi\AppData\Local\Temp\cccuTXvj.s 			page 46


 855              		.code	16
 856              		.thumb_func
 857              		.type	CapSense_1_Init, %function
 858              	CapSense_1_Init:
 859              	.LFB35:
 195:.\Generated_Source\PSoC4/CapSense_1.c **** {   
 860              		.loc 1 195 0
 861              		.cfi_startproc
 862 0000 08B5     		push	{r3, lr}
 863              		.cfi_def_cfa_offset 8
 864              		.cfi_offset 3, -8
 865              		.cfi_offset 14, -4
 866              	.LVL111:
 226:.\Generated_Source\PSoC4/CapSense_1.c **** 	for(curSensor = 0u; curSensor < CapSense_1_TOTAL_SENSOR_COUNT; curSensor++)
 867              		.loc 1 226 0
 868 0002 0023     		mov	r3, #0
 228:.\Generated_Source\PSoC4/CapSense_1.c **** 		CapSense_1_unscannedSnsDriveMode[curSensor] = CapSense_1_CONNECT_INACTIVE_SNS;
 869              		.loc 1 228 0
 870 0004 0749     		ldr	r1, .L58
 871 0006 0022     		mov	r2, #0
 226:.\Generated_Source\PSoC4/CapSense_1.c **** 	for(curSensor = 0u; curSensor < CapSense_1_TOTAL_SENSOR_COUNT; curSensor++)
 872              		.loc 1 226 0
 873 0008 01E0     		b	.L56
 874              	.LVL112:
 875              	.L57:
 228:.\Generated_Source\PSoC4/CapSense_1.c **** 		CapSense_1_unscannedSnsDriveMode[curSensor] = CapSense_1_CONNECT_INACTIVE_SNS;
 876              		.loc 1 228 0 discriminator 2
 877 000a CA54     		strb	r2, [r1, r3]
 226:.\Generated_Source\PSoC4/CapSense_1.c **** 	for(curSensor = 0u; curSensor < CapSense_1_TOTAL_SENSOR_COUNT; curSensor++)
 878              		.loc 1 226 0 discriminator 2
 879 000c 0133     		add	r3, r3, #1
 880              	.LVL113:
 881              	.L56:
 226:.\Generated_Source\PSoC4/CapSense_1.c **** 	for(curSensor = 0u; curSensor < CapSense_1_TOTAL_SENSOR_COUNT; curSensor++)
 882              		.loc 1 226 0 is_stmt 0 discriminator 1
 883 000e 042B     		cmp	r3, #4
 884 0010 FBD9     		bls	.L57
 231:.\Generated_Source\PSoC4/CapSense_1.c **** 	CapSense_1_CsdHwBlockInit();
 885              		.loc 1 231 0 is_stmt 1
 886 0012 FFF7FEFF 		bl	CapSense_1_CsdHwBlockInit
 887              	.LVL114:
 232:.\Generated_Source\PSoC4/CapSense_1.c ****     CapSense_1_SetShieldDelay(CapSense_1_SHIELD_DELAY );
 888              		.loc 1 232 0
 889 0016 0020     		mov	r0, #0
 890 0018 FFF7FEFF 		bl	CapSense_1_SetShieldDelay
 891              	.LVL115:
 235:.\Generated_Source\PSoC4/CapSense_1.c ****     CapSense_1_ClearSensors();
 892              		.loc 1 235 0
 893 001c FFF7FEFF 		bl	CapSense_1_ClearSensors
 894              	.LVL116:
 236:.\Generated_Source\PSoC4/CapSense_1.c **** }
 895              		.loc 1 236 0
 896              		@ sp needed
 897 0020 08BD     		pop	{r3, pc}
 898              	.L59:
 899 0022 C046     		.align	2
 900              	.L58:
ARM GAS  C:\Users\danielpi\AppData\Local\Temp\cccuTXvj.s 			page 47


 901 0024 00000000 		.word	CapSense_1_unscannedSnsDriveMode
 902              		.cfi_endproc
 903              	.LFE35:
 904              		.size	CapSense_1_Init, .-CapSense_1_Init
 905              		.section	.text.CapSense_1_Start,"ax",%progbits
 906              		.align	2
 907              		.global	CapSense_1_Start
 908              		.code	16
 909              		.thumb_func
 910              		.type	CapSense_1_Start, %function
 911              	CapSense_1_Start:
 912              	.LFB38:
 404:.\Generated_Source\PSoC4/CapSense_1.c **** {
 913              		.loc 1 404 0
 914              		.cfi_startproc
 915 0000 08B5     		push	{r3, lr}
 916              		.cfi_def_cfa_offset 8
 917              		.cfi_offset 3, -8
 918              		.cfi_offset 14, -4
 414:.\Generated_Source\PSoC4/CapSense_1.c ****     if (CapSense_1_initVar == 0u)
 919              		.loc 1 414 0
 920 0002 0B4B     		ldr	r3, .L62
 921 0004 9B7B     		ldrb	r3, [r3, #14]
 922 0006 002B     		cmp	r3, #0
 923 0008 04D1     		bne	.L61
 416:.\Generated_Source\PSoC4/CapSense_1.c ****         CapSense_1_Init();
 924              		.loc 1 416 0
 925 000a FFF7FEFF 		bl	CapSense_1_Init
 926              	.LVL117:
 417:.\Generated_Source\PSoC4/CapSense_1.c ****         CapSense_1_initVar = 1u;
 927              		.loc 1 417 0
 928 000e 0122     		mov	r2, #1
 929 0010 074B     		ldr	r3, .L62
 930 0012 9A73     		strb	r2, [r3, #14]
 931              	.L61:
 419:.\Generated_Source\PSoC4/CapSense_1.c ****     CapSense_1_Enable();
 932              		.loc 1 419 0
 933 0014 FFF7FEFF 		bl	CapSense_1_Enable
 934              	.LVL118:
 424:.\Generated_Source\PSoC4/CapSense_1.c **** 	        CapSense_1_AutoTune();
 935              		.loc 1 424 0
 936 0018 FFF7FEFF 		bl	CapSense_1_AutoTune
 937              	.LVL119:
 425:.\Generated_Source\PSoC4/CapSense_1.c **** 	        CapSense_1_lowLevelTuningDone = 1u;
 938              		.loc 1 425 0
 939 001c 0122     		mov	r2, #1
 940 001e 044B     		ldr	r3, .L62
 941 0020 DA73     		strb	r2, [r3, #15]
 468:.\Generated_Source\PSoC4/CapSense_1.c **** 	CapSense_1_CSD_CFG_REG |= CapSense_1_CSD_CFG_SENSE_INSEL;
 942              		.loc 1 468 0
 943 0022 044B     		ldr	r3, .L62+4
 944 0024 1968     		ldr	r1, [r3]
 945 0026 8022     		mov	r2, #128
 946 0028 D203     		lsl	r2, r2, #15
 947 002a 0A43     		orr	r2, r1
 948 002c 1A60     		str	r2, [r3]
 469:.\Generated_Source\PSoC4/CapSense_1.c **** }
ARM GAS  C:\Users\danielpi\AppData\Local\Temp\cccuTXvj.s 			page 48


 949              		.loc 1 469 0
 950              		@ sp needed
 951 002e 08BD     		pop	{r3, pc}
 952              	.L63:
 953              		.align	2
 954              	.L62:
 955 0030 00000000 		.word	.LANCHOR0
 956 0034 04002840 		.word	1076363268
 957              		.cfi_endproc
 958              	.LFE38:
 959              		.size	CapSense_1_Start, .-CapSense_1_Start
 960              		.section	.text.CapSense_1_ReadCurrentScanningSensor,"ax",%progbits
 961              		.align	2
 962              		.global	CapSense_1_ReadCurrentScanningSensor
 963              		.code	16
 964              		.thumb_func
 965              		.type	CapSense_1_ReadCurrentScanningSensor, %function
 966              	CapSense_1_ReadCurrentScanningSensor:
 967              	.LFB59:
1687:.\Generated_Source\PSoC4/CapSense_1.c **** 
1688:.\Generated_Source\PSoC4/CapSense_1.c **** 
1689:.\Generated_Source\PSoC4/CapSense_1.c **** /*******************************************************************************
1690:.\Generated_Source\PSoC4/CapSense_1.c **** * Function Name: CapSense_1_ReadCurrentScanningSensor
1691:.\Generated_Source\PSoC4/CapSense_1.c **** ********************************************************************************
1692:.\Generated_Source\PSoC4/CapSense_1.c **** *
1693:.\Generated_Source\PSoC4/CapSense_1.c **** * Summary:
1694:.\Generated_Source\PSoC4/CapSense_1.c **** *  This API returns scanning sensor number when sensor scan is in progress. 
1695:.\Generated_Source\PSoC4/CapSense_1.c **** *  When sensor scan is completed the API returns 
1696:.\Generated_Source\PSoC4/CapSense_1.c **** *  $INSTANCE_NAME`_NOT_SENSOR (0xFFFFFFFF) (when no sensor is scanned).
1697:.\Generated_Source\PSoC4/CapSense_1.c **** *
1698:.\Generated_Source\PSoC4/CapSense_1.c **** * Parameters:
1699:.\Generated_Source\PSoC4/CapSense_1.c **** *	None.
1700:.\Generated_Source\PSoC4/CapSense_1.c **** *
1701:.\Generated_Source\PSoC4/CapSense_1.c **** * Return:
1702:.\Generated_Source\PSoC4/CapSense_1.c **** *  Returns Sensor number if sensor is being scanned and 
1703:.\Generated_Source\PSoC4/CapSense_1.c **** *  $INSTANCE_NAME`_NOT_SENSOR (0xFFFFFFFF) if scanning is complete.
1704:.\Generated_Source\PSoC4/CapSense_1.c **** *
1705:.\Generated_Source\PSoC4/CapSense_1.c **** * Global Variables:
1706:.\Generated_Source\PSoC4/CapSense_1.c **** *  CapSense_1_sensorIndex - the sensor number is being scanned.
1707:.\Generated_Source\PSoC4/CapSense_1.c **** *
1708:.\Generated_Source\PSoC4/CapSense_1.c **** * Side Effects: 
1709:.\Generated_Source\PSoC4/CapSense_1.c **** *  None
1710:.\Generated_Source\PSoC4/CapSense_1.c **** *
1711:.\Generated_Source\PSoC4/CapSense_1.c **** *******************************************************************************/
1712:.\Generated_Source\PSoC4/CapSense_1.c **** uint32 CapSense_1_ReadCurrentScanningSensor(void)
1713:.\Generated_Source\PSoC4/CapSense_1.c **** {
 968              		.loc 1 1713 0
 969              		.cfi_startproc
1714:.\Generated_Source\PSoC4/CapSense_1.c ****     return ((uint32)(( 0u != (CapSense_1_csdStatusVar & CapSense_1_SW_STS_BUSY)) ? 
 970              		.loc 1 1714 0
 971 0000 054B     		ldr	r3, .L67
 972 0002 1B78     		ldrb	r3, [r3]
 973 0004 DA07     		lsl	r2, r3, #31
 974 0006 03D5     		bpl	.L66
 975              		.loc 1 1714 0 is_stmt 0 discriminator 1
 976 0008 034B     		ldr	r3, .L67
 977 000a 187C     		ldrb	r0, [r3, #16]
ARM GAS  C:\Users\danielpi\AppData\Local\Temp\cccuTXvj.s 			page 49


 978 000c C0B2     		uxtb	r0, r0
 979 000e 01E0     		b	.L65
 980              	.L66:
 981              		.loc 1 1714 0
 982 0010 0120     		mov	r0, #1
 983 0012 4042     		neg	r0, r0
 984              	.L65:
1715:.\Generated_Source\PSoC4/CapSense_1.c ****                      CapSense_1_sensorIndex : CapSense_1_NOT_SENSOR));
1716:.\Generated_Source\PSoC4/CapSense_1.c **** }
 985              		.loc 1 1716 0 is_stmt 1 discriminator 3
 986              		@ sp needed
 987 0014 7047     		bx	lr
 988              	.L68:
 989 0016 C046     		.align	2
 990              	.L67:
 991 0018 00000000 		.word	.LANCHOR0
 992              		.cfi_endproc
 993              	.LFE59:
 994              		.size	CapSense_1_ReadCurrentScanningSensor, .-CapSense_1_ReadCurrentScanningSensor
 995              		.section	.text.CapSense_1_GetBitValue,"ax",%progbits
 996              		.align	2
 997              		.global	CapSense_1_GetBitValue
 998              		.code	16
 999              		.thumb_func
 1000              		.type	CapSense_1_GetBitValue, %function
 1001              	CapSense_1_GetBitValue:
 1002              	.LFB60:
1717:.\Generated_Source\PSoC4/CapSense_1.c **** 
1718:.\Generated_Source\PSoC4/CapSense_1.c **** 
1719:.\Generated_Source\PSoC4/CapSense_1.c **** /*******************************************************************************
1720:.\Generated_Source\PSoC4/CapSense_1.c **** * Function Name: CapSense_1_GetBitValue
1721:.\Generated_Source\PSoC4/CapSense_1.c **** ********************************************************************************
1722:.\Generated_Source\PSoC4/CapSense_1.c **** *
1723:.\Generated_Source\PSoC4/CapSense_1.c **** * Summary:
1724:.\Generated_Source\PSoC4/CapSense_1.c **** *  The API returns a bit status of the bit in the table array which contains the masks.
1725:.\Generated_Source\PSoC4/CapSense_1.c **** * 
1726:.\Generated_Source\PSoC4/CapSense_1.c **** * Parameters:
1727:.\Generated_Source\PSoC4/CapSense_1.c **** *  table[] - array with bit masks.
1728:.\Generated_Source\PSoC4/CapSense_1.c **** *  position - position of bit in the table[] array.
1729:.\Generated_Source\PSoC4/CapSense_1.c **** *
1730:.\Generated_Source\PSoC4/CapSense_1.c **** * Return:
1731:.\Generated_Source\PSoC4/CapSense_1.c **** *  0 - bit is not set; 1 - bit is set.
1732:.\Generated_Source\PSoC4/CapSense_1.c **** *
1733:.\Generated_Source\PSoC4/CapSense_1.c **** * Global Variables:
1734:.\Generated_Source\PSoC4/CapSense_1.c **** *  None
1735:.\Generated_Source\PSoC4/CapSense_1.c **** *
1736:.\Generated_Source\PSoC4/CapSense_1.c **** * Side Effects:
1737:.\Generated_Source\PSoC4/CapSense_1.c **** *  None
1738:.\Generated_Source\PSoC4/CapSense_1.c **** *
1739:.\Generated_Source\PSoC4/CapSense_1.c **** *******************************************************************************/
1740:.\Generated_Source\PSoC4/CapSense_1.c **** uint32 CapSense_1_GetBitValue(const uint8 table[], uint32 position)
1741:.\Generated_Source\PSoC4/CapSense_1.c **** {
 1003              		.loc 1 1741 0
 1004              		.cfi_startproc
 1005              	.LVL120:
1742:.\Generated_Source\PSoC4/CapSense_1.c ****     uint32 offset;
1743:.\Generated_Source\PSoC4/CapSense_1.c **** 	uint8 enMask;
ARM GAS  C:\Users\danielpi\AppData\Local\Temp\cccuTXvj.s 			page 50


1744:.\Generated_Source\PSoC4/CapSense_1.c **** 	
1745:.\Generated_Source\PSoC4/CapSense_1.c **** 	/* position is divided by 8 to calculate the element of the 
1746:.\Generated_Source\PSoC4/CapSense_1.c **** 	   table[] array that contains the enable bit 
1747:.\Generated_Source\PSoC4/CapSense_1.c **** 	   for an appropriate sensor.
1748:.\Generated_Source\PSoC4/CapSense_1.c **** 	*/
1749:.\Generated_Source\PSoC4/CapSense_1.c **** 	offset = (position >> 3u);
 1006              		.loc 1 1749 0
 1007 0000 CB08     		lsr	r3, r1, #3
 1008              	.LVL121:
1750:.\Generated_Source\PSoC4/CapSense_1.c **** 	
1751:.\Generated_Source\PSoC4/CapSense_1.c **** 	/* The enMask calculation for the appropriate sensor. Operation (position & 0x07u) 
1752:.\Generated_Source\PSoC4/CapSense_1.c **** 	   intends to calculate the enable bit offset for the 8-bit element of the 
1753:.\Generated_Source\PSoC4/CapSense_1.c **** 	   table[] array.
1754:.\Generated_Source\PSoC4/CapSense_1.c **** 	*/
1755:.\Generated_Source\PSoC4/CapSense_1.c **** 	enMask = 0x01u << (position & 0x07u);
 1009              		.loc 1 1755 0
 1010 0002 0722     		mov	r2, #7
 1011 0004 1140     		and	r1, r2
 1012              	.LVL122:
 1013 0006 0122     		mov	r2, #1
 1014 0008 8A40     		lsl	r2, r2, r1
 1015              	.LVL123:
1756:.\Generated_Source\PSoC4/CapSense_1.c ****     
1757:.\Generated_Source\PSoC4/CapSense_1.c ****     return ((0u !=(table[offset] & enMask)) ? 1Lu : 0Lu);
 1016              		.loc 1 1757 0
 1017 000a C35C     		ldrb	r3, [r0, r3]
 1018              	.LVL124:
 1019 000c 1A42     		tst	r2, r3
 1020 000e 01D0     		beq	.L71
 1021 0010 0120     		mov	r0, #1
 1022              	.LVL125:
 1023 0012 00E0     		b	.L70
 1024              	.LVL126:
 1025              	.L71:
 1026 0014 0020     		mov	r0, #0
 1027              	.LVL127:
 1028              	.L70:
1758:.\Generated_Source\PSoC4/CapSense_1.c **** }
 1029              		.loc 1 1758 0 discriminator 3
 1030              		@ sp needed
 1031 0016 7047     		bx	lr
 1032              		.cfi_endproc
 1033              	.LFE60:
 1034              		.size	CapSense_1_GetBitValue, .-CapSense_1_GetBitValue
 1035              		.section	.text.CapSense_1_FindNextSensor,"ax",%progbits
 1036              		.align	2
 1037              		.global	CapSense_1_FindNextSensor
 1038              		.code	16
 1039              		.thumb_func
 1040              		.type	CapSense_1_FindNextSensor, %function
 1041              	CapSense_1_FindNextSensor:
 1042              	.LFB40:
 534:.\Generated_Source\PSoC4/CapSense_1.c **** {
 1043              		.loc 1 534 0
 1044              		.cfi_startproc
 1045              	.LVL128:
 1046 0000 38B5     		push	{r3, r4, r5, lr}
ARM GAS  C:\Users\danielpi\AppData\Local\Temp\cccuTXvj.s 			page 51


 1047              		.cfi_def_cfa_offset 16
 1048              		.cfi_offset 3, -16
 1049              		.cfi_offset 4, -12
 1050              		.cfi_offset 5, -8
 1051              		.cfi_offset 14, -4
 1052 0002 041C     		mov	r4, r0
 546:.\Generated_Source\PSoC4/CapSense_1.c ****         enableFlag = CapSense_1_GetBitValue(CapSense_1_sensorEnableMask, (uint32)snsIndex);
 1053              		.loc 1 546 0
 1054 0004 064D     		ldr	r5, .L76
 1055 0006 0435     		add	r5, r5, #4
 1056              	.LVL129:
 1057              	.L74:
 541:.\Generated_Source\PSoC4/CapSense_1.c ****         snsIndex++;
 1058              		.loc 1 541 0
 1059 0008 0134     		add	r4, r4, #1
 1060              	.LVL130:
 1061 000a E4B2     		uxtb	r4, r4
 1062              	.LVL131:
 542:.\Generated_Source\PSoC4/CapSense_1.c ****         if(snsIndex == CapSense_1_TOTAL_SENSOR_COUNT)
 1063              		.loc 1 542 0
 1064 000c 052C     		cmp	r4, #5
 1065 000e 05D0     		beq	.L73
 546:.\Generated_Source\PSoC4/CapSense_1.c ****         enableFlag = CapSense_1_GetBitValue(CapSense_1_sensorEnableMask, (uint32)snsIndex);
 1066              		.loc 1 546 0
 1067 0010 281C     		mov	r0, r5
 1068 0012 211C     		mov	r1, r4
 1069 0014 FFF7FEFF 		bl	CapSense_1_GetBitValue
 1070              	.LVL132:
 548:.\Generated_Source\PSoC4/CapSense_1.c ****     while(enableFlag == 0u);
 1071              		.loc 1 548 0
 1072 0018 0028     		cmp	r0, #0
 1073 001a F5D0     		beq	.L74
 1074              	.LVL133:
 1075              	.L73:
 551:.\Generated_Source\PSoC4/CapSense_1.c **** }
 1076              		.loc 1 551 0
 1077 001c 201C     		mov	r0, r4
 1078              		@ sp needed
 1079              	.LVL134:
 1080 001e 38BD     		pop	{r3, r4, r5, pc}
 1081              	.L77:
 1082              		.align	2
 1083              	.L76:
 1084 0020 00000000 		.word	.LANCHOR1
 1085              		.cfi_endproc
 1086              	.LFE40:
 1087              		.size	CapSense_1_FindNextSensor, .-CapSense_1_FindNextSensor
 1088              		.section	.text.CapSense_1_PreScan,"ax",%progbits
 1089              		.align	2
 1090              		.global	CapSense_1_PreScan
 1091              		.code	16
 1092              		.thumb_func
 1093              		.type	CapSense_1_PreScan, %function
 1094              	CapSense_1_PreScan:
 1095              	.LFB55:
1363:.\Generated_Source\PSoC4/CapSense_1.c **** {
 1096              		.loc 1 1363 0
ARM GAS  C:\Users\danielpi\AppData\Local\Temp\cccuTXvj.s 			page 52


 1097              		.cfi_startproc
 1098              	.LVL135:
 1099 0000 F8B5     		push	{r3, r4, r5, r6, r7, lr}
 1100              		.cfi_def_cfa_offset 24
 1101              		.cfi_offset 3, -24
 1102              		.cfi_offset 4, -20
 1103              		.cfi_offset 5, -16
 1104              		.cfi_offset 6, -12
 1105              		.cfi_offset 7, -8
 1106              		.cfi_offset 14, -4
 1107 0002 041C     		mov	r4, r0
1381:.\Generated_Source\PSoC4/CapSense_1.c ****     widget = CapSense_1_widgetNumber[sensor];
 1108              		.loc 1 1381 0
 1109 0004 324B     		ldr	r3, .L82
 1110 0006 5833     		add	r3, r3, #88
 1111 0008 1A5C     		ldrb	r2, [r3, r0]
 1112              	.LVL136:
1384:.\Generated_Source\PSoC4/CapSense_1.c **** 	counterResolution = CapSense_1_widgetResolution[widget];
 1113              		.loc 1 1384 0
 1114 000a 9200     		lsl	r2, r2, #2
 1115 000c 314B     		ldr	r3, .L82+4
 1116              	.LVL137:
 1117 000e D558     		ldr	r5, [r2, r3]
 1118              	.LVL138:
1388:.\Generated_Source\PSoC4/CapSense_1.c **** 	    oversamplingFactor = CapSense_1_GetBitValue(scanSpeedTbl, sensor);
 1119              		.loc 1 1388 0
 1120 0010 3148     		ldr	r0, .L82+8
 1121              	.LVL139:
 1122 0012 211C     		mov	r1, r4
 1123 0014 FFF7FEFF 		bl	CapSense_1_GetBitValue
 1124              	.LVL140:
1390:.\Generated_Source\PSoC4/CapSense_1.c **** 		if(counterResolution < CapSense_1_RESOLUTION_16_BITS)
 1125              		.loc 1 1390 0
 1126 0018 304B     		ldr	r3, .L82+12
 1127 001a 9D42     		cmp	r5, r3
 1128 001c 04D8     		bhi	.L79
1392:.\Generated_Source\PSoC4/CapSense_1.c **** 			counterResolution <<= oversamplingFactor;
 1129              		.loc 1 1392 0
 1130 001e 8540     		lsl	r5, r5, r0
 1131              	.LVL141:
 1132 0020 281C     		mov	r0, r5
 1133              	.LVL142:
1393:.\Generated_Source\PSoC4/CapSense_1.c **** 			counterResolution |= (uint32)(CapSense_1_RESOLUTION_8_BITS);
 1134              		.loc 1 1393 0
 1135 0022 FF25     		mov	r5, #255
 1136 0024 2D04     		lsl	r5, r5, #16
 1137 0026 0543     		orr	r5, r0
 1138              	.LVL143:
 1139              	.L79:
1399:.\Generated_Source\PSoC4/CapSense_1.c **** 		CapSense_1_SenseClk_Stop();
 1140              		.loc 1 1399 0
 1141 0028 FFF7FEFF 		bl	CapSense_1_SenseClk_Stop
 1142              	.LVL144:
1400:.\Generated_Source\PSoC4/CapSense_1.c **** 		CapSense_1_SampleClk_Stop();
 1143              		.loc 1 1400 0
 1144 002c FFF7FEFF 		bl	CapSense_1_SampleClk_Stop
 1145              	.LVL145:
ARM GAS  C:\Users\danielpi\AppData\Local\Temp\cccuTXvj.s 			page 53


1404:.\Generated_Source\PSoC4/CapSense_1.c **** 		CapSense_1_SampleClk_SetDividerValue((uint16)CapSense_1_sampleClkDividerVal[sensor]);
 1146              		.loc 1 1404 0
 1147 0030 2B4B     		ldr	r3, .L82+16
 1148 0032 185D     		ldrb	r0, [r3, r4]
 1149 0034 0138     		sub	r0, r0, #1
 1150 0036 80B2     		uxth	r0, r0
 1151 0038 0021     		mov	r1, #0
 1152 003a FFF7FEFF 		bl	CapSense_1_SampleClk_SetFractionalDividerRegister
 1153              	.LVL146:
1405:.\Generated_Source\PSoC4/CapSense_1.c **** 		CapSense_1_SenseClk_SetDividerValue((uint16)CapSense_1_senseClkDividerVal[sensor]);
 1154              		.loc 1 1405 0
 1155 003e 294B     		ldr	r3, .L82+20
 1156 0040 185D     		ldrb	r0, [r3, r4]
 1157 0042 0138     		sub	r0, r0, #1
 1158 0044 80B2     		uxth	r0, r0
 1159 0046 0021     		mov	r1, #0
 1160 0048 FFF7FEFF 		bl	CapSense_1_SenseClk_SetFractionalDividerRegister
 1161              	.LVL147:
1412:.\Generated_Source\PSoC4/CapSense_1.c **** 		CapSense_1_SampleClk_Start();
 1162              		.loc 1 1412 0
 1163 004c FF20     		mov	r0, #255
 1164 004e FFF7FEFF 		bl	CapSense_1_SampleClk_StartEx
 1165              	.LVL148:
1413:.\Generated_Source\PSoC4/CapSense_1.c **** 		CapSense_1_SenseClk_StartEx(CapSense_1_SampleClk__DIV_ID);
 1166              		.loc 1 1413 0
 1167 0052 4020     		mov	r0, #64
 1168 0054 FFF7FEFF 		bl	CapSense_1_SenseClk_StartEx
 1169              	.LVL149:
1416:.\Generated_Source\PSoC4/CapSense_1.c **** 			CyIntDisable(CapSense_1_ISR_NUMBER);
 1170              		.loc 1 1416 0
 1171 0058 1020     		mov	r0, #16
 1172 005a FFF7FEFF 		bl	CyIntDisable
 1173              	.LVL150:
1417:.\Generated_Source\PSoC4/CapSense_1.c **** 			CapSense_1_CSD_CNT_REG = CapSense_1_ONE_CYCLE;
 1174              		.loc 1 1417 0
 1175 005e 8022     		mov	r2, #128
 1176 0060 5202     		lsl	r2, r2, #9
 1177 0062 214B     		ldr	r3, .L82+24
 1178 0064 1A60     		str	r2, [r3]
1418:.\Generated_Source\PSoC4/CapSense_1.c **** 			while(0u != (CapSense_1_CSD_CNT_REG & CapSense_1_RESOLUTION_16_BITS))
 1179              		.loc 1 1418 0
 1180 0066 1A1C     		mov	r2, r3
 1181              	.L80:
1418:.\Generated_Source\PSoC4/CapSense_1.c **** 			while(0u != (CapSense_1_CSD_CNT_REG & CapSense_1_RESOLUTION_16_BITS))
 1182              		.loc 1 1418 0 is_stmt 0 discriminator 1
 1183 0068 1368     		ldr	r3, [r2]
 1184 006a 1B0C     		lsr	r3, r3, #16
 1185 006c FCD1     		bne	.L80
1422:.\Generated_Source\PSoC4/CapSense_1.c **** 			CapSense_1_CSD_INTR_REG = 1u;
 1186              		.loc 1 1422 0 is_stmt 1
 1187 006e 0122     		mov	r2, #1
 1188 0070 1E4B     		ldr	r3, .L82+28
 1189 0072 1A60     		str	r2, [r3]
1423:.\Generated_Source\PSoC4/CapSense_1.c **** 			CyIntClearPending(CapSense_1_ISR_NUMBER);
 1190              		.loc 1 1423 0
 1191 0074 1020     		mov	r0, #16
 1192 0076 FFF7FEFF 		bl	CyIntClearPending
ARM GAS  C:\Users\danielpi\AppData\Local\Temp\cccuTXvj.s 			page 54


 1193              	.LVL151:
1424:.\Generated_Source\PSoC4/CapSense_1.c **** 			CyIntEnable(CapSense_1_ISR_NUMBER); 
 1194              		.loc 1 1424 0
 1195 007a 1020     		mov	r0, #16
 1196 007c FFF7FEFF 		bl	CyIntEnable
 1197              	.LVL152:
1474:.\Generated_Source\PSoC4/CapSense_1.c **** 	CyIntDisable(CapSense_1_ISR_NUMBER);
 1198              		.loc 1 1474 0
 1199 0080 1020     		mov	r0, #16
 1200 0082 FFF7FEFF 		bl	CyIntDisable
 1201              	.LVL153:
1475:.\Generated_Source\PSoC4/CapSense_1.c ****     newRegValue = CapSense_1_CSD_IDAC_REG;
 1202              		.loc 1 1475 0
 1203 0086 1A4B     		ldr	r3, .L82+32
 1204 0088 1968     		ldr	r1, [r3]
 1205              	.LVL154:
1481:.\Generated_Source\PSoC4/CapSense_1.c **** 	newRegValue &= ~(CapSense_1_CSD_IDAC1_DATA_MASK | CapSense_1_CSD_IDAC2_DATA_MASK);
 1206              		.loc 1 1481 0
 1207 008a 1A4A     		ldr	r2, .L82+36
 1208 008c 1140     		and	r1, r2
 1209              	.LVL155:
1482:.\Generated_Source\PSoC4/CapSense_1.c **** 	newRegValue |= (CapSense_1_modulationIDAC[sensor] | 
 1210              		.loc 1 1482 0
 1211 008e 1A4A     		ldr	r2, .L82+40
 1212 0090 105D     		ldrb	r0, [r2, r4]
1483:.\Generated_Source\PSoC4/CapSense_1.c **** 							(uint32)((uint32)CapSense_1_compensationIDAC[sensor] <<
 1213              		.loc 1 1483 0
 1214 0092 1A4A     		ldr	r2, .L82+44
 1215 0094 125D     		ldrb	r2, [r2, r4]
 1216 0096 1204     		lsl	r2, r2, #16
1482:.\Generated_Source\PSoC4/CapSense_1.c **** 	newRegValue |= (CapSense_1_modulationIDAC[sensor] | 
 1217              		.loc 1 1482 0
 1218 0098 0243     		orr	r2, r0
 1219 009a 0A43     		orr	r2, r1
 1220              	.LVL156:
1487:.\Generated_Source\PSoC4/CapSense_1.c **** 	CapSense_1_CSD_IDAC_REG = newRegValue;
 1221              		.loc 1 1487 0
 1222 009c 1A60     		str	r2, [r3]
1502:.\Generated_Source\PSoC4/CapSense_1.c **** 	newRegValue = CapSense_1_CSD_CFG_REG;
 1223              		.loc 1 1502 0
 1224 009e 184E     		ldr	r6, .L82+48
 1225 00a0 3768     		ldr	r7, [r6]
 1226              	.LVL157:
1503:.\Generated_Source\PSoC4/CapSense_1.c **** 	newRegValue &= ~(CapSense_1_PRECHARGE_CONFIG_MASK);
 1227              		.loc 1 1503 0
 1228 00a2 184B     		ldr	r3, .L82+52
 1229 00a4 1F40     		and	r7, r3
 1230              	.LVL158:
1504:.\Generated_Source\PSoC4/CapSense_1.c **** 	newRegValue |= CapSense_1_CTANK_PRECHARGE_CONFIG;
 1231              		.loc 1 1504 0
 1232 00a6 184B     		ldr	r3, .L82+56
 1233 00a8 1F43     		orr	r7, r3
 1234              	.LVL159:
1506:.\Generated_Source\PSoC4/CapSense_1.c **** 	CyIntEnable(CapSense_1_ISR_NUMBER);
 1235              		.loc 1 1506 0
 1236 00aa 1020     		mov	r0, #16
 1237 00ac FFF7FEFF 		bl	CyIntEnable
ARM GAS  C:\Users\danielpi\AppData\Local\Temp\cccuTXvj.s 			page 55


 1238              	.LVL160:
1509:.\Generated_Source\PSoC4/CapSense_1.c ****     CapSense_1_EnableScanSlot(sensor);
 1239              		.loc 1 1509 0
 1240 00b0 201C     		mov	r0, r4
 1241 00b2 FFF7FEFF 		bl	CapSense_1_EnableSensor
 1242              	.LVL161:
1511:.\Generated_Source\PSoC4/CapSense_1.c **** 	interruptState = CyEnterCriticalSection();
 1243              		.loc 1 1511 0
 1244 00b6 FFF7FEFF 		bl	CyEnterCriticalSection
 1245              	.LVL162:
 1246 00ba 041C     		mov	r4, r0
 1247              	.LVL163:
1512:.\Generated_Source\PSoC4/CapSense_1.c **** 	CapSense_1_CSD_CFG_REG = newRegValue;
 1248              		.loc 1 1512 0
 1249 00bc 3760     		str	r7, [r6]
1518:.\Generated_Source\PSoC4/CapSense_1.c **** 	CyDelayCycles(CapSense_1_GLITCH_ELIMINATION_CYCLES);
 1250              		.loc 1 1518 0
 1251 00be 0020     		mov	r0, #0
 1252              	.LVL164:
 1253 00c0 FFF7FEFF 		bl	CyDelayCycles
 1254              	.LVL165:
1524:.\Generated_Source\PSoC4/CapSense_1.c ****     CapSense_1_CSD_CNT_REG = counterResolution;
 1255              		.loc 1 1524 0
 1256 00c4 084B     		ldr	r3, .L82+24
 1257 00c6 1D60     		str	r5, [r3]
1525:.\Generated_Source\PSoC4/CapSense_1.c ****     CyExitCriticalSection(interruptState);
 1258              		.loc 1 1525 0
 1259 00c8 201C     		mov	r0, r4
 1260 00ca FFF7FEFF 		bl	CyExitCriticalSection
 1261              	.LVL166:
1526:.\Generated_Source\PSoC4/CapSense_1.c **** }
 1262              		.loc 1 1526 0
 1263              		@ sp needed
 1264              	.LVL167:
 1265              	.LVL168:
 1266              	.LVL169:
 1267 00ce F8BD     		pop	{r3, r4, r5, r6, r7, pc}
 1268              	.L83:
 1269              		.align	2
 1270              	.L82:
 1271 00d0 00000000 		.word	.LANCHOR2
 1272 00d4 00000000 		.word	.LANCHOR1
 1273 00d8 00000000 		.word	scanSpeedTbl
 1274 00dc FFFFFEFF 		.word	-65537
 1275 00e0 00000000 		.word	CapSense_1_sampleClkDividerVal
 1276 00e4 00000000 		.word	CapSense_1_senseClkDividerVal
 1277 00e8 0C002840 		.word	1076363276
 1278 00ec 14002840 		.word	1076363284
 1279 00f0 08002840 		.word	1076363272
 1280 00f4 00FF80FF 		.word	-8323328
 1281 00f8 00000000 		.word	CapSense_1_modulationIDAC
 1282 00fc 00000000 		.word	CapSense_1_compensationIDAC
 1283 0100 04002840 		.word	1076363268
 1284 0104 FF1FDFFF 		.word	-2154497
 1285 0108 20E02000 		.word	2154528
 1286              		.cfi_endproc
 1287              	.LFE55:
ARM GAS  C:\Users\danielpi\AppData\Local\Temp\cccuTXvj.s 			page 56


 1288              		.size	CapSense_1_PreScan, .-CapSense_1_PreScan
 1289              		.section	.text.CapSense_1_ScanSensor,"ax",%progbits
 1290              		.align	2
 1291              		.global	CapSense_1_ScanSensor
 1292              		.code	16
 1293              		.thumb_func
 1294              		.type	CapSense_1_ScanSensor, %function
 1295              	CapSense_1_ScanSensor:
 1296              	.LFB41:
 582:.\Generated_Source\PSoC4/CapSense_1.c **** {
 1297              		.loc 1 582 0
 1298              		.cfi_startproc
 1299              	.LVL170:
 1300 0000 08B5     		push	{r3, lr}
 1301              		.cfi_def_cfa_offset 8
 1302              		.cfi_offset 3, -8
 1303              		.cfi_offset 14, -4
 584:.\Generated_Source\PSoC4/CapSense_1.c ****     CapSense_1_csdStatusVar = 0u;
 1304              		.loc 1 584 0
 1305 0002 054B     		ldr	r3, .L85
 1306 0004 0022     		mov	r2, #0
 1307 0006 1A70     		strb	r2, [r3]
 585:.\Generated_Source\PSoC4/CapSense_1.c ****     CapSense_1_sensorIndex = (uint8)sensor;
 1308              		.loc 1 585 0
 1309 0008 C2B2     		uxtb	r2, r0
 1310 000a 1A74     		strb	r2, [r3, #16]
 588:.\Generated_Source\PSoC4/CapSense_1.c ****     CapSense_1_csdStatusVar = (CapSense_1_SW_STS_BUSY | CapSense_1_SW_CTRL_SINGLE_SCAN);
 1311              		.loc 1 588 0
 1312 000c 8122     		mov	r2, #129
 1313 000e 1A70     		strb	r2, [r3]
 589:.\Generated_Source\PSoC4/CapSense_1.c ****     CapSense_1_PreScan(sensor);
 1314              		.loc 1 589 0
 1315 0010 FFF7FEFF 		bl	CapSense_1_PreScan
 1316              	.LVL171:
 590:.\Generated_Source\PSoC4/CapSense_1.c **** }
 1317              		.loc 1 590 0
 1318              		@ sp needed
 1319 0014 08BD     		pop	{r3, pc}
 1320              	.L86:
 1321 0016 C046     		.align	2
 1322              	.L85:
 1323 0018 00000000 		.word	.LANCHOR0
 1324              		.cfi_endproc
 1325              	.LFE41:
 1326              		.size	CapSense_1_ScanSensor, .-CapSense_1_ScanSensor
 1327              		.section	.text.CapSense_1_ScanEnabledWidgets,"ax",%progbits
 1328              		.align	2
 1329              		.global	CapSense_1_ScanEnabledWidgets
 1330              		.code	16
 1331              		.thumb_func
 1332              		.type	CapSense_1_ScanEnabledWidgets, %function
 1333              	CapSense_1_ScanEnabledWidgets:
 1334              	.LFB43:
 706:.\Generated_Source\PSoC4/CapSense_1.c **** {
 1335              		.loc 1 706 0
 1336              		.cfi_startproc
 1337 0000 10B5     		push	{r4, lr}
ARM GAS  C:\Users\danielpi\AppData\Local\Temp\cccuTXvj.s 			page 57


 1338              		.cfi_def_cfa_offset 8
 1339              		.cfi_offset 4, -8
 1340              		.cfi_offset 14, -4
 708:.\Generated_Source\PSoC4/CapSense_1.c ****     CapSense_1_csdStatusVar = 0u;
 1341              		.loc 1 708 0
 1342 0002 0B4C     		ldr	r4, .L89
 1343 0004 0023     		mov	r3, #0
 1344 0006 2370     		strb	r3, [r4]
 709:.\Generated_Source\PSoC4/CapSense_1.c ****     CapSense_1_sensorIndex = 0xFFu;
 1345              		.loc 1 709 0
 1346 0008 FF23     		mov	r3, #255
 1347 000a 2374     		strb	r3, [r4, #16]
 712:.\Generated_Source\PSoC4/CapSense_1.c ****     CapSense_1_sensorIndex = (uint8)CapSense_1_FindNextSensor(CapSense_1_sensorIndex);
 1348              		.loc 1 712 0
 1349 000c 207C     		ldrb	r0, [r4, #16]
 1350 000e C0B2     		uxtb	r0, r0
 1351 0010 FFF7FEFF 		bl	CapSense_1_FindNextSensor
 1352              	.LVL172:
 1353 0014 2074     		strb	r0, [r4, #16]
 715:.\Generated_Source\PSoC4/CapSense_1.c ****     if(CapSense_1_sensorIndex < CapSense_1_TOTAL_SENSOR_COUNT)
 1354              		.loc 1 715 0
 1355 0016 237C     		ldrb	r3, [r4, #16]
 1356 0018 DBB2     		uxtb	r3, r3
 1357 001a 042B     		cmp	r3, #4
 1358 001c 07D8     		bhi	.L87
 717:.\Generated_Source\PSoC4/CapSense_1.c ****         CapSense_1_csdStatusVar |= CapSense_1_SW_STS_BUSY;
 1359              		.loc 1 717 0
 1360 001e 2178     		ldrb	r1, [r4]
 1361 0020 0122     		mov	r2, #1
 1362 0022 0A43     		orr	r2, r1
 1363 0024 2270     		strb	r2, [r4]
 718:.\Generated_Source\PSoC4/CapSense_1.c ****         CapSense_1_PreScan((uint32)CapSense_1_sensorIndex);
 1364              		.loc 1 718 0
 1365 0026 207C     		ldrb	r0, [r4, #16]
 1366 0028 C0B2     		uxtb	r0, r0
 1367 002a FFF7FEFF 		bl	CapSense_1_PreScan
 1368              	.LVL173:
 1369              	.L87:
 720:.\Generated_Source\PSoC4/CapSense_1.c **** }
 1370              		.loc 1 720 0
 1371              		@ sp needed
 1372 002e 10BD     		pop	{r4, pc}
 1373              	.L90:
 1374              		.align	2
 1375              	.L89:
 1376 0030 00000000 		.word	.LANCHOR0
 1377              		.cfi_endproc
 1378              	.LFE43:
 1379              		.size	CapSense_1_ScanEnabledWidgets, .-CapSense_1_ScanEnabledWidgets
 1380              		.section	.text.CapSense_1_PostScan,"ax",%progbits
 1381              		.align	2
 1382              		.global	CapSense_1_PostScan
 1383              		.code	16
 1384              		.thumb_func
 1385              		.type	CapSense_1_PostScan, %function
 1386              	CapSense_1_PostScan:
 1387              	.LFB56:
ARM GAS  C:\Users\danielpi\AppData\Local\Temp\cccuTXvj.s 			page 58


1552:.\Generated_Source\PSoC4/CapSense_1.c **** {	
 1388              		.loc 1 1552 0
 1389              		.cfi_startproc
 1390              	.LVL174:
 1391 0000 38B5     		push	{r3, r4, r5, lr}
 1392              		.cfi_def_cfa_offset 16
 1393              		.cfi_offset 3, -16
 1394              		.cfi_offset 4, -12
 1395              		.cfi_offset 5, -8
 1396              		.cfi_offset 14, -4
 1397 0002 041C     		mov	r4, r0
1567:.\Generated_Source\PSoC4/CapSense_1.c ****     CapSense_1_sensorRaw[sensor]  = (uint16)CapSense_1_CSD_CNT_REG;
 1398              		.loc 1 1567 0
 1399 0004 174B     		ldr	r3, .L93
 1400 0006 1D68     		ldr	r5, [r3]
 1401 0008 ADB2     		uxth	r5, r5
 1402 000a 4300     		lsl	r3, r0, #1
 1403 000c 164A     		ldr	r2, .L93+4
 1404 000e D318     		add	r3, r2, r3
 1405 0010 9D80     		strh	r5, [r3, #4]
1571:.\Generated_Source\PSoC4/CapSense_1.c **** 	widget = CapSense_1_widgetNumber[sensor];
 1406              		.loc 1 1571 0
 1407 0012 164B     		ldr	r3, .L93+8
 1408 0014 5833     		add	r3, r3, #88
 1409 0016 1A5C     		ldrb	r2, [r3, r0]
 1410              	.LVL175:
1572:.\Generated_Source\PSoC4/CapSense_1.c **** 	if(CapSense_1_widgetResolution[widget] < CapSense_1_RESOLUTION_16_BITS)
 1411              		.loc 1 1572 0
 1412 0018 9200     		lsl	r2, r2, #2
 1413              	.LVL176:
 1414 001a 154B     		ldr	r3, .L93+12
 1415              	.LVL177:
 1416 001c D258     		ldr	r2, [r2, r3]
 1417 001e 154B     		ldr	r3, .L93+16
 1418 0020 9A42     		cmp	r2, r3
 1419 0022 08D8     		bhi	.L92
1574:.\Generated_Source\PSoC4/CapSense_1.c **** 		oversamplingFactor = CapSense_1_GetBitValue(scanSpeedTbl, sensor);
 1420              		.loc 1 1574 0
 1421 0024 1448     		ldr	r0, .L93+20
 1422              	.LVL178:
 1423 0026 211C     		mov	r1, r4
 1424 0028 FFF7FEFF 		bl	CapSense_1_GetBitValue
 1425              	.LVL179:
1575:.\Generated_Source\PSoC4/CapSense_1.c **** 		CapSense_1_sensorRaw[sensor] >>= oversamplingFactor;
 1426              		.loc 1 1575 0
 1427 002c 6300     		lsl	r3, r4, #1
 1428 002e 0E4A     		ldr	r2, .L93+4
 1429 0030 D318     		add	r3, r2, r3
 1430 0032 0541     		asr	r5, r5, r0
 1431 0034 9D80     		strh	r5, [r3, #4]
 1432              	.LVL180:
 1433              	.L92:
1581:.\Generated_Source\PSoC4/CapSense_1.c ****     CapSense_1_DisableScanSlot(sensor);
 1434              		.loc 1 1581 0
 1435 0036 201C     		mov	r0, r4
 1436 0038 FFF7FEFF 		bl	CapSense_1_DisableSensor
 1437              	.LVL181:
ARM GAS  C:\Users\danielpi\AppData\Local\Temp\cccuTXvj.s 			page 59


1583:.\Generated_Source\PSoC4/CapSense_1.c **** 	CyIntDisable(CapSense_1_ISR_NUMBER);
 1438              		.loc 1 1583 0
 1439 003c 1020     		mov	r0, #16
 1440 003e FFF7FEFF 		bl	CyIntDisable
 1441              	.LVL182:
1603:.\Generated_Source\PSoC4/CapSense_1.c **** 	newRegValue = CapSense_1_CSD_CFG_REG;
 1442              		.loc 1 1603 0
 1443 0042 0E4B     		ldr	r3, .L93+24
 1444 0044 1968     		ldr	r1, [r3]
 1445              	.LVL183:
1604:.\Generated_Source\PSoC4/CapSense_1.c **** 	newRegValue &= ~(CapSense_1_PRECHARGE_CONFIG_MASK);
 1446              		.loc 1 1604 0
 1447 0046 0E4A     		ldr	r2, .L93+28
 1448 0048 0A40     		and	r2, r1
 1449              	.LVL184:
1605:.\Generated_Source\PSoC4/CapSense_1.c **** 	newRegValue |= CapSense_1_CMOD_PRECHARGE_CONFIG;
 1450              		.loc 1 1605 0
 1451 004a A021     		mov	r1, #160
 1452 004c 0902     		lsl	r1, r1, #8
 1453 004e 0A43     		orr	r2, r1
 1454              	.LVL185:
1606:.\Generated_Source\PSoC4/CapSense_1.c **** 	CapSense_1_CSD_CFG_REG = newRegValue;
 1455              		.loc 1 1606 0
 1456 0050 1A60     		str	r2, [r3]
1612:.\Generated_Source\PSoC4/CapSense_1.c **** 	CapSense_1_CSD_IDAC_REG &= ~(CapSense_1_CSD_IDAC1_DATA_MASK | CapSense_1_CSD_IDAC2_DATA_MASK);    
 1457              		.loc 1 1612 0
 1458 0052 0C4B     		ldr	r3, .L93+32
 1459 0054 1968     		ldr	r1, [r3]
 1460 0056 0C4A     		ldr	r2, .L93+36
 1461              	.LVL186:
 1462 0058 0A40     		and	r2, r1
 1463 005a 1A60     		str	r2, [r3]
 1464              	.LVL187:
1615:.\Generated_Source\PSoC4/CapSense_1.c **** 	CyIntEnable(CapSense_1_ISR_NUMBER);
 1465              		.loc 1 1615 0
 1466 005c 1020     		mov	r0, #16
 1467 005e FFF7FEFF 		bl	CyIntEnable
 1468              	.LVL188:
1616:.\Generated_Source\PSoC4/CapSense_1.c **** }
 1469              		.loc 1 1616 0
 1470              		@ sp needed
 1471              	.LVL189:
 1472 0062 38BD     		pop	{r3, r4, r5, pc}
 1473              	.L94:
 1474              		.align	2
 1475              	.L93:
 1476 0064 0C002840 		.word	1076363276
 1477 0068 00000000 		.word	.LANCHOR0
 1478 006c 00000000 		.word	.LANCHOR2
 1479 0070 00000000 		.word	.LANCHOR1
 1480 0074 FFFFFEFF 		.word	-65537
 1481 0078 00000000 		.word	scanSpeedTbl
 1482 007c 04002840 		.word	1076363268
 1483 0080 FF1FDFFF 		.word	-2154497
 1484 0084 08002840 		.word	1076363272
 1485 0088 00FF80FF 		.word	-8323328
 1486              		.cfi_endproc
ARM GAS  C:\Users\danielpi\AppData\Local\Temp\cccuTXvj.s 			page 60


 1487              	.LFE56:
 1488              		.size	CapSense_1_PostScan, .-CapSense_1_PostScan
 1489              		.section	.text.CapSense_1_SetBitValue,"ax",%progbits
 1490              		.align	2
 1491              		.global	CapSense_1_SetBitValue
 1492              		.code	16
 1493              		.thumb_func
 1494              		.type	CapSense_1_SetBitValue, %function
 1495              	CapSense_1_SetBitValue:
 1496              	.LFB61:
1759:.\Generated_Source\PSoC4/CapSense_1.c **** 
1760:.\Generated_Source\PSoC4/CapSense_1.c **** 
1761:.\Generated_Source\PSoC4/CapSense_1.c **** /*******************************************************************************
1762:.\Generated_Source\PSoC4/CapSense_1.c **** * Function Name: CapSense_1_SetBitValue
1763:.\Generated_Source\PSoC4/CapSense_1.c **** ********************************************************************************
1764:.\Generated_Source\PSoC4/CapSense_1.c **** *
1765:.\Generated_Source\PSoC4/CapSense_1.c **** * Summary:
1766:.\Generated_Source\PSoC4/CapSense_1.c **** *  The API sets a bit status of the bit in the table array which contains masks.
1767:.\Generated_Source\PSoC4/CapSense_1.c **** * 
1768:.\Generated_Source\PSoC4/CapSense_1.c **** * Parameters:
1769:.\Generated_Source\PSoC4/CapSense_1.c **** *  table[] - array with bit masks.
1770:.\Generated_Source\PSoC4/CapSense_1.c **** *  position - position of bit in the table[] array.
1771:.\Generated_Source\PSoC4/CapSense_1.c **** *  value: 0 - bit is not set; 1 - bit is set.
1772:.\Generated_Source\PSoC4/CapSense_1.c **** *
1773:.\Generated_Source\PSoC4/CapSense_1.c **** * Return:
1774:.\Generated_Source\PSoC4/CapSense_1.c **** *  None
1775:.\Generated_Source\PSoC4/CapSense_1.c **** *
1776:.\Generated_Source\PSoC4/CapSense_1.c **** * Global Variables:
1777:.\Generated_Source\PSoC4/CapSense_1.c **** *  None
1778:.\Generated_Source\PSoC4/CapSense_1.c **** *
1779:.\Generated_Source\PSoC4/CapSense_1.c **** * Side Effects:
1780:.\Generated_Source\PSoC4/CapSense_1.c **** *  None
1781:.\Generated_Source\PSoC4/CapSense_1.c **** *
1782:.\Generated_Source\PSoC4/CapSense_1.c **** *******************************************************************************/
1783:.\Generated_Source\PSoC4/CapSense_1.c **** void CapSense_1_SetBitValue(uint8 table[], uint32 position, uint32 value)
1784:.\Generated_Source\PSoC4/CapSense_1.c **** {
 1497              		.loc 1 1784 0
 1498              		.cfi_startproc
 1499              	.LVL190:
 1500 0000 10B5     		push	{r4, lr}
 1501              		.cfi_def_cfa_offset 8
 1502              		.cfi_offset 4, -8
 1503              		.cfi_offset 14, -4
1785:.\Generated_Source\PSoC4/CapSense_1.c ****     uint32 offset;
1786:.\Generated_Source\PSoC4/CapSense_1.c **** 	uint8 enMask;
1787:.\Generated_Source\PSoC4/CapSense_1.c **** 	
1788:.\Generated_Source\PSoC4/CapSense_1.c **** 	/* position is divided by 8 to calculate the element of the 
1789:.\Generated_Source\PSoC4/CapSense_1.c **** 	   table[] array that contains the enable bit 
1790:.\Generated_Source\PSoC4/CapSense_1.c **** 	   for an appropriate sensor.
1791:.\Generated_Source\PSoC4/CapSense_1.c **** 	*/
1792:.\Generated_Source\PSoC4/CapSense_1.c **** 	offset = (position >> 3u);
 1504              		.loc 1 1792 0
 1505 0002 CB08     		lsr	r3, r1, #3
 1506              	.LVL191:
1793:.\Generated_Source\PSoC4/CapSense_1.c **** 	
1794:.\Generated_Source\PSoC4/CapSense_1.c **** 	/* The enMask calculation for the appropriate sensor. Operation (position & 0x07u) 
1795:.\Generated_Source\PSoC4/CapSense_1.c **** 	   intends to calculate the enable bit offset for the 8-bit element of the 
ARM GAS  C:\Users\danielpi\AppData\Local\Temp\cccuTXvj.s 			page 61


1796:.\Generated_Source\PSoC4/CapSense_1.c **** 	   table[] array.
1797:.\Generated_Source\PSoC4/CapSense_1.c **** 	*/
1798:.\Generated_Source\PSoC4/CapSense_1.c **** 	enMask = 0x01u << (position & 0x07u);
 1507              		.loc 1 1798 0
 1508 0004 0724     		mov	r4, #7
 1509 0006 2140     		and	r1, r4
 1510              	.LVL192:
 1511 0008 0124     		mov	r4, #1
 1512 000a 8C40     		lsl	r4, r4, r1
 1513 000c E1B2     		uxtb	r1, r4
 1514              	.LVL193:
1799:.\Generated_Source\PSoC4/CapSense_1.c **** 	
1800:.\Generated_Source\PSoC4/CapSense_1.c **** 	if(0u != value)
 1515              		.loc 1 1800 0
 1516 000e 002A     		cmp	r2, #0
 1517 0010 04D0     		beq	.L96
1801:.\Generated_Source\PSoC4/CapSense_1.c **** 	{
1802:.\Generated_Source\PSoC4/CapSense_1.c **** 		table[offset] |= enMask;
 1518              		.loc 1 1802 0
 1519 0012 C018     		add	r0, r0, r3
 1520              	.LVL194:
 1521 0014 0378     		ldrb	r3, [r0]
 1522              	.LVL195:
 1523 0016 1943     		orr	r1, r3
 1524 0018 0170     		strb	r1, [r0]
 1525 001a 03E0     		b	.L95
 1526              	.LVL196:
 1527              	.L96:
1803:.\Generated_Source\PSoC4/CapSense_1.c **** 	}
1804:.\Generated_Source\PSoC4/CapSense_1.c **** 	else
1805:.\Generated_Source\PSoC4/CapSense_1.c **** 	{
1806:.\Generated_Source\PSoC4/CapSense_1.c **** 		table[offset] &= (uint8)~(enMask);
 1528              		.loc 1 1806 0
 1529 001c C018     		add	r0, r0, r3
 1530              	.LVL197:
 1531 001e 0378     		ldrb	r3, [r0]
 1532              	.LVL198:
 1533 0020 8B43     		bic	r3, r1
 1534 0022 0370     		strb	r3, [r0]
 1535              	.L95:
1807:.\Generated_Source\PSoC4/CapSense_1.c **** 	}
1808:.\Generated_Source\PSoC4/CapSense_1.c **** }
 1536              		.loc 1 1808 0
 1537              		@ sp needed
 1538              	.LVL199:
 1539 0024 10BD     		pop	{r4, pc}
 1540              		.cfi_endproc
 1541              	.LFE61:
 1542              		.size	CapSense_1_SetBitValue, .-CapSense_1_SetBitValue
 1543 0026 C046     		.section	.text.CapSense_1_ScanWidget,"ax",%progbits
 1544              		.align	2
 1545              		.global	CapSense_1_ScanWidget
 1546              		.code	16
 1547              		.thumb_func
 1548              		.type	CapSense_1_ScanWidget, %function
 1549              	CapSense_1_ScanWidget:
 1550              	.LFB42:
ARM GAS  C:\Users\danielpi\AppData\Local\Temp\cccuTXvj.s 			page 62


 621:.\Generated_Source\PSoC4/CapSense_1.c **** {
 1551              		.loc 1 621 0
 1552              		.cfi_startproc
 1553              	.LVL200:
 1554 0000 F0B5     		push	{r4, r5, r6, r7, lr}
 1555              		.cfi_def_cfa_offset 20
 1556              		.cfi_offset 4, -20
 1557              		.cfi_offset 5, -16
 1558              		.cfi_offset 6, -12
 1559              		.cfi_offset 7, -8
 1560              		.cfi_offset 14, -4
 1561 0002 4746     		mov	r7, r8
 1562 0004 80B4     		push	{r7}
 1563              		.cfi_def_cfa_offset 24
 1564              		.cfi_offset 8, -24
 627:.\Generated_Source\PSoC4/CapSense_1.c **** 	CapSense_1_sensorIndex = CapSense_1_rawDataIndex[widget];
 1565              		.loc 1 627 0
 1566 0006 1F4B     		ldr	r3, .L108
 1567 0008 1F5C     		ldrb	r7, [r3, r0]
 1568 000a 1F4B     		ldr	r3, .L108+4
 1569 000c 1F74     		strb	r7, [r3, #16]
 630:.\Generated_Source\PSoC4/CapSense_1.c **** 	sensorsPerWidget = CapSense_1_numberOfSensors[widget];
 1570              		.loc 1 630 0
 1571 000e 1F4B     		ldr	r3, .L108+8
 1572 0010 1B5C     		ldrb	r3, [r3, r0]
 1573              	.LVL201:
 633:.\Generated_Source\PSoC4/CapSense_1.c **** 	if(sensorsPerWidget == 0u)
 1574              		.loc 1 633 0
 1575 0012 002B     		cmp	r3, #0
 1576 0014 00D1     		bne	.L99
 635:.\Generated_Source\PSoC4/CapSense_1.c **** 		sensorsPerWidget = 1u;
 1577              		.loc 1 635 0
 1578 0016 0123     		mov	r3, #1
 1579              	.LVL202:
 1580              	.L99:
 639:.\Generated_Source\PSoC4/CapSense_1.c **** 	lastSensor = (CapSense_1_rawDataIndex[widget] + sensorsPerWidget) - 1u;
 1581              		.loc 1 639 0
 1582 0018 FF18     		add	r7, r7, r3
 1583 001a 013F     		sub	r7, r7, #1
 1584              	.LVL203:
 642:.\Generated_Source\PSoC4/CapSense_1.c **** 	for(snsIndex = 0u; snsIndex < CapSense_1_TOTAL_SENSOR_MASK; snsIndex++)
 1585              		.loc 1 642 0
 1586 001c 0023     		mov	r3, #0
 1587              	.LVL204:
 1588 001e 05E0     		b	.L100
 1589              	.LVL205:
 1590              	.L101:
 645:.\Generated_Source\PSoC4/CapSense_1.c **** 		CapSense_1_sensorEnableMaskBackup[snsIndex] = CapSense_1_sensorEnableMask[snsIndex];
 1591              		.loc 1 645 0 discriminator 2
 1592 0020 1B49     		ldr	r1, .L108+12
 1593 0022 CA18     		add	r2, r1, r3
 1594 0024 1279     		ldrb	r2, [r2, #4]
 1595 0026 1B49     		ldr	r1, .L108+16
 1596 0028 CA54     		strb	r2, [r1, r3]
 642:.\Generated_Source\PSoC4/CapSense_1.c **** 	for(snsIndex = 0u; snsIndex < CapSense_1_TOTAL_SENSOR_MASK; snsIndex++)
 1597              		.loc 1 642 0 discriminator 2
 1598 002a 0133     		add	r3, r3, #1
ARM GAS  C:\Users\danielpi\AppData\Local\Temp\cccuTXvj.s 			page 63


 1599              	.LVL206:
 1600              	.L100:
 642:.\Generated_Source\PSoC4/CapSense_1.c **** 	for(snsIndex = 0u; snsIndex < CapSense_1_TOTAL_SENSOR_MASK; snsIndex++)
 1601              		.loc 1 642 0 is_stmt 0 discriminator 1
 1602 002c 002B     		cmp	r3, #0
 1603 002e F7D0     		beq	.L101
 1604 0030 0024     		mov	r4, #0
 652:.\Generated_Source\PSoC4/CapSense_1.c **** 	    if((snsIndex >= CapSense_1_sensorIndex) && (snsIndex <= lastSensor))
 1605              		.loc 1 652 0 is_stmt 1
 1606 0032 154D     		ldr	r5, .L108+4
 660:.\Generated_Source\PSoC4/CapSense_1.c **** 		    CapSense_1_SetBitValue(CapSense_1_sensorEnableMask, snsIndex, 0u);
 1607              		.loc 1 660 0
 1608 0034 164E     		ldr	r6, .L108+12
 1609 0036 0436     		add	r6, r6, #4
 655:.\Generated_Source\PSoC4/CapSense_1.c **** 			CapSense_1_SetBitValue(CapSense_1_sensorEnableMask, snsIndex, 1u);
 1610              		.loc 1 655 0
 1611 0038 B046     		mov	r8, r6
 1612 003a 11E0     		b	.L102
 1613              	.LVL207:
 1614              	.L105:
 652:.\Generated_Source\PSoC4/CapSense_1.c **** 	    if((snsIndex >= CapSense_1_sensorIndex) && (snsIndex <= lastSensor))
 1615              		.loc 1 652 0
 1616 003c 2B7C     		ldrb	r3, [r5, #16]
 1617 003e DBB2     		uxtb	r3, r3
 1618 0040 A342     		cmp	r3, r4
 1619 0042 07D8     		bhi	.L103
 652:.\Generated_Source\PSoC4/CapSense_1.c **** 	    if((snsIndex >= CapSense_1_sensorIndex) && (snsIndex <= lastSensor))
 1620              		.loc 1 652 0 is_stmt 0 discriminator 1
 1621 0044 BC42     		cmp	r4, r7
 1622 0046 05D8     		bhi	.L103
 655:.\Generated_Source\PSoC4/CapSense_1.c **** 			CapSense_1_SetBitValue(CapSense_1_sensorEnableMask, snsIndex, 1u);
 1623              		.loc 1 655 0 is_stmt 1
 1624 0048 4046     		mov	r0, r8
 1625 004a 211C     		mov	r1, r4
 1626 004c 0122     		mov	r2, #1
 1627 004e FFF7FEFF 		bl	CapSense_1_SetBitValue
 1628              	.LVL208:
 1629 0052 04E0     		b	.L104
 1630              	.L103:
 660:.\Generated_Source\PSoC4/CapSense_1.c **** 		    CapSense_1_SetBitValue(CapSense_1_sensorEnableMask, snsIndex, 0u);
 1631              		.loc 1 660 0
 1632 0054 301C     		mov	r0, r6
 1633 0056 211C     		mov	r1, r4
 1634 0058 0022     		mov	r2, #0
 1635 005a FFF7FEFF 		bl	CapSense_1_SetBitValue
 1636              	.LVL209:
 1637              	.L104:
 649:.\Generated_Source\PSoC4/CapSense_1.c **** 	for(snsIndex = 0u; snsIndex < CapSense_1_TOTAL_SENSOR_COUNT; snsIndex++)
 1638              		.loc 1 649 0
 1639 005e 0134     		add	r4, r4, #1
 1640              	.LVL210:
 1641              	.L102:
 649:.\Generated_Source\PSoC4/CapSense_1.c **** 	for(snsIndex = 0u; snsIndex < CapSense_1_TOTAL_SENSOR_COUNT; snsIndex++)
 1642              		.loc 1 649 0 is_stmt 0 discriminator 1
 1643 0060 042C     		cmp	r4, #4
 1644 0062 EBD9     		bls	.L105
 665:.\Generated_Source\PSoC4/CapSense_1.c ****     if(CapSense_1_sensorIndex < CapSense_1_TOTAL_SENSOR_COUNT)
ARM GAS  C:\Users\danielpi\AppData\Local\Temp\cccuTXvj.s 			page 64


 1645              		.loc 1 665 0 is_stmt 1
 1646 0064 084B     		ldr	r3, .L108+4
 1647 0066 1B7C     		ldrb	r3, [r3, #16]
 1648 0068 DBB2     		uxtb	r3, r3
 1649 006a 042B     		cmp	r3, #4
 1650 006c 06D8     		bhi	.L98
 668:.\Generated_Source\PSoC4/CapSense_1.c **** 		CapSense_1_csdStatusVar = (CapSense_1_SW_STS_BUSY | CapSense_1_SW_CTRL_WIDGET_SCAN);
 1651              		.loc 1 668 0
 1652 006e 064B     		ldr	r3, .L108+4
 1653 0070 4122     		mov	r2, #65
 1654 0072 1A70     		strb	r2, [r3]
 670:.\Generated_Source\PSoC4/CapSense_1.c ****         CapSense_1_PreScan((uint32)CapSense_1_sensorIndex);
 1655              		.loc 1 670 0
 1656 0074 187C     		ldrb	r0, [r3, #16]
 1657 0076 C0B2     		uxtb	r0, r0
 1658 0078 FFF7FEFF 		bl	CapSense_1_PreScan
 1659              	.LVL211:
 1660              	.L98:
 672:.\Generated_Source\PSoC4/CapSense_1.c **** }
 1661              		.loc 1 672 0
 1662              		@ sp needed
 1663              	.LVL212:
 1664              	.LVL213:
 1665 007c 04BC     		pop	{r2}
 1666 007e 9046     		mov	r8, r2
 1667 0080 F0BD     		pop	{r4, r5, r6, r7, pc}
 1668              	.L109:
 1669 0082 C046     		.align	2
 1670              	.L108:
 1671 0084 00000000 		.word	CapSense_1_rawDataIndex
 1672 0088 00000000 		.word	.LANCHOR0
 1673 008c 00000000 		.word	CapSense_1_numberOfSensors
 1674 0090 00000000 		.word	.LANCHOR1
 1675 0094 00000000 		.word	CapSense_1_sensorEnableMaskBackup
 1676              		.cfi_endproc
 1677              	.LFE42:
 1678              		.size	CapSense_1_ScanWidget, .-CapSense_1_ScanWidget
 1679              		.section	.text.CapSense_1_GetSenseClkDivider,"ax",%progbits
 1680              		.align	2
 1681              		.global	CapSense_1_GetSenseClkDivider
 1682              		.code	16
 1683              		.thumb_func
 1684              		.type	CapSense_1_GetSenseClkDivider, %function
 1685              	CapSense_1_GetSenseClkDivider:
 1686              	.LFB62:
1809:.\Generated_Source\PSoC4/CapSense_1.c **** 
1810:.\Generated_Source\PSoC4/CapSense_1.c **** 
1811:.\Generated_Source\PSoC4/CapSense_1.c **** 
1812:.\Generated_Source\PSoC4/CapSense_1.c **** /*******************************************************************************
1813:.\Generated_Source\PSoC4/CapSense_1.c **** * Function Name: CapSense_1_GetSenseClkDivider
1814:.\Generated_Source\PSoC4/CapSense_1.c **** ********************************************************************************
1815:.\Generated_Source\PSoC4/CapSense_1.c **** *
1816:.\Generated_Source\PSoC4/CapSense_1.c **** * Summary:
1817:.\Generated_Source\PSoC4/CapSense_1.c **** *  This API returns a value of the sense clock divider for the  sensor.
1818:.\Generated_Source\PSoC4/CapSense_1.c **** *
1819:.\Generated_Source\PSoC4/CapSense_1.c **** * Parameters:
1820:.\Generated_Source\PSoC4/CapSense_1.c **** *  sensor: sensor index. The index value can be 
ARM GAS  C:\Users\danielpi\AppData\Local\Temp\cccuTXvj.s 			page 65


1821:.\Generated_Source\PSoC4/CapSense_1.c **** *  from 0 to (CapSense_1_TOTAL_SENSOR_COUNT-1).
1822:.\Generated_Source\PSoC4/CapSense_1.c **** *
1823:.\Generated_Source\PSoC4/CapSense_1.c **** * Return:
1824:.\Generated_Source\PSoC4/CapSense_1.c **** *  This API returns the sense clock divider of the sensor. 
1825:.\Generated_Source\PSoC4/CapSense_1.c **** *
1826:.\Generated_Source\PSoC4/CapSense_1.c **** * Global Variables:
1827:.\Generated_Source\PSoC4/CapSense_1.c **** *  CapSense_1_senseClkDividerVal[] - stores the sense clock divider values.
1828:.\Generated_Source\PSoC4/CapSense_1.c **** * 
1829:.\Generated_Source\PSoC4/CapSense_1.c **** * Side Effects:
1830:.\Generated_Source\PSoC4/CapSense_1.c **** *  None
1831:.\Generated_Source\PSoC4/CapSense_1.c **** *
1832:.\Generated_Source\PSoC4/CapSense_1.c **** *******************************************************************************/
1833:.\Generated_Source\PSoC4/CapSense_1.c **** uint32 CapSense_1_GetSenseClkDivider(uint32 sensor)
1834:.\Generated_Source\PSoC4/CapSense_1.c **** {
 1687              		.loc 1 1834 0
 1688              		.cfi_startproc
 1689              	.LVL214:
1835:.\Generated_Source\PSoC4/CapSense_1.c **** 	#if(0u != CapSense_1_MULTIPLE_FREQUENCY_SET)
1836:.\Generated_Source\PSoC4/CapSense_1.c **** 		return((uint32)CapSense_1_senseClkDividerVal[sensor]);
 1690              		.loc 1 1836 0
 1691 0000 014B     		ldr	r3, .L111
 1692 0002 185C     		ldrb	r0, [r3, r0]
 1693              	.LVL215:
1837:.\Generated_Source\PSoC4/CapSense_1.c **** 	#else
1838:.\Generated_Source\PSoC4/CapSense_1.c **** 		return((uint32)CapSense_1_senseClkDividerVal);
1839:.\Generated_Source\PSoC4/CapSense_1.c **** 	#endif /* (0u != CapSense_1_MULTIPLE_FREQUENCY_SET) */
1840:.\Generated_Source\PSoC4/CapSense_1.c **** }
 1694              		.loc 1 1840 0
 1695              		@ sp needed
 1696 0004 7047     		bx	lr
 1697              	.L112:
 1698 0006 C046     		.align	2
 1699              	.L111:
 1700 0008 00000000 		.word	CapSense_1_senseClkDividerVal
 1701              		.cfi_endproc
 1702              	.LFE62:
 1703              		.size	CapSense_1_GetSenseClkDivider, .-CapSense_1_GetSenseClkDivider
 1704              		.section	.text.CapSense_1_SetSenseClkDivider,"ax",%progbits
 1705              		.align	2
 1706              		.global	CapSense_1_SetSenseClkDivider
 1707              		.code	16
 1708              		.thumb_func
 1709              		.type	CapSense_1_SetSenseClkDivider, %function
 1710              	CapSense_1_SetSenseClkDivider:
 1711              	.LFB63:
1841:.\Generated_Source\PSoC4/CapSense_1.c **** 
1842:.\Generated_Source\PSoC4/CapSense_1.c **** #if (CapSense_1_TUNING_METHOD != CapSense_1__TUNING_NONE)
1843:.\Generated_Source\PSoC4/CapSense_1.c **** 	/*******************************************************************************
1844:.\Generated_Source\PSoC4/CapSense_1.c **** 	* Function Name: CapSense_1_SetSenseClkDivider
1845:.\Generated_Source\PSoC4/CapSense_1.c **** 	********************************************************************************
1846:.\Generated_Source\PSoC4/CapSense_1.c **** 	*
1847:.\Generated_Source\PSoC4/CapSense_1.c **** 	* Summary:
1848:.\Generated_Source\PSoC4/CapSense_1.c **** 	*  This API sets a value of the sense clock divider for the  sensor. 
1849:.\Generated_Source\PSoC4/CapSense_1.c **** 	*
1850:.\Generated_Source\PSoC4/CapSense_1.c **** 	* Parameters:
1851:.\Generated_Source\PSoC4/CapSense_1.c **** 	*  sensor:  Sensor index.
1852:.\Generated_Source\PSoC4/CapSense_1.c **** 	*  senseClk: represents the sense clock value.
ARM GAS  C:\Users\danielpi\AppData\Local\Temp\cccuTXvj.s 			page 66


1853:.\Generated_Source\PSoC4/CapSense_1.c **** 	*
1854:.\Generated_Source\PSoC4/CapSense_1.c **** 	* Return:
1855:.\Generated_Source\PSoC4/CapSense_1.c **** 	*  None.
1856:.\Generated_Source\PSoC4/CapSense_1.c **** 	*
1857:.\Generated_Source\PSoC4/CapSense_1.c **** 	* Global Variables:
1858:.\Generated_Source\PSoC4/CapSense_1.c **** 	*  CapSense_1_senseClkDividerVal[] - stores the sense clock divider values.
1859:.\Generated_Source\PSoC4/CapSense_1.c **** 	* 
1860:.\Generated_Source\PSoC4/CapSense_1.c **** 	* Side Effects:
1861:.\Generated_Source\PSoC4/CapSense_1.c **** 	*  None
1862:.\Generated_Source\PSoC4/CapSense_1.c **** 	*
1863:.\Generated_Source\PSoC4/CapSense_1.c **** 	*******************************************************************************/
1864:.\Generated_Source\PSoC4/CapSense_1.c **** 	void CapSense_1_SetSenseClkDivider(uint32 sensor, uint32 senseClk)
1865:.\Generated_Source\PSoC4/CapSense_1.c **** 	{
 1712              		.loc 1 1865 0
 1713              		.cfi_startproc
 1714              	.LVL216:
1866:.\Generated_Source\PSoC4/CapSense_1.c **** 		#if(0u != CapSense_1_MULTIPLE_FREQUENCY_SET)
1867:.\Generated_Source\PSoC4/CapSense_1.c **** 			CapSense_1_senseClkDividerVal[sensor] = (uint8)senseClk;
 1715              		.loc 1 1867 0
 1716 0000 014B     		ldr	r3, .L114
 1717 0002 1954     		strb	r1, [r3, r0]
1868:.\Generated_Source\PSoC4/CapSense_1.c **** 		#else
1869:.\Generated_Source\PSoC4/CapSense_1.c **** 			CapSense_1_senseClkDividerVal = (uint8)senseClk;
1870:.\Generated_Source\PSoC4/CapSense_1.c **** 		#endif /* (0u != CapSense_1_MULTIPLE_FREQUENCY_SET) */
1871:.\Generated_Source\PSoC4/CapSense_1.c **** 	}
 1718              		.loc 1 1871 0
 1719              		@ sp needed
 1720 0004 7047     		bx	lr
 1721              	.L115:
 1722 0006 C046     		.align	2
 1723              	.L114:
 1724 0008 00000000 		.word	CapSense_1_senseClkDividerVal
 1725              		.cfi_endproc
 1726              	.LFE63:
 1727              		.size	CapSense_1_SetSenseClkDivider, .-CapSense_1_SetSenseClkDivider
 1728              		.section	.text.CapSense_1_GetModulatorClkDivider,"ax",%progbits
 1729              		.align	2
 1730              		.global	CapSense_1_GetModulatorClkDivider
 1731              		.code	16
 1732              		.thumb_func
 1733              		.type	CapSense_1_GetModulatorClkDivider, %function
 1734              	CapSense_1_GetModulatorClkDivider:
 1735              	.LFB64:
1872:.\Generated_Source\PSoC4/CapSense_1.c **** #endif /* (CapSense_1_TUNING_METHOD != CapSense_1__TUNING_NONE) */
1873:.\Generated_Source\PSoC4/CapSense_1.c **** 
1874:.\Generated_Source\PSoC4/CapSense_1.c **** 
1875:.\Generated_Source\PSoC4/CapSense_1.c **** /*******************************************************************************
1876:.\Generated_Source\PSoC4/CapSense_1.c **** * Function Name: CapSense_1_GetModulatorClkDivider
1877:.\Generated_Source\PSoC4/CapSense_1.c **** ********************************************************************************
1878:.\Generated_Source\PSoC4/CapSense_1.c **** *
1879:.\Generated_Source\PSoC4/CapSense_1.c **** * Summary:
1880:.\Generated_Source\PSoC4/CapSense_1.c **** *  This API returns a value of the modulator sample clock divider for the  sensor.
1881:.\Generated_Source\PSoC4/CapSense_1.c **** *
1882:.\Generated_Source\PSoC4/CapSense_1.c **** * Parameters:
1883:.\Generated_Source\PSoC4/CapSense_1.c **** *  sensor: sensor index. The value of index can be 
1884:.\Generated_Source\PSoC4/CapSense_1.c **** *  from 0 to (CapSense_1_TOTAL_SENSOR_COUNT-1).
1885:.\Generated_Source\PSoC4/CapSense_1.c **** *
ARM GAS  C:\Users\danielpi\AppData\Local\Temp\cccuTXvj.s 			page 67


1886:.\Generated_Source\PSoC4/CapSense_1.c **** * Return:
1887:.\Generated_Source\PSoC4/CapSense_1.c **** *  This API returns the modulator sample clock divider for the  sensor.
1888:.\Generated_Source\PSoC4/CapSense_1.c **** *
1889:.\Generated_Source\PSoC4/CapSense_1.c **** * Global Variables:
1890:.\Generated_Source\PSoC4/CapSense_1.c **** *  CapSense_1_sampleClkDividerVal[] - stores the modulator sample divider values.
1891:.\Generated_Source\PSoC4/CapSense_1.c **** * 
1892:.\Generated_Source\PSoC4/CapSense_1.c **** * Side Effects:
1893:.\Generated_Source\PSoC4/CapSense_1.c **** *  None
1894:.\Generated_Source\PSoC4/CapSense_1.c **** *
1895:.\Generated_Source\PSoC4/CapSense_1.c **** *******************************************************************************/
1896:.\Generated_Source\PSoC4/CapSense_1.c **** uint32 CapSense_1_GetModulatorClkDivider(uint32 sensor)
1897:.\Generated_Source\PSoC4/CapSense_1.c **** {
 1736              		.loc 1 1897 0
 1737              		.cfi_startproc
 1738              	.LVL217:
1898:.\Generated_Source\PSoC4/CapSense_1.c **** 	#if(0u != CapSense_1_MULTIPLE_FREQUENCY_SET)
1899:.\Generated_Source\PSoC4/CapSense_1.c **** 		return((uint32)CapSense_1_sampleClkDividerVal[sensor]);
 1739              		.loc 1 1899 0
 1740 0000 014B     		ldr	r3, .L117
 1741 0002 185C     		ldrb	r0, [r3, r0]
 1742              	.LVL218:
1900:.\Generated_Source\PSoC4/CapSense_1.c **** 	#else
1901:.\Generated_Source\PSoC4/CapSense_1.c **** 		return((uint32)CapSense_1_sampleClkDividerVal);
1902:.\Generated_Source\PSoC4/CapSense_1.c **** 	#endif /* (0u != CapSense_1_MULTIPLE_FREQUENCY_SET) */
1903:.\Generated_Source\PSoC4/CapSense_1.c **** }
 1743              		.loc 1 1903 0
 1744              		@ sp needed
 1745 0004 7047     		bx	lr
 1746              	.L118:
 1747 0006 C046     		.align	2
 1748              	.L117:
 1749 0008 00000000 		.word	CapSense_1_sampleClkDividerVal
 1750              		.cfi_endproc
 1751              	.LFE64:
 1752              		.size	CapSense_1_GetModulatorClkDivider, .-CapSense_1_GetModulatorClkDivider
 1753              		.section	.text.CapSense_1_SetModulatorClkDivider,"ax",%progbits
 1754              		.align	2
 1755              		.global	CapSense_1_SetModulatorClkDivider
 1756              		.code	16
 1757              		.thumb_func
 1758              		.type	CapSense_1_SetModulatorClkDivider, %function
 1759              	CapSense_1_SetModulatorClkDivider:
 1760              	.LFB65:
1904:.\Generated_Source\PSoC4/CapSense_1.c **** 
1905:.\Generated_Source\PSoC4/CapSense_1.c **** #if (CapSense_1_TUNING_METHOD != CapSense_1__TUNING_NONE)
1906:.\Generated_Source\PSoC4/CapSense_1.c **** 	/*******************************************************************************
1907:.\Generated_Source\PSoC4/CapSense_1.c **** 	* Function Name: CapSense_1_SetModulatorClkDivider
1908:.\Generated_Source\PSoC4/CapSense_1.c **** 	********************************************************************************
1909:.\Generated_Source\PSoC4/CapSense_1.c **** 	*
1910:.\Generated_Source\PSoC4/CapSense_1.c **** 	* Summary:
1911:.\Generated_Source\PSoC4/CapSense_1.c **** 	*  This API sets a value of the modulator sample clock divider for the  sensor.
1912:.\Generated_Source\PSoC4/CapSense_1.c **** 	*
1913:.\Generated_Source\PSoC4/CapSense_1.c **** 	* Parameters:
1914:.\Generated_Source\PSoC4/CapSense_1.c **** 	*  sensor:  Sensor index.
1915:.\Generated_Source\PSoC4/CapSense_1.c **** 	*  modulatorClk: represents the modulator sample clock value.
1916:.\Generated_Source\PSoC4/CapSense_1.c **** 	*
1917:.\Generated_Source\PSoC4/CapSense_1.c **** 	* Return:
ARM GAS  C:\Users\danielpi\AppData\Local\Temp\cccuTXvj.s 			page 68


1918:.\Generated_Source\PSoC4/CapSense_1.c **** 	*  None.
1919:.\Generated_Source\PSoC4/CapSense_1.c **** 	*
1920:.\Generated_Source\PSoC4/CapSense_1.c **** 	* Global Variables:
1921:.\Generated_Source\PSoC4/CapSense_1.c **** 	*  CapSense_1_sampleClkDividerVal[] - stores the modulator sample divider values.
1922:.\Generated_Source\PSoC4/CapSense_1.c **** 	* 
1923:.\Generated_Source\PSoC4/CapSense_1.c **** 	* Side Effects:
1924:.\Generated_Source\PSoC4/CapSense_1.c **** 	*  None
1925:.\Generated_Source\PSoC4/CapSense_1.c **** 	*
1926:.\Generated_Source\PSoC4/CapSense_1.c **** 	*******************************************************************************/
1927:.\Generated_Source\PSoC4/CapSense_1.c **** 	void CapSense_1_SetModulatorClkDivider(uint32 sensor, uint32 modulatorClk)
1928:.\Generated_Source\PSoC4/CapSense_1.c **** 	{
 1761              		.loc 1 1928 0
 1762              		.cfi_startproc
 1763              	.LVL219:
1929:.\Generated_Source\PSoC4/CapSense_1.c **** 		#if(0u != CapSense_1_MULTIPLE_FREQUENCY_SET)
1930:.\Generated_Source\PSoC4/CapSense_1.c **** 			CapSense_1_sampleClkDividerVal[sensor] = (uint8)modulatorClk;
 1764              		.loc 1 1930 0
 1765 0000 014B     		ldr	r3, .L120
 1766 0002 1954     		strb	r1, [r3, r0]
1931:.\Generated_Source\PSoC4/CapSense_1.c **** 		#else
1932:.\Generated_Source\PSoC4/CapSense_1.c **** 			CapSense_1_sampleClkDividerVal = (uint8)modulatorClk;
1933:.\Generated_Source\PSoC4/CapSense_1.c **** 		#endif /* (0u != CapSense_1_MULTIPLE_FREQUENCY_SET) */
1934:.\Generated_Source\PSoC4/CapSense_1.c **** 	}
 1767              		.loc 1 1934 0
 1768              		@ sp needed
 1769 0004 7047     		bx	lr
 1770              	.L121:
 1771 0006 C046     		.align	2
 1772              	.L120:
 1773 0008 00000000 		.word	CapSense_1_sampleClkDividerVal
 1774              		.cfi_endproc
 1775              	.LFE65:
 1776              		.size	CapSense_1_SetModulatorClkDivider, .-CapSense_1_SetModulatorClkDivider
 1777              		.section	.text.CapSense_1_GetModulationIDAC,"ax",%progbits
 1778              		.align	2
 1779              		.global	CapSense_1_GetModulationIDAC
 1780              		.code	16
 1781              		.thumb_func
 1782              		.type	CapSense_1_GetModulationIDAC, %function
 1783              	CapSense_1_GetModulationIDAC:
 1784              	.LFB66:
1935:.\Generated_Source\PSoC4/CapSense_1.c **** #endif /* (CapSense_1_TUNING_METHOD != CapSense_1__TUNING_NONE) */
1936:.\Generated_Source\PSoC4/CapSense_1.c **** 
1937:.\Generated_Source\PSoC4/CapSense_1.c **** /*******************************************************************************
1938:.\Generated_Source\PSoC4/CapSense_1.c **** * Function Name: CapSense_1_GetModulationIDAC
1939:.\Generated_Source\PSoC4/CapSense_1.c **** ********************************************************************************
1940:.\Generated_Source\PSoC4/CapSense_1.c **** *
1941:.\Generated_Source\PSoC4/CapSense_1.c **** * Summary:
1942:.\Generated_Source\PSoC4/CapSense_1.c **** *  This API returns a value of the modulation IDAC for the  sensor.
1943:.\Generated_Source\PSoC4/CapSense_1.c **** *
1944:.\Generated_Source\PSoC4/CapSense_1.c **** * Parameters:
1945:.\Generated_Source\PSoC4/CapSense_1.c **** *  sensor: sensor index. The index value can be 
1946:.\Generated_Source\PSoC4/CapSense_1.c **** *  from 0 to (CapSense_1_TOTAL_SENSOR_COUNT-1).
1947:.\Generated_Source\PSoC4/CapSense_1.c **** *
1948:.\Generated_Source\PSoC4/CapSense_1.c **** * Return:
1949:.\Generated_Source\PSoC4/CapSense_1.c **** *  This API returns the modulation IDAC of the sensor. 
1950:.\Generated_Source\PSoC4/CapSense_1.c **** *
ARM GAS  C:\Users\danielpi\AppData\Local\Temp\cccuTXvj.s 			page 69


1951:.\Generated_Source\PSoC4/CapSense_1.c **** * Global Variables:
1952:.\Generated_Source\PSoC4/CapSense_1.c **** *  CapSense_1_modulationIDAC[] - stores modulation IDAC values.
1953:.\Generated_Source\PSoC4/CapSense_1.c **** * 
1954:.\Generated_Source\PSoC4/CapSense_1.c **** * Side Effects:
1955:.\Generated_Source\PSoC4/CapSense_1.c **** *  None
1956:.\Generated_Source\PSoC4/CapSense_1.c **** *
1957:.\Generated_Source\PSoC4/CapSense_1.c **** *******************************************************************************/
1958:.\Generated_Source\PSoC4/CapSense_1.c **** uint32 CapSense_1_GetModulationIDAC(uint32 sensor)
1959:.\Generated_Source\PSoC4/CapSense_1.c **** {
 1785              		.loc 1 1959 0
 1786              		.cfi_startproc
 1787              	.LVL220:
1960:.\Generated_Source\PSoC4/CapSense_1.c **** 		return((uint32)CapSense_1_modulationIDAC[sensor]);
 1788              		.loc 1 1960 0
 1789 0000 014B     		ldr	r3, .L123
 1790 0002 185C     		ldrb	r0, [r3, r0]
 1791              	.LVL221:
1961:.\Generated_Source\PSoC4/CapSense_1.c **** }
 1792              		.loc 1 1961 0
 1793              		@ sp needed
 1794 0004 7047     		bx	lr
 1795              	.L124:
 1796 0006 C046     		.align	2
 1797              	.L123:
 1798 0008 00000000 		.word	CapSense_1_modulationIDAC
 1799              		.cfi_endproc
 1800              	.LFE66:
 1801              		.size	CapSense_1_GetModulationIDAC, .-CapSense_1_GetModulationIDAC
 1802              		.section	.text.CapSense_1_SetModulationIDAC,"ax",%progbits
 1803              		.align	2
 1804              		.global	CapSense_1_SetModulationIDAC
 1805              		.code	16
 1806              		.thumb_func
 1807              		.type	CapSense_1_SetModulationIDAC, %function
 1808              	CapSense_1_SetModulationIDAC:
 1809              	.LFB67:
1962:.\Generated_Source\PSoC4/CapSense_1.c **** 
1963:.\Generated_Source\PSoC4/CapSense_1.c **** #if (CapSense_1_TUNING_METHOD != CapSense_1__TUNING_NONE)
1964:.\Generated_Source\PSoC4/CapSense_1.c **** 	/*******************************************************************************
1965:.\Generated_Source\PSoC4/CapSense_1.c **** 	* Function Name: CapSense_1_SetModulationIDAC
1966:.\Generated_Source\PSoC4/CapSense_1.c **** 	********************************************************************************
1967:.\Generated_Source\PSoC4/CapSense_1.c **** 	*
1968:.\Generated_Source\PSoC4/CapSense_1.c **** 	* Summary:
1969:.\Generated_Source\PSoC4/CapSense_1.c **** 	*  This API sets a value of the modulation IDAC for the  sensor.
1970:.\Generated_Source\PSoC4/CapSense_1.c **** 	*
1971:.\Generated_Source\PSoC4/CapSense_1.c **** 	* Parameters:
1972:.\Generated_Source\PSoC4/CapSense_1.c **** 	*  sensor:  Sensor index.
1973:.\Generated_Source\PSoC4/CapSense_1.c **** 	*  compIdacValue: represents the modulation IDAC data register value.
1974:.\Generated_Source\PSoC4/CapSense_1.c **** 	*
1975:.\Generated_Source\PSoC4/CapSense_1.c **** 	* Return:
1976:.\Generated_Source\PSoC4/CapSense_1.c **** 	*  None.
1977:.\Generated_Source\PSoC4/CapSense_1.c **** 	*
1978:.\Generated_Source\PSoC4/CapSense_1.c **** 	* Global Variables:
1979:.\Generated_Source\PSoC4/CapSense_1.c **** 	*  CapSense_1_modulationIDAC[] - array with modulation IDAC values
1980:.\Generated_Source\PSoC4/CapSense_1.c **** 	* 
1981:.\Generated_Source\PSoC4/CapSense_1.c **** 	* Side Effects:
1982:.\Generated_Source\PSoC4/CapSense_1.c **** 	*  None
ARM GAS  C:\Users\danielpi\AppData\Local\Temp\cccuTXvj.s 			page 70


1983:.\Generated_Source\PSoC4/CapSense_1.c **** 	*
1984:.\Generated_Source\PSoC4/CapSense_1.c **** 	*******************************************************************************/
