ARM GAS  C:\Users\danielpi\AppData\Local\Temp\cccuTXvj.s 			page 1


   1              		.cpu cortex-m0
   2              		.fpu softvfp
   3              		.eabi_attribute 20, 1
   4              		.eabi_attribute 21, 1
   5              		.eabi_attribute 23, 3
   6              		.eabi_attribute 24, 1
   7              		.eabi_attribute 25, 1
   8              		.eabi_attribute 26, 1
   9              		.eabi_attribute 30, 1
  10              		.eabi_attribute 34, 0
  11              		.eabi_attribute 18, 4
  12              		.code	16
  13              		.file	"CapSense_1.c"
  14              		.text
  15              	.Ltext0:
  16              		.cfi_sections	.debug_frame
  17              		.section	.text.CapSense_1_CsdHwBlockInit,"ax",%progbits
  18              		.align	2
  19              		.global	CapSense_1_CsdHwBlockInit
  20              		.code	16
  21              		.thumb_func
  22              		.type	CapSense_1_CsdHwBlockInit, %function
  23              	CapSense_1_CsdHwBlockInit:
  24              	.LFB36:
  25              		.file 1 ".\\Generated_Source\\PSoC4\\CapSense_1.c"
   1:.\Generated_Source\PSoC4/CapSense_1.c **** /*******************************************************************************
   2:.\Generated_Source\PSoC4/CapSense_1.c **** * File Name: CapSense_1.c
   3:.\Generated_Source\PSoC4/CapSense_1.c **** * Version 2.20
   4:.\Generated_Source\PSoC4/CapSense_1.c **** *
   5:.\Generated_Source\PSoC4/CapSense_1.c **** * Description:
   6:.\Generated_Source\PSoC4/CapSense_1.c **** *  This file provides the source code for scanning APIs for the CapSense CSD 
   7:.\Generated_Source\PSoC4/CapSense_1.c **** *  component.
   8:.\Generated_Source\PSoC4/CapSense_1.c **** *
   9:.\Generated_Source\PSoC4/CapSense_1.c **** * Note:
  10:.\Generated_Source\PSoC4/CapSense_1.c **** *
  11:.\Generated_Source\PSoC4/CapSense_1.c **** ********************************************************************************
  12:.\Generated_Source\PSoC4/CapSense_1.c **** * Copyright 2014, Cypress Semiconductor Corporation.  All rights reserved.
  13:.\Generated_Source\PSoC4/CapSense_1.c **** * You may use this file only in accordance with the license, terms, conditions,
  14:.\Generated_Source\PSoC4/CapSense_1.c **** * disclaimers, and limitations in the end user license agreement accompanying
  15:.\Generated_Source\PSoC4/CapSense_1.c **** * the software package with which this file was provided.
  16:.\Generated_Source\PSoC4/CapSense_1.c **** *******************************************************************************/
  17:.\Generated_Source\PSoC4/CapSense_1.c **** 
  18:.\Generated_Source\PSoC4/CapSense_1.c **** #include "CapSense_1.h"
  19:.\Generated_Source\PSoC4/CapSense_1.c **** #include "CapSense_1_PVT.h"
  20:.\Generated_Source\PSoC4/CapSense_1.c **** #include "cypins.h"
  21:.\Generated_Source\PSoC4/CapSense_1.c **** 
  22:.\Generated_Source\PSoC4/CapSense_1.c **** #if(0u != CapSense_1_CSHL_API_GENERATE)
  23:.\Generated_Source\PSoC4/CapSense_1.c **** 	#include "CapSense_1_CSHL.h"
  24:.\Generated_Source\PSoC4/CapSense_1.c **** #endif /* (0u != CapSense_1_CSHL_API_GENERATE) */
  25:.\Generated_Source\PSoC4/CapSense_1.c **** 
  26:.\Generated_Source\PSoC4/CapSense_1.c **** /* This definition is intended to prevent unexpected linker error. 
  27:.\Generated_Source\PSoC4/CapSense_1.c ****    For more details please see the IAR Technical Note 49981 */
  28:.\Generated_Source\PSoC4/CapSense_1.c **** #if defined(__ICCARM__)
  29:.\Generated_Source\PSoC4/CapSense_1.c **** 	extern void CapSense_1_EnableSensor(uint32 sensor);
  30:.\Generated_Source\PSoC4/CapSense_1.c **** 	extern void CapSense_1_DisableSensor(uint32 sensor);
  31:.\Generated_Source\PSoC4/CapSense_1.c **** #endif /* (__ICCARM__) */	
  32:.\Generated_Source\PSoC4/CapSense_1.c **** 
ARM GAS  C:\Users\danielpi\AppData\Local\Temp\cccuTXvj.s 			page 2


  33:.\Generated_Source\PSoC4/CapSense_1.c **** /* SmartSense functions */
  34:.\Generated_Source\PSoC4/CapSense_1.c **** #if (CapSense_1_TUNING_METHOD == CapSense_1__TUNING_AUTO)
  35:.\Generated_Source\PSoC4/CapSense_1.c ****     uint8 CapSense_1_lowLevelTuningDone = 0u;
  36:.\Generated_Source\PSoC4/CapSense_1.c **** 	uint8 scanSpeedTbl[((CapSense_1_TOTAL_SENSOR_COUNT - 1u) / 8u) + 1u];
  37:.\Generated_Source\PSoC4/CapSense_1.c **** #endif /* (CapSense_1_TUNING_METHOD == CapSense_1__TUNING_AUTO) */
  38:.\Generated_Source\PSoC4/CapSense_1.c **** 
  39:.\Generated_Source\PSoC4/CapSense_1.c **** #if(CapSense_1_PRS_OPTIONS != CapSense_1__PRS_NONE)
  40:.\Generated_Source\PSoC4/CapSense_1.c **** 	uint8 CapSense_1_prescalersTuningDone = 0u;
  41:.\Generated_Source\PSoC4/CapSense_1.c **** #endif /* (CapSense_1_PRS_OPTIONS == CapSense_1__PRS_NONE) */
  42:.\Generated_Source\PSoC4/CapSense_1.c ****             
  43:.\Generated_Source\PSoC4/CapSense_1.c **** /* Global software variables */
  44:.\Generated_Source\PSoC4/CapSense_1.c **** volatile uint8 CapSense_1_csdStatusVar = 0u;   /* CapSense CSD status, variable */
  45:.\Generated_Source\PSoC4/CapSense_1.c **** volatile uint8 CapSense_1_sensorIndex = 0u;    /* Index of scannig sensor */
  46:.\Generated_Source\PSoC4/CapSense_1.c **** 
  47:.\Generated_Source\PSoC4/CapSense_1.c **** /* Global array of Raw Counts */
  48:.\Generated_Source\PSoC4/CapSense_1.c **** uint16 CapSense_1_sensorRaw[CapSense_1_TOTAL_SENSOR_COUNT] = {0u};
  49:.\Generated_Source\PSoC4/CapSense_1.c **** 
  50:.\Generated_Source\PSoC4/CapSense_1.c **** /* Backup variables for trim registers*/
  51:.\Generated_Source\PSoC4/CapSense_1.c **** #if (CapSense_1_IDAC1_POLARITY == CapSense_1__IDAC_SINK)
  52:.\Generated_Source\PSoC4/CapSense_1.c **** 	uint8 CapSense_1_csdTrim2;   
  53:.\Generated_Source\PSoC4/CapSense_1.c **** #else
  54:.\Generated_Source\PSoC4/CapSense_1.c ****     uint8 CapSense_1_csdTrim1;	
  55:.\Generated_Source\PSoC4/CapSense_1.c **** #endif /* (CapSense_1_IDAC1_POLARITY == CapSense_1__IDAC_SINK) */
  56:.\Generated_Source\PSoC4/CapSense_1.c **** 
  57:.\Generated_Source\PSoC4/CapSense_1.c **** /* Global array of un-scanned sensors state */
  58:.\Generated_Source\PSoC4/CapSense_1.c **** uint8 CapSense_1_unscannedSnsDriveMode[CapSense_1_TOTAL_SENSOR_COUNT];
  59:.\Generated_Source\PSoC4/CapSense_1.c **** 
  60:.\Generated_Source\PSoC4/CapSense_1.c **** /* Backup array for CapSense_1_sensorEnableMask */
  61:.\Generated_Source\PSoC4/CapSense_1.c **** uint8 CapSense_1_sensorEnableMaskBackup[(((CapSense_1_TOTAL_SENSOR_COUNT - 1u) / 8u) + 1u)];
  62:.\Generated_Source\PSoC4/CapSense_1.c **** 
  63:.\Generated_Source\PSoC4/CapSense_1.c **** /* Configured constants and arrays by Customizer */
  64:.\Generated_Source\PSoC4/CapSense_1.c **** uint8 CapSense_1_sensorEnableMask[(((CapSense_1_TOTAL_SENSOR_COUNT - 1u) / 8u) + 1u)] = {
  65:.\Generated_Source\PSoC4/CapSense_1.c **** 0x1Fu, };
  66:.\Generated_Source\PSoC4/CapSense_1.c **** 
  67:.\Generated_Source\PSoC4/CapSense_1.c **** reg32 * CapSense_1_pcTable[] = {
  68:.\Generated_Source\PSoC4/CapSense_1.c ****     (reg32 *)CapSense_1_Sns__LinearSlider0_e0__LS__PC, 
  69:.\Generated_Source\PSoC4/CapSense_1.c ****     (reg32 *)CapSense_1_Sns__LinearSlider0_e1__LS__PC, 
  70:.\Generated_Source\PSoC4/CapSense_1.c ****     (reg32 *)CapSense_1_Sns__LinearSlider0_e2__LS__PC, 
  71:.\Generated_Source\PSoC4/CapSense_1.c ****     (reg32 *)CapSense_1_Sns__LinearSlider0_e3__LS__PC, 
  72:.\Generated_Source\PSoC4/CapSense_1.c ****     (reg32 *)CapSense_1_Sns__LinearSlider0_e4__LS__PC, 
  73:.\Generated_Source\PSoC4/CapSense_1.c **** };
  74:.\Generated_Source\PSoC4/CapSense_1.c **** 
  75:.\Generated_Source\PSoC4/CapSense_1.c **** const uint8 CapSense_1_portTable[] = {
  76:.\Generated_Source\PSoC4/CapSense_1.c ****     CapSense_1_Sns__LinearSlider0_e0__LS__PORT, 
  77:.\Generated_Source\PSoC4/CapSense_1.c ****     CapSense_1_Sns__LinearSlider0_e1__LS__PORT, 
  78:.\Generated_Source\PSoC4/CapSense_1.c ****     CapSense_1_Sns__LinearSlider0_e2__LS__PORT, 
  79:.\Generated_Source\PSoC4/CapSense_1.c ****     CapSense_1_Sns__LinearSlider0_e3__LS__PORT, 
  80:.\Generated_Source\PSoC4/CapSense_1.c ****     CapSense_1_Sns__LinearSlider0_e4__LS__PORT, 
  81:.\Generated_Source\PSoC4/CapSense_1.c **** };
  82:.\Generated_Source\PSoC4/CapSense_1.c **** 
  83:.\Generated_Source\PSoC4/CapSense_1.c **** const uint32 CapSense_1_maskTable[] = {
  84:.\Generated_Source\PSoC4/CapSense_1.c ****     CapSense_1_Sns__LinearSlider0_e0__LS__MASK, 
  85:.\Generated_Source\PSoC4/CapSense_1.c ****     CapSense_1_Sns__LinearSlider0_e1__LS__MASK, 
  86:.\Generated_Source\PSoC4/CapSense_1.c ****     CapSense_1_Sns__LinearSlider0_e2__LS__MASK, 
  87:.\Generated_Source\PSoC4/CapSense_1.c ****     CapSense_1_Sns__LinearSlider0_e3__LS__MASK, 
  88:.\Generated_Source\PSoC4/CapSense_1.c ****     CapSense_1_Sns__LinearSlider0_e4__LS__MASK, 
  89:.\Generated_Source\PSoC4/CapSense_1.c **** };
ARM GAS  C:\Users\danielpi\AppData\Local\Temp\cccuTXvj.s 			page 3


  90:.\Generated_Source\PSoC4/CapSense_1.c **** 
  91:.\Generated_Source\PSoC4/CapSense_1.c **** const uint8 CapSense_1_pinShiftTbl[] = {
  92:.\Generated_Source\PSoC4/CapSense_1.c ****     (uint8) CapSense_1_Sns__LinearSlider0_e0__LS__SHIFT, 
  93:.\Generated_Source\PSoC4/CapSense_1.c ****     (uint8) CapSense_1_Sns__LinearSlider0_e1__LS__SHIFT, 
  94:.\Generated_Source\PSoC4/CapSense_1.c ****     (uint8) CapSense_1_Sns__LinearSlider0_e2__LS__SHIFT, 
  95:.\Generated_Source\PSoC4/CapSense_1.c ****     (uint8) CapSense_1_Sns__LinearSlider0_e3__LS__SHIFT, 
  96:.\Generated_Source\PSoC4/CapSense_1.c ****     (uint8) CapSense_1_Sns__LinearSlider0_e4__LS__SHIFT, 
  97:.\Generated_Source\PSoC4/CapSense_1.c **** };
  98:.\Generated_Source\PSoC4/CapSense_1.c **** 
  99:.\Generated_Source\PSoC4/CapSense_1.c **** uint8 CapSense_1_modulationIDAC[CapSense_1_TOTAL_SENSOR_COUNT];
 100:.\Generated_Source\PSoC4/CapSense_1.c **** uint8 CapSense_1_compensationIDAC[CapSense_1_TOTAL_SENSOR_COUNT];
 101:.\Generated_Source\PSoC4/CapSense_1.c **** 
 102:.\Generated_Source\PSoC4/CapSense_1.c **** uint32 CapSense_1_widgetResolution[CapSense_1_RESOLUTIONS_TBL_SIZE] = {
 103:.\Generated_Source\PSoC4/CapSense_1.c ****     CapSense_1_RESOLUTION_12_BITS,
 104:.\Generated_Source\PSoC4/CapSense_1.c **** };
 105:.\Generated_Source\PSoC4/CapSense_1.c **** 
 106:.\Generated_Source\PSoC4/CapSense_1.c **** uint8 CapSense_1_senseClkDividerVal[CapSense_1_TOTAL_SCANSLOT_COUNT];
 107:.\Generated_Source\PSoC4/CapSense_1.c **** uint8 CapSense_1_sampleClkDividerVal[CapSense_1_TOTAL_SCANSLOT_COUNT];
 108:.\Generated_Source\PSoC4/CapSense_1.c **** 
 109:.\Generated_Source\PSoC4/CapSense_1.c **** const uint8 CapSense_1_widgetNumber[CapSense_1_TOTAL_SENSOR_COUNT] = {
 110:.\Generated_Source\PSoC4/CapSense_1.c ****     0u, 0u, 0u, 0u, 0u, /* LinearSlider0__LS */
 111:.\Generated_Source\PSoC4/CapSense_1.c **** };
 112:.\Generated_Source\PSoC4/CapSense_1.c **** 
 113:.\Generated_Source\PSoC4/CapSense_1.c **** 
 114:.\Generated_Source\PSoC4/CapSense_1.c **** 
 115:.\Generated_Source\PSoC4/CapSense_1.c **** reg32* const CapSense_1_prtSelTbl[] = {
 116:.\Generated_Source\PSoC4/CapSense_1.c **** /* CY_PSOC4_4000 is default*/
 117:.\Generated_Source\PSoC4/CapSense_1.c **** 	((reg32 *) CYREG_HSIOM_PORT_SEL0),
 118:.\Generated_Source\PSoC4/CapSense_1.c **** 	((reg32 *) CYREG_HSIOM_PORT_SEL1),
 119:.\Generated_Source\PSoC4/CapSense_1.c **** 	((reg32 *) CYREG_HSIOM_PORT_SEL2),
 120:.\Generated_Source\PSoC4/CapSense_1.c **** 	((reg32 *) CYREG_HSIOM_PORT_SEL3),
 121:.\Generated_Source\PSoC4/CapSense_1.c **** #if (CapSense_1_CFG_REG_TBL_SIZE == 5u)
 122:.\Generated_Source\PSoC4/CapSense_1.c **** 	((reg32 *) CYREG_HSIOM_PORT_SEL4)
 123:.\Generated_Source\PSoC4/CapSense_1.c **** #elif(CapSense_1_CFG_REG_TBL_SIZE == 6u)
 124:.\Generated_Source\PSoC4/CapSense_1.c **** 	((reg32 *) CYREG_HSIOM_PORT_SEL4),
 125:.\Generated_Source\PSoC4/CapSense_1.c **** 	((reg32 *) CYREG_HSIOM_PORT_SEL5)
 126:.\Generated_Source\PSoC4/CapSense_1.c **** #elif(CapSense_1_CFG_REG_TBL_SIZE == 8u)
 127:.\Generated_Source\PSoC4/CapSense_1.c **** 	((reg32 *) CYREG_HSIOM_PORT_SEL4),
 128:.\Generated_Source\PSoC4/CapSense_1.c **** 	((reg32 *) CYREG_HSIOM_PORT_SEL5),
 129:.\Generated_Source\PSoC4/CapSense_1.c **** 	((reg32 *) CYREG_HSIOM_PORT_SEL6),
 130:.\Generated_Source\PSoC4/CapSense_1.c **** 	((reg32 *) CYREG_HSIOM_PORT_SEL7)
 131:.\Generated_Source\PSoC4/CapSense_1.c **** #endif /* (CY_PSOC4_4200) */
 132:.\Generated_Source\PSoC4/CapSense_1.c **** };
 133:.\Generated_Source\PSoC4/CapSense_1.c **** 
 134:.\Generated_Source\PSoC4/CapSense_1.c **** reg32* const CapSense_1_prtCfgTbl[] = {
 135:.\Generated_Source\PSoC4/CapSense_1.c **** /* CY_PSOC4_4000 is default*/
 136:.\Generated_Source\PSoC4/CapSense_1.c **** 	((reg32 *) CYREG_GPIO_PRT0_PC),
 137:.\Generated_Source\PSoC4/CapSense_1.c **** 	((reg32 *) CYREG_GPIO_PRT1_PC),
 138:.\Generated_Source\PSoC4/CapSense_1.c **** 	((reg32 *) CYREG_GPIO_PRT2_PC),
 139:.\Generated_Source\PSoC4/CapSense_1.c **** 	((reg32 *) CYREG_GPIO_PRT3_PC),
 140:.\Generated_Source\PSoC4/CapSense_1.c **** #if (CapSense_1_CFG_REG_TBL_SIZE == 5u)
 141:.\Generated_Source\PSoC4/CapSense_1.c **** 	((reg32 *) CYREG_GPIO_PRT4_PC)
 142:.\Generated_Source\PSoC4/CapSense_1.c **** #elif(CapSense_1_CFG_REG_TBL_SIZE == 6u)
 143:.\Generated_Source\PSoC4/CapSense_1.c **** 	((reg32 *) CYREG_GPIO_PRT4_PC),
 144:.\Generated_Source\PSoC4/CapSense_1.c **** 	((reg32 *) CYREG_GPIO_PRT5_PC)
 145:.\Generated_Source\PSoC4/CapSense_1.c **** #elif(CapSense_1_CFG_REG_TBL_SIZE == 8u)
 146:.\Generated_Source\PSoC4/CapSense_1.c **** 	((reg32 *) CYREG_GPIO_PRT4_PC),
ARM GAS  C:\Users\danielpi\AppData\Local\Temp\cccuTXvj.s 			page 4


 147:.\Generated_Source\PSoC4/CapSense_1.c **** 	((reg32 *) CYREG_GPIO_PRT5_PC),
 148:.\Generated_Source\PSoC4/CapSense_1.c **** 	((reg32 *) CYREG_GPIO_PRT6_PC),
 149:.\Generated_Source\PSoC4/CapSense_1.c **** 	((reg32 *) CYREG_GPIO_PRT7_PC)
 150:.\Generated_Source\PSoC4/CapSense_1.c **** #endif /* (CY_PSOC4_4200) */	
 151:.\Generated_Source\PSoC4/CapSense_1.c **** };
 152:.\Generated_Source\PSoC4/CapSense_1.c **** 
 153:.\Generated_Source\PSoC4/CapSense_1.c **** reg32* const CapSense_1_prtDRTbl[] = {
 154:.\Generated_Source\PSoC4/CapSense_1.c **** /* CY_PSOC4_4000 is default*/
 155:.\Generated_Source\PSoC4/CapSense_1.c **** 	((reg32 *) CYREG_GPIO_PRT0_DR),
 156:.\Generated_Source\PSoC4/CapSense_1.c **** 	((reg32 *) CYREG_GPIO_PRT1_DR),
 157:.\Generated_Source\PSoC4/CapSense_1.c **** 	((reg32 *) CYREG_GPIO_PRT2_DR),
 158:.\Generated_Source\PSoC4/CapSense_1.c **** 	((reg32 *) CYREG_GPIO_PRT3_DR),
 159:.\Generated_Source\PSoC4/CapSense_1.c **** #if (CapSense_1_CFG_REG_TBL_SIZE == 5u)
 160:.\Generated_Source\PSoC4/CapSense_1.c **** 	((reg32 *) CYREG_GPIO_PRT4_DR)
 161:.\Generated_Source\PSoC4/CapSense_1.c **** #elif(CapSense_1_CFG_REG_TBL_SIZE == 6u)
 162:.\Generated_Source\PSoC4/CapSense_1.c **** 	((reg32 *) CYREG_GPIO_PRT4_DR),
 163:.\Generated_Source\PSoC4/CapSense_1.c **** 	((reg32 *) CYREG_GPIO_PRT5_DR),
 164:.\Generated_Source\PSoC4/CapSense_1.c **** #elif(CapSense_1_CFG_REG_TBL_SIZE == 8u)
 165:.\Generated_Source\PSoC4/CapSense_1.c **** 	((reg32 *) CYREG_GPIO_PRT4_DR),
 166:.\Generated_Source\PSoC4/CapSense_1.c **** 	((reg32 *) CYREG_GPIO_PRT5_DR),
 167:.\Generated_Source\PSoC4/CapSense_1.c **** 	((reg32 *) CYREG_GPIO_PRT6_DR),
 168:.\Generated_Source\PSoC4/CapSense_1.c **** 	((reg32 *) CYREG_GPIO_PRT7_DR),
 169:.\Generated_Source\PSoC4/CapSense_1.c **** #endif /* (CY_PSOC4_4200) */	
 170:.\Generated_Source\PSoC4/CapSense_1.c **** };
 171:.\Generated_Source\PSoC4/CapSense_1.c ****     
 172:.\Generated_Source\PSoC4/CapSense_1.c **** 
 173:.\Generated_Source\PSoC4/CapSense_1.c **** /*******************************************************************************
 174:.\Generated_Source\PSoC4/CapSense_1.c **** * Function Name: CapSense_1_Init
 175:.\Generated_Source\PSoC4/CapSense_1.c **** ********************************************************************************
 176:.\Generated_Source\PSoC4/CapSense_1.c **** *
 177:.\Generated_Source\PSoC4/CapSense_1.c **** * Summary:
 178:.\Generated_Source\PSoC4/CapSense_1.c **** *  API initializes default CapSense configuration provided by the customizer that defines 
 179:.\Generated_Source\PSoC4/CapSense_1.c **** *  the mode of component operations and resets all the sensors to an inactive state.
 180:.\Generated_Source\PSoC4/CapSense_1.c **** *
 181:.\Generated_Source\PSoC4/CapSense_1.c **** * Parameters:
 182:.\Generated_Source\PSoC4/CapSense_1.c **** *  None
 183:.\Generated_Source\PSoC4/CapSense_1.c **** *
 184:.\Generated_Source\PSoC4/CapSense_1.c **** * Return:
 185:.\Generated_Source\PSoC4/CapSense_1.c **** *  None
 186:.\Generated_Source\PSoC4/CapSense_1.c **** *
 187:.\Generated_Source\PSoC4/CapSense_1.c **** * Global Variables:
 188:.\Generated_Source\PSoC4/CapSense_1.c **** *  CapSense_1_immunityIndex - defines immunity level.
 189:.\Generated_Source\PSoC4/CapSense_1.c **** *
 190:.\Generated_Source\PSoC4/CapSense_1.c **** * Side Effects:
 191:.\Generated_Source\PSoC4/CapSense_1.c **** *  None
 192:.\Generated_Source\PSoC4/CapSense_1.c **** * 
 193:.\Generated_Source\PSoC4/CapSense_1.c **** *******************************************************************************/
 194:.\Generated_Source\PSoC4/CapSense_1.c **** void CapSense_1_Init(void)
 195:.\Generated_Source\PSoC4/CapSense_1.c **** {   
 196:.\Generated_Source\PSoC4/CapSense_1.c **** 	uint32 curSensor;
 197:.\Generated_Source\PSoC4/CapSense_1.c **** 	
 198:.\Generated_Source\PSoC4/CapSense_1.c **** 	#if(CapSense_1_IS_SHIELD_ENABLE)
 199:.\Generated_Source\PSoC4/CapSense_1.c **** 		
 200:.\Generated_Source\PSoC4/CapSense_1.c **** 		#if((CapSense_1_CSH_TANK_PREGARGE_OPTION == CapSense_1__CAPPRIOBUF) || (0u != CapSense_1_CSH_TANK
 201:.\Generated_Source\PSoC4/CapSense_1.c **** 			uint32 newRegValue;
 202:.\Generated_Source\PSoC4/CapSense_1.c **** 			
 203:.\Generated_Source\PSoC4/CapSense_1.c **** 			newRegValue = CapSense_1_CTANK_CONNECTION_REG;
ARM GAS  C:\Users\danielpi\AppData\Local\Temp\cccuTXvj.s 			page 5


 204:.\Generated_Source\PSoC4/CapSense_1.c **** 	        newRegValue &= ~(CapSense_1_CSD_CTANK_CONNECTION_MASK);
 205:.\Generated_Source\PSoC4/CapSense_1.c **** 			newRegValue |= CapSense_1_CSD_CTANK_TO_AMUXBUS_B;
 206:.\Generated_Source\PSoC4/CapSense_1.c **** 	        CapSense_1_CTANK_CONNECTION_REG = newRegValue;
 207:.\Generated_Source\PSoC4/CapSense_1.c **** 			
 208:.\Generated_Source\PSoC4/CapSense_1.c **** 			#if(CapSense_1_CSH_TANK_PREGARGE_OPTION == CapSense_1__CAPPRIOBUF)
 209:.\Generated_Source\PSoC4/CapSense_1.c **** 				newRegValue = CapSense_1_CTANK_PORT_PC_REG;
 210:.\Generated_Source\PSoC4/CapSense_1.c **** 		        newRegValue &= ~(CapSense_1_CSD_CTANK_PC_MASK);
 211:.\Generated_Source\PSoC4/CapSense_1.c **** 				newRegValue |= CapSense_1_CTANK_PC_STRONG_MODE;
 212:.\Generated_Source\PSoC4/CapSense_1.c **** 		        CapSense_1_CTANK_PORT_PC_REG = newRegValue;
 213:.\Generated_Source\PSoC4/CapSense_1.c **** 				
 214:.\Generated_Source\PSoC4/CapSense_1.c **** 				newRegValue = CapSense_1_CTANK_PORT_DR_REG;
 215:.\Generated_Source\PSoC4/CapSense_1.c **** 		        newRegValue &= ~(CapSense_1_CTANK_DR_MASK);
 216:.\Generated_Source\PSoC4/CapSense_1.c **** 				newRegValue |= CapSense_1_CTANK_DR_CONFIG;
 217:.\Generated_Source\PSoC4/CapSense_1.c **** 		        CapSense_1_CTANK_PORT_DR_REG = newRegValue;
 218:.\Generated_Source\PSoC4/CapSense_1.c **** 			#endif /* (CapSense_1_CSH_TANK_PREGARGE_OPTION == CapSense_1__CAPPRIOBUF) */
 219:.\Generated_Source\PSoC4/CapSense_1.c **** 	        
 220:.\Generated_Source\PSoC4/CapSense_1.c **** 		#endif /* ((CapSense_1_CSH_TANK_PREGARGE_OPTION == CapSense_1__CAPPRIOBUF) || (CapSense_1_CSH_TAN
 221:.\Generated_Source\PSoC4/CapSense_1.c **** 		
 222:.\Generated_Source\PSoC4/CapSense_1.c **** 		CapSense_1_EnableShieldElectrode((uint32)CapSense_1_SHIELD_PIN_NUMBER, (uint32)CapSense_1_SHIELD_
 223:.\Generated_Source\PSoC4/CapSense_1.c **** 		
 224:.\Generated_Source\PSoC4/CapSense_1.c **** 	#endif /* (CapSense_1_IS_SHIELD_ENABLE) */
 225:.\Generated_Source\PSoC4/CapSense_1.c **** 	
 226:.\Generated_Source\PSoC4/CapSense_1.c **** 	for(curSensor = 0u; curSensor < CapSense_1_TOTAL_SENSOR_COUNT; curSensor++)
 227:.\Generated_Source\PSoC4/CapSense_1.c **** 	{
 228:.\Generated_Source\PSoC4/CapSense_1.c **** 		CapSense_1_unscannedSnsDriveMode[curSensor] = CapSense_1_CONNECT_INACTIVE_SNS;
 229:.\Generated_Source\PSoC4/CapSense_1.c **** 	}
 230:.\Generated_Source\PSoC4/CapSense_1.c ****     
 231:.\Generated_Source\PSoC4/CapSense_1.c **** 	CapSense_1_CsdHwBlockInit();
 232:.\Generated_Source\PSoC4/CapSense_1.c ****     CapSense_1_SetShieldDelay(CapSense_1_SHIELD_DELAY );
 233:.\Generated_Source\PSoC4/CapSense_1.c **** 	
 234:.\Generated_Source\PSoC4/CapSense_1.c **** 	/* Clear all sensors */
 235:.\Generated_Source\PSoC4/CapSense_1.c ****     CapSense_1_ClearSensors();
 236:.\Generated_Source\PSoC4/CapSense_1.c **** }
 237:.\Generated_Source\PSoC4/CapSense_1.c **** 
 238:.\Generated_Source\PSoC4/CapSense_1.c **** /*******************************************************************************
 239:.\Generated_Source\PSoC4/CapSense_1.c **** * Function Name: CapSense_1_CsdHwBlockInit
 240:.\Generated_Source\PSoC4/CapSense_1.c **** ********************************************************************************
 241:.\Generated_Source\PSoC4/CapSense_1.c **** *
 242:.\Generated_Source\PSoC4/CapSense_1.c **** * Summary:
 243:.\Generated_Source\PSoC4/CapSense_1.c **** *  Initialises the hardware parameters of the CSD block 
 244:.\Generated_Source\PSoC4/CapSense_1.c **** *
 245:.\Generated_Source\PSoC4/CapSense_1.c **** * Parameters:
 246:.\Generated_Source\PSoC4/CapSense_1.c **** *  None
 247:.\Generated_Source\PSoC4/CapSense_1.c **** *
 248:.\Generated_Source\PSoC4/CapSense_1.c **** * Return:
 249:.\Generated_Source\PSoC4/CapSense_1.c **** *  None
 250:.\Generated_Source\PSoC4/CapSense_1.c **** *
 251:.\Generated_Source\PSoC4/CapSense_1.c **** * Global Variables:
 252:.\Generated_Source\PSoC4/CapSense_1.c **** *  CapSense_1_csdTrim1 - Contains IDAC trim register value for Sourcing Mode.
 253:.\Generated_Source\PSoC4/CapSense_1.c **** *  CapSense_1_csdTrim2 - Contains IDAC trim register value for Sinking Mode.
 254:.\Generated_Source\PSoC4/CapSense_1.c **** *
 255:.\Generated_Source\PSoC4/CapSense_1.c **** * Side Effects:
 256:.\Generated_Source\PSoC4/CapSense_1.c **** *  None
 257:.\Generated_Source\PSoC4/CapSense_1.c **** * 
 258:.\Generated_Source\PSoC4/CapSense_1.c **** *******************************************************************************/
 259:.\Generated_Source\PSoC4/CapSense_1.c **** void CapSense_1_CsdHwBlockInit(void)
 260:.\Generated_Source\PSoC4/CapSense_1.c **** {
ARM GAS  C:\Users\danielpi\AppData\Local\Temp\cccuTXvj.s 			page 6


  26              		.loc 1 260 0
  27              		.cfi_startproc
  28 0000 38B5     		push	{r3, r4, r5, lr}
  29              		.cfi_def_cfa_offset 16
  30              		.cfi_offset 3, -16
  31              		.cfi_offset 4, -12
  32              		.cfi_offset 5, -8
  33              		.cfi_offset 14, -4
 261:.\Generated_Source\PSoC4/CapSense_1.c **** 	uint32 newRegValue;
 262:.\Generated_Source\PSoC4/CapSense_1.c **** 	
 263:.\Generated_Source\PSoC4/CapSense_1.c **** 	    /* Set trim registers for CSD Mode */
 264:.\Generated_Source\PSoC4/CapSense_1.c ****     #if (CapSense_1_IDAC1_POLARITY == CapSense_1__IDAC_SINK)
 265:.\Generated_Source\PSoC4/CapSense_1.c **** 		/* iDAC1 Sinking Mode */ 
 266:.\Generated_Source\PSoC4/CapSense_1.c **** 		CapSense_1_csdTrim2 = (uint8)CapSense_1_CSD_TRIM2_REG;
 267:.\Generated_Source\PSoC4/CapSense_1.c **** 		newRegValue = CapSense_1_csdTrim2;
 268:.\Generated_Source\PSoC4/CapSense_1.c **** 		newRegValue &= CapSense_1_CSD_IDAC1_TRIM_MASK;
 269:.\Generated_Source\PSoC4/CapSense_1.c **** 		newRegValue |= (uint32)((uint32)CapSense_1_SFLASH_CSD_TRIM2_REG & (uint32)CapSense_1_CSFLASH_TRIM
 270:.\Generated_Source\PSoC4/CapSense_1.c **** 		
 271:.\Generated_Source\PSoC4/CapSense_1.c **** 		#if (CapSense_1_IDAC_CNT == 2u)
 272:.\Generated_Source\PSoC4/CapSense_1.c **** 		    /* iDAC2 Sinking Mode */ 
 273:.\Generated_Source\PSoC4/CapSense_1.c **** 			newRegValue &= CapSense_1_CSD_IDAC2_TRIM_MASK;
 274:.\Generated_Source\PSoC4/CapSense_1.c **** 			newRegValue |= (uint32)((uint32)CapSense_1_SFLASH_CSD_TRIM2_REG & (uint32)CapSense_1_CSFLASH_TRI
 275:.\Generated_Source\PSoC4/CapSense_1.c **** 		#endif /* (CapSense_1_IDAC_CNT == 2u) */
 276:.\Generated_Source\PSoC4/CapSense_1.c **** 		CapSense_1_CSD_TRIM2_REG = newRegValue;
 277:.\Generated_Source\PSoC4/CapSense_1.c ****     #else   
 278:.\Generated_Source\PSoC4/CapSense_1.c **** 		/* iDAC1 Sourcing Mode */ 
 279:.\Generated_Source\PSoC4/CapSense_1.c **** 		CapSense_1_csdTrim1 = (uint8)CapSense_1_CSD_TRIM1_REG;
  34              		.loc 1 279 0
  35 0002 164A     		ldr	r2, .L2
  36 0004 1168     		ldr	r1, [r2]
  37 0006 C9B2     		uxtb	r1, r1
  38 0008 154B     		ldr	r3, .L2+4
  39 000a 1970     		strb	r1, [r3]
  40              	.LVL0:
 280:.\Generated_Source\PSoC4/CapSense_1.c **** 		newRegValue = CapSense_1_csdTrim1;
 281:.\Generated_Source\PSoC4/CapSense_1.c **** 		newRegValue &= CapSense_1_CSD_IDAC1_TRIM_MASK;
  41              		.loc 1 281 0
  42 000c 0F23     		mov	r3, #15
  43 000e 0C1C     		mov	r4, r1
  44 0010 9C43     		bic	r4, r3
  45              	.LVL1:
 282:.\Generated_Source\PSoC4/CapSense_1.c **** 		newRegValue |= (uint32)((uint32)CapSense_1_SFLASH_CSD_TRIM1_REG & (uint32)CapSense_1_CSFLASH_TRIM
  46              		.loc 1 282 0
  47 0012 1449     		ldr	r1, .L2+8
  48 0014 0D78     		ldrb	r5, [r1]
  49 0016 0F20     		mov	r0, #15
  50 0018 2840     		and	r0, r5
  51 001a 2043     		orr	r0, r4
  52              	.LVL2:
 283:.\Generated_Source\PSoC4/CapSense_1.c **** 		#if (CapSense_1_IDAC_CNT == 2u)
 284:.\Generated_Source\PSoC4/CapSense_1.c **** 		     /* iDAC2 Sourcing Mode */ 
 285:.\Generated_Source\PSoC4/CapSense_1.c **** 			newRegValue &= CapSense_1_CSD_IDAC2_TRIM_MASK;
  53              		.loc 1 285 0
  54 001c F024     		mov	r4, #240
  55 001e A043     		bic	r0, r4
  56              	.LVL3:
 286:.\Generated_Source\PSoC4/CapSense_1.c **** 			newRegValue |= (uint32)((uint32)CapSense_1_SFLASH_CSD_TRIM1_REG & (uint32)CapSense_1_CSFLASH_TRI
ARM GAS  C:\Users\danielpi\AppData\Local\Temp\cccuTXvj.s 			page 7


  57              		.loc 1 286 0
  58 0020 0978     		ldrb	r1, [r1]
  59 0022 9943     		bic	r1, r3
  60 0024 0143     		orr	r1, r0
  61              	.LVL4:
 287:.\Generated_Source\PSoC4/CapSense_1.c **** 		#endif		
 288:.\Generated_Source\PSoC4/CapSense_1.c **** 		CapSense_1_CSD_TRIM1_REG = newRegValue;
  62              		.loc 1 288 0
  63 0026 1160     		str	r1, [r2]
 289:.\Generated_Source\PSoC4/CapSense_1.c ****     #endif /* (CapSense_1_IDAC1_POLARITY == CapSense_1__IDAC_SINK) */
 290:.\Generated_Source\PSoC4/CapSense_1.c **** 	
 291:.\Generated_Source\PSoC4/CapSense_1.c **** 	/* Configure CSD and IDAC */
 292:.\Generated_Source\PSoC4/CapSense_1.c **** 	#if (CapSense_1_IDAC_CNT > 1u)
 293:.\Generated_Source\PSoC4/CapSense_1.c **** 		CapSense_1_CSD_IDAC_REG = CapSense_1_DEFAULT_CSD_IDAC_CONFIG;
  64              		.loc 1 293 0
  65 0028 0F49     		ldr	r1, .L2+12
  66              	.LVL5:
  67 002a 104A     		ldr	r2, .L2+16
  68              	.LVL6:
  69 002c 1160     		str	r1, [r2]
  70              	.LVL7:
 294:.\Generated_Source\PSoC4/CapSense_1.c **** 		CapSense_1_CSD_CFG_REG = CapSense_1_DEFAULT_CSD_CONFIG;
  71              		.loc 1 294 0
  72 002e 1049     		ldr	r1, .L2+20
  73 0030 104A     		ldr	r2, .L2+24
  74 0032 1160     		str	r1, [r2]
 295:.\Generated_Source\PSoC4/CapSense_1.c **** 	#else
 296:.\Generated_Source\PSoC4/CapSense_1.c **** 		CapSense_1_CSD_IDAC_REG &= ~(CapSense_1_CSD_IDAC1_MODE_MASK  | CapSense_1_CSD_IDAC1_DATA_MASK);
 297:.\Generated_Source\PSoC4/CapSense_1.c **** 		CapSense_1_CSD_IDAC_REG |= CapSense_1_DEFAULT_CSD_IDAC_CONFIG;
 298:.\Generated_Source\PSoC4/CapSense_1.c **** 		
 299:.\Generated_Source\PSoC4/CapSense_1.c **** 		CapSense_1_CSD_CFG_REG &= ~(CapSense_1_CSD_CONFIG_MASK);
 300:.\Generated_Source\PSoC4/CapSense_1.c **** 		CapSense_1_CSD_CFG_REG |= (CapSense_1_DEFAULT_CSD_CONFIG);
 301:.\Generated_Source\PSoC4/CapSense_1.c **** 	#endif /* (CapSense_1_IDAC_CNT > 1u) */
 302:.\Generated_Source\PSoC4/CapSense_1.c **** 	
 303:.\Generated_Source\PSoC4/CapSense_1.c **** 	
 304:.\Generated_Source\PSoC4/CapSense_1.c **** 	/* Connect Cmod to AMUX bus */ 
 305:.\Generated_Source\PSoC4/CapSense_1.c **** 	newRegValue = CapSense_1_CMOD_CONNECTION_REG; 
  75              		.loc 1 305 0
  76 0034 104A     		ldr	r2, .L2+28
  77 0036 1168     		ldr	r1, [r2]
  78              	.LVL8:
 306:.\Generated_Source\PSoC4/CapSense_1.c ****     newRegValue &= ~(CapSense_1_CSD_CMOD_CONNECTION_MASK);
  79              		.loc 1 306 0
  80 0038 9943     		bic	r1, r3
  81              	.LVL9:
  82 003a 0B1C     		mov	r3, r1
  83              	.LVL10:
 307:.\Generated_Source\PSoC4/CapSense_1.c ****     newRegValue |= CapSense_1_CSD_CMOD_TO_AMUXBUS_A;
  84              		.loc 1 307 0
  85 003c 0621     		mov	r1, #6
  86              	.LVL11:
  87 003e 0B43     		orr	r3, r1
  88              	.LVL12:
 308:.\Generated_Source\PSoC4/CapSense_1.c ****     CapSense_1_CMOD_CONNECTION_REG = newRegValue;
  89              		.loc 1 308 0
  90 0040 1360     		str	r3, [r2]
 309:.\Generated_Source\PSoC4/CapSense_1.c **** 	
ARM GAS  C:\Users\danielpi\AppData\Local\Temp\cccuTXvj.s 			page 8


 310:.\Generated_Source\PSoC4/CapSense_1.c **** 	/* Configure Dead Band PWM if it is enabled */
 311:.\Generated_Source\PSoC4/CapSense_1.c **** 	#if(CapSense_1_CSD_4B_PWM_MODE != CapSense_1__PWM_OFF)
 312:.\Generated_Source\PSoC4/CapSense_1.c **** 		CapSense_1_CSD_4B_PWM_REG = CapSense_1_DEFAULT_CSD_4B_PWM_CONFIG;
 313:.\Generated_Source\PSoC4/CapSense_1.c **** 	#endif /* (CapSense_1_CSD_4B_PWM_MODE != CapSense_1__PWM_OFF) */
 314:.\Generated_Source\PSoC4/CapSense_1.c **** 
 315:.\Generated_Source\PSoC4/CapSense_1.c **** 	/* Setup ISR */
 316:.\Generated_Source\PSoC4/CapSense_1.c **** 	CyIntDisable(CapSense_1_ISR_NUMBER);
  91              		.loc 1 316 0
  92 0042 1020     		mov	r0, #16
  93 0044 FFF7FEFF 		bl	CyIntDisable
  94              	.LVL13:
 317:.\Generated_Source\PSoC4/CapSense_1.c **** 	#if !defined(CY_EXTERNAL_INTERRUPT_CONFIG)		
 318:.\Generated_Source\PSoC4/CapSense_1.c **** 	    (void)CyIntSetVector(CapSense_1_ISR_NUMBER, &CapSense_1_ISR);
  95              		.loc 1 318 0
  96 0048 1020     		mov	r0, #16
  97 004a 0C49     		ldr	r1, .L2+32
  98 004c FFF7FEFF 		bl	CyIntSetVector
  99              	.LVL14:
 319:.\Generated_Source\PSoC4/CapSense_1.c **** 	    CyIntSetPriority(CapSense_1_ISR_NUMBER, CapSense_1_ISR_PRIORITY);
 100              		.loc 1 319 0
 101 0050 1020     		mov	r0, #16
 102 0052 0321     		mov	r1, #3
 103 0054 FFF7FEFF 		bl	CyIntSetPriority
 104              	.LVL15:
 320:.\Generated_Source\PSoC4/CapSense_1.c **** 	#endif /* (CY_EXTERNAL_INTERRUPT_CONFIG) */
 321:.\Generated_Source\PSoC4/CapSense_1.c **** }
 105              		.loc 1 321 0
 106              		@ sp needed
 107 0058 38BD     		pop	{r3, r4, r5, pc}
 108              	.L3:
 109 005a C046     		.align	2
 110              	.L2:
 111 005c 00FF2840 		.word	1076428544
 112 0060 00000000 		.word	CapSense_1_csdTrim1
 113 0064 62F1FF0F 		.word	268431714
 114 0068 00020001 		.word	16777728
 115 006c 08002840 		.word	1076363272
 116 0070 0008A001 		.word	27265024
 117 0074 04002840 		.word	1076363268
 118 0078 00040240 		.word	1073873920
 119 007c 00000000 		.word	CapSense_1_ISR
 120              		.cfi_endproc
 121              	.LFE36:
 122              		.size	CapSense_1_CsdHwBlockInit, .-CapSense_1_CsdHwBlockInit
 123              		.section	.text.CapSense_1_Enable,"ax",%progbits
 124              		.align	2
 125              		.global	CapSense_1_Enable
 126              		.code	16
 127              		.thumb_func
 128              		.type	CapSense_1_Enable, %function
 129              	CapSense_1_Enable:
 130              	.LFB37:
 322:.\Generated_Source\PSoC4/CapSense_1.c **** 
 323:.\Generated_Source\PSoC4/CapSense_1.c **** 
 324:.\Generated_Source\PSoC4/CapSense_1.c **** /*******************************************************************************
 325:.\Generated_Source\PSoC4/CapSense_1.c **** * Function Name: CapSense_1_Enable
 326:.\Generated_Source\PSoC4/CapSense_1.c **** ********************************************************************************
ARM GAS  C:\Users\danielpi\AppData\Local\Temp\cccuTXvj.s 			page 9


 327:.\Generated_Source\PSoC4/CapSense_1.c **** *
 328:.\Generated_Source\PSoC4/CapSense_1.c **** * Summary:
 329:.\Generated_Source\PSoC4/CapSense_1.c **** *  Enables the CSD block and related resources to an active mode.
 330:.\Generated_Source\PSoC4/CapSense_1.c **** *
 331:.\Generated_Source\PSoC4/CapSense_1.c **** * Parameters:
 332:.\Generated_Source\PSoC4/CapSense_1.c **** *  None
 333:.\Generated_Source\PSoC4/CapSense_1.c **** *
 334:.\Generated_Source\PSoC4/CapSense_1.c **** * Return:
 335:.\Generated_Source\PSoC4/CapSense_1.c **** *  None
 336:.\Generated_Source\PSoC4/CapSense_1.c **** *
 337:.\Generated_Source\PSoC4/CapSense_1.c **** * Global Variables:
 338:.\Generated_Source\PSoC4/CapSense_1.c **** *  None.
 339:.\Generated_Source\PSoC4/CapSense_1.c **** *
 340:.\Generated_Source\PSoC4/CapSense_1.c **** * Side Effects:
 341:.\Generated_Source\PSoC4/CapSense_1.c **** *  None
 342:.\Generated_Source\PSoC4/CapSense_1.c **** * 
 343:.\Generated_Source\PSoC4/CapSense_1.c **** *******************************************************************************/
 344:.\Generated_Source\PSoC4/CapSense_1.c **** void CapSense_1_Enable(void)
 345:.\Generated_Source\PSoC4/CapSense_1.c **** {
 131              		.loc 1 345 0
 132              		.cfi_startproc
 133 0000 08B5     		push	{r3, lr}
 134              		.cfi_def_cfa_offset 8
 135              		.cfi_offset 3, -8
 136              		.cfi_offset 14, -4
 346:.\Generated_Source\PSoC4/CapSense_1.c ****     uint32 newRegValue;
 347:.\Generated_Source\PSoC4/CapSense_1.c ****     
 348:.\Generated_Source\PSoC4/CapSense_1.c ****     /* Enable Clocks */
 349:.\Generated_Source\PSoC4/CapSense_1.c **** 	CapSense_1_SenseClk_Stop();
 137              		.loc 1 349 0
 138 0002 FFF7FEFF 		bl	CapSense_1_SenseClk_Stop
 139              	.LVL16:
 350:.\Generated_Source\PSoC4/CapSense_1.c **** 	CapSense_1_SampleClk_Stop();
 140              		.loc 1 350 0
 141 0006 FFF7FEFF 		bl	CapSense_1_SampleClk_Stop
 142              	.LVL17:
 351:.\Generated_Source\PSoC4/CapSense_1.c **** 	
 352:.\Generated_Source\PSoC4/CapSense_1.c **** 	CapSense_1_SampleClk_SetDividerValue((uint16)CapSense_1_INITIAL_CLK_DIVIDER);
 143              		.loc 1 352 0
 144 000a 0020     		mov	r0, #0
 145 000c 0021     		mov	r1, #0
 146 000e FFF7FEFF 		bl	CapSense_1_SampleClk_SetFractionalDividerRegister
 147              	.LVL18:
 353:.\Generated_Source\PSoC4/CapSense_1.c **** 	CapSense_1_SenseClk_SetDividerValue((uint16)CapSense_1_INITIAL_CLK_DIVIDER);
 148              		.loc 1 353 0
 149 0012 0020     		mov	r0, #0
 150 0014 0021     		mov	r1, #0
 151 0016 FFF7FEFF 		bl	CapSense_1_SenseClk_SetFractionalDividerRegister
 152              	.LVL19:
 354:.\Generated_Source\PSoC4/CapSense_1.c **** 	
 355:.\Generated_Source\PSoC4/CapSense_1.c **** 	#if (0u == CapSense_1_IS_M0S8PERI_BLOCK)
 356:.\Generated_Source\PSoC4/CapSense_1.c **** 		CapSense_1_SenseClk_Start();
 357:.\Generated_Source\PSoC4/CapSense_1.c **** 		CapSense_1_SampleClk_Start();
 358:.\Generated_Source\PSoC4/CapSense_1.c **** 	#else
 359:.\Generated_Source\PSoC4/CapSense_1.c **** 		CapSense_1_SampleClk_Start();
 153              		.loc 1 359 0
 154 001a FF20     		mov	r0, #255
ARM GAS  C:\Users\danielpi\AppData\Local\Temp\cccuTXvj.s 			page 10


 155 001c FFF7FEFF 		bl	CapSense_1_SampleClk_StartEx
 156              	.LVL20:
 360:.\Generated_Source\PSoC4/CapSense_1.c **** 		CapSense_1_SenseClk_StartEx(CapSense_1_SampleClk__DIV_ID);
 157              		.loc 1 360 0
 158 0020 4020     		mov	r0, #64
 159 0022 FFF7FEFF 		bl	CapSense_1_SenseClk_StartEx
 160              	.LVL21:
 361:.\Generated_Source\PSoC4/CapSense_1.c **** 	#endif /* (0u == CapSense_1_IS_M0S8PERI_BLOCK) */
 362:.\Generated_Source\PSoC4/CapSense_1.c **** 	
 363:.\Generated_Source\PSoC4/CapSense_1.c **** 	/* Enable the CSD block */
 364:.\Generated_Source\PSoC4/CapSense_1.c ****     newRegValue = CapSense_1_CSD_CFG_REG;
 161              		.loc 1 364 0
 162 0026 044B     		ldr	r3, .L5
 163 0028 1A68     		ldr	r2, [r3]
 164              	.LVL22:
 365:.\Generated_Source\PSoC4/CapSense_1.c ****     newRegValue |= (CapSense_1_CSD_CFG_ENABLE | CapSense_1_CSD_CFG_SENSE_COMP_EN 
 165              		.loc 1 365 0
 166 002a 0449     		ldr	r1, .L5+4
 167 002c 0A43     		orr	r2, r1
 168              	.LVL23:
 366:.\Generated_Source\PSoC4/CapSense_1.c ****                                                    | CapSense_1_CSD_CFG_SENSE_EN);    
 367:.\Generated_Source\PSoC4/CapSense_1.c ****     CapSense_1_CSD_CFG_REG = newRegValue;
 169              		.loc 1 367 0
 170 002e 1A60     		str	r2, [r3]
 368:.\Generated_Source\PSoC4/CapSense_1.c **** 
 369:.\Generated_Source\PSoC4/CapSense_1.c ****     /* Enable interrupt */
 370:.\Generated_Source\PSoC4/CapSense_1.c ****     CyIntEnable(CapSense_1_ISR_NUMBER);
 171              		.loc 1 370 0
 172 0030 1020     		mov	r0, #16
 173 0032 FFF7FEFF 		bl	CyIntEnable
 174              	.LVL24:
 371:.\Generated_Source\PSoC4/CapSense_1.c **** }
 175              		.loc 1 371 0
 176              		@ sp needed
 177 0036 08BD     		pop	{r3, pc}
 178              	.L6:
 179              		.align	2
 180              	.L5:
 181 0038 04002840 		.word	1076363268
 182 003c 00100880 		.word	-2146955264
 183              		.cfi_endproc
 184              	.LFE37:
 185              		.size	CapSense_1_Enable, .-CapSense_1_Enable
 186              		.section	.text.CapSense_1_Stop,"ax",%progbits
 187              		.align	2
 188              		.global	CapSense_1_Stop
 189              		.code	16
 190              		.thumb_func
 191              		.type	CapSense_1_Stop, %function
 192              	CapSense_1_Stop:
 193              	.LFB39:
 372:.\Generated_Source\PSoC4/CapSense_1.c **** 
 373:.\Generated_Source\PSoC4/CapSense_1.c **** 
 374:.\Generated_Source\PSoC4/CapSense_1.c **** /*******************************************************************************
 375:.\Generated_Source\PSoC4/CapSense_1.c **** * Function Name: CapSense_1_Start
 376:.\Generated_Source\PSoC4/CapSense_1.c **** ********************************************************************************
 377:.\Generated_Source\PSoC4/CapSense_1.c **** *
ARM GAS  C:\Users\danielpi\AppData\Local\Temp\cccuTXvj.s 			page 11


 378:.\Generated_Source\PSoC4/CapSense_1.c **** * Summary:
 379:.\Generated_Source\PSoC4/CapSense_1.c **** *  This is the preferred method to begin the component operation. CapSense_Start() 
 380:.\Generated_Source\PSoC4/CapSense_1.c **** *  calls the CapSense_Init() function, and then calls the CapSense_Enable() 
 381:.\Generated_Source\PSoC4/CapSense_1.c **** *  function. Initializes the registers and starts the CSD method of the CapSense 
 382:.\Generated_Source\PSoC4/CapSense_1.c **** *  component. Resets all the sensors to an inactive state. Enables interrupts for 
 383:.\Generated_Source\PSoC4/CapSense_1.c **** *  sensors scanning. When the SmartSense tuning mode is selected, the tuning procedure
 384:.\Generated_Source\PSoC4/CapSense_1.c **** *  is applied for all the sensors. The CapSense_Start() routine must be called before 
 385:.\Generated_Source\PSoC4/CapSense_1.c **** *  any other API routines.
 386:.\Generated_Source\PSoC4/CapSense_1.c **** *
 387:.\Generated_Source\PSoC4/CapSense_1.c **** * Parameters:
 388:.\Generated_Source\PSoC4/CapSense_1.c **** *  None
 389:.\Generated_Source\PSoC4/CapSense_1.c **** *
 390:.\Generated_Source\PSoC4/CapSense_1.c **** * Return:
 391:.\Generated_Source\PSoC4/CapSense_1.c **** *  None
 392:.\Generated_Source\PSoC4/CapSense_1.c **** *
 393:.\Generated_Source\PSoC4/CapSense_1.c **** * Global Variables:
 394:.\Generated_Source\PSoC4/CapSense_1.c **** *   CapSense_1_initVar - used to check the initial configuration, 
 395:.\Generated_Source\PSoC4/CapSense_1.c **** *   modified on the first function call.
 396:.\Generated_Source\PSoC4/CapSense_1.c **** *  CapSense_1_lowLevelTuningDone - Used to notify the Tuner GUI that 
 397:.\Generated_Source\PSoC4/CapSense_1.c **** *   tuning of the scanning parameters is done. 
 398:.\Generated_Source\PSoC4/CapSense_1.c **** *
 399:.\Generated_Source\PSoC4/CapSense_1.c **** * Side Effects:
 400:.\Generated_Source\PSoC4/CapSense_1.c **** *  None
 401:.\Generated_Source\PSoC4/CapSense_1.c **** * 
 402:.\Generated_Source\PSoC4/CapSense_1.c **** *******************************************************************************/
 403:.\Generated_Source\PSoC4/CapSense_1.c **** void CapSense_1_Start(void)
 404:.\Generated_Source\PSoC4/CapSense_1.c **** {
 405:.\Generated_Source\PSoC4/CapSense_1.c **** 
 406:.\Generated_Source\PSoC4/CapSense_1.c **** 	static uint8 CapSense_1_initVar = 0u;
 407:.\Generated_Source\PSoC4/CapSense_1.c **** 
 408:.\Generated_Source\PSoC4/CapSense_1.c **** 	#if((0u != CapSense_1_AUTOCALIBRATION_ENABLE) && (CapSense_1_TUNING_METHOD != CapSense_1__TUNING_A
 409:.\Generated_Source\PSoC4/CapSense_1.c **** 		uint32 curSensor;
 410:.\Generated_Source\PSoC4/CapSense_1.c **** 		uint32 rawLevel;
 411:.\Generated_Source\PSoC4/CapSense_1.c **** 		uint32 widget;
 412:.\Generated_Source\PSoC4/CapSense_1.c ****     #endif /* ((0u != CapSense_1_AUTOCALIBRATION_ENABLE) && (CapSense_1_TUNING_METHOD != CapSense_1
 413:.\Generated_Source\PSoC4/CapSense_1.c **** 	
 414:.\Generated_Source\PSoC4/CapSense_1.c ****     if (CapSense_1_initVar == 0u)
 415:.\Generated_Source\PSoC4/CapSense_1.c ****     {
 416:.\Generated_Source\PSoC4/CapSense_1.c ****         CapSense_1_Init();
 417:.\Generated_Source\PSoC4/CapSense_1.c ****         CapSense_1_initVar = 1u;
 418:.\Generated_Source\PSoC4/CapSense_1.c ****     }
 419:.\Generated_Source\PSoC4/CapSense_1.c ****     CapSense_1_Enable();
 420:.\Generated_Source\PSoC4/CapSense_1.c **** 	
 421:.\Generated_Source\PSoC4/CapSense_1.c ****     /* AutoTunning start */
 422:.\Generated_Source\PSoC4/CapSense_1.c ****     #if(CapSense_1_TUNING_METHOD == CapSense_1__TUNING_AUTO)
 423:.\Generated_Source\PSoC4/CapSense_1.c **** 		#if(0u != CapSense_1_CSHL_API_GENERATE)
 424:.\Generated_Source\PSoC4/CapSense_1.c **** 	        CapSense_1_AutoTune();
 425:.\Generated_Source\PSoC4/CapSense_1.c **** 	        CapSense_1_lowLevelTuningDone = 1u;
 426:.\Generated_Source\PSoC4/CapSense_1.c **** 		#endif /* (0u != CapSense_1_CSHL_API_GENERATE) */
 427:.\Generated_Source\PSoC4/CapSense_1.c **** 	#else
 428:.\Generated_Source\PSoC4/CapSense_1.c **** 		#if(0u != CapSense_1_AUTOCALIBRATION_ENABLE)
 429:.\Generated_Source\PSoC4/CapSense_1.c **** 			
 430:.\Generated_Source\PSoC4/CapSense_1.c **** 			#if(CapSense_1_IDAC_CNT > 1u)
 431:.\Generated_Source\PSoC4/CapSense_1.c **** 				CapSense_1_CSD_IDAC_REG &= ~(CapSense_1_CSD_IDAC2_MODE_MASK);	
 432:.\Generated_Source\PSoC4/CapSense_1.c **** 			#endif /* (CapSense_1_IDAC_CNT > 1u) */
 433:.\Generated_Source\PSoC4/CapSense_1.c **** 			
 434:.\Generated_Source\PSoC4/CapSense_1.c **** 			for(curSensor = 0u; curSensor < CapSense_1_TOTAL_SCANSLOT_COUNT; curSensor++)
ARM GAS  C:\Users\danielpi\AppData\Local\Temp\cccuTXvj.s 			page 12


 435:.\Generated_Source\PSoC4/CapSense_1.c **** 			{
 436:.\Generated_Source\PSoC4/CapSense_1.c **** 				widget = CapSense_1_widgetNumber[curSensor];
 437:.\Generated_Source\PSoC4/CapSense_1.c **** 				rawLevel = CapSense_1_widgetResolution[widget] >> CapSense_1_RESOLUTION_OFFSET;
 438:.\Generated_Source\PSoC4/CapSense_1.c **** 				
 439:.\Generated_Source\PSoC4/CapSense_1.c **** 				/* Calibration level should be equal to 85% from scanning resolution */
 440:.\Generated_Source\PSoC4/CapSense_1.c **** 				rawLevel = (rawLevel * 85u) / 100u;
 441:.\Generated_Source\PSoC4/CapSense_1.c **** 				
 442:.\Generated_Source\PSoC4/CapSense_1.c **** 				CapSense_1_CalibrateSensor(curSensor, rawLevel, CapSense_1_modulationIDAC);
 443:.\Generated_Source\PSoC4/CapSense_1.c **** 			}
 444:.\Generated_Source\PSoC4/CapSense_1.c **** 
 445:.\Generated_Source\PSoC4/CapSense_1.c **** 			#if(0u != CapSense_1_TOTAL_CENTROIDS_COUNT) 
 446:.\Generated_Source\PSoC4/CapSense_1.c **** 				CapSense_1_NormalizeWidgets(CapSense_1_END_OF_WIDGETS_INDEX, CapSense_1_modulationIDAC);
 447:.\Generated_Source\PSoC4/CapSense_1.c **** 			#endif /* (0u != CapSense_1_TOTAL_CENTROIDS_COUNT)  */
 448:.\Generated_Source\PSoC4/CapSense_1.c **** 
 449:.\Generated_Source\PSoC4/CapSense_1.c **** 			#if(CapSense_1_IDAC_CNT > 1u)
 450:.\Generated_Source\PSoC4/CapSense_1.c **** 				for(curSensor = 0u; curSensor < CapSense_1_TOTAL_SCANSLOT_COUNT; curSensor++)
 451:.\Generated_Source\PSoC4/CapSense_1.c **** 			    {
 452:.\Generated_Source\PSoC4/CapSense_1.c **** 					CapSense_1_compensationIDAC[curSensor] = CapSense_1_modulationIDAC[curSensor] / 2u;
 453:.\Generated_Source\PSoC4/CapSense_1.c **** 					CapSense_1_modulationIDAC[curSensor] = (CapSense_1_modulationIDAC[curSensor] + 1u) / 2u;
 454:.\Generated_Source\PSoC4/CapSense_1.c **** 			    }
 455:.\Generated_Source\PSoC4/CapSense_1.c **** 				CapSense_1_CSD_IDAC_REG |= CapSense_1_CSD_IDAC2_MODE_FIXED;
 456:.\Generated_Source\PSoC4/CapSense_1.c **** 			#endif /* (CapSense_1_IDAC_CNT > 1u) */
 457:.\Generated_Source\PSoC4/CapSense_1.c **** 			
 458:.\Generated_Source\PSoC4/CapSense_1.c ****         #endif /* (0u != CapSense_1_AUTOCALIBRATION_ENABLE) */ 
 459:.\Generated_Source\PSoC4/CapSense_1.c **** 					
 460:.\Generated_Source\PSoC4/CapSense_1.c ****     #endif /* ((CapSense_1_TUNING_METHOD == CapSense_1__TUNING_AUTO) */	
 461:.\Generated_Source\PSoC4/CapSense_1.c **** 	
 462:.\Generated_Source\PSoC4/CapSense_1.c **** 	/* Initialize Advanced Centroid */
 463:.\Generated_Source\PSoC4/CapSense_1.c **** 	#if(CapSense_1_TOTAL_TRACKPAD_GESTURES_COUNT > 0u)
 464:.\Generated_Source\PSoC4/CapSense_1.c **** 		CapSense_1_AdvancedCentroidInit();
 465:.\Generated_Source\PSoC4/CapSense_1.c **** 	#endif /* (CapSense_1_TOTAL_TRACKPAD_GESTURES_COUNT > 0u) */
 466:.\Generated_Source\PSoC4/CapSense_1.c **** 	
 467:.\Generated_Source\PSoC4/CapSense_1.c **** 	/* Connect sense comparator input to AMUXA */
 468:.\Generated_Source\PSoC4/CapSense_1.c **** 	CapSense_1_CSD_CFG_REG |= CapSense_1_CSD_CFG_SENSE_INSEL;
 469:.\Generated_Source\PSoC4/CapSense_1.c **** }
 470:.\Generated_Source\PSoC4/CapSense_1.c **** 
 471:.\Generated_Source\PSoC4/CapSense_1.c **** 
 472:.\Generated_Source\PSoC4/CapSense_1.c **** /*******************************************************************************
 473:.\Generated_Source\PSoC4/CapSense_1.c **** * Function Name: CapSense_1_Stop
 474:.\Generated_Source\PSoC4/CapSense_1.c **** ********************************************************************************
 475:.\Generated_Source\PSoC4/CapSense_1.c **** *
 476:.\Generated_Source\PSoC4/CapSense_1.c **** * Summary:
 477:.\Generated_Source\PSoC4/CapSense_1.c **** *  Stops the sensor scanning, disables component interrupts, and resets all the 
 478:.\Generated_Source\PSoC4/CapSense_1.c **** *  sensors to an inactive state. Disables the Active mode power template bits for
 479:.\Generated_Source\PSoC4/CapSense_1.c **** *  the subcomponents used within CapSense.
 480:.\Generated_Source\PSoC4/CapSense_1.c **** *
 481:.\Generated_Source\PSoC4/CapSense_1.c **** * Parameters:
 482:.\Generated_Source\PSoC4/CapSense_1.c **** *  None
 483:.\Generated_Source\PSoC4/CapSense_1.c **** *
 484:.\Generated_Source\PSoC4/CapSense_1.c **** * Return:
 485:.\Generated_Source\PSoC4/CapSense_1.c **** *  None
 486:.\Generated_Source\PSoC4/CapSense_1.c **** *
 487:.\Generated_Source\PSoC4/CapSense_1.c **** * Global Variables:
 488:.\Generated_Source\PSoC4/CapSense_1.c **** *  CapSense_1_csdTrim1 - Contains the IDAC trim register value for the Sourcing Mode.
 489:.\Generated_Source\PSoC4/CapSense_1.c **** *  CapSense_1_csdTrim2 - Contains the IDAC trim register value for vSinking Mode.
 490:.\Generated_Source\PSoC4/CapSense_1.c **** *
 491:.\Generated_Source\PSoC4/CapSense_1.c **** * Side Effects:
ARM GAS  C:\Users\danielpi\AppData\Local\Temp\cccuTXvj.s 			page 13


 492:.\Generated_Source\PSoC4/CapSense_1.c **** *  This function should be called after scans are completed.
 493:.\Generated_Source\PSoC4/CapSense_1.c **** *
 494:.\Generated_Source\PSoC4/CapSense_1.c **** *******************************************************************************/
 495:.\Generated_Source\PSoC4/CapSense_1.c **** void CapSense_1_Stop(void)
 496:.\Generated_Source\PSoC4/CapSense_1.c **** {
 194              		.loc 1 496 0
 195              		.cfi_startproc
 196 0000 08B5     		push	{r3, lr}
 197              		.cfi_def_cfa_offset 8
 198              		.cfi_offset 3, -8
 199              		.cfi_offset 14, -4
 497:.\Generated_Source\PSoC4/CapSense_1.c ****     /* Disable interrupt */
 498:.\Generated_Source\PSoC4/CapSense_1.c ****     CyIntDisable(CapSense_1_ISR_NUMBER);
 200              		.loc 1 498 0
 201 0002 1020     		mov	r0, #16
 202 0004 FFF7FEFF 		bl	CyIntDisable
 203              	.LVL25:
 499:.\Generated_Source\PSoC4/CapSense_1.c **** 	
 500:.\Generated_Source\PSoC4/CapSense_1.c **** 	CapSense_1_CSD_CFG_REG &= ~(CapSense_1_CSD_CFG_SENSE_COMP_EN | CapSense_1_CSD_CFG_SENSE_EN);
 204              		.loc 1 500 0
 205 0008 064B     		ldr	r3, .L8
 206 000a 1968     		ldr	r1, [r3]
 207 000c 064A     		ldr	r2, .L8+4
 208 000e 0A40     		and	r2, r1
 209 0010 1A60     		str	r2, [r3]
 501:.\Generated_Source\PSoC4/CapSense_1.c **** 	
 502:.\Generated_Source\PSoC4/CapSense_1.c **** 	#if(CapSense_1_IDAC_CNT == 2u)
 503:.\Generated_Source\PSoC4/CapSense_1.c **** 		CapSense_1_CSD_CFG_REG &= ~(CapSense_1_CSD_CFG_ENABLE);
 210              		.loc 1 503 0
 211 0012 1A68     		ldr	r2, [r3]
 212 0014 5200     		lsl	r2, r2, #1
 213 0016 5208     		lsr	r2, r2, #1
 214 0018 1A60     		str	r2, [r3]
 504:.\Generated_Source\PSoC4/CapSense_1.c **** 	#endif /* (CapSense_1_IDAC_CNT == 2u) */
 505:.\Generated_Source\PSoC4/CapSense_1.c **** 
 506:.\Generated_Source\PSoC4/CapSense_1.c ****     /* Disable the Clocks */
 507:.\Generated_Source\PSoC4/CapSense_1.c ****     CapSense_1_SenseClk_Stop();
 215              		.loc 1 507 0
 216 001a FFF7FEFF 		bl	CapSense_1_SenseClk_Stop
 217              	.LVL26:
 508:.\Generated_Source\PSoC4/CapSense_1.c ****     CapSense_1_SampleClk_Stop();
 218              		.loc 1 508 0
 219 001e FFF7FEFF 		bl	CapSense_1_SampleClk_Stop
 220              	.LVL27:
 509:.\Generated_Source\PSoC4/CapSense_1.c **** }
 221              		.loc 1 509 0
 222              		@ sp needed
 223 0022 08BD     		pop	{r3, pc}
 224              	.L9:
 225              		.align	2
 226              	.L8:
 227 0024 04002840 		.word	1076363268
 228 0028 FFEFF7FF 		.word	-528385
 229              		.cfi_endproc
 230              	.LFE39:
 231              		.size	CapSense_1_Stop, .-CapSense_1_Stop
 232              		.section	.text.CapSense_1_IsBusy,"ax",%progbits
ARM GAS  C:\Users\danielpi\AppData\Local\Temp\cccuTXvj.s 			page 14


 233              		.align	2
 234              		.global	CapSense_1_IsBusy
 235              		.code	16
 236              		.thumb_func
 237              		.type	CapSense_1_IsBusy, %function
 238              	CapSense_1_IsBusy:
 239              	.LFB44:
 510:.\Generated_Source\PSoC4/CapSense_1.c **** 
 511:.\Generated_Source\PSoC4/CapSense_1.c **** 
 512:.\Generated_Source\PSoC4/CapSense_1.c **** /*******************************************************************************
 513:.\Generated_Source\PSoC4/CapSense_1.c **** * Function Name: CapSense_1_FindNextSensor
 514:.\Generated_Source\PSoC4/CapSense_1.c **** ********************************************************************************
 515:.\Generated_Source\PSoC4/CapSense_1.c **** *
 516:.\Generated_Source\PSoC4/CapSense_1.c **** * Summary:
 517:.\Generated_Source\PSoC4/CapSense_1.c **** *  Finds the next sensor to scan. 
 518:.\Generated_Source\PSoC4/CapSense_1.c **** *
 519:.\Generated_Source\PSoC4/CapSense_1.c **** * Parameters:
 520:.\Generated_Source\PSoC4/CapSense_1.c **** *  snsIndex:  Current index of sensor.
 521:.\Generated_Source\PSoC4/CapSense_1.c **** *
 522:.\Generated_Source\PSoC4/CapSense_1.c **** * Return:
 523:.\Generated_Source\PSoC4/CapSense_1.c **** *  Returns the next sensor index to scan.
 524:.\Generated_Source\PSoC4/CapSense_1.c **** *
 525:.\Generated_Source\PSoC4/CapSense_1.c **** * Global Variables:
 526:.\Generated_Source\PSoC4/CapSense_1.c **** *  CapSense_1_sensorEnableMask[] - used to store bit masks of the enabled sensors.
 527:.\Generated_Source\PSoC4/CapSense_1.c **** *
 528:.\Generated_Source\PSoC4/CapSense_1.c **** * Side Effects:
 529:.\Generated_Source\PSoC4/CapSense_1.c **** *  This function affects the  current scanning and should not
 530:.\Generated_Source\PSoC4/CapSense_1.c **** *  be used outside the component.
 531:.\Generated_Source\PSoC4/CapSense_1.c **** *
 532:.\Generated_Source\PSoC4/CapSense_1.c **** *******************************************************************************/
 533:.\Generated_Source\PSoC4/CapSense_1.c **** uint8 CapSense_1_FindNextSensor(uint8 snsIndex)
 534:.\Generated_Source\PSoC4/CapSense_1.c **** {
 535:.\Generated_Source\PSoC4/CapSense_1.c ****     uint32 enableFlag;
 536:.\Generated_Source\PSoC4/CapSense_1.c ****     
 537:.\Generated_Source\PSoC4/CapSense_1.c ****     /* Check if sensor enabled */
 538:.\Generated_Source\PSoC4/CapSense_1.c ****     do
 539:.\Generated_Source\PSoC4/CapSense_1.c ****     {
 540:.\Generated_Source\PSoC4/CapSense_1.c ****         /* Proceed with next sensor */
 541:.\Generated_Source\PSoC4/CapSense_1.c ****         snsIndex++;
 542:.\Generated_Source\PSoC4/CapSense_1.c ****         if(snsIndex == CapSense_1_TOTAL_SENSOR_COUNT)
 543:.\Generated_Source\PSoC4/CapSense_1.c ****         {
 544:.\Generated_Source\PSoC4/CapSense_1.c ****             break;
 545:.\Generated_Source\PSoC4/CapSense_1.c ****         }
 546:.\Generated_Source\PSoC4/CapSense_1.c ****         enableFlag = CapSense_1_GetBitValue(CapSense_1_sensorEnableMask, (uint32)snsIndex);
 547:.\Generated_Source\PSoC4/CapSense_1.c ****     }    
 548:.\Generated_Source\PSoC4/CapSense_1.c ****     while(enableFlag == 0u);
 549:.\Generated_Source\PSoC4/CapSense_1.c ****     
 550:.\Generated_Source\PSoC4/CapSense_1.c ****     return ((uint8)snsIndex);
 551:.\Generated_Source\PSoC4/CapSense_1.c **** }
 552:.\Generated_Source\PSoC4/CapSense_1.c **** 
 553:.\Generated_Source\PSoC4/CapSense_1.c **** 
 554:.\Generated_Source\PSoC4/CapSense_1.c **** /*******************************************************************************
 555:.\Generated_Source\PSoC4/CapSense_1.c **** * Function Name: CapSense_1_ScanSensor
 556:.\Generated_Source\PSoC4/CapSense_1.c **** ********************************************************************************
 557:.\Generated_Source\PSoC4/CapSense_1.c **** *
 558:.\Generated_Source\PSoC4/CapSense_1.c **** * Summary:
 559:.\Generated_Source\PSoC4/CapSense_1.c **** *  Sets the scan settings and starts scanning a sensor. After scanning is complete,
ARM GAS  C:\Users\danielpi\AppData\Local\Temp\cccuTXvj.s 			page 15


 560:.\Generated_Source\PSoC4/CapSense_1.c **** *  the ISR copies the measured sensor raw data to the global raw sensor array. 
 561:.\Generated_Source\PSoC4/CapSense_1.c **** *  Use of the ISR ensures this function is non-blocking. 
 562:.\Generated_Source\PSoC4/CapSense_1.c **** *  Each sensor has a unique number within the sensor array. 
 563:.\Generated_Source\PSoC4/CapSense_1.c **** *  This number is assigned by the CapSense customizer in sequence.
 564:.\Generated_Source\PSoC4/CapSense_1.c **** *
 565:.\Generated_Source\PSoC4/CapSense_1.c **** * Parameters:
 566:.\Generated_Source\PSoC4/CapSense_1.c **** *  sensor:  Sensor number.
 567:.\Generated_Source\PSoC4/CapSense_1.c **** *
 568:.\Generated_Source\PSoC4/CapSense_1.c **** * Return:
 569:.\Generated_Source\PSoC4/CapSense_1.c **** *  None
 570:.\Generated_Source\PSoC4/CapSense_1.c **** *
 571:.\Generated_Source\PSoC4/CapSense_1.c **** * Global Variables:
 572:.\Generated_Source\PSoC4/CapSense_1.c **** *  CapSense_1_csdStatusVar - used to provide the status and mode of the scanning process. 
 573:.\Generated_Source\PSoC4/CapSense_1.c **** *  Sets the busy status(scan in progress) and mode of scan as single scan.
 574:.\Generated_Source\PSoC4/CapSense_1.c **** *  CapSense_1_sensorIndex - used to store a sensor scanning sensor number.
 575:.\Generated_Source\PSoC4/CapSense_1.c **** *  Sets to the provided sensor argument.
 576:.\Generated_Source\PSoC4/CapSense_1.c **** *
 577:.\Generated_Source\PSoC4/CapSense_1.c **** * Side Effects:
 578:.\Generated_Source\PSoC4/CapSense_1.c **** *  None
 579:.\Generated_Source\PSoC4/CapSense_1.c **** * 
 580:.\Generated_Source\PSoC4/CapSense_1.c **** *******************************************************************************/
 581:.\Generated_Source\PSoC4/CapSense_1.c **** void CapSense_1_ScanSensor(uint32 sensor)
 582:.\Generated_Source\PSoC4/CapSense_1.c **** {
 583:.\Generated_Source\PSoC4/CapSense_1.c ****     /* Clears status/control variable and set sensorIndex */
 584:.\Generated_Source\PSoC4/CapSense_1.c ****     CapSense_1_csdStatusVar = 0u;
 585:.\Generated_Source\PSoC4/CapSense_1.c ****     CapSense_1_sensorIndex = (uint8)sensor;
 586:.\Generated_Source\PSoC4/CapSense_1.c ****     
 587:.\Generated_Source\PSoC4/CapSense_1.c ****     /* Start of sensor scan */
 588:.\Generated_Source\PSoC4/CapSense_1.c ****     CapSense_1_csdStatusVar = (CapSense_1_SW_STS_BUSY | CapSense_1_SW_CTRL_SINGLE_SCAN);
 589:.\Generated_Source\PSoC4/CapSense_1.c ****     CapSense_1_PreScan(sensor);
 590:.\Generated_Source\PSoC4/CapSense_1.c **** }
 591:.\Generated_Source\PSoC4/CapSense_1.c **** 
 592:.\Generated_Source\PSoC4/CapSense_1.c **** 
 593:.\Generated_Source\PSoC4/CapSense_1.c **** #if(0u != CapSense_1_CSHL_API_GENERATE)
 594:.\Generated_Source\PSoC4/CapSense_1.c **** /*******************************************************************************
 595:.\Generated_Source\PSoC4/CapSense_1.c **** * Function Name: CapSense_1_ScanWidget
 596:.\Generated_Source\PSoC4/CapSense_1.c **** ********************************************************************************
 597:.\Generated_Source\PSoC4/CapSense_1.c **** *
 598:.\Generated_Source\PSoC4/CapSense_1.c **** * Summary:
 599:.\Generated_Source\PSoC4/CapSense_1.c **** *  Sets the scan settings and starts scanning a widget.
 600:.\Generated_Source\PSoC4/CapSense_1.c **** *
 601:.\Generated_Source\PSoC4/CapSense_1.c **** * Parameters:
 602:.\Generated_Source\PSoC4/CapSense_1.c **** *  uint32 widget: Widget number.
 603:.\Generated_Source\PSoC4/CapSense_1.c **** *
 604:.\Generated_Source\PSoC4/CapSense_1.c **** * Return:
 605:.\Generated_Source\PSoC4/CapSense_1.c **** *  None
 606:.\Generated_Source\PSoC4/CapSense_1.c **** *
 607:.\Generated_Source\PSoC4/CapSense_1.c **** * Global Variables:
 608:.\Generated_Source\PSoC4/CapSense_1.c **** *  CapSense_1_csdStatusVar - used to provide the status and mode of the scanning process. 
 609:.\Generated_Source\PSoC4/CapSense_1.c **** *  Sets the busy status(scan in progress) and clears the single scan mode.
 610:.\Generated_Source\PSoC4/CapSense_1.c **** *  CapSense_1_sensorIndex - used to store a sensor scanning sensor number.
 611:.\Generated_Source\PSoC4/CapSense_1.c **** *  Sets to 0xFF and provided to function CapSense_1_FindNextSensor or
 612:.\Generated_Source\PSoC4/CapSense_1.c **** *  CapSense_1_sensorEnableMask[] - used to store bit masks of the enabled sensors.
 613:.\Generated_Source\PSoC4/CapSense_1.c **** *  CapSense_1_sensorEnableMaskBackup[] - used to backup bit masks of the enabled
 614:.\Generated_Source\PSoC4/CapSense_1.c **** *   sensors.
 615:.\Generated_Source\PSoC4/CapSense_1.c **** *
 616:.\Generated_Source\PSoC4/CapSense_1.c **** * Side Effects:
ARM GAS  C:\Users\danielpi\AppData\Local\Temp\cccuTXvj.s 			page 16


 617:.\Generated_Source\PSoC4/CapSense_1.c **** *  None
 618:.\Generated_Source\PSoC4/CapSense_1.c **** * 
 619:.\Generated_Source\PSoC4/CapSense_1.c **** *******************************************************************************/
 620:.\Generated_Source\PSoC4/CapSense_1.c **** void CapSense_1_ScanWidget(uint32 widget)
 621:.\Generated_Source\PSoC4/CapSense_1.c **** {
 622:.\Generated_Source\PSoC4/CapSense_1.c ****     uint32 sensorsPerWidget;
 623:.\Generated_Source\PSoC4/CapSense_1.c ****     uint32 lastSensor;
 624:.\Generated_Source\PSoC4/CapSense_1.c ****     uint32 snsIndex;
 625:.\Generated_Source\PSoC4/CapSense_1.c **** 
 626:.\Generated_Source\PSoC4/CapSense_1.c **** 	/* Get first sensor in widget */
 627:.\Generated_Source\PSoC4/CapSense_1.c **** 	CapSense_1_sensorIndex = CapSense_1_rawDataIndex[widget];
 628:.\Generated_Source\PSoC4/CapSense_1.c **** 	
 629:.\Generated_Source\PSoC4/CapSense_1.c **** 	/* Get number of sensors in widget */
 630:.\Generated_Source\PSoC4/CapSense_1.c **** 	sensorsPerWidget = CapSense_1_numberOfSensors[widget];
 631:.\Generated_Source\PSoC4/CapSense_1.c **** 	
 632:.\Generated_Source\PSoC4/CapSense_1.c **** 	/* Check if generic Sensor */
 633:.\Generated_Source\PSoC4/CapSense_1.c **** 	if(sensorsPerWidget == 0u)
 634:.\Generated_Source\PSoC4/CapSense_1.c **** 	{
 635:.\Generated_Source\PSoC4/CapSense_1.c **** 		sensorsPerWidget = 1u;
 636:.\Generated_Source\PSoC4/CapSense_1.c **** 	}
 637:.\Generated_Source\PSoC4/CapSense_1.c **** 	
 638:.\Generated_Source\PSoC4/CapSense_1.c **** 	/* Get last sensor in widget */
 639:.\Generated_Source\PSoC4/CapSense_1.c **** 	lastSensor = (CapSense_1_rawDataIndex[widget] + sensorsPerWidget) - 1u;
 640:.\Generated_Source\PSoC4/CapSense_1.c **** 
 641:.\Generated_Source\PSoC4/CapSense_1.c **** 	/* Backup sensorEnableMask array */
 642:.\Generated_Source\PSoC4/CapSense_1.c **** 	for(snsIndex = 0u; snsIndex < CapSense_1_TOTAL_SENSOR_MASK; snsIndex++)
 643:.\Generated_Source\PSoC4/CapSense_1.c **** 	{
 644:.\Generated_Source\PSoC4/CapSense_1.c **** 		/* Backup sensorEnableMask array */
 645:.\Generated_Source\PSoC4/CapSense_1.c **** 		CapSense_1_sensorEnableMaskBackup[snsIndex] = CapSense_1_sensorEnableMask[snsIndex];
 646:.\Generated_Source\PSoC4/CapSense_1.c **** 	}
 647:.\Generated_Source\PSoC4/CapSense_1.c **** 
 648:.\Generated_Source\PSoC4/CapSense_1.c **** 	/* Update sensorEnableMask to scan the sensors that belong to widget */
 649:.\Generated_Source\PSoC4/CapSense_1.c **** 	for(snsIndex = 0u; snsIndex < CapSense_1_TOTAL_SENSOR_COUNT; snsIndex++)
 650:.\Generated_Source\PSoC4/CapSense_1.c **** 	{
 651:.\Generated_Source\PSoC4/CapSense_1.c **** 		/* Update sensorEnableMask array bits to scan the widget only */ 
 652:.\Generated_Source\PSoC4/CapSense_1.c **** 	    if((snsIndex >= CapSense_1_sensorIndex) && (snsIndex <= lastSensor))
 653:.\Generated_Source\PSoC4/CapSense_1.c **** 		{
 654:.\Generated_Source\PSoC4/CapSense_1.c **** 		    /* Set sensor bit to scan */
 655:.\Generated_Source\PSoC4/CapSense_1.c **** 			CapSense_1_SetBitValue(CapSense_1_sensorEnableMask, snsIndex, 1u);
 656:.\Generated_Source\PSoC4/CapSense_1.c **** 		}
 657:.\Generated_Source\PSoC4/CapSense_1.c **** 		else
 658:.\Generated_Source\PSoC4/CapSense_1.c **** 		{
 659:.\Generated_Source\PSoC4/CapSense_1.c **** 		    /* Reset sensor bit to do not scan */
 660:.\Generated_Source\PSoC4/CapSense_1.c **** 		    CapSense_1_SetBitValue(CapSense_1_sensorEnableMask, snsIndex, 0u);
 661:.\Generated_Source\PSoC4/CapSense_1.c **** 		}
 662:.\Generated_Source\PSoC4/CapSense_1.c **** 	}
 663:.\Generated_Source\PSoC4/CapSense_1.c **** 
 664:.\Generated_Source\PSoC4/CapSense_1.c ****     /* Check end of scan condition */
 665:.\Generated_Source\PSoC4/CapSense_1.c ****     if(CapSense_1_sensorIndex < CapSense_1_TOTAL_SENSOR_COUNT)
 666:.\Generated_Source\PSoC4/CapSense_1.c ****     {
 667:.\Generated_Source\PSoC4/CapSense_1.c **** 		/* Set widget busy bit in status/control variable*/ 
 668:.\Generated_Source\PSoC4/CapSense_1.c **** 		CapSense_1_csdStatusVar = (CapSense_1_SW_STS_BUSY | CapSense_1_SW_CTRL_WIDGET_SCAN);
 669:.\Generated_Source\PSoC4/CapSense_1.c **** 		/* Scan first sensor of widget*/ 
 670:.\Generated_Source\PSoC4/CapSense_1.c ****         CapSense_1_PreScan((uint32)CapSense_1_sensorIndex);
 671:.\Generated_Source\PSoC4/CapSense_1.c ****     }
 672:.\Generated_Source\PSoC4/CapSense_1.c **** }
 673:.\Generated_Source\PSoC4/CapSense_1.c **** #endif /* (0u != CapSense_1_CSHL_API_GENERATE) */
ARM GAS  C:\Users\danielpi\AppData\Local\Temp\cccuTXvj.s 			page 17


 674:.\Generated_Source\PSoC4/CapSense_1.c **** 
 675:.\Generated_Source\PSoC4/CapSense_1.c **** 
 676:.\Generated_Source\PSoC4/CapSense_1.c **** /*******************************************************************************
 677:.\Generated_Source\PSoC4/CapSense_1.c **** * Function Name: CapSense_1_ScanEnableWidgets
 678:.\Generated_Source\PSoC4/CapSense_1.c **** ********************************************************************************
 679:.\Generated_Source\PSoC4/CapSense_1.c **** *
 680:.\Generated_Source\PSoC4/CapSense_1.c **** * Summary:
 681:.\Generated_Source\PSoC4/CapSense_1.c **** *  This is the preferred method to scan all of the enabled widgets. 
 682:.\Generated_Source\PSoC4/CapSense_1.c **** *  The API starts scanning a sensor within the enabled widgets. 
 683:.\Generated_Source\PSoC4/CapSense_1.c **** *  The ISR continues scanning the sensors until all the enabled widgets are scanned. 
 684:.\Generated_Source\PSoC4/CapSense_1.c **** *  Use of the ISR ensures this function is non-blocking.
 685:.\Generated_Source\PSoC4/CapSense_1.c **** *  All the widgets are enabled by default except proximity widgets. 
 686:.\Generated_Source\PSoC4/CapSense_1.c **** *  The proximity widgets must be manually enabled as their long scan time 
 687:.\Generated_Source\PSoC4/CapSense_1.c **** *  is incompatible with a fast response required of other widget types.
 688:.\Generated_Source\PSoC4/CapSense_1.c **** *
 689:.\Generated_Source\PSoC4/CapSense_1.c **** * Parameters:
 690:.\Generated_Source\PSoC4/CapSense_1.c **** *  None
 691:.\Generated_Source\PSoC4/CapSense_1.c **** *
 692:.\Generated_Source\PSoC4/CapSense_1.c **** * Return:
 693:.\Generated_Source\PSoC4/CapSense_1.c **** *  None
 694:.\Generated_Source\PSoC4/CapSense_1.c **** *
 695:.\Generated_Source\PSoC4/CapSense_1.c **** * Global Variables:
 696:.\Generated_Source\PSoC4/CapSense_1.c **** *  CapSense_1_csdStatusVar - used to provide the status and mode of the scanning process. 
 697:.\Generated_Source\PSoC4/CapSense_1.c **** *  Sets the busy status(scan in progress) and clears the single scan mode.
 698:.\Generated_Source\PSoC4/CapSense_1.c **** *  CapSense_1_sensorIndex - used to store a sensor scanning sensor number.
 699:.\Generated_Source\PSoC4/CapSense_1.c **** *  Sets to 0xFF and provided to function CapSense_1_FindNextSensor or
 700:.\Generated_Source\PSoC4/CapSense_1.c **** *
 701:.\Generated_Source\PSoC4/CapSense_1.c **** * Side Effects:
 702:.\Generated_Source\PSoC4/CapSense_1.c **** *  None
 703:.\Generated_Source\PSoC4/CapSense_1.c **** * 
 704:.\Generated_Source\PSoC4/CapSense_1.c **** *******************************************************************************/
 705:.\Generated_Source\PSoC4/CapSense_1.c **** void CapSense_1_ScanEnabledWidgets(void)
 706:.\Generated_Source\PSoC4/CapSense_1.c **** {
 707:.\Generated_Source\PSoC4/CapSense_1.c ****     /* Clears status/control variable and set sensorIndex */
 708:.\Generated_Source\PSoC4/CapSense_1.c ****     CapSense_1_csdStatusVar = 0u;
 709:.\Generated_Source\PSoC4/CapSense_1.c ****     CapSense_1_sensorIndex = 0xFFu;
 710:.\Generated_Source\PSoC4/CapSense_1.c ****     
 711:.\Generated_Source\PSoC4/CapSense_1.c ****     /* Find next sensor */
 712:.\Generated_Source\PSoC4/CapSense_1.c ****     CapSense_1_sensorIndex = (uint8)CapSense_1_FindNextSensor(CapSense_1_sensorIndex);
 713:.\Generated_Source\PSoC4/CapSense_1.c **** 
 714:.\Generated_Source\PSoC4/CapSense_1.c ****     /* Check end of scan condition */
 715:.\Generated_Source\PSoC4/CapSense_1.c ****     if(CapSense_1_sensorIndex < CapSense_1_TOTAL_SENSOR_COUNT)
 716:.\Generated_Source\PSoC4/CapSense_1.c ****     {
 717:.\Generated_Source\PSoC4/CapSense_1.c ****         CapSense_1_csdStatusVar |= CapSense_1_SW_STS_BUSY;
 718:.\Generated_Source\PSoC4/CapSense_1.c ****         CapSense_1_PreScan((uint32)CapSense_1_sensorIndex);
 719:.\Generated_Source\PSoC4/CapSense_1.c ****     }
 720:.\Generated_Source\PSoC4/CapSense_1.c **** }
 721:.\Generated_Source\PSoC4/CapSense_1.c **** 
 722:.\Generated_Source\PSoC4/CapSense_1.c **** 
 723:.\Generated_Source\PSoC4/CapSense_1.c **** /*******************************************************************************
 724:.\Generated_Source\PSoC4/CapSense_1.c **** * Function Name: CapSense_1_IsBusy
 725:.\Generated_Source\PSoC4/CapSense_1.c **** ********************************************************************************
 726:.\Generated_Source\PSoC4/CapSense_1.c **** *
 727:.\Generated_Source\PSoC4/CapSense_1.c **** * Summary:
 728:.\Generated_Source\PSoC4/CapSense_1.c **** *  Returns the state of the CapSense component. 1 means that scanning in 
 729:.\Generated_Source\PSoC4/CapSense_1.c **** *  progress and 0 means that scanning is complete.
 730:.\Generated_Source\PSoC4/CapSense_1.c **** *
ARM GAS  C:\Users\danielpi\AppData\Local\Temp\cccuTXvj.s 			page 18


 731:.\Generated_Source\PSoC4/CapSense_1.c **** * Parameters:
 732:.\Generated_Source\PSoC4/CapSense_1.c **** *  None
 733:.\Generated_Source\PSoC4/CapSense_1.c **** *
 734:.\Generated_Source\PSoC4/CapSense_1.c **** * Return:
 735:.\Generated_Source\PSoC4/CapSense_1.c **** *  Returns the state of scanning. 1 - scanning in progress, 0 - scanning 
 736:.\Generated_Source\PSoC4/CapSense_1.c **** *  completed.
 737:.\Generated_Source\PSoC4/CapSense_1.c **** *
 738:.\Generated_Source\PSoC4/CapSense_1.c **** * Global Variables:
 739:.\Generated_Source\PSoC4/CapSense_1.c **** *  CapSense_1_csdStatusVar - used to provide the status and mode of the scanning process. 
 740:.\Generated_Source\PSoC4/CapSense_1.c **** *  Checks the busy status.
 741:.\Generated_Source\PSoC4/CapSense_1.c **** *
 742:.\Generated_Source\PSoC4/CapSense_1.c **** * Side Effects:
 743:.\Generated_Source\PSoC4/CapSense_1.c **** *  None
 744:.\Generated_Source\PSoC4/CapSense_1.c **** * 
 745:.\Generated_Source\PSoC4/CapSense_1.c **** *******************************************************************************/
 746:.\Generated_Source\PSoC4/CapSense_1.c **** uint32 CapSense_1_IsBusy(void)
 747:.\Generated_Source\PSoC4/CapSense_1.c **** {
 240              		.loc 1 747 0
 241              		.cfi_startproc
 748:.\Generated_Source\PSoC4/CapSense_1.c ****     return ((uint32)((0u != (CapSense_1_csdStatusVar & CapSense_1_SW_STS_BUSY)) ? 1u : 0u));
 242              		.loc 1 748 0
 243 0000 024B     		ldr	r3, .L11
 244 0002 1878     		ldrb	r0, [r3]
 245 0004 0123     		mov	r3, #1
 246 0006 1840     		and	r0, r3
 749:.\Generated_Source\PSoC4/CapSense_1.c **** }
 247              		.loc 1 749 0
 248              		@ sp needed
 249 0008 7047     		bx	lr
 250              	.L12:
 251 000a C046     		.align	2
 252              	.L11:
 253 000c 00000000 		.word	.LANCHOR0
 254              		.cfi_endproc
 255              	.LFE44:
 256              		.size	CapSense_1_IsBusy, .-CapSense_1_IsBusy
 257              		.section	.text.CapSense_1_ReadSensorRaw,"ax",%progbits
 258              		.align	2
 259              		.global	CapSense_1_ReadSensorRaw
 260              		.code	16
 261              		.thumb_func
 262              		.type	CapSense_1_ReadSensorRaw, %function
 263              	CapSense_1_ReadSensorRaw:
 264              	.LFB45:
 750:.\Generated_Source\PSoC4/CapSense_1.c **** 
 751:.\Generated_Source\PSoC4/CapSense_1.c **** 
 752:.\Generated_Source\PSoC4/CapSense_1.c **** /*******************************************************************************
 753:.\Generated_Source\PSoC4/CapSense_1.c **** * Function Name: CapSense_1_ReadSensorRaw
 754:.\Generated_Source\PSoC4/CapSense_1.c **** ********************************************************************************
 755:.\Generated_Source\PSoC4/CapSense_1.c **** *
 756:.\Generated_Source\PSoC4/CapSense_1.c **** * Summary:
 757:.\Generated_Source\PSoC4/CapSense_1.c **** *  Returns sensor raw data from the global CapSense_sensorRaw[ ] array. 
 758:.\Generated_Source\PSoC4/CapSense_1.c **** *  Each scan sensor has a unique number within the sensor array. 
 759:.\Generated_Source\PSoC4/CapSense_1.c **** *  This number is assigned by the CapSense customizer in sequence. 
 760:.\Generated_Source\PSoC4/CapSense_1.c **** *  Raw data can be used to perform calculations outside of the CapSense 
 761:.\Generated_Source\PSoC4/CapSense_1.c **** *  provided framework.
 762:.\Generated_Source\PSoC4/CapSense_1.c **** *
ARM GAS  C:\Users\danielpi\AppData\Local\Temp\cccuTXvj.s 			page 19


 763:.\Generated_Source\PSoC4/CapSense_1.c **** * Parameters:
 764:.\Generated_Source\PSoC4/CapSense_1.c **** *  sensor:  Sensor number.
 765:.\Generated_Source\PSoC4/CapSense_1.c **** *
 766:.\Generated_Source\PSoC4/CapSense_1.c **** * Return:
 767:.\Generated_Source\PSoC4/CapSense_1.c **** *  Returns the current raw data value for a defined sensor number.
 768:.\Generated_Source\PSoC4/CapSense_1.c **** *
 769:.\Generated_Source\PSoC4/CapSense_1.c **** * Global Variables:
 770:.\Generated_Source\PSoC4/CapSense_1.c **** *  CapSense_1_sensorRaw[] - used to store sensors raw data.
 771:.\Generated_Source\PSoC4/CapSense_1.c **** *
 772:.\Generated_Source\PSoC4/CapSense_1.c **** * Side Effects: 
 773:.\Generated_Source\PSoC4/CapSense_1.c **** *  None
 774:.\Generated_Source\PSoC4/CapSense_1.c **** *
 775:.\Generated_Source\PSoC4/CapSense_1.c **** *******************************************************************************/
 776:.\Generated_Source\PSoC4/CapSense_1.c **** uint16 CapSense_1_ReadSensorRaw(uint32 sensor)
 777:.\Generated_Source\PSoC4/CapSense_1.c **** {
 265              		.loc 1 777 0
 266              		.cfi_startproc
 267              	.LVL28:
 778:.\Generated_Source\PSoC4/CapSense_1.c ****     return CapSense_1_sensorRaw[sensor];
 268              		.loc 1 778 0
 269 0000 4000     		lsl	r0, r0, #1
 270              	.LVL29:
 271 0002 024B     		ldr	r3, .L14
 272 0004 1818     		add	r0, r3, r0
 273 0006 8088     		ldrh	r0, [r0, #4]
 779:.\Generated_Source\PSoC4/CapSense_1.c **** }
 274              		.loc 1 779 0
 275              		@ sp needed
 276 0008 7047     		bx	lr
 277              	.L15:
 278 000a C046     		.align	2
 279              	.L14:
 280 000c 00000000 		.word	.LANCHOR0
 281              		.cfi_endproc
 282              	.LFE45:
 283              		.size	CapSense_1_ReadSensorRaw, .-CapSense_1_ReadSensorRaw
 284              		.section	.text.CapSense_1_WriteSensorRaw,"ax",%progbits
 285              		.align	2
 286              		.global	CapSense_1_WriteSensorRaw
 287              		.code	16
 288              		.thumb_func
 289              		.type	CapSense_1_WriteSensorRaw, %function
 290              	CapSense_1_WriteSensorRaw:
 291              	.LFB46:
 780:.\Generated_Source\PSoC4/CapSense_1.c **** 
 781:.\Generated_Source\PSoC4/CapSense_1.c **** 
 782:.\Generated_Source\PSoC4/CapSense_1.c **** /*******************************************************************************
 783:.\Generated_Source\PSoC4/CapSense_1.c **** * Function Name: CapSense_1_WriteSensorRaw
 784:.\Generated_Source\PSoC4/CapSense_1.c **** ********************************************************************************
 785:.\Generated_Source\PSoC4/CapSense_1.c **** *
 786:.\Generated_Source\PSoC4/CapSense_1.c **** * Summary:
 787:.\Generated_Source\PSoC4/CapSense_1.c **** *  This API writes the raw count value passed as an argument to the sensor Raw count array.
 788:.\Generated_Source\PSoC4/CapSense_1.c **** *
 789:.\Generated_Source\PSoC4/CapSense_1.c **** * Parameters:
 790:.\Generated_Source\PSoC4/CapSense_1.c **** *  sensor:  Sensor number.
 791:.\Generated_Source\PSoC4/CapSense_1.c **** *  value: Raw count value.
 792:.\Generated_Source\PSoC4/CapSense_1.c **** *
ARM GAS  C:\Users\danielpi\AppData\Local\Temp\cccuTXvj.s 			page 20


 793:.\Generated_Source\PSoC4/CapSense_1.c **** * Global Variables:
 794:.\Generated_Source\PSoC4/CapSense_1.c **** *  CapSense_1_sensorRaw[] - used to store sensors raw data.
 795:.\Generated_Source\PSoC4/CapSense_1.c **** *
 796:.\Generated_Source\PSoC4/CapSense_1.c **** * Return:
 797:.\Generated_Source\PSoC4/CapSense_1.c **** *  None
 798:.\Generated_Source\PSoC4/CapSense_1.c **** *
 799:.\Generated_Source\PSoC4/CapSense_1.c **** * Side Effects: 
 800:.\Generated_Source\PSoC4/CapSense_1.c **** *  None
 801:.\Generated_Source\PSoC4/CapSense_1.c **** *
 802:.\Generated_Source\PSoC4/CapSense_1.c **** *******************************************************************************/
 803:.\Generated_Source\PSoC4/CapSense_1.c **** void CapSense_1_WriteSensorRaw(uint32 sensor, uint16 value)
 804:.\Generated_Source\PSoC4/CapSense_1.c **** {
 292              		.loc 1 804 0
 293              		.cfi_startproc
 294              	.LVL30:
 805:.\Generated_Source\PSoC4/CapSense_1.c **** 	CapSense_1_sensorRaw[sensor] = value;
 295              		.loc 1 805 0
 296 0000 4000     		lsl	r0, r0, #1
 297              	.LVL31:
 298 0002 024B     		ldr	r3, .L17
 299 0004 1818     		add	r0, r3, r0
 300 0006 8180     		strh	r1, [r0, #4]
 806:.\Generated_Source\PSoC4/CapSense_1.c **** }
 301              		.loc 1 806 0
 302              		@ sp needed
 303 0008 7047     		bx	lr
 304              	.L18:
 305 000a C046     		.align	2
 306              	.L17:
 307 000c 00000000 		.word	.LANCHOR0
 308              		.cfi_endproc
 309              	.LFE46:
 310              		.size	CapSense_1_WriteSensorRaw, .-CapSense_1_WriteSensorRaw
 311              		.section	.text.CapSense_1_SetScanResolution,"ax",%progbits
 312              		.align	2
 313              		.global	CapSense_1_SetScanResolution
 314              		.code	16
 315              		.thumb_func
 316              		.type	CapSense_1_SetScanResolution, %function
 317              	CapSense_1_SetScanResolution:
 318              	.LFB47:
 807:.\Generated_Source\PSoC4/CapSense_1.c **** 
 808:.\Generated_Source\PSoC4/CapSense_1.c **** 
 809:.\Generated_Source\PSoC4/CapSense_1.c **** #if (CapSense_1_TUNING_METHOD != CapSense_1__TUNING_NONE)
 810:.\Generated_Source\PSoC4/CapSense_1.c **** 	/*******************************************************************************
 811:.\Generated_Source\PSoC4/CapSense_1.c **** 	* Function Name: CapSense_1_SetScanResolution
 812:.\Generated_Source\PSoC4/CapSense_1.c **** 	********************************************************************************
 813:.\Generated_Source\PSoC4/CapSense_1.c **** 	*
 814:.\Generated_Source\PSoC4/CapSense_1.c **** 	* Summary:
 815:.\Generated_Source\PSoC4/CapSense_1.c **** 	*  Sets a value of the sensor scan resolution for a widget. 
 816:.\Generated_Source\PSoC4/CapSense_1.c **** 	*  The MIN resolution can be set 8-bit. The MAX Resolution can be set 16 bit.
 817:.\Generated_Source\PSoC4/CapSense_1.c **** 	*  This function is not available for the tuning mode "None".
 818:.\Generated_Source\PSoC4/CapSense_1.c **** 	*
 819:.\Generated_Source\PSoC4/CapSense_1.c **** 	* Parameters:
 820:.\Generated_Source\PSoC4/CapSense_1.c **** 	*  widget:     Widget index.
 821:.\Generated_Source\PSoC4/CapSense_1.c **** 	*  resolution: Represents the resolution value. The following defines which are available in the
 822:.\Generated_Source\PSoC4/CapSense_1.c **** 	*			   CapSense_1.h file should be used:
ARM GAS  C:\Users\danielpi\AppData\Local\Temp\cccuTXvj.s 			page 21


 823:.\Generated_Source\PSoC4/CapSense_1.c **** 	*			   CapSense_1_RESOLUTION_6_BITS
 824:.\Generated_Source\PSoC4/CapSense_1.c **** 	*			   CapSense_1_RESOLUTION_7_BITS
 825:.\Generated_Source\PSoC4/CapSense_1.c **** 	*			   CapSense_1_RESOLUTION_8_BITS
 826:.\Generated_Source\PSoC4/CapSense_1.c **** 	*			   CapSense_1_RESOLUTION_9_BITS
 827:.\Generated_Source\PSoC4/CapSense_1.c **** 	*			   CapSense_1_RESOLUTION_10_BITS
 828:.\Generated_Source\PSoC4/CapSense_1.c **** 	*			   CapSense_1_RESOLUTION_11_BITS
 829:.\Generated_Source\PSoC4/CapSense_1.c **** 	*			   CapSense_1_RESOLUTION_12_BITS
 830:.\Generated_Source\PSoC4/CapSense_1.c **** 	*			   CapSense_1_RESOLUTION_13_BITS
 831:.\Generated_Source\PSoC4/CapSense_1.c **** 	*			   CapSense_1_RESOLUTION_14_BITS
 832:.\Generated_Source\PSoC4/CapSense_1.c **** 	*			   CapSense_1_RESOLUTION_15_BITS
 833:.\Generated_Source\PSoC4/CapSense_1.c **** 	*			   CapSense_1_RESOLUTION_16_BITS
 834:.\Generated_Source\PSoC4/CapSense_1.c **** 	*
 835:.\Generated_Source\PSoC4/CapSense_1.c **** 	* Return:
 836:.\Generated_Source\PSoC4/CapSense_1.c **** 	*  None
 837:.\Generated_Source\PSoC4/CapSense_1.c **** 	*
 838:.\Generated_Source\PSoC4/CapSense_1.c **** 	* Global Variables:
 839:.\Generated_Source\PSoC4/CapSense_1.c **** 	*  CapSense_1_widgetResolution[] - used to store scan resolution of each widget.
 840:.\Generated_Source\PSoC4/CapSense_1.c **** 	*
 841:.\Generated_Source\PSoC4/CapSense_1.c **** 	* Side Effects: 
 842:.\Generated_Source\PSoC4/CapSense_1.c **** 	*  None
 843:.\Generated_Source\PSoC4/CapSense_1.c **** 	*
 844:.\Generated_Source\PSoC4/CapSense_1.c **** 	*******************************************************************************/
 845:.\Generated_Source\PSoC4/CapSense_1.c **** 	void CapSense_1_SetScanResolution(uint32 widget, uint32 resolution)
 846:.\Generated_Source\PSoC4/CapSense_1.c **** 	{ 
 319              		.loc 1 846 0
 320              		.cfi_startproc
 321              	.LVL32:
 847:.\Generated_Source\PSoC4/CapSense_1.c ****         CapSense_1_widgetResolution[widget] = resolution;
 322              		.loc 1 847 0
 323 0000 8000     		lsl	r0, r0, #2
 324              	.LVL33:
 325 0002 014B     		ldr	r3, .L20
 326 0004 C150     		str	r1, [r0, r3]
 848:.\Generated_Source\PSoC4/CapSense_1.c **** 	}
 327              		.loc 1 848 0
 328              		@ sp needed
 329 0006 7047     		bx	lr
 330              	.L21:
 331              		.align	2
 332              	.L20:
 333 0008 00000000 		.word	.LANCHOR1
 334              		.cfi_endproc
 335              	.LFE47:
 336              		.size	CapSense_1_SetScanResolution, .-CapSense_1_SetScanResolution
 337              		.section	.text.CapSense_1_GetScanResolution,"ax",%progbits
 338              		.align	2
 339              		.global	CapSense_1_GetScanResolution
 340              		.code	16
 341              		.thumb_func
 342              		.type	CapSense_1_GetScanResolution, %function
 343              	CapSense_1_GetScanResolution:
 344              	.LFB48:
 849:.\Generated_Source\PSoC4/CapSense_1.c **** #endif /* (CapSense_1_TUNING_METHOD != CapSense_1__TUNING_NONE) */
 850:.\Generated_Source\PSoC4/CapSense_1.c **** 
 851:.\Generated_Source\PSoC4/CapSense_1.c **** 
 852:.\Generated_Source\PSoC4/CapSense_1.c **** /*******************************************************************************
 853:.\Generated_Source\PSoC4/CapSense_1.c **** * Function Name: CapSense_1_GetScanResolution
ARM GAS  C:\Users\danielpi\AppData\Local\Temp\cccuTXvj.s 			page 22


 854:.\Generated_Source\PSoC4/CapSense_1.c **** ********************************************************************************
 855:.\Generated_Source\PSoC4/CapSense_1.c **** *
 856:.\Generated_Source\PSoC4/CapSense_1.c **** * Summary:
 857:.\Generated_Source\PSoC4/CapSense_1.c **** *  Returns the resolution value for the appropriate sensor.
 858:.\Generated_Source\PSoC4/CapSense_1.c **** *  This function is not available for tuning mode "None".
 859:.\Generated_Source\PSoC4/CapSense_1.c **** *
 860:.\Generated_Source\PSoC4/CapSense_1.c **** * Parameters:
 861:.\Generated_Source\PSoC4/CapSense_1.c **** *  widget:     Widget index.
 862:.\Generated_Source\PSoC4/CapSense_1.c **** *
 863:.\Generated_Source\PSoC4/CapSense_1.c **** * Return:
 864:.\Generated_Source\PSoC4/CapSense_1.c **** *  resolution: Returns the resolution value for the appropriate sensor. 
 865:.\Generated_Source\PSoC4/CapSense_1.c **** *              The resolution values are defined in the CapSense_1.h file 
 866:.\Generated_Source\PSoC4/CapSense_1.c **** *              The defines are encountered below:
 867:.\Generated_Source\PSoC4/CapSense_1.c **** *			   CapSense_1_RESOLUTION_6_BITS
 868:.\Generated_Source\PSoC4/CapSense_1.c **** *			   CapSense_1_RESOLUTION_7_BITS
 869:.\Generated_Source\PSoC4/CapSense_1.c **** *			   CapSense_1_RESOLUTION_8_BITS
 870:.\Generated_Source\PSoC4/CapSense_1.c **** *			   CapSense_1_RESOLUTION_9_BITS
 871:.\Generated_Source\PSoC4/CapSense_1.c **** *			   CapSense_1_RESOLUTION_10_BITS
 872:.\Generated_Source\PSoC4/CapSense_1.c **** *			   CapSense_1_RESOLUTION_11_BITS
 873:.\Generated_Source\PSoC4/CapSense_1.c **** *			   CapSense_1_RESOLUTION_12_BITS
 874:.\Generated_Source\PSoC4/CapSense_1.c **** *			   CapSense_1_RESOLUTION_13_BITS
 875:.\Generated_Source\PSoC4/CapSense_1.c **** *			   CapSense_1_RESOLUTION_14_BITS
 876:.\Generated_Source\PSoC4/CapSense_1.c **** *			   CapSense_1_RESOLUTION_15_BITS
 877:.\Generated_Source\PSoC4/CapSense_1.c **** *			   CapSense_1_RESOLUTION_16_BITS
 878:.\Generated_Source\PSoC4/CapSense_1.c **** *
 879:.\Generated_Source\PSoC4/CapSense_1.c **** * Global Variables:
 880:.\Generated_Source\PSoC4/CapSense_1.c **** *  CapSense_1_widgetResolution[] - used to store scan resolution of every widget.
 881:.\Generated_Source\PSoC4/CapSense_1.c **** *
 882:.\Generated_Source\PSoC4/CapSense_1.c **** * Side Effects: 
 883:.\Generated_Source\PSoC4/CapSense_1.c **** *  None
 884:.\Generated_Source\PSoC4/CapSense_1.c **** *
 885:.\Generated_Source\PSoC4/CapSense_1.c **** *******************************************************************************/
 886:.\Generated_Source\PSoC4/CapSense_1.c **** uint32 CapSense_1_GetScanResolution(uint32 widget)
 887:.\Generated_Source\PSoC4/CapSense_1.c **** {
 345              		.loc 1 887 0
 346              		.cfi_startproc
 347              	.LVL34:
 888:.\Generated_Source\PSoC4/CapSense_1.c **** 	return(CapSense_1_widgetResolution[widget]);
 348              		.loc 1 888 0
 349 0000 8000     		lsl	r0, r0, #2
 350              	.LVL35:
 351 0002 014B     		ldr	r3, .L23
 352 0004 C058     		ldr	r0, [r0, r3]
 889:.\Generated_Source\PSoC4/CapSense_1.c **** }
 353              		.loc 1 889 0
 354              		@ sp needed
 355 0006 7047     		bx	lr
 356              	.L24:
 357              		.align	2
 358              	.L23:
 359 0008 00000000 		.word	.LANCHOR1
 360              		.cfi_endproc
 361              	.LFE48:
 362              		.size	CapSense_1_GetScanResolution, .-CapSense_1_GetScanResolution
 363              		.section	.text.CapSense_1_EnableSensor,"ax",%progbits
 364              		.align	2
 365              		.global	CapSense_1_EnableSensor
ARM GAS  C:\Users\danielpi\AppData\Local\Temp\cccuTXvj.s 			page 23


 366              		.code	16
 367              		.thumb_func
 368              		.type	CapSense_1_EnableSensor, %function
 369              	CapSense_1_EnableSensor:
 370              	.LFB50:
 890:.\Generated_Source\PSoC4/CapSense_1.c **** 
 891:.\Generated_Source\PSoC4/CapSense_1.c **** 
 892:.\Generated_Source\PSoC4/CapSense_1.c **** /*******************************************************************************
 893:.\Generated_Source\PSoC4/CapSense_1.c **** * Function Name: CapSense_1_ClearSensors
 894:.\Generated_Source\PSoC4/CapSense_1.c **** ********************************************************************************
 895:.\Generated_Source\PSoC4/CapSense_1.c **** *
 896:.\Generated_Source\PSoC4/CapSense_1.c **** * Summary:
 897:.\Generated_Source\PSoC4/CapSense_1.c **** *  Resets all the sensors to the non-sampling state by sequentially disconnecting
 898:.\Generated_Source\PSoC4/CapSense_1.c **** *  all the sensors from Analog MUX Bus and putting them to an inactive state.
 899:.\Generated_Source\PSoC4/CapSense_1.c **** *
 900:.\Generated_Source\PSoC4/CapSense_1.c **** * Parameters:
 901:.\Generated_Source\PSoC4/CapSense_1.c **** *  None
 902:.\Generated_Source\PSoC4/CapSense_1.c **** *
 903:.\Generated_Source\PSoC4/CapSense_1.c **** * Return:
 904:.\Generated_Source\PSoC4/CapSense_1.c **** *  None
 905:.\Generated_Source\PSoC4/CapSense_1.c **** *
 906:.\Generated_Source\PSoC4/CapSense_1.c **** * Global Variables:
 907:.\Generated_Source\PSoC4/CapSense_1.c **** *  None
 908:.\Generated_Source\PSoC4/CapSense_1.c **** *
 909:.\Generated_Source\PSoC4/CapSense_1.c **** * Side Effects: 
 910:.\Generated_Source\PSoC4/CapSense_1.c **** *  None
 911:.\Generated_Source\PSoC4/CapSense_1.c **** *
 912:.\Generated_Source\PSoC4/CapSense_1.c **** *******************************************************************************/
 913:.\Generated_Source\PSoC4/CapSense_1.c **** void CapSense_1_ClearSensors(void)
 914:.\Generated_Source\PSoC4/CapSense_1.c **** {
 915:.\Generated_Source\PSoC4/CapSense_1.c **** 	uint32 snsIndex;
 916:.\Generated_Source\PSoC4/CapSense_1.c **** 	
 917:.\Generated_Source\PSoC4/CapSense_1.c ****     for (snsIndex = 0u; snsIndex < CapSense_1_TOTAL_SENSOR_COUNT; snsIndex++)
 918:.\Generated_Source\PSoC4/CapSense_1.c ****     {
 919:.\Generated_Source\PSoC4/CapSense_1.c ****         CapSense_1_DisableScanSlot(snsIndex);
 920:.\Generated_Source\PSoC4/CapSense_1.c ****     }
 921:.\Generated_Source\PSoC4/CapSense_1.c **** }
 922:.\Generated_Source\PSoC4/CapSense_1.c **** 
 923:.\Generated_Source\PSoC4/CapSense_1.c **** 
 924:.\Generated_Source\PSoC4/CapSense_1.c **** #if (CapSense_1_IS_COMPLEX_SCANSLOTS)
 925:.\Generated_Source\PSoC4/CapSense_1.c ****     /*******************************************************************************
 926:.\Generated_Source\PSoC4/CapSense_1.c ****     * Function Name: CapSense_1_EnableScanSlot
 927:.\Generated_Source\PSoC4/CapSense_1.c ****     ********************************************************************************
 928:.\Generated_Source\PSoC4/CapSense_1.c ****     *
 929:.\Generated_Source\PSoC4/CapSense_1.c ****     * Summary:
 930:.\Generated_Source\PSoC4/CapSense_1.c ****     *  Configures the selected slot to measure during the next measurement 
 931:.\Generated_Source\PSoC4/CapSense_1.c ****     *  cycle. The corresponding pin/pins are set to Analog High-Z mode and 
 932:.\Generated_Source\PSoC4/CapSense_1.c ****     *  connected to the Analog Mux Bus. This also enables the comparator function.
 933:.\Generated_Source\PSoC4/CapSense_1.c ****     *
 934:.\Generated_Source\PSoC4/CapSense_1.c ****     * Parameters:
 935:.\Generated_Source\PSoC4/CapSense_1.c ****     *  slot:  Slot number.
 936:.\Generated_Source\PSoC4/CapSense_1.c ****     *
 937:.\Generated_Source\PSoC4/CapSense_1.c ****     * Return:
 938:.\Generated_Source\PSoC4/CapSense_1.c ****     *  None
 939:.\Generated_Source\PSoC4/CapSense_1.c ****     *
 940:.\Generated_Source\PSoC4/CapSense_1.c ****     * Global Constants:
 941:.\Generated_Source\PSoC4/CapSense_1.c ****     *  CapSense_1_portTable[]  - used to store the port number that pin 
ARM GAS  C:\Users\danielpi\AppData\Local\Temp\cccuTXvj.s 			page 24


 942:.\Generated_Source\PSoC4/CapSense_1.c ****     *  belongs to for each sensor.
 943:.\Generated_Source\PSoC4/CapSense_1.c ****     *  CapSense_1_maskTable[]  - used to store the pin within the port for 
 944:.\Generated_Source\PSoC4/CapSense_1.c ****     *  each sensor.
 945:.\Generated_Source\PSoC4/CapSense_1.c ****     *  CapSense_1_indexTable[] - used to store indexes of complex sensors.
 946:.\Generated_Source\PSoC4/CapSense_1.c ****     *  The offset and position in this array are stored in a port and mask table for 
 947:.\Generated_Source\PSoC4/CapSense_1.c ****     *  complex sensors.
 948:.\Generated_Source\PSoC4/CapSense_1.c ****     *  Bit 7 (msb) is used to define the sensor type: single or complex.
 949:.\Generated_Source\PSoC4/CapSense_1.c ****     *
 950:.\Generated_Source\PSoC4/CapSense_1.c **** 	* Side Effects: 
 951:.\Generated_Source\PSoC4/CapSense_1.c **** 	*  None
 952:.\Generated_Source\PSoC4/CapSense_1.c **** 	*
 953:.\Generated_Source\PSoC4/CapSense_1.c ****     *******************************************************************************/
 954:.\Generated_Source\PSoC4/CapSense_1.c ****     void CapSense_1_EnableScanSlot(uint32 slot)
 955:.\Generated_Source\PSoC4/CapSense_1.c ****     {
 956:.\Generated_Source\PSoC4/CapSense_1.c ****         uint8 j;
 957:.\Generated_Source\PSoC4/CapSense_1.c ****         uint8 snsNumber;
 958:.\Generated_Source\PSoC4/CapSense_1.c ****         const uint8 *index;
 959:.\Generated_Source\PSoC4/CapSense_1.c ****         /* Read sensor type: single or complex */
 960:.\Generated_Source\PSoC4/CapSense_1.c ****         uint8 snsType = CapSense_1_portTable[slot];
 961:.\Generated_Source\PSoC4/CapSense_1.c **** 
 962:.\Generated_Source\PSoC4/CapSense_1.c ****         /* Check if sensor is complex */
 963:.\Generated_Source\PSoC4/CapSense_1.c ****         if ((snsType & CapSense_1_COMPLEX_SS_FLAG) == 0u)
 964:.\Generated_Source\PSoC4/CapSense_1.c ****         {
 965:.\Generated_Source\PSoC4/CapSense_1.c ****             /* Enable sensor (single) */
 966:.\Generated_Source\PSoC4/CapSense_1.c ****             CapSense_1_EnableSensor(slot);
 967:.\Generated_Source\PSoC4/CapSense_1.c ****         }
 968:.\Generated_Source\PSoC4/CapSense_1.c ****         else
 969:.\Generated_Source\PSoC4/CapSense_1.c ****         {
 970:.\Generated_Source\PSoC4/CapSense_1.c ****             /* Enable complex sensor */
 971:.\Generated_Source\PSoC4/CapSense_1.c ****             snsType &= ~CapSense_1_COMPLEX_SS_FLAG;
 972:.\Generated_Source\PSoC4/CapSense_1.c ****             index = &CapSense_1_indexTable[snsType];
 973:.\Generated_Source\PSoC4/CapSense_1.c ****             snsNumber = CapSense_1_maskTable[slot];
 974:.\Generated_Source\PSoC4/CapSense_1.c ****                         
 975:.\Generated_Source\PSoC4/CapSense_1.c ****             for (j = 0u; j < snsNumber; j++)
 976:.\Generated_Source\PSoC4/CapSense_1.c ****             {
 977:.\Generated_Source\PSoC4/CapSense_1.c ****                 CapSense_1_EnableSensor(index[j]);
 978:.\Generated_Source\PSoC4/CapSense_1.c ****             }
 979:.\Generated_Source\PSoC4/CapSense_1.c ****         }
 980:.\Generated_Source\PSoC4/CapSense_1.c ****     }
 981:.\Generated_Source\PSoC4/CapSense_1.c ****     
 982:.\Generated_Source\PSoC4/CapSense_1.c ****     
 983:.\Generated_Source\PSoC4/CapSense_1.c ****     /*******************************************************************************
 984:.\Generated_Source\PSoC4/CapSense_1.c ****     * Function Name: CapSense_1_DisableScanSlot
 985:.\Generated_Source\PSoC4/CapSense_1.c ****     ********************************************************************************
 986:.\Generated_Source\PSoC4/CapSense_1.c ****     *
 987:.\Generated_Source\PSoC4/CapSense_1.c ****     * Summary:
 988:.\Generated_Source\PSoC4/CapSense_1.c ****     *  Disables the selected slot. The corresponding pin/pins is/are disconnected 
 989:.\Generated_Source\PSoC4/CapSense_1.c ****     *  from the Analog Mux Bus and connected to GND, High_Z or Shield electrode.
 990:.\Generated_Source\PSoC4/CapSense_1.c ****     *
 991:.\Generated_Source\PSoC4/CapSense_1.c ****     * Parameters:
 992:.\Generated_Source\PSoC4/CapSense_1.c ****     *  slot:  Slot number.
 993:.\Generated_Source\PSoC4/CapSense_1.c ****     *
 994:.\Generated_Source\PSoC4/CapSense_1.c ****     * Return:
 995:.\Generated_Source\PSoC4/CapSense_1.c ****     *  None
 996:.\Generated_Source\PSoC4/CapSense_1.c ****     *
 997:.\Generated_Source\PSoC4/CapSense_1.c ****     * Global Variables:
 998:.\Generated_Source\PSoC4/CapSense_1.c ****     *  CapSense_1_portTable[]  - used to store the port number that pin 
ARM GAS  C:\Users\danielpi\AppData\Local\Temp\cccuTXvj.s 			page 25


 999:.\Generated_Source\PSoC4/CapSense_1.c ****     *  belongs to for each sensor.
1000:.\Generated_Source\PSoC4/CapSense_1.c ****     *  CapSense_1_maskTable[]  - used to store the pin within the port for 
1001:.\Generated_Source\PSoC4/CapSense_1.c ****     *  each sensor.
1002:.\Generated_Source\PSoC4/CapSense_1.c ****     *  CapSense_1_indexTable[] - used to store indexes of complex sensors.
1003:.\Generated_Source\PSoC4/CapSense_1.c ****     *  The offset and position in this array are stored in a port and mask table for 
1004:.\Generated_Source\PSoC4/CapSense_1.c ****     *  complex sensors.
1005:.\Generated_Source\PSoC4/CapSense_1.c ****     *  7bit(msb) is used to define the sensor type: single or complex.
1006:.\Generated_Source\PSoC4/CapSense_1.c ****     *
1007:.\Generated_Source\PSoC4/CapSense_1.c **** 	* Side Effects: 
1008:.\Generated_Source\PSoC4/CapSense_1.c **** 	*  None
1009:.\Generated_Source\PSoC4/CapSense_1.c **** 	*
1010:.\Generated_Source\PSoC4/CapSense_1.c ****     *******************************************************************************/
1011:.\Generated_Source\PSoC4/CapSense_1.c ****     void CapSense_1_DisableScanSlot(uint32 slot)
1012:.\Generated_Source\PSoC4/CapSense_1.c ****     {
1013:.\Generated_Source\PSoC4/CapSense_1.c ****         uint8 j;
1014:.\Generated_Source\PSoC4/CapSense_1.c ****         uint8 snsNumber;
1015:.\Generated_Source\PSoC4/CapSense_1.c ****         const uint8 *index;
1016:.\Generated_Source\PSoC4/CapSense_1.c **** 
1017:.\Generated_Source\PSoC4/CapSense_1.c ****         /* Read sensor type: single or complex */
1018:.\Generated_Source\PSoC4/CapSense_1.c ****         uint8 snsType = CapSense_1_portTable[slot];
1019:.\Generated_Source\PSoC4/CapSense_1.c ****         
1020:.\Generated_Source\PSoC4/CapSense_1.c ****         /* Check if sensor is complex */
1021:.\Generated_Source\PSoC4/CapSense_1.c ****         if ((snsType & CapSense_1_COMPLEX_SS_FLAG) == 0u)
1022:.\Generated_Source\PSoC4/CapSense_1.c ****         {
1023:.\Generated_Source\PSoC4/CapSense_1.c ****             /* Disable sensor (single) */
1024:.\Generated_Source\PSoC4/CapSense_1.c ****             CapSense_1_DisableSensor(slot);
1025:.\Generated_Source\PSoC4/CapSense_1.c ****         }
1026:.\Generated_Source\PSoC4/CapSense_1.c ****         else
1027:.\Generated_Source\PSoC4/CapSense_1.c ****         {
1028:.\Generated_Source\PSoC4/CapSense_1.c ****             /* Disable complex sensor */
1029:.\Generated_Source\PSoC4/CapSense_1.c ****             snsType &= ~CapSense_1_COMPLEX_SS_FLAG;
1030:.\Generated_Source\PSoC4/CapSense_1.c ****             index = &CapSense_1_indexTable[snsType];
1031:.\Generated_Source\PSoC4/CapSense_1.c ****             snsNumber = CapSense_1_maskTable[slot];
1032:.\Generated_Source\PSoC4/CapSense_1.c ****                         
1033:.\Generated_Source\PSoC4/CapSense_1.c ****             for (j=0; j < snsNumber; j++)
1034:.\Generated_Source\PSoC4/CapSense_1.c ****             {
1035:.\Generated_Source\PSoC4/CapSense_1.c ****                 CapSense_1_DisableSensor(index[j]);
1036:.\Generated_Source\PSoC4/CapSense_1.c ****             }
1037:.\Generated_Source\PSoC4/CapSense_1.c ****         } 
1038:.\Generated_Source\PSoC4/CapSense_1.c ****     }
1039:.\Generated_Source\PSoC4/CapSense_1.c **** #endif  /* CapSense_1_IS_COMPLEX_SCANSLOTS */
1040:.\Generated_Source\PSoC4/CapSense_1.c **** 
1041:.\Generated_Source\PSoC4/CapSense_1.c **** 
1042:.\Generated_Source\PSoC4/CapSense_1.c **** /*******************************************************************************
1043:.\Generated_Source\PSoC4/CapSense_1.c **** * Function Name: CapSense_1_EnableSensor
1044:.\Generated_Source\PSoC4/CapSense_1.c **** ********************************************************************************
1045:.\Generated_Source\PSoC4/CapSense_1.c **** *
1046:.\Generated_Source\PSoC4/CapSense_1.c **** * Summary:
1047:.\Generated_Source\PSoC4/CapSense_1.c **** *  Configures the selected sensor to measure during the next measurement cycle.
1048:.\Generated_Source\PSoC4/CapSense_1.c **** *  The corresponding pins are set to Analog High-Z mode and connected to the
1049:.\Generated_Source\PSoC4/CapSense_1.c **** *  Analog Mux Bus. This also enables the comparator function.
1050:.\Generated_Source\PSoC4/CapSense_1.c **** *
1051:.\Generated_Source\PSoC4/CapSense_1.c **** * Parameters:
1052:.\Generated_Source\PSoC4/CapSense_1.c **** *  sensor:  Sensor number.
1053:.\Generated_Source\PSoC4/CapSense_1.c **** *
1054:.\Generated_Source\PSoC4/CapSense_1.c **** * Return:
1055:.\Generated_Source\PSoC4/CapSense_1.c **** *  None
ARM GAS  C:\Users\danielpi\AppData\Local\Temp\cccuTXvj.s 			page 26


1056:.\Generated_Source\PSoC4/CapSense_1.c **** *
1057:.\Generated_Source\PSoC4/CapSense_1.c **** * Global Variables:
1058:.\Generated_Source\PSoC4/CapSense_1.c **** *  CapSense_1_portTable[] - used to store the port number that pin 
1059:.\Generated_Source\PSoC4/CapSense_1.c **** *  belongs to for each sensor.
1060:.\Generated_Source\PSoC4/CapSense_1.c **** *  CapSense_1_pinShiftTbl[] - used to store position of pin that 
1061:.\Generated_Source\PSoC4/CapSense_1.c **** *  configured as sensor in port. 
1062:.\Generated_Source\PSoC4/CapSense_1.c **** *  CapSense_1_prtSelTbl[] - Contains pointers to the HSIOM 
1063:.\Generated_Source\PSoC4/CapSense_1.c **** *  registers for each port. 
1064:.\Generated_Source\PSoC4/CapSense_1.c **** *  CapSense_1_PrtCfgTb[] - Contains pointers to the port config 
1065:.\Generated_Source\PSoC4/CapSense_1.c **** *  registers for each port.
1066:.\Generated_Source\PSoC4/CapSense_1.c **** *
1067:.\Generated_Source\PSoC4/CapSense_1.c **** * Side Effects: 
1068:.\Generated_Source\PSoC4/CapSense_1.c **** *  None
1069:.\Generated_Source\PSoC4/CapSense_1.c **** *
1070:.\Generated_Source\PSoC4/CapSense_1.c **** *******************************************************************************/
1071:.\Generated_Source\PSoC4/CapSense_1.c **** void CapSense_1_EnableSensor(uint32 sensor)
1072:.\Generated_Source\PSoC4/CapSense_1.c **** {
 371              		.loc 1 1072 0
 372              		.cfi_startproc
 373              	.LVL36:
 374 0000 F8B5     		push	{r3, r4, r5, r6, r7, lr}
 375              		.cfi_def_cfa_offset 24
 376              		.cfi_offset 3, -24
 377              		.cfi_offset 4, -20
 378              		.cfi_offset 5, -16
 379              		.cfi_offset 6, -12
 380              		.cfi_offset 7, -8
 381              		.cfi_offset 14, -4
1073:.\Generated_Source\PSoC4/CapSense_1.c **** 	uint8  pinModeShift;
1074:.\Generated_Source\PSoC4/CapSense_1.c ****     uint8  pinHSIOMShift;
1075:.\Generated_Source\PSoC4/CapSense_1.c **** 	uint8 interruptState;
1076:.\Generated_Source\PSoC4/CapSense_1.c **** 	uint32 newRegisterValue;
1077:.\Generated_Source\PSoC4/CapSense_1.c ****     uint32 port;
1078:.\Generated_Source\PSoC4/CapSense_1.c **** 	
1079:.\Generated_Source\PSoC4/CapSense_1.c **** 	port = (uint32) CapSense_1_portTable[sensor];
 382              		.loc 1 1079 0
 383 0002 104C     		ldr	r4, .L26
 384 0004 275C     		ldrb	r7, [r4, r0]
 385              	.LVL37:
1080:.\Generated_Source\PSoC4/CapSense_1.c ****     pinModeShift = CapSense_1_pinShiftTbl[sensor]  * CapSense_1_PC_PIN_CFG_SIZE;
 386              		.loc 1 1080 0
 387 0006 2018     		add	r0, r4, r0
 388              	.LVL38:
 389 0008 037A     		ldrb	r3, [r0, #8]
 390 000a 5E00     		lsl	r6, r3, #1
 391 000c 9E19     		add	r6, r3, r6
 392 000e F6B2     		uxtb	r6, r6
 393              	.LVL39:
1081:.\Generated_Source\PSoC4/CapSense_1.c ****     pinHSIOMShift = CapSense_1_pinShiftTbl[sensor] * CapSense_1_HSIOM_PIN_CFG_SIZE;
 394              		.loc 1 1081 0
 395 0010 9B00     		lsl	r3, r3, #2
 396 0012 DDB2     		uxtb	r5, r3
 397              	.LVL40:
1082:.\Generated_Source\PSoC4/CapSense_1.c **** 
1083:.\Generated_Source\PSoC4/CapSense_1.c **** 	interruptState = CyEnterCriticalSection();
 398              		.loc 1 1083 0
 399 0014 FFF7FEFF 		bl	CyEnterCriticalSection
ARM GAS  C:\Users\danielpi\AppData\Local\Temp\cccuTXvj.s 			page 27


 400              	.LVL41:
1084:.\Generated_Source\PSoC4/CapSense_1.c **** 	
1085:.\Generated_Source\PSoC4/CapSense_1.c **** 	newRegisterValue = *CapSense_1_prtSelTbl[port];
 401              		.loc 1 1085 0
 402 0018 BF00     		lsl	r7, r7, #2
 403              	.LVL42:
 404 001a E419     		add	r4, r4, r7
 405              	.LVL43:
 406 001c 2269     		ldr	r2, [r4, #16]
 407 001e 1168     		ldr	r1, [r2]
 408              	.LVL44:
1086:.\Generated_Source\PSoC4/CapSense_1.c **** 	newRegisterValue &= ~(CapSense_1_CSD_HSIOM_MASK << pinHSIOMShift);
 409              		.loc 1 1086 0
 410 0020 0F23     		mov	r3, #15
 411 0022 AB40     		lsl	r3, r3, r5
 412 0024 9943     		bic	r1, r3
 413              	.LVL45:
1087:.\Generated_Source\PSoC4/CapSense_1.c **** 	newRegisterValue |= (uint32)((uint32)CapSense_1_CSD_SENSE_PORT_MODE << pinHSIOMShift);
 414              		.loc 1 1087 0
 415 0026 0423     		mov	r3, #4
 416 0028 AB40     		lsl	r3, r3, r5
 417 002a 1D1C     		mov	r5, r3
 418              	.LVL46:
 419 002c 0D43     		orr	r5, r1
 420              	.LVL47:
1088:.\Generated_Source\PSoC4/CapSense_1.c ****    
1089:.\Generated_Source\PSoC4/CapSense_1.c ****     *CapSense_1_prtCfgTbl[port] &= (uint32)~((uint32)CapSense_1_CSD_PIN_MODE_MASK << pinModeShift);
 421              		.loc 1 1089 0
 422 002e A16A     		ldr	r1, [r4, #40]
 423 0030 0B68     		ldr	r3, [r1]
 424 0032 0724     		mov	r4, #7
 425 0034 B440     		lsl	r4, r4, r6
 426 0036 A343     		bic	r3, r4
 427 0038 0B60     		str	r3, [r1]
1090:.\Generated_Source\PSoC4/CapSense_1.c ****     *CapSense_1_prtSelTbl[port] = newRegisterValue;
 428              		.loc 1 1090 0
 429 003a 1560     		str	r5, [r2]
1091:.\Generated_Source\PSoC4/CapSense_1.c **** 	
1092:.\Generated_Source\PSoC4/CapSense_1.c **** 	CyExitCriticalSection(interruptState);
 430              		.loc 1 1092 0
 431 003c FFF7FEFF 		bl	CyExitCriticalSection
 432              	.LVL48:
1093:.\Generated_Source\PSoC4/CapSense_1.c **** }
 433              		.loc 1 1093 0
 434              		@ sp needed
 435              	.LVL49:
 436              	.LVL50:
 437 0040 F8BD     		pop	{r3, r4, r5, r6, r7, pc}
 438              	.L27:
 439 0042 C046     		.align	2
 440              	.L26:
 441 0044 00000000 		.word	.LANCHOR2
 442              		.cfi_endproc
 443              	.LFE50:
 444              		.size	CapSense_1_EnableSensor, .-CapSense_1_EnableSensor
 445              		.section	.text.CapSense_1_DisableSensor,"ax",%progbits
 446              		.align	2
ARM GAS  C:\Users\danielpi\AppData\Local\Temp\cccuTXvj.s 			page 28


 447              		.global	CapSense_1_DisableSensor
 448              		.code	16
 449              		.thumb_func
 450              		.type	CapSense_1_DisableSensor, %function
 451              	CapSense_1_DisableSensor:
 452              	.LFB51:
1094:.\Generated_Source\PSoC4/CapSense_1.c **** 
1095:.\Generated_Source\PSoC4/CapSense_1.c **** 
1096:.\Generated_Source\PSoC4/CapSense_1.c **** /*******************************************************************************
1097:.\Generated_Source\PSoC4/CapSense_1.c **** * Function Name: CapSense_1_DisableSensor
1098:.\Generated_Source\PSoC4/CapSense_1.c **** ********************************************************************************
1099:.\Generated_Source\PSoC4/CapSense_1.c **** *
1100:.\Generated_Source\PSoC4/CapSense_1.c **** * Summary:
1101:.\Generated_Source\PSoC4/CapSense_1.c **** *  Disables the selected sensor. The corresponding pin is disconnected from the
1102:.\Generated_Source\PSoC4/CapSense_1.c **** *  Analog Mux Bus and connected to GND, High_Z or Shield electrode.
1103:.\Generated_Source\PSoC4/CapSense_1.c **** *
1104:.\Generated_Source\PSoC4/CapSense_1.c **** * Parameters:
1105:.\Generated_Source\PSoC4/CapSense_1.c **** *  sensor:  Sensor number
1106:.\Generated_Source\PSoC4/CapSense_1.c **** *
1107:.\Generated_Source\PSoC4/CapSense_1.c **** * Return:
1108:.\Generated_Source\PSoC4/CapSense_1.c **** *  None
1109:.\Generated_Source\PSoC4/CapSense_1.c **** *
1110:.\Generated_Source\PSoC4/CapSense_1.c **** * Global Variables:
1111:.\Generated_Source\PSoC4/CapSense_1.c **** *  CapSense_1_portTable[] - used to store the port number that pin 
1112:.\Generated_Source\PSoC4/CapSense_1.c **** *  belongs to for each sensor.
1113:.\Generated_Source\PSoC4/CapSense_1.c **** *  CapSense_1_pinShiftTbl[] - used to store position of pin that 
1114:.\Generated_Source\PSoC4/CapSense_1.c **** *  configured as a sensor in the port. 
1115:.\Generated_Source\PSoC4/CapSense_1.c **** *  CapSense_1_prtSelTbl[] - Contains pointers to the HSIOM 
1116:.\Generated_Source\PSoC4/CapSense_1.c **** *  registers for each port. 
1117:.\Generated_Source\PSoC4/CapSense_1.c **** *  CapSense_1_PrtCfgTb[] - Contains pointers to the port config 
1118:.\Generated_Source\PSoC4/CapSense_1.c **** *  registers for each port.
1119:.\Generated_Source\PSoC4/CapSense_1.c **** *
1120:.\Generated_Source\PSoC4/CapSense_1.c **** * Side Effects: 
1121:.\Generated_Source\PSoC4/CapSense_1.c **** *  None
1122:.\Generated_Source\PSoC4/CapSense_1.c **** *
1123:.\Generated_Source\PSoC4/CapSense_1.c **** *******************************************************************************/
1124:.\Generated_Source\PSoC4/CapSense_1.c **** void CapSense_1_DisableSensor(uint32 sensor)
1125:.\Generated_Source\PSoC4/CapSense_1.c **** {
 453              		.loc 1 1125 0
 454              		.cfi_startproc
 455              	.LVL51:
 456 0000 F8B5     		push	{r3, r4, r5, r6, r7, lr}
 457              		.cfi_def_cfa_offset 24
 458              		.cfi_offset 3, -24
 459              		.cfi_offset 4, -20
 460              		.cfi_offset 5, -16
 461              		.cfi_offset 6, -12
 462              		.cfi_offset 7, -8
 463              		.cfi_offset 14, -4
1126:.\Generated_Source\PSoC4/CapSense_1.c ****     uint8 interruptState;
1127:.\Generated_Source\PSoC4/CapSense_1.c **** 	uint32 newRegisterValue;
1128:.\Generated_Source\PSoC4/CapSense_1.c **** 	
1129:.\Generated_Source\PSoC4/CapSense_1.c ****     uint32 port = (uint32) CapSense_1_portTable[sensor];
 464              		.loc 1 1129 0
 465 0002 194B     		ldr	r3, .L33
 466 0004 1D5C     		ldrb	r5, [r3, r0]
 467              	.LVL52:
ARM GAS  C:\Users\danielpi\AppData\Local\Temp\cccuTXvj.s 			page 29


1130:.\Generated_Source\PSoC4/CapSense_1.c ****     uint8  pinHSIOMShift = CapSense_1_pinShiftTbl[sensor] * CapSense_1_HSIOM_PIN_CFG_SIZE;
 468              		.loc 1 1130 0
 469 0006 1A18     		add	r2, r3, r0
 470 0008 147A     		ldrb	r4, [r2, #8]
 471 000a A700     		lsl	r7, r4, #2
 472 000c FFB2     		uxtb	r7, r7
 473              	.LVL53:
1131:.\Generated_Source\PSoC4/CapSense_1.c ****     uint8  pinModeShift = CapSense_1_pinShiftTbl[sensor]  * CapSense_1_PC_PIN_CFG_SIZE;
 474              		.loc 1 1131 0
 475 000e 6600     		lsl	r6, r4, #1
 476 0010 A619     		add	r6, r4, r6
 477 0012 F6B2     		uxtb	r6, r6
 478              	.LVL54:
1132:.\Generated_Source\PSoC4/CapSense_1.c **** 
1133:.\Generated_Source\PSoC4/CapSense_1.c **** 	uint32 inactiveConnect = CapSense_1_SNS_HIZANALOG_CONNECT;
1134:.\Generated_Source\PSoC4/CapSense_1.c **** 	uint32 sensorState = CapSense_1_unscannedSnsDriveMode[sensor];
 479              		.loc 1 1134 0
 480 0014 154A     		ldr	r2, .L33+4
 481 0016 125C     		ldrb	r2, [r2, r0]
 482              	.LVL55:
1135:.\Generated_Source\PSoC4/CapSense_1.c **** 
1136:.\Generated_Source\PSoC4/CapSense_1.c ****     *CapSense_1_prtSelTbl[port] &= ~(CapSense_1_CSD_HSIOM_MASK << pinHSIOMShift);
 483              		.loc 1 1136 0
 484 0018 A900     		lsl	r1, r5, #2
 485 001a 5B18     		add	r3, r3, r1
 486 001c 1B69     		ldr	r3, [r3, #16]
 487 001e 1968     		ldr	r1, [r3]
 488 0020 0F20     		mov	r0, #15
 489              	.LVL56:
 490 0022 B840     		lsl	r0, r0, r7
 491 0024 8143     		bic	r1, r0
 492 0026 1960     		str	r1, [r3]
1137:.\Generated_Source\PSoC4/CapSense_1.c **** 
1138:.\Generated_Source\PSoC4/CapSense_1.c **** 	#if(CapSense_1_IS_SHIELD_ENABLE != 0)
1139:.\Generated_Source\PSoC4/CapSense_1.c **** 	if(sensorState != (uint32)CapSense_1__SHIELD)
1140:.\Generated_Source\PSoC4/CapSense_1.c **** 	{
1141:.\Generated_Source\PSoC4/CapSense_1.c **** 	#else
1142:.\Generated_Source\PSoC4/CapSense_1.c **** 	    /* Connected to Ground if shield is disabled */
1143:.\Generated_Source\PSoC4/CapSense_1.c **** 	    if(sensorState == (uint32)CapSense_1__SHIELD)
 493              		.loc 1 1143 0
 494 0028 022A     		cmp	r2, #2
 495 002a 00D1     		bne	.L29
1144:.\Generated_Source\PSoC4/CapSense_1.c **** 		{
1145:.\Generated_Source\PSoC4/CapSense_1.c **** 			sensorState = (uint32)CapSense_1__GROUND;
 496              		.loc 1 1145 0
 497 002c 0022     		mov	r2, #0
 498              	.LVL57:
 499              	.L29:
1146:.\Generated_Source\PSoC4/CapSense_1.c **** 		}
1147:.\Generated_Source\PSoC4/CapSense_1.c **** 	#endif /* (CapSense_1_IS_SHIELD_ENABLE) */
1148:.\Generated_Source\PSoC4/CapSense_1.c **** 	    if(sensorState != (uint32)CapSense_1__HIZ_ANALOG)
 500              		.loc 1 1148 0
 501 002e 012A     		cmp	r2, #1
 502 0030 01D1     		bne	.L32
1133:.\Generated_Source\PSoC4/CapSense_1.c **** 	uint32 inactiveConnect = CapSense_1_SNS_HIZANALOG_CONNECT;
 503              		.loc 1 1133 0
 504 0032 0027     		mov	r7, #0
ARM GAS  C:\Users\danielpi\AppData\Local\Temp\cccuTXvj.s 			page 30


 505              	.LVL58:
 506 0034 00E0     		b	.L30
 507              	.L32:
1149:.\Generated_Source\PSoC4/CapSense_1.c **** 		{   
1150:.\Generated_Source\PSoC4/CapSense_1.c **** 		    /* Connected to Ground */
1151:.\Generated_Source\PSoC4/CapSense_1.c **** 		    inactiveConnect = (uint32)CapSense_1_SNS_GROUND_CONNECT;
 508              		.loc 1 1151 0
 509 0036 0627     		mov	r7, #6
 510              	.L30:
 511              	.LVL59:
1152:.\Generated_Source\PSoC4/CapSense_1.c **** 		}
1153:.\Generated_Source\PSoC4/CapSense_1.c **** 		
1154:.\Generated_Source\PSoC4/CapSense_1.c ****         interruptState = CyEnterCriticalSection();
 512              		.loc 1 1154 0
 513 0038 FFF7FEFF 		bl	CyEnterCriticalSection
 514              	.LVL60:
1155:.\Generated_Source\PSoC4/CapSense_1.c **** 
1156:.\Generated_Source\PSoC4/CapSense_1.c ****         /* Set drive mode */
1157:.\Generated_Source\PSoC4/CapSense_1.c ****     	newRegisterValue = *CapSense_1_prtCfgTbl[port];
 515              		.loc 1 1157 0
 516 003c AD00     		lsl	r5, r5, #2
 517              	.LVL61:
 518 003e 0A4B     		ldr	r3, .L33
 519              	.LVL62:
 520 0040 5D19     		add	r5, r3, r5
 521 0042 AB6A     		ldr	r3, [r5, #40]
 522              	.LVL63:
 523 0044 1A68     		ldr	r2, [r3]
 524              	.LVL64:
1158:.\Generated_Source\PSoC4/CapSense_1.c ****     	newRegisterValue &= ~(CapSense_1_CSD_PIN_MODE_MASK << pinModeShift);
 525              		.loc 1 1158 0
 526 0046 0721     		mov	r1, #7
 527 0048 B140     		lsl	r1, r1, r6
 528 004a 8A43     		bic	r2, r1
 529              	.LVL65:
1159:.\Generated_Source\PSoC4/CapSense_1.c ****     	newRegisterValue |=  (uint32)(inactiveConnect << pinModeShift);
 530              		.loc 1 1159 0
 531 004c B740     		lsl	r7, r7, r6
 532              	.LVL66:
 533 004e 3E1C     		mov	r6, r7
 534              	.LVL67:
 535 0050 1643     		orr	r6, r2
 536              	.LVL68:
1160:.\Generated_Source\PSoC4/CapSense_1.c ****         *CapSense_1_prtCfgTbl[port] =  newRegisterValue;
 537              		.loc 1 1160 0
 538 0052 1E60     		str	r6, [r3]
1161:.\Generated_Source\PSoC4/CapSense_1.c ****         
1162:.\Generated_Source\PSoC4/CapSense_1.c ****         CyExitCriticalSection(interruptState);
 539              		.loc 1 1162 0
 540 0054 FFF7FEFF 		bl	CyExitCriticalSection
 541              	.LVL69:
1163:.\Generated_Source\PSoC4/CapSense_1.c **** 
1164:.\Generated_Source\PSoC4/CapSense_1.c ****     	*CapSense_1_prtDRTbl[port]  &=  (uint32)~(uint32)((uint32)1u << CapSense_1_pinShiftTbl[sensor]
 542              		.loc 1 1164 0
 543 0058 2B6C     		ldr	r3, [r5, #64]
 544 005a 1A68     		ldr	r2, [r3]
 545 005c 0121     		mov	r1, #1
ARM GAS  C:\Users\danielpi\AppData\Local\Temp\cccuTXvj.s 			page 31


 546 005e A140     		lsl	r1, r1, r4
 547 0060 8A43     		bic	r2, r1
 548 0062 1A60     		str	r2, [r3]
1165:.\Generated_Source\PSoC4/CapSense_1.c **** 	#if(CapSense_1_IS_SHIELD_ENABLE != 0)
1166:.\Generated_Source\PSoC4/CapSense_1.c **** 	}
1167:.\Generated_Source\PSoC4/CapSense_1.c **** 	else
1168:.\Generated_Source\PSoC4/CapSense_1.c **** 	{
1169:.\Generated_Source\PSoC4/CapSense_1.c **** 		/* Connect to Shield */
1170:.\Generated_Source\PSoC4/CapSense_1.c **** 		*CapSense_1_prtSelTbl[port] |= (CapSense_1_CSD_SHIELD_PORT_MODE << pinHSIOMShift);
1171:.\Generated_Source\PSoC4/CapSense_1.c **** 	}
1172:.\Generated_Source\PSoC4/CapSense_1.c **** 	#endif /* (CapSense_1_IS_SHIELD_ENABLE) */
1173:.\Generated_Source\PSoC4/CapSense_1.c **** }
 549              		.loc 1 1173 0
 550              		@ sp needed
 551              	.LVL70:
 552              	.LVL71:
 553 0064 F8BD     		pop	{r3, r4, r5, r6, r7, pc}
 554              	.L34:
 555 0066 C046     		.align	2
 556              	.L33:
 557 0068 00000000 		.word	.LANCHOR2
 558 006c 00000000 		.word	CapSense_1_unscannedSnsDriveMode
 559              		.cfi_endproc
 560              	.LFE51:
 561              		.size	CapSense_1_DisableSensor, .-CapSense_1_DisableSensor
 562              		.section	.text.CapSense_1_ClearSensors,"ax",%progbits
 563              		.align	2
 564              		.global	CapSense_1_ClearSensors
 565              		.code	16
 566              		.thumb_func
 567              		.type	CapSense_1_ClearSensors, %function
 568              	CapSense_1_ClearSensors:
 569              	.LFB49:
 914:.\Generated_Source\PSoC4/CapSense_1.c **** {
 570              		.loc 1 914 0
 571              		.cfi_startproc
 572 0000 10B5     		push	{r4, lr}
 573              		.cfi_def_cfa_offset 8
 574              		.cfi_offset 4, -8
 575              		.cfi_offset 14, -4
 576              	.LVL72:
 917:.\Generated_Source\PSoC4/CapSense_1.c ****     for (snsIndex = 0u; snsIndex < CapSense_1_TOTAL_SENSOR_COUNT; snsIndex++)
 577              		.loc 1 917 0
 578 0002 0024     		mov	r4, #0
 579 0004 03E0     		b	.L36
 580              	.LVL73:
 581              	.L37:
 919:.\Generated_Source\PSoC4/CapSense_1.c ****         CapSense_1_DisableScanSlot(snsIndex);
 582              		.loc 1 919 0 discriminator 2
 583 0006 201C     		mov	r0, r4
 584 0008 FFF7FEFF 		bl	CapSense_1_DisableSensor
 585              	.LVL74:
 917:.\Generated_Source\PSoC4/CapSense_1.c ****     for (snsIndex = 0u; snsIndex < CapSense_1_TOTAL_SENSOR_COUNT; snsIndex++)
 586              		.loc 1 917 0 discriminator 2
 587 000c 0134     		add	r4, r4, #1
 588              	.LVL75:
 589              	.L36:
ARM GAS  C:\Users\danielpi\AppData\Local\Temp\cccuTXvj.s 			page 32


 917:.\Generated_Source\PSoC4/CapSense_1.c ****     for (snsIndex = 0u; snsIndex < CapSense_1_TOTAL_SENSOR_COUNT; snsIndex++)
 590              		.loc 1 917 0 is_stmt 0 discriminator 1
 591 000e 042C     		cmp	r4, #4
 592 0010 F9D9     		bls	.L37
 921:.\Generated_Source\PSoC4/CapSense_1.c **** }
 593              		.loc 1 921 0 is_stmt 1
 594              		@ sp needed
 595              	.LVL76:
 596 0012 10BD     		pop	{r4, pc}
 597              		.cfi_endproc
 598              	.LFE49:
 599              		.size	CapSense_1_ClearSensors, .-CapSense_1_ClearSensors
 600              		.section	.text.CapSense_1_SetPinDriveMode,"ax",%progbits
 601              		.align	2
 602              		.global	CapSense_1_SetPinDriveMode
 603              		.code	16
 604              		.thumb_func
 605              		.type	CapSense_1_SetPinDriveMode, %function
 606              	CapSense_1_SetPinDriveMode:
 607              	.LFB54:
1174:.\Generated_Source\PSoC4/CapSense_1.c **** 
1175:.\Generated_Source\PSoC4/CapSense_1.c **** 
1176:.\Generated_Source\PSoC4/CapSense_1.c **** /*******************************************************************************
1177:.\Generated_Source\PSoC4/CapSense_1.c **** * Function Name: CapSense_1_SetDriveModeAllPins
1178:.\Generated_Source\PSoC4/CapSense_1.c **** ********************************************************************************
1179:.\Generated_Source\PSoC4/CapSense_1.c **** *
1180:.\Generated_Source\PSoC4/CapSense_1.c **** * Summary:
1181:.\Generated_Source\PSoC4/CapSense_1.c **** * This API sets the drive mode of port pins used by the CapSense
1182:.\Generated_Source\PSoC4/CapSense_1.c **** * component (sensors, guard, shield, shield tank and Cmod) to drive the 
1183:.\Generated_Source\PSoC4/CapSense_1.c **** * mode specified by the argument.
1184:.\Generated_Source\PSoC4/CapSense_1.c **** *
1185:.\Generated_Source\PSoC4/CapSense_1.c **** * Parameters:
1186:.\Generated_Source\PSoC4/CapSense_1.c **** *  driveMode:  Drive mode definition.
1187:.\Generated_Source\PSoC4/CapSense_1.c **** *
1188:.\Generated_Source\PSoC4/CapSense_1.c **** * Return:
1189:.\Generated_Source\PSoC4/CapSense_1.c **** *  None
1190:.\Generated_Source\PSoC4/CapSense_1.c **** *
1191:.\Generated_Source\PSoC4/CapSense_1.c **** * Global Variables:
1192:.\Generated_Source\PSoC4/CapSense_1.c **** *  CapSense_1_portTable[] - used to store the port number that pin 
1193:.\Generated_Source\PSoC4/CapSense_1.c **** *  belongs to for each sensor.
1194:.\Generated_Source\PSoC4/CapSense_1.c **** *  CapSense_1_pinShiftTbl[] - used to store position of pin that 
1195:.\Generated_Source\PSoC4/CapSense_1.c **** *  configured as a sensor in the port. 
1196:.\Generated_Source\PSoC4/CapSense_1.c **** *
1197:.\Generated_Source\PSoC4/CapSense_1.c **** * Side Effects: 
1198:.\Generated_Source\PSoC4/CapSense_1.c **** *  This API shall be called only after CapSense component is stopped.
1199:.\Generated_Source\PSoC4/CapSense_1.c **** *
1200:.\Generated_Source\PSoC4/CapSense_1.c **** *******************************************************************************/
1201:.\Generated_Source\PSoC4/CapSense_1.c **** void CapSense_1_SetDriveModeAllPins(uint32 driveMode)
1202:.\Generated_Source\PSoC4/CapSense_1.c **** {
1203:.\Generated_Source\PSoC4/CapSense_1.c **** 	uint8 curSensor;
1204:.\Generated_Source\PSoC4/CapSense_1.c **** 	#if (CapSense_1_IS_COMPLEX_SCANSLOTS)
1205:.\Generated_Source\PSoC4/CapSense_1.c **** 		uint8 snsNumber;
1206:.\Generated_Source\PSoC4/CapSense_1.c **** 		uint8 snsType;
1207:.\Generated_Source\PSoC4/CapSense_1.c **** 	#endif  /* CapSense_1_IS_COMPLEX_SCANSLOTS */
1208:.\Generated_Source\PSoC4/CapSense_1.c **** 	uint32 prtNumberTmp;
1209:.\Generated_Source\PSoC4/CapSense_1.c **** 	uint32 pinNumberTmp;
1210:.\Generated_Source\PSoC4/CapSense_1.c **** 
ARM GAS  C:\Users\danielpi\AppData\Local\Temp\cccuTXvj.s 			page 33


1211:.\Generated_Source\PSoC4/CapSense_1.c **** 	for(curSensor = 0u; curSensor < CapSense_1_TOTAL_SENSOR_COUNT; curSensor++)
1212:.\Generated_Source\PSoC4/CapSense_1.c **** 	{	
1213:.\Generated_Source\PSoC4/CapSense_1.c **** 		#if (CapSense_1_IS_COMPLEX_SCANSLOTS)
1214:.\Generated_Source\PSoC4/CapSense_1.c **** 			/* Read sensor type: single or complex */
1215:.\Generated_Source\PSoC4/CapSense_1.c **** 			snsType = CapSense_1_portTable[curSensor];
1216:.\Generated_Source\PSoC4/CapSense_1.c **** 		
1217:.\Generated_Source\PSoC4/CapSense_1.c **** 			/* Check if sensor is complex */
1218:.\Generated_Source\PSoC4/CapSense_1.c **** 			if ((snsType & CapSense_1_COMPLEX_SS_FLAG) == 0u)
1219:.\Generated_Source\PSoC4/CapSense_1.c **** 			{
1220:.\Generated_Source\PSoC4/CapSense_1.c **** 				/* The sensor is not complex */
1221:.\Generated_Source\PSoC4/CapSense_1.c **** 				snsNumber = curSensor;
1222:.\Generated_Source\PSoC4/CapSense_1.c **** 			}
1223:.\Generated_Source\PSoC4/CapSense_1.c **** 			else
1224:.\Generated_Source\PSoC4/CapSense_1.c **** 			{
1225:.\Generated_Source\PSoC4/CapSense_1.c **** 				/* Get dedicated sensor ID of the complex sensor */
1226:.\Generated_Source\PSoC4/CapSense_1.c **** 				snsType &= ~CapSense_1_COMPLEX_SS_FLAG;
1227:.\Generated_Source\PSoC4/CapSense_1.c **** 				snsNumber = CapSense_1_indexTable[snsType];
1228:.\Generated_Source\PSoC4/CapSense_1.c **** 			}
1229:.\Generated_Source\PSoC4/CapSense_1.c **** 
1230:.\Generated_Source\PSoC4/CapSense_1.c **** 			prtNumberTmp = CapSense_1_portTable[snsNumber];
1231:.\Generated_Source\PSoC4/CapSense_1.c **** 			pinNumberTmp = CapSense_1_pinShiftTbl[snsNumber];
1232:.\Generated_Source\PSoC4/CapSense_1.c **** 		#else
1233:.\Generated_Source\PSoC4/CapSense_1.c **** 			prtNumberTmp = CapSense_1_portTable[curSensor];
1234:.\Generated_Source\PSoC4/CapSense_1.c **** 			pinNumberTmp = CapSense_1_pinShiftTbl[curSensor];
1235:.\Generated_Source\PSoC4/CapSense_1.c **** 		#endif  /* CapSense_1_IS_COMPLEX_SCANSLOTS */
1236:.\Generated_Source\PSoC4/CapSense_1.c **** 	
1237:.\Generated_Source\PSoC4/CapSense_1.c **** 		CapSense_1_SetPinDriveMode(driveMode, pinNumberTmp, prtNumberTmp);
1238:.\Generated_Source\PSoC4/CapSense_1.c **** 	}
1239:.\Generated_Source\PSoC4/CapSense_1.c **** 	
1240:.\Generated_Source\PSoC4/CapSense_1.c **** 	CapSense_1_SetPinDriveMode(driveMode, (uint32)CapSense_1_CMOD_PIN_NUMBER, (uint32)CapSense_1_CMOD_
1241:.\Generated_Source\PSoC4/CapSense_1.c **** 	
1242:.\Generated_Source\PSoC4/CapSense_1.c **** 	#if(0u != CapSense_1_CSH_TANK_ENABLE)
1243:.\Generated_Source\PSoC4/CapSense_1.c **** 		CapSense_1_SetPinDriveMode(driveMode, (uint32)CapSense_1_CTANK_PIN_NUMBER, (uint32)CapSense_1_CTA
1244:.\Generated_Source\PSoC4/CapSense_1.c **** 	#endif /* (0u != CapSense_1_CSH_TANK_ENABLE) */	
1245:.\Generated_Source\PSoC4/CapSense_1.c **** 	
1246:.\Generated_Source\PSoC4/CapSense_1.c **** 	#if(0u != CapSense_1_IS_SHIELD_ENABLE)
1247:.\Generated_Source\PSoC4/CapSense_1.c **** 		CapSense_1_SetPinDriveMode(driveMode, (uint32)CapSense_1_SHIELD_PIN_NUMBER, (uint32)CapSense_1_SH
1248:.\Generated_Source\PSoC4/CapSense_1.c **** 	#endif /* (0u != CapSense_1_IS_SHIELD_ENABLE) */	
1249:.\Generated_Source\PSoC4/CapSense_1.c **** }
1250:.\Generated_Source\PSoC4/CapSense_1.c **** 
1251:.\Generated_Source\PSoC4/CapSense_1.c **** 
1252:.\Generated_Source\PSoC4/CapSense_1.c **** /*******************************************************************************
1253:.\Generated_Source\PSoC4/CapSense_1.c **** * Function Name: CapSense_1_RestoreDriveModeAllPins
1254:.\Generated_Source\PSoC4/CapSense_1.c **** ********************************************************************************
1255:.\Generated_Source\PSoC4/CapSense_1.c **** *
1256:.\Generated_Source\PSoC4/CapSense_1.c **** * Summary:
1257:.\Generated_Source\PSoC4/CapSense_1.c **** *  This API restores the drive for all the CapSense port pins to the original
1258:.\Generated_Source\PSoC4/CapSense_1.c **** *  state.
1259:.\Generated_Source\PSoC4/CapSense_1.c **** *
1260:.\Generated_Source\PSoC4/CapSense_1.c **** * Parameters:
1261:.\Generated_Source\PSoC4/CapSense_1.c **** *  None
1262:.\Generated_Source\PSoC4/CapSense_1.c **** *
1263:.\Generated_Source\PSoC4/CapSense_1.c **** * Return:
1264:.\Generated_Source\PSoC4/CapSense_1.c **** *  None
1265:.\Generated_Source\PSoC4/CapSense_1.c **** *
1266:.\Generated_Source\PSoC4/CapSense_1.c **** * Global Variables:
1267:.\Generated_Source\PSoC4/CapSense_1.c **** *  CapSense_1_prtSelTbl[] - Contains pointers to the HSIOM 
ARM GAS  C:\Users\danielpi\AppData\Local\Temp\cccuTXvj.s 			page 34


1268:.\Generated_Source\PSoC4/CapSense_1.c **** *  registers for each port. 
1269:.\Generated_Source\PSoC4/CapSense_1.c **** *
1270:.\Generated_Source\PSoC4/CapSense_1.c **** * Side Effects: 
1271:.\Generated_Source\PSoC4/CapSense_1.c **** *  This API is called only after the CapSense component is stopped.
1272:.\Generated_Source\PSoC4/CapSense_1.c **** *
1273:.\Generated_Source\PSoC4/CapSense_1.c **** *******************************************************************************/
1274:.\Generated_Source\PSoC4/CapSense_1.c **** void CapSense_1_RestoreDriveModeAllPins(void)
1275:.\Generated_Source\PSoC4/CapSense_1.c **** {
1276:.\Generated_Source\PSoC4/CapSense_1.c **** 	uint32 newRegisterValue;
1277:.\Generated_Source\PSoC4/CapSense_1.c **** 	
1278:.\Generated_Source\PSoC4/CapSense_1.c **** 	CapSense_1_SetDriveModeAllPins(CY_SYS_PINS_DM_ALG_HIZ);
1279:.\Generated_Source\PSoC4/CapSense_1.c **** 	
1280:.\Generated_Source\PSoC4/CapSense_1.c **** 	newRegisterValue = CapSense_1_CMOD_CONNECTION_REG; 
1281:.\Generated_Source\PSoC4/CapSense_1.c ****     newRegisterValue &= ~(CapSense_1_CSD_CMOD_CONNECTION_MASK);
1282:.\Generated_Source\PSoC4/CapSense_1.c ****     newRegisterValue |= CapSense_1_CSD_CMOD_TO_AMUXBUS_A;
1283:.\Generated_Source\PSoC4/CapSense_1.c ****     CapSense_1_CMOD_CONNECTION_REG = newRegisterValue;
1284:.\Generated_Source\PSoC4/CapSense_1.c **** 	
1285:.\Generated_Source\PSoC4/CapSense_1.c **** 	#if(0u != CapSense_1_CSH_TANK_ENABLE)
1286:.\Generated_Source\PSoC4/CapSense_1.c **** 		newRegisterValue = CapSense_1_CTANK_CONNECTION_REG;
1287:.\Generated_Source\PSoC4/CapSense_1.c ****         newRegisterValue &= ~(CapSense_1_CSD_CTANK_CONNECTION_MASK);
1288:.\Generated_Source\PSoC4/CapSense_1.c **** 		newRegisterValue |= CapSense_1_CSD_CTANK_TO_AMUXBUS_B;
1289:.\Generated_Source\PSoC4/CapSense_1.c ****         CapSense_1_CTANK_CONNECTION_REG = newRegisterValue;
1290:.\Generated_Source\PSoC4/CapSense_1.c **** 	#endif/* (0u != CapSense_1_CSH_TANK_ENABLE) */
1291:.\Generated_Source\PSoC4/CapSense_1.c **** 	
1292:.\Generated_Source\PSoC4/CapSense_1.c **** 	#if(0u != CapSense_1_IS_SHIELD_ENABLE)
1293:.\Generated_Source\PSoC4/CapSense_1.c **** 		newRegisterValue = *CapSense_1_prtSelTbl[CapSense_1_SHIELD_PORT_NUMBER];
1294:.\Generated_Source\PSoC4/CapSense_1.c ****         newRegisterValue &= ~(CapSense_1_CSD_HSIOM_MASK << ((uint32)CapSense_1_SHIELD_PIN_NUMBER * 
1295:.\Generated_Source\PSoC4/CapSense_1.c ****         newRegisterValue |= (CapSense_1_CSD_SHIELD_PORT_MODE << ((uint32)CapSense_1_SHIELD_PIN_NUMB
1296:.\Generated_Source\PSoC4/CapSense_1.c ****         *CapSense_1_prtSelTbl[CapSense_1_SHIELD_PORT_NUMBER] = newRegisterValue;
1297:.\Generated_Source\PSoC4/CapSense_1.c **** 	#endif /* (0u != CapSense_1_IS_SHIELD_ENABLE) */	
1298:.\Generated_Source\PSoC4/CapSense_1.c **** }
1299:.\Generated_Source\PSoC4/CapSense_1.c **** 
1300:.\Generated_Source\PSoC4/CapSense_1.c **** 
1301:.\Generated_Source\PSoC4/CapSense_1.c **** /*******************************************************************************
1302:.\Generated_Source\PSoC4/CapSense_1.c **** * Function Name: CapSense_1_SetPinDriveMode
1303:.\Generated_Source\PSoC4/CapSense_1.c **** ********************************************************************************
1304:.\Generated_Source\PSoC4/CapSense_1.c **** *
1305:.\Generated_Source\PSoC4/CapSense_1.c **** * Summary:
1306:.\Generated_Source\PSoC4/CapSense_1.c **** * This API sets the drive mode for the appropriate port/pin.
1307:.\Generated_Source\PSoC4/CapSense_1.c **** *
1308:.\Generated_Source\PSoC4/CapSense_1.c **** * Parameters:
1309:.\Generated_Source\PSoC4/CapSense_1.c **** *  driveMode:  Drive mode definition.
1310:.\Generated_Source\PSoC4/CapSense_1.c **** *  portNumber: contains port number (0, 1, 2).
1311:.\Generated_Source\PSoC4/CapSense_1.c **** *  pinNumber: contains pin number (0, 1, 2, ... , 7).
1312:.\Generated_Source\PSoC4/CapSense_1.c **** *
1313:.\Generated_Source\PSoC4/CapSense_1.c **** * Return:
1314:.\Generated_Source\PSoC4/CapSense_1.c **** *  None
1315:.\Generated_Source\PSoC4/CapSense_1.c **** *
1316:.\Generated_Source\PSoC4/CapSense_1.c **** * Global Variables:
1317:.\Generated_Source\PSoC4/CapSense_1.c **** *  CapSense_1_prtSelTbl[] - Contains pointers to the HSIOM 
1318:.\Generated_Source\PSoC4/CapSense_1.c **** *  registers for each port. 
1319:.\Generated_Source\PSoC4/CapSense_1.c **** *  CapSense_1_prtCfgTb[] - Contains pointers to the port config 
1320:.\Generated_Source\PSoC4/CapSense_1.c **** *  registers for each port.
1321:.\Generated_Source\PSoC4/CapSense_1.c **** *
1322:.\Generated_Source\PSoC4/CapSense_1.c **** * Side Effects: 
1323:.\Generated_Source\PSoC4/CapSense_1.c **** *  This API is called only after CapSense component is stopped.
1324:.\Generated_Source\PSoC4/CapSense_1.c **** *
ARM GAS  C:\Users\danielpi\AppData\Local\Temp\cccuTXvj.s 			page 35


1325:.\Generated_Source\PSoC4/CapSense_1.c **** *******************************************************************************/
1326:.\Generated_Source\PSoC4/CapSense_1.c **** void CapSense_1_SetPinDriveMode(uint32 driveMode, uint32 pinNumber, uint32 portNumber)
1327:.\Generated_Source\PSoC4/CapSense_1.c **** {	
 608              		.loc 1 1327 0
 609              		.cfi_startproc
 610              	.LVL77:
 611 0000 10B5     		push	{r4, lr}
 612              		.cfi_def_cfa_offset 8
 613              		.cfi_offset 4, -8
 614              		.cfi_offset 14, -4
1328:.\Generated_Source\PSoC4/CapSense_1.c **** 	uint32  pinModeShift;
1329:.\Generated_Source\PSoC4/CapSense_1.c **** 	uint32 newRegisterValue;
1330:.\Generated_Source\PSoC4/CapSense_1.c **** 	
1331:.\Generated_Source\PSoC4/CapSense_1.c **** 	pinModeShift  = pinNumber * CapSense_1_PC_PIN_CFG_SIZE;
 615              		.loc 1 1331 0
 616 0002 4B00     		lsl	r3, r1, #1
 617 0004 5918     		add	r1, r3, r1
 618              	.LVL78:
1332:.\Generated_Source\PSoC4/CapSense_1.c **** 	
1333:.\Generated_Source\PSoC4/CapSense_1.c **** 	newRegisterValue = *CapSense_1_prtCfgTbl[portNumber];
 619              		.loc 1 1333 0
 620 0006 9200     		lsl	r2, r2, #2
 621              	.LVL79:
 622 0008 054B     		ldr	r3, .L39
 623 000a 9A18     		add	r2, r3, r2
 624 000c 936A     		ldr	r3, [r2, #40]
 625 000e 1A68     		ldr	r2, [r3]
 626              	.LVL80:
1334:.\Generated_Source\PSoC4/CapSense_1.c **** 	newRegisterValue &= ~(CapSense_1_CSD_PIN_MODE_MASK << pinModeShift);
 627              		.loc 1 1334 0
 628 0010 0724     		mov	r4, #7
 629 0012 8C40     		lsl	r4, r4, r1
 630 0014 A243     		bic	r2, r4
 631              	.LVL81:
1335:.\Generated_Source\PSoC4/CapSense_1.c **** 	newRegisterValue |=  (uint32)((uint32)driveMode << pinModeShift);
 632              		.loc 1 1335 0
 633 0016 8840     		lsl	r0, r0, r1
 634              	.LVL82:
 635 0018 011C     		mov	r1, r0
 636              	.LVL83:
 637 001a 1143     		orr	r1, r2
 638              	.LVL84:
1336:.\Generated_Source\PSoC4/CapSense_1.c ****     *CapSense_1_prtCfgTbl[portNumber] =  newRegisterValue;
 639              		.loc 1 1336 0
 640 001c 1960     		str	r1, [r3]
1337:.\Generated_Source\PSoC4/CapSense_1.c **** }
 641              		.loc 1 1337 0
 642              		@ sp needed
 643 001e 10BD     		pop	{r4, pc}
 644              	.L40:
 645              		.align	2
 646              	.L39:
 647 0020 00000000 		.word	.LANCHOR2
 648              		.cfi_endproc
 649              	.LFE54:
 650              		.size	CapSense_1_SetPinDriveMode, .-CapSense_1_SetPinDriveMode
 651              		.section	.text.CapSense_1_SetDriveModeAllPins,"ax",%progbits
ARM GAS  C:\Users\danielpi\AppData\Local\Temp\cccuTXvj.s 			page 36


 652              		.align	2
 653              		.global	CapSense_1_SetDriveModeAllPins
 654              		.code	16
 655              		.thumb_func
 656              		.type	CapSense_1_SetDriveModeAllPins, %function
 657              	CapSense_1_SetDriveModeAllPins:
 658              	.LFB52:
1202:.\Generated_Source\PSoC4/CapSense_1.c **** {
 659              		.loc 1 1202 0
 660              		.cfi_startproc
 661              	.LVL85:
 662 0000 70B5     		push	{r4, r5, r6, lr}
 663              		.cfi_def_cfa_offset 16
 664              		.cfi_offset 4, -16
 665              		.cfi_offset 5, -12
 666              		.cfi_offset 6, -8
 667              		.cfi_offset 14, -4
 668 0002 061C     		mov	r6, r0
 669              	.LVL86:
1211:.\Generated_Source\PSoC4/CapSense_1.c **** 	for(curSensor = 0u; curSensor < CapSense_1_TOTAL_SENSOR_COUNT; curSensor++)
 670              		.loc 1 1211 0
 671 0004 0024     		mov	r4, #0
1233:.\Generated_Source\PSoC4/CapSense_1.c **** 			prtNumberTmp = CapSense_1_portTable[curSensor];
 672              		.loc 1 1233 0
 673 0006 094D     		ldr	r5, .L44
1211:.\Generated_Source\PSoC4/CapSense_1.c **** 	for(curSensor = 0u; curSensor < CapSense_1_TOTAL_SENSOR_COUNT; curSensor++)
 674              		.loc 1 1211 0
 675 0008 07E0     		b	.L42
 676              	.LVL87:
 677              	.L43:
1233:.\Generated_Source\PSoC4/CapSense_1.c **** 			prtNumberTmp = CapSense_1_portTable[curSensor];
 678              		.loc 1 1233 0 discriminator 2
 679 000a 2A5D     		ldrb	r2, [r5, r4]
 680              	.LVL88:
1234:.\Generated_Source\PSoC4/CapSense_1.c **** 			pinNumberTmp = CapSense_1_pinShiftTbl[curSensor];
 681              		.loc 1 1234 0 discriminator 2
 682 000c 2B19     		add	r3, r5, r4
 683 000e 197A     		ldrb	r1, [r3, #8]
 684              	.LVL89:
1237:.\Generated_Source\PSoC4/CapSense_1.c **** 		CapSense_1_SetPinDriveMode(driveMode, pinNumberTmp, prtNumberTmp);
 685              		.loc 1 1237 0 discriminator 2
 686 0010 301C     		mov	r0, r6
 687 0012 FFF7FEFF 		bl	CapSense_1_SetPinDriveMode
 688              	.LVL90:
1211:.\Generated_Source\PSoC4/CapSense_1.c **** 	for(curSensor = 0u; curSensor < CapSense_1_TOTAL_SENSOR_COUNT; curSensor++)
 689              		.loc 1 1211 0 discriminator 2
 690 0016 0134     		add	r4, r4, #1
 691              	.LVL91:
 692 0018 E4B2     		uxtb	r4, r4
 693              	.LVL92:
 694              	.L42:
1211:.\Generated_Source\PSoC4/CapSense_1.c **** 	for(curSensor = 0u; curSensor < CapSense_1_TOTAL_SENSOR_COUNT; curSensor++)
 695              		.loc 1 1211 0 is_stmt 0 discriminator 1
 696 001a 042C     		cmp	r4, #4
 697 001c F5D9     		bls	.L43
1240:.\Generated_Source\PSoC4/CapSense_1.c **** 	CapSense_1_SetPinDriveMode(driveMode, (uint32)CapSense_1_CMOD_PIN_NUMBER, (uint32)CapSense_1_CMOD_
 698              		.loc 1 1240 0 is_stmt 1
ARM GAS  C:\Users\danielpi\AppData\Local\Temp\cccuTXvj.s 			page 37


 699 001e 301C     		mov	r0, r6
 700 0020 0021     		mov	r1, #0
 701 0022 0422     		mov	r2, #4
 702 0024 FFF7FEFF 		bl	CapSense_1_SetPinDriveMode
 703              	.LVL93:
1249:.\Generated_Source\PSoC4/CapSense_1.c **** }
 704              		.loc 1 1249 0
 705              		@ sp needed
 706              	.LVL94:
 707              	.LVL95:
 708 0028 70BD     		pop	{r4, r5, r6, pc}
 709              	.L45:
 710 002a C046     		.align	2
 711              	.L44:
 712 002c 00000000 		.word	.LANCHOR2
 713              		.cfi_endproc
 714              	.LFE52:
 715              		.size	CapSense_1_SetDriveModeAllPins, .-CapSense_1_SetDriveModeAllPins
 716              		.section	.text.CapSense_1_RestoreDriveModeAllPins,"ax",%progbits
 717              		.align	2
 718              		.global	CapSense_1_RestoreDriveModeAllPins
 719              		.code	16
 720              		.thumb_func
 721              		.type	CapSense_1_RestoreDriveModeAllPins, %function
 722              	CapSense_1_RestoreDriveModeAllPins:
 723              	.LFB53:
1275:.\Generated_Source\PSoC4/CapSense_1.c **** {
 724              		.loc 1 1275 0
 725              		.cfi_startproc
 726 0000 08B5     		push	{r3, lr}
 727              		.cfi_def_cfa_offset 8
 728              		.cfi_offset 3, -8
 729              		.cfi_offset 14, -4
1278:.\Generated_Source\PSoC4/CapSense_1.c **** 	CapSense_1_SetDriveModeAllPins(CY_SYS_PINS_DM_ALG_HIZ);
 730              		.loc 1 1278 0
 731 0002 0020     		mov	r0, #0
 732 0004 FFF7FEFF 		bl	CapSense_1_SetDriveModeAllPins
 733              	.LVL96:
1280:.\Generated_Source\PSoC4/CapSense_1.c **** 	newRegisterValue = CapSense_1_CMOD_CONNECTION_REG; 
 734              		.loc 1 1280 0
 735 0008 034B     		ldr	r3, .L47
 736 000a 1A68     		ldr	r2, [r3]
 737              	.LVL97:
1281:.\Generated_Source\PSoC4/CapSense_1.c ****     newRegisterValue &= ~(CapSense_1_CSD_CMOD_CONNECTION_MASK);
 738              		.loc 1 1281 0
 739 000c 0F21     		mov	r1, #15
 740 000e 8A43     		bic	r2, r1
 741              	.LVL98:
1282:.\Generated_Source\PSoC4/CapSense_1.c ****     newRegisterValue |= CapSense_1_CSD_CMOD_TO_AMUXBUS_A;
 742              		.loc 1 1282 0
 743 0010 0621     		mov	r1, #6
 744 0012 0A43     		orr	r2, r1
 745              	.LVL99:
1283:.\Generated_Source\PSoC4/CapSense_1.c ****     CapSense_1_CMOD_CONNECTION_REG = newRegisterValue;
 746              		.loc 1 1283 0
 747 0014 1A60     		str	r2, [r3]
1298:.\Generated_Source\PSoC4/CapSense_1.c **** }
ARM GAS  C:\Users\danielpi\AppData\Local\Temp\cccuTXvj.s 			page 38


 748              		.loc 1 1298 0
 749              		@ sp needed
 750 0016 08BD     		pop	{r3, pc}
 751              	.L48:
 752              		.align	2
 753              	.L47:
 754 0018 00040240 		.word	1073873920
 755              		.cfi_endproc
 756              	.LFE53:
 757              		.size	CapSense_1_RestoreDriveModeAllPins, .-CapSense_1_RestoreDriveModeAllPins
 758              		.section	.text.CapSense_1_EnableShieldElectrode,"ax",%progbits
 759              		.align	2
 760              		.global	CapSense_1_EnableShieldElectrode
 761              		.code	16
 762              		.thumb_func
 763              		.type	CapSense_1_EnableShieldElectrode, %function
 764              	CapSense_1_EnableShieldElectrode:
 765              	.LFB57:
1338:.\Generated_Source\PSoC4/CapSense_1.c **** 
1339:.\Generated_Source\PSoC4/CapSense_1.c **** 
1340:.\Generated_Source\PSoC4/CapSense_1.c **** /*******************************************************************************
1341:.\Generated_Source\PSoC4/CapSense_1.c **** * Function Name: CapSense_1_PreScan
1342:.\Generated_Source\PSoC4/CapSense_1.c **** ********************************************************************************
1343:.\Generated_Source\PSoC4/CapSense_1.c **** *
1344:.\Generated_Source\PSoC4/CapSense_1.c **** * Summary:
1345:.\Generated_Source\PSoC4/CapSense_1.c **** *  Sets required settings, enables a sensor, removes Vref from AMUX and starts the 
1346:.\Generated_Source\PSoC4/CapSense_1.c **** *  scanning process of the sensor.
1347:.\Generated_Source\PSoC4/CapSense_1.c **** *
1348:.\Generated_Source\PSoC4/CapSense_1.c **** * Parameters:
1349:.\Generated_Source\PSoC4/CapSense_1.c **** *  sensor:  Sensor number.
1350:.\Generated_Source\PSoC4/CapSense_1.c **** *
1351:.\Generated_Source\PSoC4/CapSense_1.c **** * Return:
1352:.\Generated_Source\PSoC4/CapSense_1.c **** *  None
1353:.\Generated_Source\PSoC4/CapSense_1.c **** *
1354:.\Generated_Source\PSoC4/CapSense_1.c **** * Global Variables:
1355:.\Generated_Source\PSoC4/CapSense_1.c **** * CapSense_1_widgetNumber[] - This array contains numbers of widgets for each sensor.
1356:.\Generated_Source\PSoC4/CapSense_1.c **** * CapSense_1_widgetResolution[] - Contains the widget resolution.
1357:.\Generated_Source\PSoC4/CapSense_1.c **** *
1358:.\Generated_Source\PSoC4/CapSense_1.c **** * Side Effects: 
1359:.\Generated_Source\PSoC4/CapSense_1.c **** *  None
1360:.\Generated_Source\PSoC4/CapSense_1.c **** *
1361:.\Generated_Source\PSoC4/CapSense_1.c **** *******************************************************************************/
1362:.\Generated_Source\PSoC4/CapSense_1.c **** void CapSense_1_PreScan(uint32 sensor)
1363:.\Generated_Source\PSoC4/CapSense_1.c **** {
1364:.\Generated_Source\PSoC4/CapSense_1.c ****     uint8 widget;
1365:.\Generated_Source\PSoC4/CapSense_1.c ****     uint8 interruptState;
1366:.\Generated_Source\PSoC4/CapSense_1.c **** 	uint32 newRegValue;
1367:.\Generated_Source\PSoC4/CapSense_1.c **** 	uint32 counterResolution;
1368:.\Generated_Source\PSoC4/CapSense_1.c **** 	
1369:.\Generated_Source\PSoC4/CapSense_1.c **** 	#if(CapSense_1_PRS_OPTIONS == CapSense_1__PRS_AUTO)
1370:.\Generated_Source\PSoC4/CapSense_1.c **** 		uint8 senseClkDivMath;
1371:.\Generated_Source\PSoC4/CapSense_1.c **** 		uint8 sampleClkDivMath;
1372:.\Generated_Source\PSoC4/CapSense_1.c **** 	#endif /* (CapSense_1_PRS_OPTIONS == CapSense_1__PRS_AUTO) */	
1373:.\Generated_Source\PSoC4/CapSense_1.c **** 	
1374:.\Generated_Source\PSoC4/CapSense_1.c **** 	#if ((CapSense_1_TUNING_METHOD == CapSense_1__TUNING_AUTO) &&\
1375:.\Generated_Source\PSoC4/CapSense_1.c **** 		 (0 != CapSense_1_IS_OVERSAMPLING_EN))
1376:.\Generated_Source\PSoC4/CapSense_1.c **** 		uint32 oversamplingFactor;
ARM GAS  C:\Users\danielpi\AppData\Local\Temp\cccuTXvj.s 			page 39


1377:.\Generated_Source\PSoC4/CapSense_1.c **** 	#endif /* ((CapSense_1_TUNING_METHOD == CapSense_1__TUNING_AUTO) &&\
1378:.\Generated_Source\PSoC4/CapSense_1.c **** 	           (0 != CapSense_1_IS_OVERSAMPLING_EN)) */
1379:.\Generated_Source\PSoC4/CapSense_1.c **** 
1380:.\Generated_Source\PSoC4/CapSense_1.c ****     /* Define widget sensor belongs to */
1381:.\Generated_Source\PSoC4/CapSense_1.c ****     widget = CapSense_1_widgetNumber[sensor];
1382:.\Generated_Source\PSoC4/CapSense_1.c **** 
1383:.\Generated_Source\PSoC4/CapSense_1.c **** 	/* Recalculate Counter Resolution to MSB 16 bits */
1384:.\Generated_Source\PSoC4/CapSense_1.c **** 	counterResolution = CapSense_1_widgetResolution[widget];
1385:.\Generated_Source\PSoC4/CapSense_1.c **** 	
1386:.\Generated_Source\PSoC4/CapSense_1.c **** 	#if ((CapSense_1_TUNING_METHOD == CapSense_1__TUNING_AUTO) &&\
1387:.\Generated_Source\PSoC4/CapSense_1.c **** 		 (0 != CapSense_1_IS_OVERSAMPLING_EN))
1388:.\Generated_Source\PSoC4/CapSense_1.c **** 	    oversamplingFactor = CapSense_1_GetBitValue(scanSpeedTbl, sensor);
1389:.\Generated_Source\PSoC4/CapSense_1.c **** 
1390:.\Generated_Source\PSoC4/CapSense_1.c **** 		if(counterResolution < CapSense_1_RESOLUTION_16_BITS)
1391:.\Generated_Source\PSoC4/CapSense_1.c **** 		{
1392:.\Generated_Source\PSoC4/CapSense_1.c **** 			counterResolution <<= oversamplingFactor;
1393:.\Generated_Source\PSoC4/CapSense_1.c **** 			counterResolution |= (uint32)(CapSense_1_RESOLUTION_8_BITS);
1394:.\Generated_Source\PSoC4/CapSense_1.c **** 		}
1395:.\Generated_Source\PSoC4/CapSense_1.c **** 	#endif /* ((CapSense_1_TUNING_METHOD == CapSense_1__TUNING_AUTO) &&\
1396:.\Generated_Source\PSoC4/CapSense_1.c **** 	           (0 != CapSense_1_IS_OVERSAMPLING_EN)) */
1397:.\Generated_Source\PSoC4/CapSense_1.c **** 	
1398:.\Generated_Source\PSoC4/CapSense_1.c **** 	#if (0u != CapSense_1_IS_M0S8PERI_BLOCK)
1399:.\Generated_Source\PSoC4/CapSense_1.c **** 		CapSense_1_SenseClk_Stop();
1400:.\Generated_Source\PSoC4/CapSense_1.c **** 		CapSense_1_SampleClk_Stop();
1401:.\Generated_Source\PSoC4/CapSense_1.c **** 	#endif /* (0u != CapSense_1_IS_M0S8PERI_BLOCK) */
1402:.\Generated_Source\PSoC4/CapSense_1.c **** 
1403:.\Generated_Source\PSoC4/CapSense_1.c **** 	#if (0u != CapSense_1_MULTIPLE_FREQUENCY_SET)
1404:.\Generated_Source\PSoC4/CapSense_1.c **** 		CapSense_1_SampleClk_SetDividerValue((uint16)CapSense_1_sampleClkDividerVal[sensor]);
1405:.\Generated_Source\PSoC4/CapSense_1.c **** 		CapSense_1_SenseClk_SetDividerValue((uint16)CapSense_1_senseClkDividerVal[sensor]);
1406:.\Generated_Source\PSoC4/CapSense_1.c **** 	#else
1407:.\Generated_Source\PSoC4/CapSense_1.c **** 		CapSense_1_SampleClk_SetDividerValue((uint16)CapSense_1_sampleClkDividerVal);
1408:.\Generated_Source\PSoC4/CapSense_1.c **** 		CapSense_1_SenseClk_SetDividerValue((uint16)CapSense_1_senseClkDividerVal);
1409:.\Generated_Source\PSoC4/CapSense_1.c **** 	#endif /* (0u != CapSense_1_MULTIPLE_FREQUENCY_SET) */
1410:.\Generated_Source\PSoC4/CapSense_1.c **** 
1411:.\Generated_Source\PSoC4/CapSense_1.c **** 	#if (0u != CapSense_1_IS_M0S8PERI_BLOCK)
1412:.\Generated_Source\PSoC4/CapSense_1.c **** 		CapSense_1_SampleClk_Start();
1413:.\Generated_Source\PSoC4/CapSense_1.c **** 		CapSense_1_SenseClk_StartEx(CapSense_1_SampleClk__DIV_ID);
1414:.\Generated_Source\PSoC4/CapSense_1.c **** 		
1415:.\Generated_Source\PSoC4/CapSense_1.c **** 		#if(CapSense_1_PRS_OPTIONS == CapSense_1__PRS_NONE)
1416:.\Generated_Source\PSoC4/CapSense_1.c **** 			CyIntDisable(CapSense_1_ISR_NUMBER);
1417:.\Generated_Source\PSoC4/CapSense_1.c **** 			CapSense_1_CSD_CNT_REG = CapSense_1_ONE_CYCLE;
1418:.\Generated_Source\PSoC4/CapSense_1.c **** 			while(0u != (CapSense_1_CSD_CNT_REG & CapSense_1_RESOLUTION_16_BITS))
1419:.\Generated_Source\PSoC4/CapSense_1.c **** 			{
1420:.\Generated_Source\PSoC4/CapSense_1.c **** 			/* Wait until scanning is complete */ 
1421:.\Generated_Source\PSoC4/CapSense_1.c **** 			}
1422:.\Generated_Source\PSoC4/CapSense_1.c **** 			CapSense_1_CSD_INTR_REG = 1u;
1423:.\Generated_Source\PSoC4/CapSense_1.c **** 			CyIntClearPending(CapSense_1_ISR_NUMBER);
1424:.\Generated_Source\PSoC4/CapSense_1.c **** 			CyIntEnable(CapSense_1_ISR_NUMBER); 
1425:.\Generated_Source\PSoC4/CapSense_1.c **** 		#endif /* CapSense_1_PRS_OPTIONS == CapSense_1__PRS_NONE */
1426:.\Generated_Source\PSoC4/CapSense_1.c **** 	#endif /* (0u != CapSense_1_IS_M0S8PERI_BLOCK) */
1427:.\Generated_Source\PSoC4/CapSense_1.c **** 
1428:.\Generated_Source\PSoC4/CapSense_1.c **** #if(CapSense_1_PRS_OPTIONS != CapSense_1__PRS_NONE)
1429:.\Generated_Source\PSoC4/CapSense_1.c **** 
1430:.\Generated_Source\PSoC4/CapSense_1.c **** 	#if(CapSense_1_TUNING_METHOD == CapSense_1__TUNING_AUTO)
1431:.\Generated_Source\PSoC4/CapSense_1.c **** 		if(CapSense_1_prescalersTuningDone != 0u)
1432:.\Generated_Source\PSoC4/CapSense_1.c **** 		{
1433:.\Generated_Source\PSoC4/CapSense_1.c **** 	#endif /* (CapSense_1_TUNING_METHOD == CapSense_1__TUNING_AUTO) */
ARM GAS  C:\Users\danielpi\AppData\Local\Temp\cccuTXvj.s 			page 40


1434:.\Generated_Source\PSoC4/CapSense_1.c **** 			
1435:.\Generated_Source\PSoC4/CapSense_1.c **** 			CyIntDisable(CapSense_1_ISR_NUMBER);
1436:.\Generated_Source\PSoC4/CapSense_1.c **** 			
1437:.\Generated_Source\PSoC4/CapSense_1.c **** 			newRegValue = CapSense_1_CSD_CFG_REG;
1438:.\Generated_Source\PSoC4/CapSense_1.c **** 			newRegValue |= CapSense_1_CSD_CFG_PRS_SELECT;
1439:.\Generated_Source\PSoC4/CapSense_1.c **** 			
1440:.\Generated_Source\PSoC4/CapSense_1.c **** 			#if(CapSense_1_PRS_OPTIONS == CapSense_1__PRS_AUTO)
1441:.\Generated_Source\PSoC4/CapSense_1.c **** 				
1442:.\Generated_Source\PSoC4/CapSense_1.c **** 				newRegValue &= ~(CapSense_1_PRS_MODE_MASK);
1443:.\Generated_Source\PSoC4/CapSense_1.c **** 				
1444:.\Generated_Source\PSoC4/CapSense_1.c **** 				#if (0u != CapSense_1_MULTIPLE_FREQUENCY_SET)
1445:.\Generated_Source\PSoC4/CapSense_1.c **** 					senseClkDivMath = CapSense_1_senseClkDividerVal[sensor];
1446:.\Generated_Source\PSoC4/CapSense_1.c **** 					sampleClkDivMath = CapSense_1_sampleClkDividerVal[sensor];
1447:.\Generated_Source\PSoC4/CapSense_1.c **** 				#else
1448:.\Generated_Source\PSoC4/CapSense_1.c **** 					senseClkDivMath = CapSense_1_senseClkDividerVal;
1449:.\Generated_Source\PSoC4/CapSense_1.c **** 					sampleClkDivMath = CapSense_1_sampleClkDividerVal;
1450:.\Generated_Source\PSoC4/CapSense_1.c **** 				#endif /* ( CapSense_1_MULTIPLE_FREQUENCY_SET) */
1451:.\Generated_Source\PSoC4/CapSense_1.c **** 				
1452:.\Generated_Source\PSoC4/CapSense_1.c **** 				#if(0u == CapSense_1_IS_M0S8PERI_BLOCK)
1453:.\Generated_Source\PSoC4/CapSense_1.c **** 					senseClkDivMath *= sampleClkDivMath;
1454:.\Generated_Source\PSoC4/CapSense_1.c **** 				#endif /* (0u == CapSense_1_IS_M0S8PERI_BLOCK) */	
1455:.\Generated_Source\PSoC4/CapSense_1.c **** 				
1456:.\Generated_Source\PSoC4/CapSense_1.c **** 				if((senseClkDivMath * CapSense_1_RESOLUTION_12_BITS) <
1457:.\Generated_Source\PSoC4/CapSense_1.c **** 				   (sampleClkDivMath * CapSense_1_widgetResolution[widget]))
1458:.\Generated_Source\PSoC4/CapSense_1.c **** 				{
1459:.\Generated_Source\PSoC4/CapSense_1.c **** 					newRegValue |= CapSense_1_CSD_PRS_12_BIT;
1460:.\Generated_Source\PSoC4/CapSense_1.c **** 				}
1461:.\Generated_Source\PSoC4/CapSense_1.c **** 			#endif /* (CapSense_1_PRS_OPTIONS == CapSense_1__PRS_AUTO) */
1462:.\Generated_Source\PSoC4/CapSense_1.c **** 			
1463:.\Generated_Source\PSoC4/CapSense_1.c **** 			CapSense_1_CSD_CFG_REG = newRegValue;
1464:.\Generated_Source\PSoC4/CapSense_1.c **** 			
1465:.\Generated_Source\PSoC4/CapSense_1.c **** 			CyIntEnable(CapSense_1_ISR_NUMBER);
1466:.\Generated_Source\PSoC4/CapSense_1.c **** 			
1467:.\Generated_Source\PSoC4/CapSense_1.c **** 	#if(CapSense_1_TUNING_METHOD == CapSense_1__TUNING_AUTO)	
1468:.\Generated_Source\PSoC4/CapSense_1.c **** 		}
1469:.\Generated_Source\PSoC4/CapSense_1.c **** 	#endif /* (CapSense_1_PRS_OPTIONS != CapSense_1__PRS_NONE) */
1470:.\Generated_Source\PSoC4/CapSense_1.c **** 
1471:.\Generated_Source\PSoC4/CapSense_1.c **** #endif /* (CapSense_1_PRS_OPTIONS == CapSense_1__PRS_NONE) */
1472:.\Generated_Source\PSoC4/CapSense_1.c **** 	
1473:.\Generated_Source\PSoC4/CapSense_1.c **** 	/* Set Idac Value */
1474:.\Generated_Source\PSoC4/CapSense_1.c **** 	CyIntDisable(CapSense_1_ISR_NUMBER);
1475:.\Generated_Source\PSoC4/CapSense_1.c ****     newRegValue = CapSense_1_CSD_IDAC_REG;
1476:.\Generated_Source\PSoC4/CapSense_1.c ****  
1477:.\Generated_Source\PSoC4/CapSense_1.c **** #if (CapSense_1_IDAC_CNT == 1u)    
1478:.\Generated_Source\PSoC4/CapSense_1.c **** 	newRegValue &= ~(CapSense_1_CSD_IDAC1_DATA_MASK);
1479:.\Generated_Source\PSoC4/CapSense_1.c **** 	newRegValue |= CapSense_1_modulationIDAC[sensor];
1480:.\Generated_Source\PSoC4/CapSense_1.c **** #else
1481:.\Generated_Source\PSoC4/CapSense_1.c **** 	newRegValue &= ~(CapSense_1_CSD_IDAC1_DATA_MASK | CapSense_1_CSD_IDAC2_DATA_MASK);
1482:.\Generated_Source\PSoC4/CapSense_1.c **** 	newRegValue |= (CapSense_1_modulationIDAC[sensor] | 
1483:.\Generated_Source\PSoC4/CapSense_1.c **** 							(uint32)((uint32)CapSense_1_compensationIDAC[sensor] <<
1484:.\Generated_Source\PSoC4/CapSense_1.c **** 							CapSense_1_CSD_IDAC2_DATA_OFFSET));                               
1485:.\Generated_Source\PSoC4/CapSense_1.c **** #endif /* (CapSense_1_IDAC_CNT == 1u) */
1486:.\Generated_Source\PSoC4/CapSense_1.c **** 	
1487:.\Generated_Source\PSoC4/CapSense_1.c **** 	CapSense_1_CSD_IDAC_REG = newRegValue;
1488:.\Generated_Source\PSoC4/CapSense_1.c **** 
1489:.\Generated_Source\PSoC4/CapSense_1.c **** #if(CapSense_1_CMOD_PREGARGE_OPTION == CapSense_1__CAPPRIOBUF)
1490:.\Generated_Source\PSoC4/CapSense_1.c **** 	newRegValue = CapSense_1_CMOD_CONNECTION_REG;
ARM GAS  C:\Users\danielpi\AppData\Local\Temp\cccuTXvj.s 			page 41


1491:.\Generated_Source\PSoC4/CapSense_1.c **** 	newRegValue &= ~(CapSense_1_CSD_CMOD_CONNECTION_MASK);
1492:.\Generated_Source\PSoC4/CapSense_1.c **** 	newRegValue |= CapSense_1_CSD_CMOD_TO_AMUXBUS_A;
1493:.\Generated_Source\PSoC4/CapSense_1.c **** 	CapSense_1_CMOD_CONNECTION_REG = newRegValue;
1494:.\Generated_Source\PSoC4/CapSense_1.c **** 	
1495:.\Generated_Source\PSoC4/CapSense_1.c **** 	newRegValue = CapSense_1_CMOD_PORT_PC_REG;
1496:.\Generated_Source\PSoC4/CapSense_1.c **** 	newRegValue &= ~(CapSense_1_CSD_CMOD_PC_MASK);
1497:.\Generated_Source\PSoC4/CapSense_1.c **** 	newRegValue |= CapSense_1_CMOD_PC_HIGH_Z_MODE;
1498:.\Generated_Source\PSoC4/CapSense_1.c **** 	CapSense_1_CMOD_PORT_PC_REG = newRegValue;
1499:.\Generated_Source\PSoC4/CapSense_1.c **** #endif /* (CapSense_1_CMOD_PREGARGE_OPTION == CapSense_1__CAPPRIOBUF) */
1500:.\Generated_Source\PSoC4/CapSense_1.c **** 
1501:.\Generated_Source\PSoC4/CapSense_1.c ****     /* Disconnect Vref Buffer from AMUX */
1502:.\Generated_Source\PSoC4/CapSense_1.c **** 	newRegValue = CapSense_1_CSD_CFG_REG;
1503:.\Generated_Source\PSoC4/CapSense_1.c **** 	newRegValue &= ~(CapSense_1_PRECHARGE_CONFIG_MASK);
1504:.\Generated_Source\PSoC4/CapSense_1.c **** 	newRegValue |= CapSense_1_CTANK_PRECHARGE_CONFIG;
1505:.\Generated_Source\PSoC4/CapSense_1.c **** 	
1506:.\Generated_Source\PSoC4/CapSense_1.c **** 	CyIntEnable(CapSense_1_ISR_NUMBER);
1507:.\Generated_Source\PSoC4/CapSense_1.c **** 	
1508:.\Generated_Source\PSoC4/CapSense_1.c ****     /* Enable Sensor */
1509:.\Generated_Source\PSoC4/CapSense_1.c ****     CapSense_1_EnableScanSlot(sensor);
1510:.\Generated_Source\PSoC4/CapSense_1.c ****     
1511:.\Generated_Source\PSoC4/CapSense_1.c **** 	interruptState = CyEnterCriticalSection();
1512:.\Generated_Source\PSoC4/CapSense_1.c **** 	CapSense_1_CSD_CFG_REG = newRegValue;
1513:.\Generated_Source\PSoC4/CapSense_1.c **** 	
1514:.\Generated_Source\PSoC4/CapSense_1.c **** 	/* `#START CapSense_1_PreSettlingDelay_Debug` */
1515:.\Generated_Source\PSoC4/CapSense_1.c **** 
1516:.\Generated_Source\PSoC4/CapSense_1.c **** 	/* `#END` */
1517:.\Generated_Source\PSoC4/CapSense_1.c **** 	
1518:.\Generated_Source\PSoC4/CapSense_1.c **** 	CyDelayCycles(CapSense_1_GLITCH_ELIMINATION_CYCLES);
1519:.\Generated_Source\PSoC4/CapSense_1.c **** 	
1520:.\Generated_Source\PSoC4/CapSense_1.c **** 	/* `#START CapSense_1_PreScan_Debug` */
1521:.\Generated_Source\PSoC4/CapSense_1.c **** 
1522:.\Generated_Source\PSoC4/CapSense_1.c **** 	/* `#END` */
1523:.\Generated_Source\PSoC4/CapSense_1.c **** 	
1524:.\Generated_Source\PSoC4/CapSense_1.c ****     CapSense_1_CSD_CNT_REG = counterResolution;
1525:.\Generated_Source\PSoC4/CapSense_1.c ****     CyExitCriticalSection(interruptState);
1526:.\Generated_Source\PSoC4/CapSense_1.c **** }
1527:.\Generated_Source\PSoC4/CapSense_1.c **** 
1528:.\Generated_Source\PSoC4/CapSense_1.c **** 
1529:.\Generated_Source\PSoC4/CapSense_1.c **** /*******************************************************************************
1530:.\Generated_Source\PSoC4/CapSense_1.c **** * Function Name: CapSense_1_PostScan
1531:.\Generated_Source\PSoC4/CapSense_1.c **** ********************************************************************************
1532:.\Generated_Source\PSoC4/CapSense_1.c **** *
1533:.\Generated_Source\PSoC4/CapSense_1.c **** * Summary:
1534:.\Generated_Source\PSoC4/CapSense_1.c **** *  Stores the results of measurement in the CapSense_1_sensorRaw[] array,
1535:.\Generated_Source\PSoC4/CapSense_1.c **** *  sets the scanning sensor in the non-sampling state, turns off Idac(Current Source IDAC),
1536:.\Generated_Source\PSoC4/CapSense_1.c **** *  disconnects the IDAC(Sink mode), and applies Vref on AMUX.
1537:.\Generated_Source\PSoC4/CapSense_1.c **** *
1538:.\Generated_Source\PSoC4/CapSense_1.c **** * Parameters:
1539:.\Generated_Source\PSoC4/CapSense_1.c **** *  sensor:  Sensor number.
1540:.\Generated_Source\PSoC4/CapSense_1.c **** *
1541:.\Generated_Source\PSoC4/CapSense_1.c **** * Return:
1542:.\Generated_Source\PSoC4/CapSense_1.c **** *  None
1543:.\Generated_Source\PSoC4/CapSense_1.c **** *
1544:.\Generated_Source\PSoC4/CapSense_1.c **** * Global Variables:
1545:.\Generated_Source\PSoC4/CapSense_1.c **** *  CapSense_1_sensorRaw[] - used to store sensors raw data.
1546:.\Generated_Source\PSoC4/CapSense_1.c **** *
1547:.\Generated_Source\PSoC4/CapSense_1.c **** * Side Effects: 
ARM GAS  C:\Users\danielpi\AppData\Local\Temp\cccuTXvj.s 			page 42


1548:.\Generated_Source\PSoC4/CapSense_1.c **** *  None
1549:.\Generated_Source\PSoC4/CapSense_1.c **** *
1550:.\Generated_Source\PSoC4/CapSense_1.c **** *******************************************************************************/
1551:.\Generated_Source\PSoC4/CapSense_1.c **** void CapSense_1_PostScan(uint32 sensor)
1552:.\Generated_Source\PSoC4/CapSense_1.c **** {	
1553:.\Generated_Source\PSoC4/CapSense_1.c **** 	uint32 newRegValue;
1554:.\Generated_Source\PSoC4/CapSense_1.c **** #if ((CapSense_1_TUNING_METHOD == CapSense_1__TUNING_AUTO) &&\
1555:.\Generated_Source\PSoC4/CapSense_1.c **** 	 (0 != CapSense_1_IS_OVERSAMPLING_EN))
1556:.\Generated_Source\PSoC4/CapSense_1.c ****     uint32 oversamplingFactor;
1557:.\Generated_Source\PSoC4/CapSense_1.c ****     uint32 widget;
1558:.\Generated_Source\PSoC4/CapSense_1.c **** #endif /* ((CapSense_1_TUNING_METHOD == CapSense_1__TUNING_AUTO) &&\
1559:.\Generated_Source\PSoC4/CapSense_1.c **** 		   (0 != CapSense_1_IS_OVERSAMPLING_EN)) */	
1560:.\Generated_Source\PSoC4/CapSense_1.c **** 
1561:.\Generated_Source\PSoC4/CapSense_1.c **** 	/* `#START CapSense_1_PostScan_Debug` */
1562:.\Generated_Source\PSoC4/CapSense_1.c **** 
1563:.\Generated_Source\PSoC4/CapSense_1.c **** 	/* `#END` */
1564:.\Generated_Source\PSoC4/CapSense_1.c **** 
1565:.\Generated_Source\PSoC4/CapSense_1.c **** 
1566:.\Generated_Source\PSoC4/CapSense_1.c ****     /* Read SlotResult from Raw Counter */
1567:.\Generated_Source\PSoC4/CapSense_1.c ****     CapSense_1_sensorRaw[sensor]  = (uint16)CapSense_1_CSD_CNT_REG;
1568:.\Generated_Source\PSoC4/CapSense_1.c **** 	
1569:.\Generated_Source\PSoC4/CapSense_1.c **** #if ((CapSense_1_TUNING_METHOD == CapSense_1__TUNING_AUTO) &&\
1570:.\Generated_Source\PSoC4/CapSense_1.c **** 	 (0 != CapSense_1_IS_OVERSAMPLING_EN))
1571:.\Generated_Source\PSoC4/CapSense_1.c **** 	widget = CapSense_1_widgetNumber[sensor];
1572:.\Generated_Source\PSoC4/CapSense_1.c **** 	if(CapSense_1_widgetResolution[widget] < CapSense_1_RESOLUTION_16_BITS)
1573:.\Generated_Source\PSoC4/CapSense_1.c **** 	{
1574:.\Generated_Source\PSoC4/CapSense_1.c **** 		oversamplingFactor = CapSense_1_GetBitValue(scanSpeedTbl, sensor);
1575:.\Generated_Source\PSoC4/CapSense_1.c **** 		CapSense_1_sensorRaw[sensor] >>= oversamplingFactor;
1576:.\Generated_Source\PSoC4/CapSense_1.c **** 	}
1577:.\Generated_Source\PSoC4/CapSense_1.c **** #endif /* ((CapSense_1_TUNING_METHOD == CapSense_1__TUNING_AUTO) &&\
1578:.\Generated_Source\PSoC4/CapSense_1.c **** 		   (0 != CapSense_1_IS_OVERSAMPLING_EN)) */
1579:.\Generated_Source\PSoC4/CapSense_1.c **** 
1580:.\Generated_Source\PSoC4/CapSense_1.c ****     /* Disable Sensor */
1581:.\Generated_Source\PSoC4/CapSense_1.c ****     CapSense_1_DisableScanSlot(sensor);
1582:.\Generated_Source\PSoC4/CapSense_1.c **** 
1583:.\Generated_Source\PSoC4/CapSense_1.c **** 	CyIntDisable(CapSense_1_ISR_NUMBER);
1584:.\Generated_Source\PSoC4/CapSense_1.c **** 	
1585:.\Generated_Source\PSoC4/CapSense_1.c **** #if(CapSense_1_CMOD_PREGARGE_OPTION == CapSense_1__CAPPRIOBUF)
1586:.\Generated_Source\PSoC4/CapSense_1.c **** 	newRegValue = CapSense_1_CMOD_CONNECTION_REG;
1587:.\Generated_Source\PSoC4/CapSense_1.c **** 	newRegValue &= ~(CapSense_1_CSD_CMOD_CONNECTION_MASK);
1588:.\Generated_Source\PSoC4/CapSense_1.c **** 	newRegValue |= CapSense_1_CSD_CMOD_TO_AMUXBUS_B;
1589:.\Generated_Source\PSoC4/CapSense_1.c **** 	CapSense_1_CMOD_CONNECTION_REG = newRegValue;
1590:.\Generated_Source\PSoC4/CapSense_1.c **** 	
1591:.\Generated_Source\PSoC4/CapSense_1.c **** 	newRegValue = CapSense_1_CMOD_PORT_PC_REG;
1592:.\Generated_Source\PSoC4/CapSense_1.c **** 	newRegValue &= ~(CapSense_1_CSD_CMOD_PC_MASK);
1593:.\Generated_Source\PSoC4/CapSense_1.c **** 	newRegValue |= CapSense_1_CMOD_PC_STRONG_MODE;
1594:.\Generated_Source\PSoC4/CapSense_1.c **** 	CapSense_1_CMOD_PORT_PC_REG = newRegValue;
1595:.\Generated_Source\PSoC4/CapSense_1.c **** 		
1596:.\Generated_Source\PSoC4/CapSense_1.c **** 	newRegValue = CapSense_1_CMOD_PORT_DR_REG;
1597:.\Generated_Source\PSoC4/CapSense_1.c ****     newRegValue &= ~(CapSense_1_CMOD_DR_MASK);
1598:.\Generated_Source\PSoC4/CapSense_1.c **** 	newRegValue |= CapSense_1_CMOD_DR_CONFIG;
1599:.\Generated_Source\PSoC4/CapSense_1.c ****     CapSense_1_CMOD_PORT_DR_REG = newRegValue;    
1600:.\Generated_Source\PSoC4/CapSense_1.c **** #endif /* (CapSense_1_CMOD_PREGARGE_OPTION == CapSense_1__CAPPRIOBUF) */
1601:.\Generated_Source\PSoC4/CapSense_1.c **** 	
1602:.\Generated_Source\PSoC4/CapSense_1.c **** 	/* Connect Vref Buffer to AMUX bus  */
1603:.\Generated_Source\PSoC4/CapSense_1.c **** 	newRegValue = CapSense_1_CSD_CFG_REG;
1604:.\Generated_Source\PSoC4/CapSense_1.c **** 	newRegValue &= ~(CapSense_1_PRECHARGE_CONFIG_MASK);
ARM GAS  C:\Users\danielpi\AppData\Local\Temp\cccuTXvj.s 			page 43


1605:.\Generated_Source\PSoC4/CapSense_1.c **** 	newRegValue |= CapSense_1_CMOD_PRECHARGE_CONFIG;
1606:.\Generated_Source\PSoC4/CapSense_1.c **** 	CapSense_1_CSD_CFG_REG = newRegValue;
1607:.\Generated_Source\PSoC4/CapSense_1.c **** 
1608:.\Generated_Source\PSoC4/CapSense_1.c **** 	/* Set Idac Value = 0 */
1609:.\Generated_Source\PSoC4/CapSense_1.c **** #if (CapSense_1_IDAC_CNT == 1u)   
1610:.\Generated_Source\PSoC4/CapSense_1.c **** 	CapSense_1_CSD_IDAC_REG &= ~(CapSense_1_CSD_IDAC1_DATA_MASK);
1611:.\Generated_Source\PSoC4/CapSense_1.c **** #else
1612:.\Generated_Source\PSoC4/CapSense_1.c **** 	CapSense_1_CSD_IDAC_REG &= ~(CapSense_1_CSD_IDAC1_DATA_MASK | CapSense_1_CSD_IDAC2_DATA_MASK);    
1613:.\Generated_Source\PSoC4/CapSense_1.c **** #endif /* (CapSense_1_IDAC_CNT == 1u) */
1614:.\Generated_Source\PSoC4/CapSense_1.c **** 
1615:.\Generated_Source\PSoC4/CapSense_1.c **** 	CyIntEnable(CapSense_1_ISR_NUMBER);
1616:.\Generated_Source\PSoC4/CapSense_1.c **** }
1617:.\Generated_Source\PSoC4/CapSense_1.c **** 
1618:.\Generated_Source\PSoC4/CapSense_1.c **** 
1619:.\Generated_Source\PSoC4/CapSense_1.c **** /*******************************************************************************
1620:.\Generated_Source\PSoC4/CapSense_1.c **** * Function Name: CapSense_1_EnableShieldElectrode
1621:.\Generated_Source\PSoC4/CapSense_1.c **** ********************************************************************************
1622:.\Generated_Source\PSoC4/CapSense_1.c **** *
1623:.\Generated_Source\PSoC4/CapSense_1.c **** * Summary:
1624:.\Generated_Source\PSoC4/CapSense_1.c **** *  This API enables or disables the shield electrode on a specified port pin.
1625:.\Generated_Source\PSoC4/CapSense_1.c **** *
1626:.\Generated_Source\PSoC4/CapSense_1.c **** * Parameters:
1627:.\Generated_Source\PSoC4/CapSense_1.c **** *  portNumber: contains the shield electrode port number (0, 1, 2).
1628:.\Generated_Source\PSoC4/CapSense_1.c **** *  pinNumber: contains the shield electrode pin number (0, 1, 2, ... , 7).
1629:.\Generated_Source\PSoC4/CapSense_1.c **** *
1630:.\Generated_Source\PSoC4/CapSense_1.c **** * Return:
1631:.\Generated_Source\PSoC4/CapSense_1.c **** *  None
1632:.\Generated_Source\PSoC4/CapSense_1.c **** *
1633:.\Generated_Source\PSoC4/CapSense_1.c **** * Global Variables:
1634:.\Generated_Source\PSoC4/CapSense_1.c **** *  CapSense_1_prtCfgTbl[] - Contains pointers to the port config registers for each port.
1635:.\Generated_Source\PSoC4/CapSense_1.c **** *  CapSense_1_prtSelTbl[] - Contains pointers to the HSIOM registers for each port.
1636:.\Generated_Source\PSoC4/CapSense_1.c **** *
1637:.\Generated_Source\PSoC4/CapSense_1.c **** * Side Effects: 
1638:.\Generated_Source\PSoC4/CapSense_1.c **** *  None
1639:.\Generated_Source\PSoC4/CapSense_1.c **** *
1640:.\Generated_Source\PSoC4/CapSense_1.c **** *******************************************************************************/
1641:.\Generated_Source\PSoC4/CapSense_1.c **** void CapSense_1_EnableShieldElectrode(uint32 pinNumber, uint32 portNumber)
1642:.\Generated_Source\PSoC4/CapSense_1.c **** {
 766              		.loc 1 1642 0
 767              		.cfi_startproc
 768              	.LVL100:
 769 0000 30B5     		push	{r4, r5, lr}
 770              		.cfi_def_cfa_offset 12
 771              		.cfi_offset 4, -12
 772              		.cfi_offset 5, -8
 773              		.cfi_offset 14, -4
1643:.\Generated_Source\PSoC4/CapSense_1.c **** 	uint32 newRegValue;
1644:.\Generated_Source\PSoC4/CapSense_1.c **** 	
1645:.\Generated_Source\PSoC4/CapSense_1.c **** 	*CapSense_1_prtCfgTbl[portNumber] &= ~(CapSense_1_CSD_PIN_MODE_MASK << (pinNumber * CapSense_1_PC_
 774              		.loc 1 1645 0
 775 0002 8900     		lsl	r1, r1, #2
 776              	.LVL101:
 777 0004 0A4B     		ldr	r3, .L50
 778 0006 5918     		add	r1, r3, r1
 779 0008 8B6A     		ldr	r3, [r1, #40]
 780 000a 1A68     		ldr	r2, [r3]
 781 000c 4400     		lsl	r4, r0, #1
ARM GAS  C:\Users\danielpi\AppData\Local\Temp\cccuTXvj.s 			page 44


 782 000e 2418     		add	r4, r4, r0
 783 0010 0725     		mov	r5, #7
 784 0012 A540     		lsl	r5, r5, r4
 785 0014 AA43     		bic	r2, r5
 786 0016 1A60     		str	r2, [r3]
1646:.\Generated_Source\PSoC4/CapSense_1.c **** 	newRegValue = *CapSense_1_prtSelTbl[portNumber];
 787              		.loc 1 1646 0
 788 0018 0B69     		ldr	r3, [r1, #16]
 789 001a 1A68     		ldr	r2, [r3]
 790              	.LVL102:
1647:.\Generated_Source\PSoC4/CapSense_1.c ****     newRegValue &= ~(CapSense_1_CSD_HSIOM_MASK << (pinNumber * CapSense_1_HSIOM_PIN_CFG_SIZE));
 791              		.loc 1 1647 0
 792 001c 8000     		lsl	r0, r0, #2
 793              	.LVL103:
 794 001e 0F21     		mov	r1, #15
 795 0020 8140     		lsl	r1, r1, r0
 796 0022 8A43     		bic	r2, r1
 797              	.LVL104:
1648:.\Generated_Source\PSoC4/CapSense_1.c ****     newRegValue |= (CapSense_1_CSD_SHIELD_PORT_MODE << (pinNumber * CapSense_1_HSIOM_PIN_CFG_SIZE))
 798              		.loc 1 1648 0
 799 0024 0521     		mov	r1, #5
 800 0026 8140     		lsl	r1, r1, r0
 801 0028 081C     		mov	r0, r1
 802 002a 1043     		orr	r0, r2
 803              	.LVL105:
1649:.\Generated_Source\PSoC4/CapSense_1.c ****     *CapSense_1_prtSelTbl[portNumber] = newRegValue;
 804              		.loc 1 1649 0
 805 002c 1860     		str	r0, [r3]
1650:.\Generated_Source\PSoC4/CapSense_1.c **** }
 806              		.loc 1 1650 0
 807              		@ sp needed
 808 002e 30BD     		pop	{r4, r5, pc}
 809              	.L51:
 810              		.align	2
 811              	.L50:
 812 0030 00000000 		.word	.LANCHOR2
 813              		.cfi_endproc
 814              	.LFE57:
 815              		.size	CapSense_1_EnableShieldElectrode, .-CapSense_1_EnableShieldElectrode
 816              		.section	.text.CapSense_1_SetShieldDelay,"ax",%progbits
 817              		.align	2
 818              		.global	CapSense_1_SetShieldDelay
 819              		.code	16
 820              		.thumb_func
 821              		.type	CapSense_1_SetShieldDelay, %function
 822              	CapSense_1_SetShieldDelay:
 823              	.LFB58:
1651:.\Generated_Source\PSoC4/CapSense_1.c **** 
1652:.\Generated_Source\PSoC4/CapSense_1.c **** 
1653:.\Generated_Source\PSoC4/CapSense_1.c **** /*******************************************************************************
1654:.\Generated_Source\PSoC4/CapSense_1.c **** * Function Name: CapSense_1_SetShieldDelay
1655:.\Generated_Source\PSoC4/CapSense_1.c **** ********************************************************************************
1656:.\Generated_Source\PSoC4/CapSense_1.c **** *
1657:.\Generated_Source\PSoC4/CapSense_1.c **** * Summary:
1658:.\Generated_Source\PSoC4/CapSense_1.c **** *  This API sets a shield delay.
1659:.\Generated_Source\PSoC4/CapSense_1.c **** *
1660:.\Generated_Source\PSoC4/CapSense_1.c **** * Parameters:
ARM GAS  C:\Users\danielpi\AppData\Local\Temp\cccuTXvj.s 			page 45


1661:.\Generated_Source\PSoC4/CapSense_1.c **** *  delay:  shield delay value:
1662:.\Generated_Source\PSoC4/CapSense_1.c **** *                               0 - no delay
1663:.\Generated_Source\PSoC4/CapSense_1.c **** *                               1 - 1 cycle delay
1664:.\Generated_Source\PSoC4/CapSense_1.c **** *                               2 - 2 cycles delay
1665:.\Generated_Source\PSoC4/CapSense_1.c **** *
1666:.\Generated_Source\PSoC4/CapSense_1.c **** * Return:
1667:.\Generated_Source\PSoC4/CapSense_1.c **** *  None
1668:.\Generated_Source\PSoC4/CapSense_1.c **** *
1669:.\Generated_Source\PSoC4/CapSense_1.c **** * Global Variables:
1670:.\Generated_Source\PSoC4/CapSense_1.c **** *  None
1671:.\Generated_Source\PSoC4/CapSense_1.c **** *
1672:.\Generated_Source\PSoC4/CapSense_1.c **** * Side Effects: 
1673:.\Generated_Source\PSoC4/CapSense_1.c **** *  None
1674:.\Generated_Source\PSoC4/CapSense_1.c **** *
1675:.\Generated_Source\PSoC4/CapSense_1.c **** *******************************************************************************/
1676:.\Generated_Source\PSoC4/CapSense_1.c **** void CapSense_1_SetShieldDelay(uint32 delay)
1677:.\Generated_Source\PSoC4/CapSense_1.c **** {
 824              		.loc 1 1677 0
 825              		.cfi_startproc
 826              	.LVL106:
1678:.\Generated_Source\PSoC4/CapSense_1.c ****     uint32 newRegValue;
1679:.\Generated_Source\PSoC4/CapSense_1.c ****     
1680:.\Generated_Source\PSoC4/CapSense_1.c ****     delay &= 0x03u;
 827              		.loc 1 1680 0
 828 0000 0323     		mov	r3, #3
 829 0002 1840     		and	r0, r3
 830              	.LVL107:
1681:.\Generated_Source\PSoC4/CapSense_1.c ****     
1682:.\Generated_Source\PSoC4/CapSense_1.c ****     newRegValue = CapSense_1_CSD_CFG_REG;
 831              		.loc 1 1682 0
 832 0004 024B     		ldr	r3, .L53
 833 0006 1A68     		ldr	r2, [r3]
 834              	.LVL108:
1683:.\Generated_Source\PSoC4/CapSense_1.c ****     newRegValue &= (uint32)(~(uint32)CapSense_1_SHIELD_DELAY);    
1684:.\Generated_Source\PSoC4/CapSense_1.c ****     newRegValue |= (delay << CapSense_1_CSD_CFG_SHIELD_DELAY_POS);    
 835              		.loc 1 1684 0
 836 0008 4002     		lsl	r0, r0, #9
 837              	.LVL109:
 838 000a 1043     		orr	r0, r2
 839              	.LVL110:
1685:.\Generated_Source\PSoC4/CapSense_1.c ****     CapSense_1_CSD_CFG_REG = newRegValue;
 840              		.loc 1 1685 0
 841 000c 1860     		str	r0, [r3]
1686:.\Generated_Source\PSoC4/CapSense_1.c **** }
 842              		.loc 1 1686 0
 843              		@ sp needed
 844 000e 7047     		bx	lr
 845              	.L54:
 846              		.align	2
 847              	.L53:
 848 0010 04002840 		.word	1076363268
 849              		.cfi_endproc
 850              	.LFE58:
 851              		.size	CapSense_1_SetShieldDelay, .-CapSense_1_SetShieldDelay
 852              		.section	.text.CapSense_1_Init,"ax",%progbits
 853              		.align	2
 854              		.global	CapSense_1_Init
ARM GAS  C:\Users\danielpi\AppData\Local\Temp\cccuTXvj.s 			page 46


 855              		.code	16
 856              		.thumb_func
 857              		.type	CapSense_1_Init, %function
 858              	CapSense_1_Init:
 859              	.LFB35:
 195:.\Generated_Source\PSoC4/CapSense_1.c **** {   
 860              		.loc 1 195 0
 861              		.cfi_startproc
 862 0000 08B5     		push	{r3, lr}
 863              		.cfi_def_cfa_offset 8
 864              		.cfi_offset 3, -8
 865              		.cfi_offset 14, -4
 866              	.LVL111:
 226:.\Generated_Source\PSoC4/CapSense_1.c **** 	for(curSensor = 0u; curSensor < CapSense_1_TOTAL_SENSOR_COUNT; curSensor++)
 867              		.loc 1 226 0
 868 0002 0023     		mov	r3, #0
 228:.\Generated_Source\PSoC4/CapSense_1.c **** 		CapSense_1_unscannedSnsDriveMode[curSensor] = CapSense_1_CONNECT_INACTIVE_SNS;
 869              		.loc 1 228 0
 870 0004 0749     		ldr	r1, .L58
 871 0006 0022     		mov	r2, #0
 226:.\Generated_Source\PSoC4/CapSense_1.c **** 	for(curSensor = 0u; curSensor < CapSense_1_TOTAL_SENSOR_COUNT; curSensor++)
 872              		.loc 1 226 0
 873 0008 01E0     		b	.L56
 874              	.LVL112:
 875              	.L57:
 228:.\Generated_Source\PSoC4/CapSense_1.c **** 		CapSense_1_unscannedSnsDriveMode[curSensor] = CapSense_1_CONNECT_INACTIVE_SNS;
 876              		.loc 1 228 0 discriminator 2
 877 000a CA54     		strb	r2, [r1, r3]
 226:.\Generated_Source\PSoC4/CapSense_1.c **** 	for(curSensor = 0u; curSensor < CapSense_1_TOTAL_SENSOR_COUNT; curSensor++)
 878              		.loc 1 226 0 discriminator 2
 879 000c 0133     		add	r3, r3, #1
 880              	.LVL113:
 881              	.L56:
 226:.\Generated_Source\PSoC4/CapSense_1.c **** 	for(curSensor = 0u; curSensor < CapSense_1_TOTAL_SENSOR_COUNT; curSensor++)
 882              		.loc 1 226 0 is_stmt 0 discriminator 1
 883 000e 042B     		cmp	r3, #4
 884 0010 FBD9     		bls	.L57
 231:.\Generated_Source\PSoC4/CapSense_1.c **** 	CapSense_1_CsdHwBlockInit();
 885              		.loc 1 231 0 is_stmt 1
 886 0012 FFF7FEFF 		bl	CapSense_1_CsdHwBlockInit
 887              	.LVL114:
 232:.\Generated_Source\PSoC4/CapSense_1.c ****     CapSense_1_SetShieldDelay(CapSense_1_SHIELD_DELAY );
 888              		.loc 1 232 0
 889 0016 0020     		mov	r0, #0
 890 0018 FFF7FEFF 		bl	CapSense_1_SetShieldDelay
 891              	.LVL115:
 235:.\Generated_Source\PSoC4/CapSense_1.c ****     CapSense_1_ClearSensors();
 892              		.loc 1 235 0
 893 001c FFF7FEFF 		bl	CapSense_1_ClearSensors
 894              	.LVL116:
 236:.\Generated_Source\PSoC4/CapSense_1.c **** }
 895              		.loc 1 236 0
 896              		@ sp needed
 897 0020 08BD     		pop	{r3, pc}
 898              	.L59:
 899 0022 C046     		.align	2
 900              	.L58:
ARM GAS  C:\Users\danielpi\AppData\Local\Temp\cccuTXvj.s 			page 47


 901 0024 00000000 		.word	CapSense_1_unscannedSnsDriveMode
 902              		.cfi_endproc
 903              	.LFE35:
 904              		.size	CapSense_1_Init, .-CapSense_1_Init
 905              		.section	.text.CapSense_1_Start,"ax",%progbits
 906              		.align	2
 907              		.global	CapSense_1_Start
 908              		.code	16
 909              		.thumb_func
 910              		.type	CapSense_1_Start, %function
 911              	CapSense_1_Start:
 912              	.LFB38:
 404:.\Generated_Source\PSoC4/CapSense_1.c **** {
 913              		.loc 1 404 0
 914              		.cfi_startproc
 915 0000 08B5     		push	{r3, lr}
 916              		.cfi_def_cfa_offset 8
 917              		.cfi_offset 3, -8
 918              		.cfi_offset 14, -4
 414:.\Generated_Source\PSoC4/CapSense_1.c ****     if (CapSense_1_initVar == 0u)
 919              		.loc 1 414 0
 920 0002 0B4B     		ldr	r3, .L62
 921 0004 9B7B     		ldrb	r3, [r3, #14]
 922 0006 002B     		cmp	r3, #0
 923 0008 04D1     		bne	.L61
 416:.\Generated_Source\PSoC4/CapSense_1.c ****         CapSense_1_Init();
 924              		.loc 1 416 0
 925 000a FFF7FEFF 		bl	CapSense_1_Init
 926              	.LVL117:
 417:.\Generated_Source\PSoC4/CapSense_1.c ****         CapSense_1_initVar = 1u;
 927              		.loc 1 417 0
 928 000e 0122     		mov	r2, #1
 929 0010 074B     		ldr	r3, .L62
 930 0012 9A73     		strb	r2, [r3, #14]
 931              	.L61:
 419:.\Generated_Source\PSoC4/CapSense_1.c ****     CapSense_1_Enable();
 932              		.loc 1 419 0
 933 0014 FFF7FEFF 		bl	CapSense_1_Enable
 934              	.LVL118:
 424:.\Generated_Source\PSoC4/CapSense_1.c **** 	        CapSense_1_AutoTune();
 935              		.loc 1 424 0
 936 0018 FFF7FEFF 		bl	CapSense_1_AutoTune
 937              	.LVL119:
 425:.\Generated_Source\PSoC4/CapSense_1.c **** 	        CapSense_1_lowLevelTuningDone = 1u;
 938              		.loc 1 425 0
 939 001c 0122     		mov	r2, #1
 940 001e 044B     		ldr	r3, .L62
 941 0020 DA73     		strb	r2, [r3, #15]
 468:.\Generated_Source\PSoC4/CapSense_1.c **** 	CapSense_1_CSD_CFG_REG |= CapSense_1_CSD_CFG_SENSE_INSEL;
 942              		.loc 1 468 0
 943 0022 044B     		ldr	r3, .L62+4
 944 0024 1968     		ldr	r1, [r3]
 945 0026 8022     		mov	r2, #128
 946 0028 D203     		lsl	r2, r2, #15
 947 002a 0A43     		orr	r2, r1
 948 002c 1A60     		str	r2, [r3]
 469:.\Generated_Source\PSoC4/CapSense_1.c **** }
ARM GAS  C:\Users\danielpi\AppData\Local\Temp\cccuTXvj.s 			page 48


 949              		.loc 1 469 0
 950              		@ sp needed
 951 002e 08BD     		pop	{r3, pc}
 952              	.L63:
 953              		.align	2
 954              	.L62:
 955 0030 00000000 		.word	.LANCHOR0
 956 0034 04002840 		.word	1076363268
 957              		.cfi_endproc
 958              	.LFE38:
 959              		.size	CapSense_1_Start, .-CapSense_1_Start
 960              		.section	.text.CapSense_1_ReadCurrentScanningSensor,"ax",%progbits
 961              		.align	2
 962              		.global	CapSense_1_ReadCurrentScanningSensor
 963              		.code	16
 964              		.thumb_func
 965              		.type	CapSense_1_ReadCurrentScanningSensor, %function
 966              	CapSense_1_ReadCurrentScanningSensor:
 967              	.LFB59:
1687:.\Generated_Source\PSoC4/CapSense_1.c **** 
1688:.\Generated_Source\PSoC4/CapSense_1.c **** 
1689:.\Generated_Source\PSoC4/CapSense_1.c **** /*******************************************************************************
1690:.\Generated_Source\PSoC4/CapSense_1.c **** * Function Name: CapSense_1_ReadCurrentScanningSensor
1691:.\Generated_Source\PSoC4/CapSense_1.c **** ********************************************************************************
1692:.\Generated_Source\PSoC4/CapSense_1.c **** *
1693:.\Generated_Source\PSoC4/CapSense_1.c **** * Summary:
1694:.\Generated_Source\PSoC4/CapSense_1.c **** *  This API returns scanning sensor number when sensor scan is in progress. 
1695:.\Generated_Source\PSoC4/CapSense_1.c **** *  When sensor scan is completed the API returns 
1696:.\Generated_Source\PSoC4/CapSense_1.c **** *  $INSTANCE_NAME`_NOT_SENSOR (0xFFFFFFFF) (when no sensor is scanned).
1697:.\Generated_Source\PSoC4/CapSense_1.c **** *
1698:.\Generated_Source\PSoC4/CapSense_1.c **** * Parameters:
1699:.\Generated_Source\PSoC4/CapSense_1.c **** *	None.
1700:.\Generated_Source\PSoC4/CapSense_1.c **** *
1701:.\Generated_Source\PSoC4/CapSense_1.c **** * Return:
1702:.\Generated_Source\PSoC4/CapSense_1.c **** *  Returns Sensor number if sensor is being scanned and 
1703:.\Generated_Source\PSoC4/CapSense_1.c **** *  $INSTANCE_NAME`_NOT_SENSOR (0xFFFFFFFF) if scanning is complete.
1704:.\Generated_Source\PSoC4/CapSense_1.c **** *
1705:.\Generated_Source\PSoC4/CapSense_1.c **** * Global Variables:
1706:.\Generated_Source\PSoC4/CapSense_1.c **** *  CapSense_1_sensorIndex - the sensor number is being scanned.
1707:.\Generated_Source\PSoC4/CapSense_1.c **** *
1708:.\Generated_Source\PSoC4/CapSense_1.c **** * Side Effects: 
1709:.\Generated_Source\PSoC4/CapSense_1.c **** *  None
1710:.\Generated_Source\PSoC4/CapSense_1.c **** *
1711:.\Generated_Source\PSoC4/CapSense_1.c **** *******************************************************************************/
1712:.\Generated_Source\PSoC4/CapSense_1.c **** uint32 CapSense_1_ReadCurrentScanningSensor(void)
1713:.\Generated_Source\PSoC4/CapSense_1.c **** {
 968              		.loc 1 1713 0
 969              		.cfi_startproc
1714:.\Generated_Source\PSoC4/CapSense_1.c ****     return ((uint32)(( 0u != (CapSense_1_csdStatusVar & CapSense_1_SW_STS_BUSY)) ? 
 970              		.loc 1 1714 0
 971 0000 054B     		ldr	r3, .L67
 972 0002 1B78     		ldrb	r3, [r3]
 973 0004 DA07     		lsl	r2, r3, #31
 974 0006 03D5     		bpl	.L66
 975              		.loc 1 1714 0 is_stmt 0 discriminator 1
 976 0008 034B     		ldr	r3, .L67
 977 000a 187C     		ldrb	r0, [r3, #16]
ARM GAS  C:\Users\danielpi\AppData\Local\Temp\cccuTXvj.s 			page 49


 978 000c C0B2     		uxtb	r0, r0
 979 000e 01E0     		b	.L65
 980              	.L66:
 981              		.loc 1 1714 0
 982 0010 0120     		mov	r0, #1
 983 0012 4042     		neg	r0, r0
 984              	.L65:
1715:.\Generated_Source\PSoC4/CapSense_1.c ****                      CapSense_1_sensorIndex : CapSense_1_NOT_SENSOR));
1716:.\Generated_Source\PSoC4/CapSense_1.c **** }
 985              		.loc 1 1716 0 is_stmt 1 discriminator 3
 986              		@ sp needed
 987 0014 7047     		bx	lr
 988              	.L68:
 989 0016 C046     		.align	2
 990              	.L67:
 991 0018 00000000 		.word	.LANCHOR0
 992              		.cfi_endproc
 993              	.LFE59:
 994              		.size	CapSense_1_ReadCurrentScanningSensor, .-CapSense_1_ReadCurrentScanningSensor
 995              		.section	.text.CapSense_1_GetBitValue,"ax",%progbits
 996              		.align	2
 997              		.global	CapSense_1_GetBitValue
 998              		.code	16
 999              		.thumb_func
 1000              		.type	CapSense_1_GetBitValue, %function
 1001              	CapSense_1_GetBitValue:
 1002              	.LFB60:
1717:.\Generated_Source\PSoC4/CapSense_1.c **** 
1718:.\Generated_Source\PSoC4/CapSense_1.c **** 
1719:.\Generated_Source\PSoC4/CapSense_1.c **** /*******************************************************************************
1720:.\Generated_Source\PSoC4/CapSense_1.c **** * Function Name: CapSense_1_GetBitValue
1721:.\Generated_Source\PSoC4/CapSense_1.c **** ********************************************************************************
1722:.\Generated_Source\PSoC4/CapSense_1.c **** *
1723:.\Generated_Source\PSoC4/CapSense_1.c **** * Summary:
1724:.\Generated_Source\PSoC4/CapSense_1.c **** *  The API returns a bit status of the bit in the table array which contains the masks.
1725:.\Generated_Source\PSoC4/CapSense_1.c **** * 
1726:.\Generated_Source\PSoC4/CapSense_1.c **** * Parameters:
1727:.\Generated_Source\PSoC4/CapSense_1.c **** *  table[] - array with bit masks.
1728:.\Generated_Source\PSoC4/CapSense_1.c **** *  position - position of bit in the table[] array.
1729:.\Generated_Source\PSoC4/CapSense_1.c **** *
1730:.\Generated_Source\PSoC4/CapSense_1.c **** * Return:
1731:.\Generated_Source\PSoC4/CapSense_1.c **** *  0 - bit is not set; 1 - bit is set.
1732:.\Generated_Source\PSoC4/CapSense_1.c **** *
1733:.\Generated_Source\PSoC4/CapSense_1.c **** * Global Variables:
1734:.\Generated_Source\PSoC4/CapSense_1.c **** *  None
1735:.\Generated_Source\PSoC4/CapSense_1.c **** *
1736:.\Generated_Source\PSoC4/CapSense_1.c **** * Side Effects:
1737:.\Generated_Source\PSoC4/CapSense_1.c **** *  None
1738:.\Generated_Source\PSoC4/CapSense_1.c **** *
1739:.\Generated_Source\PSoC4/CapSense_1.c **** *******************************************************************************/
1740:.\Generated_Source\PSoC4/CapSense_1.c **** uint32 CapSense_1_GetBitValue(const uint8 table[], uint32 position)
1741:.\Generated_Source\PSoC4/CapSense_1.c **** {
 1003              		.loc 1 1741 0
 1004              		.cfi_startproc
 1005              	.LVL120:
1742:.\Generated_Source\PSoC4/CapSense_1.c ****     uint32 offset;
1743:.\Generated_Source\PSoC4/CapSense_1.c **** 	uint8 enMask;
ARM GAS  C:\Users\danielpi\AppData\Local\Temp\cccuTXvj.s 			page 50


1744:.\Generated_Source\PSoC4/CapSense_1.c **** 	
1745:.\Generated_Source\PSoC4/CapSense_1.c **** 	/* position is divided by 8 to calculate the element of the 
1746:.\Generated_Source\PSoC4/CapSense_1.c **** 	   table[] array that contains the enable bit 
1747:.\Generated_Source\PSoC4/CapSense_1.c **** 	   for an appropriate sensor.
1748:.\Generated_Source\PSoC4/CapSense_1.c **** 	*/
1749:.\Generated_Source\PSoC4/CapSense_1.c **** 	offset = (position >> 3u);
 1006              		.loc 1 1749 0
 1007 0000 CB08     		lsr	r3, r1, #3
 1008              	.LVL121:
1750:.\Generated_Source\PSoC4/CapSense_1.c **** 	
1751:.\Generated_Source\PSoC4/CapSense_1.c **** 	/* The enMask calculation for the appropriate sensor. Operation (position & 0x07u) 
1752:.\Generated_Source\PSoC4/CapSense_1.c **** 	   intends to calculate the enable bit offset for the 8-bit element of the 
1753:.\Generated_Source\PSoC4/CapSense_1.c **** 	   table[] array.
1754:.\Generated_Source\PSoC4/CapSense_1.c **** 	*/
1755:.\Generated_Source\PSoC4/CapSense_1.c **** 	enMask = 0x01u << (position & 0x07u);
 1009              		.loc 1 1755 0
 1010 0002 0722     		mov	r2, #7
 1011 0004 1140     		and	r1, r2
 1012              	.LVL122:
 1013 0006 0122     		mov	r2, #1
 1014 0008 8A40     		lsl	r2, r2, r1
 1015              	.LVL123:
1756:.\Generated_Source\PSoC4/CapSense_1.c ****     
1757:.\Generated_Source\PSoC4/CapSense_1.c ****     return ((0u !=(table[offset] & enMask)) ? 1Lu : 0Lu);
 1016              		.loc 1 1757 0
 1017 000a C35C     		ldrb	r3, [r0, r3]
 1018              	.LVL124:
 1019 000c 1A42     		tst	r2, r3
 1020 000e 01D0     		beq	.L71
 1021 0010 0120     		mov	r0, #1
 1022              	.LVL125:
 1023 0012 00E0     		b	.L70
 1024              	.LVL126:
 1025              	.L71:
 1026 0014 0020     		mov	r0, #0
 1027              	.LVL127:
 1028              	.L70:
1758:.\Generated_Source\PSoC4/CapSense_1.c **** }
 1029              		.loc 1 1758 0 discriminator 3
 1030              		@ sp needed
 1031 0016 7047     		bx	lr
 1032              		.cfi_endproc
 1033              	.LFE60:
 1034              		.size	CapSense_1_GetBitValue, .-CapSense_1_GetBitValue
 1035              		.section	.text.CapSense_1_FindNextSensor,"ax",%progbits
 1036              		.align	2
 1037              		.global	CapSense_1_FindNextSensor
 1038              		.code	16
 1039              		.thumb_func
 1040              		.type	CapSense_1_FindNextSensor, %function
 1041              	CapSense_1_FindNextSensor:
 1042              	.LFB40:
 534:.\Generated_Source\PSoC4/CapSense_1.c **** {
 1043              		.loc 1 534 0
 1044              		.cfi_startproc
 1045              	.LVL128:
 1046 0000 38B5     		push	{r3, r4, r5, lr}
ARM GAS  C:\Users\danielpi\AppData\Local\Temp\cccuTXvj.s 			page 51


 1047              		.cfi_def_cfa_offset 16
 1048              		.cfi_offset 3, -16
 1049              		.cfi_offset 4, -12
 1050              		.cfi_offset 5, -8
 1051              		.cfi_offset 14, -4
 1052 0002 041C     		mov	r4, r0
 546:.\Generated_Source\PSoC4/CapSense_1.c ****         enableFlag = CapSense_1_GetBitValue(CapSense_1_sensorEnableMask, (uint32)snsIndex);
 1053              		.loc 1 546 0
 1054 0004 064D     		ldr	r5, .L76
 1055 0006 0435     		add	r5, r5, #4
 1056              	.LVL129:
 1057              	.L74:
 541:.\Generated_Source\PSoC4/CapSense_1.c ****         snsIndex++;
 1058              		.loc 1 541 0
 1059 0008 0134     		add	r4, r4, #1
 1060              	.LVL130:
 1061 000a E4B2     		uxtb	r4, r4
 1062              	.LVL131:
 542:.\Generated_Source\PSoC4/CapSense_1.c ****         if(snsIndex == CapSense_1_TOTAL_SENSOR_COUNT)
 1063              		.loc 1 542 0
 1064 000c 052C     		cmp	r4, #5
 1065 000e 05D0     		beq	.L73
 546:.\Generated_Source\PSoC4/CapSense_1.c ****         enableFlag = CapSense_1_GetBitValue(CapSense_1_sensorEnableMask, (uint32)snsIndex);
 1066              		.loc 1 546 0
 1067 0010 281C     		mov	r0, r5
 1068 0012 211C     		mov	r1, r4
 1069 0014 FFF7FEFF 		bl	CapSense_1_GetBitValue
 1070              	.LVL132:
 548:.\Generated_Source\PSoC4/CapSense_1.c ****     while(enableFlag == 0u);
 1071              		.loc 1 548 0
 1072 0018 0028     		cmp	r0, #0
 1073 001a F5D0     		beq	.L74
 1074              	.LVL133:
 1075              	.L73:
 551:.\Generated_Source\PSoC4/CapSense_1.c **** }
 1076              		.loc 1 551 0
 1077 001c 201C     		mov	r0, r4
 1078              		@ sp needed
 1079              	.LVL134:
 1080 001e 38BD     		pop	{r3, r4, r5, pc}
 1081              	.L77:
 1082              		.align	2
 1083              	.L76:
 1084 0020 00000000 		.word	.LANCHOR1
 1085              		.cfi_endproc
 1086              	.LFE40:
 1087              		.size	CapSense_1_FindNextSensor, .-CapSense_1_FindNextSensor
 1088              		.section	.text.CapSense_1_PreScan,"ax",%progbits
 1089              		.align	2
 1090              		.global	CapSense_1_PreScan
 1091              		.code	16
 1092              		.thumb_func
 1093              		.type	CapSense_1_PreScan, %function
 1094              	CapSense_1_PreScan:
 1095              	.LFB55:
1363:.\Generated_Source\PSoC4/CapSense_1.c **** {
 1096              		.loc 1 1363 0
ARM GAS  C:\Users\danielpi\AppData\Local\Temp\cccuTXvj.s 			page 52


 1097              		.cfi_startproc
 1098              	.LVL135:
 1099 0000 F8B5     		push	{r3, r4, r5, r6, r7, lr}
 1100              		.cfi_def_cfa_offset 24
 1101              		.cfi_offset 3, -24
 1102              		.cfi_offset 4, -20
 1103              		.cfi_offset 5, -16
 1104              		.cfi_offset 6, -12
 1105              		.cfi_offset 7, -8
 1106              		.cfi_offset 14, -4
 1107 0002 041C     		mov	r4, r0
1381:.\Generated_Source\PSoC4/CapSense_1.c ****     widget = CapSense_1_widgetNumber[sensor];
 1108              		.loc 1 1381 0
 1109 0004 324B     		ldr	r3, .L82
 1110 0006 5833     		add	r3, r3, #88
 1111 0008 1A5C     		ldrb	r2, [r3, r0]
 1112              	.LVL136:
1384:.\Generated_Source\PSoC4/CapSense_1.c **** 	counterResolution = CapSense_1_widgetResolution[widget];
 1113              		.loc 1 1384 0
 1114 000a 9200     		lsl	r2, r2, #2
 1115 000c 314B     		ldr	r3, .L82+4
 1116              	.LVL137:
 1117 000e D558     		ldr	r5, [r2, r3]
 1118              	.LVL138:
1388:.\Generated_Source\PSoC4/CapSense_1.c **** 	    oversamplingFactor = CapSense_1_GetBitValue(scanSpeedTbl, sensor);
 1119              		.loc 1 1388 0
 1120 0010 3148     		ldr	r0, .L82+8
 1121              	.LVL139:
 1122 0012 211C     		mov	r1, r4
 1123 0014 FFF7FEFF 		bl	CapSense_1_GetBitValue
 1124              	.LVL140:
1390:.\Generated_Source\PSoC4/CapSense_1.c **** 		if(counterResolution < CapSense_1_RESOLUTION_16_BITS)
 1125              		.loc 1 1390 0
 1126 0018 304B     		ldr	r3, .L82+12
 1127 001a 9D42     		cmp	r5, r3
 1128 001c 04D8     		bhi	.L79
1392:.\Generated_Source\PSoC4/CapSense_1.c **** 			counterResolution <<= oversamplingFactor;
 1129              		.loc 1 1392 0
 1130 001e 8540     		lsl	r5, r5, r0
 1131              	.LVL141:
 1132 0020 281C     		mov	r0, r5
 1133              	.LVL142:
1393:.\Generated_Source\PSoC4/CapSense_1.c **** 			counterResolution |= (uint32)(CapSense_1_RESOLUTION_8_BITS);
 1134              		.loc 1 1393 0
 1135 0022 FF25     		mov	r5, #255
 1136 0024 2D04     		lsl	r5, r5, #16
 1137 0026 0543     		orr	r5, r0
 1138              	.LVL143:
 1139              	.L79:
1399:.\Generated_Source\PSoC4/CapSense_1.c **** 		CapSense_1_SenseClk_Stop();
 1140              		.loc 1 1399 0
 1141 0028 FFF7FEFF 		bl	CapSense_1_SenseClk_Stop
 1142              	.LVL144:
1400:.\Generated_Source\PSoC4/CapSense_1.c **** 		CapSense_1_SampleClk_Stop();
 1143              		.loc 1 1400 0
 1144 002c FFF7FEFF 		bl	CapSense_1_SampleClk_Stop
 1145              	.LVL145:
ARM GAS  C:\Users\danielpi\AppData\Local\Temp\cccuTXvj.s 			page 53


1404:.\Generated_Source\PSoC4/CapSense_1.c **** 		CapSense_1_SampleClk_SetDividerValue((uint16)CapSense_1_sampleClkDividerVal[sensor]);
 1146              		.loc 1 1404 0
 1147 0030 2B4B     		ldr	r3, .L82+16
 1148 0032 185D     		ldrb	r0, [r3, r4]
 1149 0034 0138     		sub	r0, r0, #1
 1150 0036 80B2     		uxth	r0, r0
 1151 0038 0021     		mov	r1, #0
 1152 003a FFF7FEFF 		bl	CapSense_1_SampleClk_SetFractionalDividerRegister
 1153              	.LVL146:
1405:.\Generated_Source\PSoC4/CapSense_1.c **** 		CapSense_1_SenseClk_SetDividerValue((uint16)CapSense_1_senseClkDividerVal[sensor]);
 1154              		.loc 1 1405 0
 1155 003e 294B     		ldr	r3, .L82+20
 1156 0040 185D     		ldrb	r0, [r3, r4]
 1157 0042 0138     		sub	r0, r0, #1
 1158 0044 80B2     		uxth	r0, r0
 1159 0046 0021     		mov	r1, #0
 1160 0048 FFF7FEFF 		bl	CapSense_1_SenseClk_SetFractionalDividerRegister
 1161              	.LVL147:
1412:.\Generated_Source\PSoC4/CapSense_1.c **** 		CapSense_1_SampleClk_Start();
 1162              		.loc 1 1412 0
 1163 004c FF20     		mov	r0, #255
 1164 004e FFF7FEFF 		bl	CapSense_1_SampleClk_StartEx
 1165              	.LVL148:
1413:.\Generated_Source\PSoC4/CapSense_1.c **** 		CapSense_1_SenseClk_StartEx(CapSense_1_SampleClk__DIV_ID);
 1166              		.loc 1 1413 0
 1167 0052 4020     		mov	r0, #64
 1168 0054 FFF7FEFF 		bl	CapSense_1_SenseClk_StartEx
 1169              	.LVL149:
1416:.\Generated_Source\PSoC4/CapSense_1.c **** 			CyIntDisable(CapSense_1_ISR_NUMBER);
 1170              		.loc 1 1416 0
 1171 0058 1020     		mov	r0, #16
 1172 005a FFF7FEFF 		bl	CyIntDisable
 1173              	.LVL150:
1417:.\Generated_Source\PSoC4/CapSense_1.c **** 			CapSense_1_CSD_CNT_REG = CapSense_1_ONE_CYCLE;
 1174              		.loc 1 1417 0
 1175 005e 8022     		mov	r2, #128
 1176 0060 5202     		lsl	r2, r2, #9
 1177 0062 214B     		ldr	r3, .L82+24
 1178 0064 1A60     		str	r2, [r3]
1418:.\Generated_Source\PSoC4/CapSense_1.c **** 			while(0u != (CapSense_1_CSD_CNT_REG & CapSense_1_RESOLUTION_16_BITS))
 1179              		.loc 1 1418 0
 1180 0066 1A1C     		mov	r2, r3
 1181              	.L80:
1418:.\Generated_Source\PSoC4/CapSense_1.c **** 			while(0u != (CapSense_1_CSD_CNT_REG & CapSense_1_RESOLUTION_16_BITS))
 1182              		.loc 1 1418 0 is_stmt 0 discriminator 1
 1183 0068 1368     		ldr	r3, [r2]
 1184 006a 1B0C     		lsr	r3, r3, #16
 1185 006c FCD1     		bne	.L80
1422:.\Generated_Source\PSoC4/CapSense_1.c **** 			CapSense_1_CSD_INTR_REG = 1u;
 1186              		.loc 1 1422 0 is_stmt 1
 1187 006e 0122     		mov	r2, #1
 1188 0070 1E4B     		ldr	r3, .L82+28
 1189 0072 1A60     		str	r2, [r3]
1423:.\Generated_Source\PSoC4/CapSense_1.c **** 			CyIntClearPending(CapSense_1_ISR_NUMBER);
 1190              		.loc 1 1423 0
 1191 0074 1020     		mov	r0, #16
 1192 0076 FFF7FEFF 		bl	CyIntClearPending
ARM GAS  C:\Users\danielpi\AppData\Local\Temp\cccuTXvj.s 			page 54


 1193              	.LVL151:
1424:.\Generated_Source\PSoC4/CapSense_1.c **** 			CyIntEnable(CapSense_1_ISR_NUMBER); 
 1194              		.loc 1 1424 0
 1195 007a 1020     		mov	r0, #16
 1196 007c FFF7FEFF 		bl	CyIntEnable
 1197              	.LVL152:
1474:.\Generated_Source\PSoC4/CapSense_1.c **** 	CyIntDisable(CapSense_1_ISR_NUMBER);
 1198              		.loc 1 1474 0
 1199 0080 1020     		mov	r0, #16
 1200 0082 FFF7FEFF 		bl	CyIntDisable
 1201              	.LVL153:
1475:.\Generated_Source\PSoC4/CapSense_1.c ****     newRegValue = CapSense_1_CSD_IDAC_REG;
 1202              		.loc 1 1475 0
 1203 0086 1A4B     		ldr	r3, .L82+32
 1204 0088 1968     		ldr	r1, [r3]
 1205              	.LVL154:
1481:.\Generated_Source\PSoC4/CapSense_1.c **** 	newRegValue &= ~(CapSense_1_CSD_IDAC1_DATA_MASK | CapSense_1_CSD_IDAC2_DATA_MASK);
 1206              		.loc 1 1481 0
 1207 008a 1A4A     		ldr	r2, .L82+36
 1208 008c 1140     		and	r1, r2
 1209              	.LVL155:
1482:.\Generated_Source\PSoC4/CapSense_1.c **** 	newRegValue |= (CapSense_1_modulationIDAC[sensor] | 
 1210              		.loc 1 1482 0
 1211 008e 1A4A     		ldr	r2, .L82+40
 1212 0090 105D     		ldrb	r0, [r2, r4]
1483:.\Generated_Source\PSoC4/CapSense_1.c **** 							(uint32)((uint32)CapSense_1_compensationIDAC[sensor] <<
 1213              		.loc 1 1483 0
 1214 0092 1A4A     		ldr	r2, .L82+44
 1215 0094 125D     		ldrb	r2, [r2, r4]
 1216 0096 1204     		lsl	r2, r2, #16
1482:.\Generated_Source\PSoC4/CapSense_1.c **** 	newRegValue |= (CapSense_1_modulationIDAC[sensor] | 
 1217              		.loc 1 1482 0
 1218 0098 0243     		orr	r2, r0
 1219 009a 0A43     		orr	r2, r1
 1220              	.LVL156:
1487:.\Generated_Source\PSoC4/CapSense_1.c **** 	CapSense_1_CSD_IDAC_REG = newRegValue;
 1221              		.loc 1 1487 0
 1222 009c 1A60     		str	r2, [r3]
1502:.\Generated_Source\PSoC4/CapSense_1.c **** 	newRegValue = CapSense_1_CSD_CFG_REG;
 1223              		.loc 1 1502 0
 1224 009e 184E     		ldr	r6, .L82+48
 1225 00a0 3768     		ldr	r7, [r6]
 1226              	.LVL157:
1503:.\Generated_Source\PSoC4/CapSense_1.c **** 	newRegValue &= ~(CapSense_1_PRECHARGE_CONFIG_MASK);
 1227              		.loc 1 1503 0
 1228 00a2 184B     		ldr	r3, .L82+52
 1229 00a4 1F40     		and	r7, r3
 1230              	.LVL158:
1504:.\Generated_Source\PSoC4/CapSense_1.c **** 	newRegValue |= CapSense_1_CTANK_PRECHARGE_CONFIG;
 1231              		.loc 1 1504 0
 1232 00a6 184B     		ldr	r3, .L82+56
 1233 00a8 1F43     		orr	r7, r3
 1234              	.LVL159:
1506:.\Generated_Source\PSoC4/CapSense_1.c **** 	CyIntEnable(CapSense_1_ISR_NUMBER);
 1235              		.loc 1 1506 0
 1236 00aa 1020     		mov	r0, #16
 1237 00ac FFF7FEFF 		bl	CyIntEnable
ARM GAS  C:\Users\danielpi\AppData\Local\Temp\cccuTXvj.s 			page 55


 1238              	.LVL160:
1509:.\Generated_Source\PSoC4/CapSense_1.c ****     CapSense_1_EnableScanSlot(sensor);
 1239              		.loc 1 1509 0
 1240 00b0 201C     		mov	r0, r4
 1241 00b2 FFF7FEFF 		bl	CapSense_1_EnableSensor
 1242              	.LVL161:
1511:.\Generated_Source\PSoC4/CapSense_1.c **** 	interruptState = CyEnterCriticalSection();
 1243              		.loc 1 1511 0
 1244 00b6 FFF7FEFF 		bl	CyEnterCriticalSection
 1245              	.LVL162:
 1246 00ba 041C     		mov	r4, r0
 1247              	.LVL163:
1512:.\Generated_Source\PSoC4/CapSense_1.c **** 	CapSense_1_CSD_CFG_REG = newRegValue;
 1248              		.loc 1 1512 0
 1249 00bc 3760     		str	r7, [r6]
1518:.\Generated_Source\PSoC4/CapSense_1.c **** 	CyDelayCycles(CapSense_1_GLITCH_ELIMINATION_CYCLES);
 1250              		.loc 1 1518 0
 1251 00be 0020     		mov	r0, #0
 1252              	.LVL164:
 1253 00c0 FFF7FEFF 		bl	CyDelayCycles
 1254              	.LVL165:
1524:.\Generated_Source\PSoC4/CapSense_1.c ****     CapSense_1_CSD_CNT_REG = counterResolution;
 1255              		.loc 1 1524 0
 1256 00c4 084B     		ldr	r3, .L82+24
 1257 00c6 1D60     		str	r5, [r3]
1525:.\Generated_Source\PSoC4/CapSense_1.c ****     CyExitCriticalSection(interruptState);
 1258              		.loc 1 1525 0
 1259 00c8 201C     		mov	r0, r4
 1260 00ca FFF7FEFF 		bl	CyExitCriticalSection
 1261              	.LVL166:
1526:.\Generated_Source\PSoC4/CapSense_1.c **** }
 1262              		.loc 1 1526 0
 1263              		@ sp needed
 1264              	.LVL167:
 1265              	.LVL168:
 1266              	.LVL169:
 1267 00ce F8BD     		pop	{r3, r4, r5, r6, r7, pc}
 1268              	.L83:
 1269              		.align	2
 1270              	.L82:
 1271 00d0 00000000 		.word	.LANCHOR2
 1272 00d4 00000000 		.word	.LANCHOR1
 1273 00d8 00000000 		.word	scanSpeedTbl
 1274 00dc FFFFFEFF 		.word	-65537
 1275 00e0 00000000 		.word	CapSense_1_sampleClkDividerVal
 1276 00e4 00000000 		.word	CapSense_1_senseClkDividerVal
 1277 00e8 0C002840 		.word	1076363276
 1278 00ec 14002840 		.word	1076363284
 1279 00f0 08002840 		.word	1076363272
 1280 00f4 00FF80FF 		.word	-8323328
 1281 00f8 00000000 		.word	CapSense_1_modulationIDAC
 1282 00fc 00000000 		.word	CapSense_1_compensationIDAC
 1283 0100 04002840 		.word	1076363268
 1284 0104 FF1FDFFF 		.word	-2154497
 1285 0108 20E02000 		.word	2154528
 1286              		.cfi_endproc
 1287              	.LFE55:
ARM GAS  C:\Users\danielpi\AppData\Local\Temp\cccuTXvj.s 			page 56


 1288              		.size	CapSense_1_PreScan, .-CapSense_1_PreScan
 1289              		.section	.text.CapSense_1_ScanSensor,"ax",%progbits
 1290              		.align	2
 1291              		.global	CapSense_1_ScanSensor
 1292              		.code	16
 1293              		.thumb_func
 1294              		.type	CapSense_1_ScanSensor, %function
 1295              	CapSense_1_ScanSensor:
 1296              	.LFB41:
 582:.\Generated_Source\PSoC4/CapSense_1.c **** {
 1297              		.loc 1 582 0
 1298              		.cfi_startproc
 1299              	.LVL170:
 1300 0000 08B5     		push	{r3, lr}
 1301              		.cfi_def_cfa_offset 8
 1302              		.cfi_offset 3, -8
 1303              		.cfi_offset 14, -4
 584:.\Generated_Source\PSoC4/CapSense_1.c ****     CapSense_1_csdStatusVar = 0u;
 1304              		.loc 1 584 0
 1305 0002 054B     		ldr	r3, .L85
 1306 0004 0022     		mov	r2, #0
 1307 0006 1A70     		strb	r2, [r3]
 585:.\Generated_Source\PSoC4/CapSense_1.c ****     CapSense_1_sensorIndex = (uint8)sensor;
 1308              		.loc 1 585 0
 1309 0008 C2B2     		uxtb	r2, r0
 1310 000a 1A74     		strb	r2, [r3, #16]
 588:.\Generated_Source\PSoC4/CapSense_1.c ****     CapSense_1_csdStatusVar = (CapSense_1_SW_STS_BUSY | CapSense_1_SW_CTRL_SINGLE_SCAN);
 1311              		.loc 1 588 0
 1312 000c 8122     		mov	r2, #129
 1313 000e 1A70     		strb	r2, [r3]
 589:.\Generated_Source\PSoC4/CapSense_1.c ****     CapSense_1_PreScan(sensor);
 1314              		.loc 1 589 0
 1315 0010 FFF7FEFF 		bl	CapSense_1_PreScan
 1316              	.LVL171:
 590:.\Generated_Source\PSoC4/CapSense_1.c **** }
 1317              		.loc 1 590 0
 1318              		@ sp needed
 1319 0014 08BD     		pop	{r3, pc}
 1320              	.L86:
 1321 0016 C046     		.align	2
 1322              	.L85:
 1323 0018 00000000 		.word	.LANCHOR0
 1324              		.cfi_endproc
 1325              	.LFE41:
 1326              		.size	CapSense_1_ScanSensor, .-CapSense_1_ScanSensor
 1327              		.section	.text.CapSense_1_ScanEnabledWidgets,"ax",%progbits
 1328              		.align	2
 1329              		.global	CapSense_1_ScanEnabledWidgets
 1330              		.code	16
 1331              		.thumb_func
 1332              		.type	CapSense_1_ScanEnabledWidgets, %function
 1333              	CapSense_1_ScanEnabledWidgets:
 1334              	.LFB43:
 706:.\Generated_Source\PSoC4/CapSense_1.c **** {
 1335              		.loc 1 706 0
 1336              		.cfi_startproc
 1337 0000 10B5     		push	{r4, lr}
ARM GAS  C:\Users\danielpi\AppData\Local\Temp\cccuTXvj.s 			page 57


 1338              		.cfi_def_cfa_offset 8
 1339              		.cfi_offset 4, -8
 1340              		.cfi_offset 14, -4
 708:.\Generated_Source\PSoC4/CapSense_1.c ****     CapSense_1_csdStatusVar = 0u;
 1341              		.loc 1 708 0
 1342 0002 0B4C     		ldr	r4, .L89
 1343 0004 0023     		mov	r3, #0
 1344 0006 2370     		strb	r3, [r4]
 709:.\Generated_Source\PSoC4/CapSense_1.c ****     CapSense_1_sensorIndex = 0xFFu;
 1345              		.loc 1 709 0
 1346 0008 FF23     		mov	r3, #255
 1347 000a 2374     		strb	r3, [r4, #16]
 712:.\Generated_Source\PSoC4/CapSense_1.c ****     CapSense_1_sensorIndex = (uint8)CapSense_1_FindNextSensor(CapSense_1_sensorIndex);
 1348              		.loc 1 712 0
 1349 000c 207C     		ldrb	r0, [r4, #16]
 1350 000e C0B2     		uxtb	r0, r0
 1351 0010 FFF7FEFF 		bl	CapSense_1_FindNextSensor
 1352              	.LVL172:
 1353 0014 2074     		strb	r0, [r4, #16]
 715:.\Generated_Source\PSoC4/CapSense_1.c ****     if(CapSense_1_sensorIndex < CapSense_1_TOTAL_SENSOR_COUNT)
 1354              		.loc 1 715 0
 1355 0016 237C     		ldrb	r3, [r4, #16]
 1356 0018 DBB2     		uxtb	r3, r3
 1357 001a 042B     		cmp	r3, #4
 1358 001c 07D8     		bhi	.L87
 717:.\Generated_Source\PSoC4/CapSense_1.c ****         CapSense_1_csdStatusVar |= CapSense_1_SW_STS_BUSY;
 1359              		.loc 1 717 0
 1360 001e 2178     		ldrb	r1, [r4]
 1361 0020 0122     		mov	r2, #1
 1362 0022 0A43     		orr	r2, r1
 1363 0024 2270     		strb	r2, [r4]
 718:.\Generated_Source\PSoC4/CapSense_1.c ****         CapSense_1_PreScan((uint32)CapSense_1_sensorIndex);
 1364              		.loc 1 718 0
 1365 0026 207C     		ldrb	r0, [r4, #16]
 1366 0028 C0B2     		uxtb	r0, r0
 1367 002a FFF7FEFF 		bl	CapSense_1_PreScan
 1368              	.LVL173:
 1369              	.L87:
 720:.\Generated_Source\PSoC4/CapSense_1.c **** }
 1370              		.loc 1 720 0
 1371              		@ sp needed
 1372 002e 10BD     		pop	{r4, pc}
 1373              	.L90:
 1374              		.align	2
 1375              	.L89:
 1376 0030 00000000 		.word	.LANCHOR0
 1377              		.cfi_endproc
 1378              	.LFE43:
 1379              		.size	CapSense_1_ScanEnabledWidgets, .-CapSense_1_ScanEnabledWidgets
 1380              		.section	.text.CapSense_1_PostScan,"ax",%progbits
 1381              		.align	2
 1382              		.global	CapSense_1_PostScan
 1383              		.code	16
 1384              		.thumb_func
 1385              		.type	CapSense_1_PostScan, %function
 1386              	CapSense_1_PostScan:
 1387              	.LFB56:
ARM GAS  C:\Users\danielpi\AppData\Local\Temp\cccuTXvj.s 			page 58


1552:.\Generated_Source\PSoC4/CapSense_1.c **** {	
 1388              		.loc 1 1552 0
 1389              		.cfi_startproc
 1390              	.LVL174:
 1391 0000 38B5     		push	{r3, r4, r5, lr}
 1392              		.cfi_def_cfa_offset 16
 1393              		.cfi_offset 3, -16
 1394              		.cfi_offset 4, -12
 1395              		.cfi_offset 5, -8
 1396              		.cfi_offset 14, -4
 1397 0002 041C     		mov	r4, r0
1567:.\Generated_Source\PSoC4/CapSense_1.c ****     CapSense_1_sensorRaw[sensor]  = (uint16)CapSense_1_CSD_CNT_REG;
 1398              		.loc 1 1567 0
 1399 0004 174B     		ldr	r3, .L93
 1400 0006 1D68     		ldr	r5, [r3]
 1401 0008 ADB2     		uxth	r5, r5
 1402 000a 4300     		lsl	r3, r0, #1
 1403 000c 164A     		ldr	r2, .L93+4
 1404 000e D318     		add	r3, r2, r3
 1405 0010 9D80     		strh	r5, [r3, #4]
1571:.\Generated_Source\PSoC4/CapSense_1.c **** 	widget = CapSense_1_widgetNumber[sensor];
 1406              		.loc 1 1571 0
 1407 0012 164B     		ldr	r3, .L93+8
 1408 0014 5833     		add	r3, r3, #88
 1409 0016 1A5C     		ldrb	r2, [r3, r0]
 1410              	.LVL175:
1572:.\Generated_Source\PSoC4/CapSense_1.c **** 	if(CapSense_1_widgetResolution[widget] < CapSense_1_RESOLUTION_16_BITS)
 1411              		.loc 1 1572 0
 1412 0018 9200     		lsl	r2, r2, #2
 1413              	.LVL176:
 1414 001a 154B     		ldr	r3, .L93+12
 1415              	.LVL177:
 1416 001c D258     		ldr	r2, [r2, r3]
 1417 001e 154B     		ldr	r3, .L93+16
 1418 0020 9A42     		cmp	r2, r3
 1419 0022 08D8     		bhi	.L92
1574:.\Generated_Source\PSoC4/CapSense_1.c **** 		oversamplingFactor = CapSense_1_GetBitValue(scanSpeedTbl, sensor);
 1420              		.loc 1 1574 0
 1421 0024 1448     		ldr	r0, .L93+20
 1422              	.LVL178:
 1423 0026 211C     		mov	r1, r4
 1424 0028 FFF7FEFF 		bl	CapSense_1_GetBitValue
 1425              	.LVL179:
1575:.\Generated_Source\PSoC4/CapSense_1.c **** 		CapSense_1_sensorRaw[sensor] >>= oversamplingFactor;
 1426              		.loc 1 1575 0
 1427 002c 6300     		lsl	r3, r4, #1
 1428 002e 0E4A     		ldr	r2, .L93+4
 1429 0030 D318     		add	r3, r2, r3
 1430 0032 0541     		asr	r5, r5, r0
 1431 0034 9D80     		strh	r5, [r3, #4]
 1432              	.LVL180:
 1433              	.L92:
1581:.\Generated_Source\PSoC4/CapSense_1.c ****     CapSense_1_DisableScanSlot(sensor);
 1434              		.loc 1 1581 0
 1435 0036 201C     		mov	r0, r4
 1436 0038 FFF7FEFF 		bl	CapSense_1_DisableSensor
 1437              	.LVL181:
ARM GAS  C:\Users\danielpi\AppData\Local\Temp\cccuTXvj.s 			page 59


1583:.\Generated_Source\PSoC4/CapSense_1.c **** 	CyIntDisable(CapSense_1_ISR_NUMBER);
 1438              		.loc 1 1583 0
 1439 003c 1020     		mov	r0, #16
 1440 003e FFF7FEFF 		bl	CyIntDisable
 1441              	.LVL182:
1603:.\Generated_Source\PSoC4/CapSense_1.c **** 	newRegValue = CapSense_1_CSD_CFG_REG;
 1442              		.loc 1 1603 0
 1443 0042 0E4B     		ldr	r3, .L93+24
 1444 0044 1968     		ldr	r1, [r3]
 1445              	.LVL183:
1604:.\Generated_Source\PSoC4/CapSense_1.c **** 	newRegValue &= ~(CapSense_1_PRECHARGE_CONFIG_MASK);
 1446              		.loc 1 1604 0
 1447 0046 0E4A     		ldr	r2, .L93+28
 1448 0048 0A40     		and	r2, r1
 1449              	.LVL184:
1605:.\Generated_Source\PSoC4/CapSense_1.c **** 	newRegValue |= CapSense_1_CMOD_PRECHARGE_CONFIG;
 1450              		.loc 1 1605 0
 1451 004a A021     		mov	r1, #160
 1452 004c 0902     		lsl	r1, r1, #8
 1453 004e 0A43     		orr	r2, r1
 1454              	.LVL185:
1606:.\Generated_Source\PSoC4/CapSense_1.c **** 	CapSense_1_CSD_CFG_REG = newRegValue;
 1455              		.loc 1 1606 0
 1456 0050 1A60     		str	r2, [r3]
1612:.\Generated_Source\PSoC4/CapSense_1.c **** 	CapSense_1_CSD_IDAC_REG &= ~(CapSense_1_CSD_IDAC1_DATA_MASK | CapSense_1_CSD_IDAC2_DATA_MASK);    
 1457              		.loc 1 1612 0
 1458 0052 0C4B     		ldr	r3, .L93+32
 1459 0054 1968     		ldr	r1, [r3]
 1460 0056 0C4A     		ldr	r2, .L93+36
 1461              	.LVL186:
 1462 0058 0A40     		and	r2, r1
 1463 005a 1A60     		str	r2, [r3]
 1464              	.LVL187:
1615:.\Generated_Source\PSoC4/CapSense_1.c **** 	CyIntEnable(CapSense_1_ISR_NUMBER);
 1465              		.loc 1 1615 0
 1466 005c 1020     		mov	r0, #16
 1467 005e FFF7FEFF 		bl	CyIntEnable
 1468              	.LVL188:
1616:.\Generated_Source\PSoC4/CapSense_1.c **** }
 1469              		.loc 1 1616 0
 1470              		@ sp needed
 1471              	.LVL189:
 1472 0062 38BD     		pop	{r3, r4, r5, pc}
 1473              	.L94:
 1474              		.align	2
 1475              	.L93:
 1476 0064 0C002840 		.word	1076363276
 1477 0068 00000000 		.word	.LANCHOR0
 1478 006c 00000000 		.word	.LANCHOR2
 1479 0070 00000000 		.word	.LANCHOR1
 1480 0074 FFFFFEFF 		.word	-65537
 1481 0078 00000000 		.word	scanSpeedTbl
 1482 007c 04002840 		.word	1076363268
 1483 0080 FF1FDFFF 		.word	-2154497
 1484 0084 08002840 		.word	1076363272
 1485 0088 00FF80FF 		.word	-8323328
 1486              		.cfi_endproc
ARM GAS  C:\Users\danielpi\AppData\Local\Temp\cccuTXvj.s 			page 60


 1487              	.LFE56:
 1488              		.size	CapSense_1_PostScan, .-CapSense_1_PostScan
 1489              		.section	.text.CapSense_1_SetBitValue,"ax",%progbits
 1490              		.align	2
 1491              		.global	CapSense_1_SetBitValue
 1492              		.code	16
 1493              		.thumb_func
 1494              		.type	CapSense_1_SetBitValue, %function
 1495              	CapSense_1_SetBitValue:
 1496              	.LFB61:
1759:.\Generated_Source\PSoC4/CapSense_1.c **** 
1760:.\Generated_Source\PSoC4/CapSense_1.c **** 
1761:.\Generated_Source\PSoC4/CapSense_1.c **** /*******************************************************************************
1762:.\Generated_Source\PSoC4/CapSense_1.c **** * Function Name: CapSense_1_SetBitValue
1763:.\Generated_Source\PSoC4/CapSense_1.c **** ********************************************************************************
1764:.\Generated_Source\PSoC4/CapSense_1.c **** *
1765:.\Generated_Source\PSoC4/CapSense_1.c **** * Summary:
1766:.\Generated_Source\PSoC4/CapSense_1.c **** *  The API sets a bit status of the bit in the table array which contains masks.
1767:.\Generated_Source\PSoC4/CapSense_1.c **** * 
1768:.\Generated_Source\PSoC4/CapSense_1.c **** * Parameters:
1769:.\Generated_Source\PSoC4/CapSense_1.c **** *  table[] - array with bit masks.
1770:.\Generated_Source\PSoC4/CapSense_1.c **** *  position - position of bit in the table[] array.
1771:.\Generated_Source\PSoC4/CapSense_1.c **** *  value: 0 - bit is not set; 1 - bit is set.
1772:.\Generated_Source\PSoC4/CapSense_1.c **** *
1773:.\Generated_Source\PSoC4/CapSense_1.c **** * Return:
1774:.\Generated_Source\PSoC4/CapSense_1.c **** *  None
1775:.\Generated_Source\PSoC4/CapSense_1.c **** *
1776:.\Generated_Source\PSoC4/CapSense_1.c **** * Global Variables:
1777:.\Generated_Source\PSoC4/CapSense_1.c **** *  None
1778:.\Generated_Source\PSoC4/CapSense_1.c **** *
1779:.\Generated_Source\PSoC4/CapSense_1.c **** * Side Effects:
1780:.\Generated_Source\PSoC4/CapSense_1.c **** *  None
1781:.\Generated_Source\PSoC4/CapSense_1.c **** *
1782:.\Generated_Source\PSoC4/CapSense_1.c **** *******************************************************************************/
1783:.\Generated_Source\PSoC4/CapSense_1.c **** void CapSense_1_SetBitValue(uint8 table[], uint32 position, uint32 value)
1784:.\Generated_Source\PSoC4/CapSense_1.c **** {
 1497              		.loc 1 1784 0
 1498              		.cfi_startproc
 1499              	.LVL190:
 1500 0000 10B5     		push	{r4, lr}
 1501              		.cfi_def_cfa_offset 8
 1502              		.cfi_offset 4, -8
 1503              		.cfi_offset 14, -4
1785:.\Generated_Source\PSoC4/CapSense_1.c ****     uint32 offset;
1786:.\Generated_Source\PSoC4/CapSense_1.c **** 	uint8 enMask;
1787:.\Generated_Source\PSoC4/CapSense_1.c **** 	
1788:.\Generated_Source\PSoC4/CapSense_1.c **** 	/* position is divided by 8 to calculate the element of the 
1789:.\Generated_Source\PSoC4/CapSense_1.c **** 	   table[] array that contains the enable bit 
1790:.\Generated_Source\PSoC4/CapSense_1.c **** 	   for an appropriate sensor.
1791:.\Generated_Source\PSoC4/CapSense_1.c **** 	*/
1792:.\Generated_Source\PSoC4/CapSense_1.c **** 	offset = (position >> 3u);
 1504              		.loc 1 1792 0
 1505 0002 CB08     		lsr	r3, r1, #3
 1506              	.LVL191:
1793:.\Generated_Source\PSoC4/CapSense_1.c **** 	
1794:.\Generated_Source\PSoC4/CapSense_1.c **** 	/* The enMask calculation for the appropriate sensor. Operation (position & 0x07u) 
1795:.\Generated_Source\PSoC4/CapSense_1.c **** 	   intends to calculate the enable bit offset for the 8-bit element of the 
ARM GAS  C:\Users\danielpi\AppData\Local\Temp\cccuTXvj.s 			page 61


1796:.\Generated_Source\PSoC4/CapSense_1.c **** 	   table[] array.
1797:.\Generated_Source\PSoC4/CapSense_1.c **** 	*/
1798:.\Generated_Source\PSoC4/CapSense_1.c **** 	enMask = 0x01u << (position & 0x07u);
 1507              		.loc 1 1798 0
 1508 0004 0724     		mov	r4, #7
 1509 0006 2140     		and	r1, r4
 1510              	.LVL192:
 1511 0008 0124     		mov	r4, #1
 1512 000a 8C40     		lsl	r4, r4, r1
 1513 000c E1B2     		uxtb	r1, r4
 1514              	.LVL193:
1799:.\Generated_Source\PSoC4/CapSense_1.c **** 	
1800:.\Generated_Source\PSoC4/CapSense_1.c **** 	if(0u != value)
 1515              		.loc 1 1800 0
 1516 000e 002A     		cmp	r2, #0
 1517 0010 04D0     		beq	.L96
1801:.\Generated_Source\PSoC4/CapSense_1.c **** 	{
1802:.\Generated_Source\PSoC4/CapSense_1.c **** 		table[offset] |= enMask;
 1518              		.loc 1 1802 0
 1519 0012 C018     		add	r0, r0, r3
 1520              	.LVL194:
 1521 0014 0378     		ldrb	r3, [r0]
 1522              	.LVL195:
 1523 0016 1943     		orr	r1, r3
 1524 0018 0170     		strb	r1, [r0]
 1525 001a 03E0     		b	.L95
 1526              	.LVL196:
 1527              	.L96:
1803:.\Generated_Source\PSoC4/CapSense_1.c **** 	}
1804:.\Generated_Source\PSoC4/CapSense_1.c **** 	else
1805:.\Generated_Source\PSoC4/CapSense_1.c **** 	{
1806:.\Generated_Source\PSoC4/CapSense_1.c **** 		table[offset] &= (uint8)~(enMask);
 1528              		.loc 1 1806 0
 1529 001c C018     		add	r0, r0, r3
 1530              	.LVL197:
 1531 001e 0378     		ldrb	r3, [r0]
 1532              	.LVL198:
 1533 0020 8B43     		bic	r3, r1
 1534 0022 0370     		strb	r3, [r0]
 1535              	.L95:
1807:.\Generated_Source\PSoC4/CapSense_1.c **** 	}
1808:.\Generated_Source\PSoC4/CapSense_1.c **** }
 1536              		.loc 1 1808 0
 1537              		@ sp needed
 1538              	.LVL199:
 1539 0024 10BD     		pop	{r4, pc}
 1540              		.cfi_endproc
 1541              	.LFE61:
 1542              		.size	CapSense_1_SetBitValue, .-CapSense_1_SetBitValue
 1543 0026 C046     		.section	.text.CapSense_1_ScanWidget,"ax",%progbits
 1544              		.align	2
 1545              		.global	CapSense_1_ScanWidget
 1546              		.code	16
 1547              		.thumb_func
 1548              		.type	CapSense_1_ScanWidget, %function
 1549              	CapSense_1_ScanWidget:
 1550              	.LFB42:
ARM GAS  C:\Users\danielpi\AppData\Local\Temp\cccuTXvj.s 			page 62


 621:.\Generated_Source\PSoC4/CapSense_1.c **** {
 1551              		.loc 1 621 0
 1552              		.cfi_startproc
 1553              	.LVL200:
 1554 0000 F0B5     		push	{r4, r5, r6, r7, lr}
 1555              		.cfi_def_cfa_offset 20
 1556              		.cfi_offset 4, -20
 1557              		.cfi_offset 5, -16
 1558              		.cfi_offset 6, -12
 1559              		.cfi_offset 7, -8
 1560              		.cfi_offset 14, -4
 1561 0002 4746     		mov	r7, r8
 1562 0004 80B4     		push	{r7}
 1563              		.cfi_def_cfa_offset 24
 1564              		.cfi_offset 8, -24
 627:.\Generated_Source\PSoC4/CapSense_1.c **** 	CapSense_1_sensorIndex = CapSense_1_rawDataIndex[widget];
 1565              		.loc 1 627 0
 1566 0006 1F4B     		ldr	r3, .L108
 1567 0008 1F5C     		ldrb	r7, [r3, r0]
 1568 000a 1F4B     		ldr	r3, .L108+4
 1569 000c 1F74     		strb	r7, [r3, #16]
 630:.\Generated_Source\PSoC4/CapSense_1.c **** 	sensorsPerWidget = CapSense_1_numberOfSensors[widget];
 1570              		.loc 1 630 0
 1571 000e 1F4B     		ldr	r3, .L108+8
 1572 0010 1B5C     		ldrb	r3, [r3, r0]
 1573              	.LVL201:
 633:.\Generated_Source\PSoC4/CapSense_1.c **** 	if(sensorsPerWidget == 0u)
 1574              		.loc 1 633 0
 1575 0012 002B     		cmp	r3, #0
 1576 0014 00D1     		bne	.L99
 635:.\Generated_Source\PSoC4/CapSense_1.c **** 		sensorsPerWidget = 1u;
 1577              		.loc 1 635 0
 1578 0016 0123     		mov	r3, #1
 1579              	.LVL202:
 1580              	.L99:
 639:.\Generated_Source\PSoC4/CapSense_1.c **** 	lastSensor = (CapSense_1_rawDataIndex[widget] + sensorsPerWidget) - 1u;
 1581              		.loc 1 639 0
 1582 0018 FF18     		add	r7, r7, r3
 1583 001a 013F     		sub	r7, r7, #1
 1584              	.LVL203:
 642:.\Generated_Source\PSoC4/CapSense_1.c **** 	for(snsIndex = 0u; snsIndex < CapSense_1_TOTAL_SENSOR_MASK; snsIndex++)
 1585              		.loc 1 642 0
 1586 001c 0023     		mov	r3, #0
 1587              	.LVL204:
 1588 001e 05E0     		b	.L100
 1589              	.LVL205:
 1590              	.L101:
 645:.\Generated_Source\PSoC4/CapSense_1.c **** 		CapSense_1_sensorEnableMaskBackup[snsIndex] = CapSense_1_sensorEnableMask[snsIndex];
 1591              		.loc 1 645 0 discriminator 2
 1592 0020 1B49     		ldr	r1, .L108+12
 1593 0022 CA18     		add	r2, r1, r3
 1594 0024 1279     		ldrb	r2, [r2, #4]
 1595 0026 1B49     		ldr	r1, .L108+16
 1596 0028 CA54     		strb	r2, [r1, r3]
 642:.\Generated_Source\PSoC4/CapSense_1.c **** 	for(snsIndex = 0u; snsIndex < CapSense_1_TOTAL_SENSOR_MASK; snsIndex++)
 1597              		.loc 1 642 0 discriminator 2
 1598 002a 0133     		add	r3, r3, #1
ARM GAS  C:\Users\danielpi\AppData\Local\Temp\cccuTXvj.s 			page 63


 1599              	.LVL206:
 1600              	.L100:
 642:.\Generated_Source\PSoC4/CapSense_1.c **** 	for(snsIndex = 0u; snsIndex < CapSense_1_TOTAL_SENSOR_MASK; snsIndex++)
 1601              		.loc 1 642 0 is_stmt 0 discriminator 1
 1602 002c 002B     		cmp	r3, #0
 1603 002e F7D0     		beq	.L101
 1604 0030 0024     		mov	r4, #0
 652:.\Generated_Source\PSoC4/CapSense_1.c **** 	    if((snsIndex >= CapSense_1_sensorIndex) && (snsIndex <= lastSensor))
 1605              		.loc 1 652 0 is_stmt 1
 1606 0032 154D     		ldr	r5, .L108+4
 660:.\Generated_Source\PSoC4/CapSense_1.c **** 		    CapSense_1_SetBitValue(CapSense_1_sensorEnableMask, snsIndex, 0u);
 1607              		.loc 1 660 0
 1608 0034 164E     		ldr	r6, .L108+12
 1609 0036 0436     		add	r6, r6, #4
 655:.\Generated_Source\PSoC4/CapSense_1.c **** 			CapSense_1_SetBitValue(CapSense_1_sensorEnableMask, snsIndex, 1u);
 1610              		.loc 1 655 0
 1611 0038 B046     		mov	r8, r6
 1612 003a 11E0     		b	.L102
 1613              	.LVL207:
 1614              	.L105:
 652:.\Generated_Source\PSoC4/CapSense_1.c **** 	    if((snsIndex >= CapSense_1_sensorIndex) && (snsIndex <= lastSensor))
 1615              		.loc 1 652 0
 1616 003c 2B7C     		ldrb	r3, [r5, #16]
 1617 003e DBB2     		uxtb	r3, r3
 1618 0040 A342     		cmp	r3, r4
 1619 0042 07D8     		bhi	.L103
 652:.\Generated_Source\PSoC4/CapSense_1.c **** 	    if((snsIndex >= CapSense_1_sensorIndex) && (snsIndex <= lastSensor))
 1620              		.loc 1 652 0 is_stmt 0 discriminator 1
 1621 0044 BC42     		cmp	r4, r7
 1622 0046 05D8     		bhi	.L103
 655:.\Generated_Source\PSoC4/CapSense_1.c **** 			CapSense_1_SetBitValue(CapSense_1_sensorEnableMask, snsIndex, 1u);
 1623              		.loc 1 655 0 is_stmt 1
 1624 0048 4046     		mov	r0, r8
 1625 004a 211C     		mov	r1, r4
 1626 004c 0122     		mov	r2, #1
 1627 004e FFF7FEFF 		bl	CapSense_1_SetBitValue
 1628              	.LVL208:
 1629 0052 04E0     		b	.L104
 1630              	.L103:
 660:.\Generated_Source\PSoC4/CapSense_1.c **** 		    CapSense_1_SetBitValue(CapSense_1_sensorEnableMask, snsIndex, 0u);
 1631              		.loc 1 660 0
 1632 0054 301C     		mov	r0, r6
 1633 0056 211C     		mov	r1, r4
 1634 0058 0022     		mov	r2, #0
 1635 005a FFF7FEFF 		bl	CapSense_1_SetBitValue
 1636              	.LVL209:
 1637              	.L104:
 649:.\Generated_Source\PSoC4/CapSense_1.c **** 	for(snsIndex = 0u; snsIndex < CapSense_1_TOTAL_SENSOR_COUNT; snsIndex++)
 1638              		.loc 1 649 0
 1639 005e 0134     		add	r4, r4, #1
 1640              	.LVL210:
 1641              	.L102:
 649:.\Generated_Source\PSoC4/CapSense_1.c **** 	for(snsIndex = 0u; snsIndex < CapSense_1_TOTAL_SENSOR_COUNT; snsIndex++)
 1642              		.loc 1 649 0 is_stmt 0 discriminator 1
 1643 0060 042C     		cmp	r4, #4
 1644 0062 EBD9     		bls	.L105
 665:.\Generated_Source\PSoC4/CapSense_1.c ****     if(CapSense_1_sensorIndex < CapSense_1_TOTAL_SENSOR_COUNT)
ARM GAS  C:\Users\danielpi\AppData\Local\Temp\cccuTXvj.s 			page 64


 1645              		.loc 1 665 0 is_stmt 1
 1646 0064 084B     		ldr	r3, .L108+4
 1647 0066 1B7C     		ldrb	r3, [r3, #16]
 1648 0068 DBB2     		uxtb	r3, r3
 1649 006a 042B     		cmp	r3, #4
 1650 006c 06D8     		bhi	.L98
 668:.\Generated_Source\PSoC4/CapSense_1.c **** 		CapSense_1_csdStatusVar = (CapSense_1_SW_STS_BUSY | CapSense_1_SW_CTRL_WIDGET_SCAN);
 1651              		.loc 1 668 0
 1652 006e 064B     		ldr	r3, .L108+4
 1653 0070 4122     		mov	r2, #65
 1654 0072 1A70     		strb	r2, [r3]
 670:.\Generated_Source\PSoC4/CapSense_1.c ****         CapSense_1_PreScan((uint32)CapSense_1_sensorIndex);
 1655              		.loc 1 670 0
 1656 0074 187C     		ldrb	r0, [r3, #16]
 1657 0076 C0B2     		uxtb	r0, r0
 1658 0078 FFF7FEFF 		bl	CapSense_1_PreScan
 1659              	.LVL211:
 1660              	.L98:
 672:.\Generated_Source\PSoC4/CapSense_1.c **** }
 1661              		.loc 1 672 0
 1662              		@ sp needed
 1663              	.LVL212:
 1664              	.LVL213:
 1665 007c 04BC     		pop	{r2}
 1666 007e 9046     		mov	r8, r2
 1667 0080 F0BD     		pop	{r4, r5, r6, r7, pc}
 1668              	.L109:
 1669 0082 C046     		.align	2
 1670              	.L108:
 1671 0084 00000000 		.word	CapSense_1_rawDataIndex
 1672 0088 00000000 		.word	.LANCHOR0
 1673 008c 00000000 		.word	CapSense_1_numberOfSensors
 1674 0090 00000000 		.word	.LANCHOR1
 1675 0094 00000000 		.word	CapSense_1_sensorEnableMaskBackup
 1676              		.cfi_endproc
 1677              	.LFE42:
 1678              		.size	CapSense_1_ScanWidget, .-CapSense_1_ScanWidget
 1679              		.section	.text.CapSense_1_GetSenseClkDivider,"ax",%progbits
 1680              		.align	2
 1681              		.global	CapSense_1_GetSenseClkDivider
 1682              		.code	16
 1683              		.thumb_func
 1684              		.type	CapSense_1_GetSenseClkDivider, %function
 1685              	CapSense_1_GetSenseClkDivider:
 1686              	.LFB62:
1809:.\Generated_Source\PSoC4/CapSense_1.c **** 
1810:.\Generated_Source\PSoC4/CapSense_1.c **** 
1811:.\Generated_Source\PSoC4/CapSense_1.c **** 
1812:.\Generated_Source\PSoC4/CapSense_1.c **** /*******************************************************************************
1813:.\Generated_Source\PSoC4/CapSense_1.c **** * Function Name: CapSense_1_GetSenseClkDivider
1814:.\Generated_Source\PSoC4/CapSense_1.c **** ********************************************************************************
1815:.\Generated_Source\PSoC4/CapSense_1.c **** *
1816:.\Generated_Source\PSoC4/CapSense_1.c **** * Summary:
1817:.\Generated_Source\PSoC4/CapSense_1.c **** *  This API returns a value of the sense clock divider for the  sensor.
1818:.\Generated_Source\PSoC4/CapSense_1.c **** *
1819:.\Generated_Source\PSoC4/CapSense_1.c **** * Parameters:
1820:.\Generated_Source\PSoC4/CapSense_1.c **** *  sensor: sensor index. The index value can be 
ARM GAS  C:\Users\danielpi\AppData\Local\Temp\cccuTXvj.s 			page 65


1821:.\Generated_Source\PSoC4/CapSense_1.c **** *  from 0 to (CapSense_1_TOTAL_SENSOR_COUNT-1).
1822:.\Generated_Source\PSoC4/CapSense_1.c **** *
1823:.\Generated_Source\PSoC4/CapSense_1.c **** * Return:
1824:.\Generated_Source\PSoC4/CapSense_1.c **** *  This API returns the sense clock divider of the sensor. 
1825:.\Generated_Source\PSoC4/CapSense_1.c **** *
1826:.\Generated_Source\PSoC4/CapSense_1.c **** * Global Variables:
1827:.\Generated_Source\PSoC4/CapSense_1.c **** *  CapSense_1_senseClkDividerVal[] - stores the sense clock divider values.
1828:.\Generated_Source\PSoC4/CapSense_1.c **** * 
1829:.\Generated_Source\PSoC4/CapSense_1.c **** * Side Effects:
1830:.\Generated_Source\PSoC4/CapSense_1.c **** *  None
1831:.\Generated_Source\PSoC4/CapSense_1.c **** *
1832:.\Generated_Source\PSoC4/CapSense_1.c **** *******************************************************************************/
1833:.\Generated_Source\PSoC4/CapSense_1.c **** uint32 CapSense_1_GetSenseClkDivider(uint32 sensor)
1834:.\Generated_Source\PSoC4/CapSense_1.c **** {
 1687              		.loc 1 1834 0
 1688              		.cfi_startproc
 1689              	.LVL214:
1835:.\Generated_Source\PSoC4/CapSense_1.c **** 	#if(0u != CapSense_1_MULTIPLE_FREQUENCY_SET)
1836:.\Generated_Source\PSoC4/CapSense_1.c **** 		return((uint32)CapSense_1_senseClkDividerVal[sensor]);
 1690              		.loc 1 1836 0
 1691 0000 014B     		ldr	r3, .L111
 1692 0002 185C     		ldrb	r0, [r3, r0]
 1693              	.LVL215:
1837:.\Generated_Source\PSoC4/CapSense_1.c **** 	#else
1838:.\Generated_Source\PSoC4/CapSense_1.c **** 		return((uint32)CapSense_1_senseClkDividerVal);
1839:.\Generated_Source\PSoC4/CapSense_1.c **** 	#endif /* (0u != CapSense_1_MULTIPLE_FREQUENCY_SET) */
1840:.\Generated_Source\PSoC4/CapSense_1.c **** }
 1694              		.loc 1 1840 0
 1695              		@ sp needed
 1696 0004 7047     		bx	lr
 1697              	.L112:
 1698 0006 C046     		.align	2
 1699              	.L111:
 1700 0008 00000000 		.word	CapSense_1_senseClkDividerVal
 1701              		.cfi_endproc
 1702              	.LFE62:
 1703              		.size	CapSense_1_GetSenseClkDivider, .-CapSense_1_GetSenseClkDivider
 1704              		.section	.text.CapSense_1_SetSenseClkDivider,"ax",%progbits
 1705              		.align	2
 1706              		.global	CapSense_1_SetSenseClkDivider
 1707              		.code	16
 1708              		.thumb_func
 1709              		.type	CapSense_1_SetSenseClkDivider, %function
 1710              	CapSense_1_SetSenseClkDivider:
 1711              	.LFB63:
1841:.\Generated_Source\PSoC4/CapSense_1.c **** 
1842:.\Generated_Source\PSoC4/CapSense_1.c **** #if (CapSense_1_TUNING_METHOD != CapSense_1__TUNING_NONE)
1843:.\Generated_Source\PSoC4/CapSense_1.c **** 	/*******************************************************************************
1844:.\Generated_Source\PSoC4/CapSense_1.c **** 	* Function Name: CapSense_1_SetSenseClkDivider
1845:.\Generated_Source\PSoC4/CapSense_1.c **** 	********************************************************************************
1846:.\Generated_Source\PSoC4/CapSense_1.c **** 	*
1847:.\Generated_Source\PSoC4/CapSense_1.c **** 	* Summary:
1848:.\Generated_Source\PSoC4/CapSense_1.c **** 	*  This API sets a value of the sense clock divider for the  sensor. 
1849:.\Generated_Source\PSoC4/CapSense_1.c **** 	*
1850:.\Generated_Source\PSoC4/CapSense_1.c **** 	* Parameters:
1851:.\Generated_Source\PSoC4/CapSense_1.c **** 	*  sensor:  Sensor index.
1852:.\Generated_Source\PSoC4/CapSense_1.c **** 	*  senseClk: represents the sense clock value.
ARM GAS  C:\Users\danielpi\AppData\Local\Temp\cccuTXvj.s 			page 66


1853:.\Generated_Source\PSoC4/CapSense_1.c **** 	*
1854:.\Generated_Source\PSoC4/CapSense_1.c **** 	* Return:
1855:.\Generated_Source\PSoC4/CapSense_1.c **** 	*  None.
1856:.\Generated_Source\PSoC4/CapSense_1.c **** 	*
1857:.\Generated_Source\PSoC4/CapSense_1.c **** 	* Global Variables:
1858:.\Generated_Source\PSoC4/CapSense_1.c **** 	*  CapSense_1_senseClkDividerVal[] - stores the sense clock divider values.
1859:.\Generated_Source\PSoC4/CapSense_1.c **** 	* 
1860:.\Generated_Source\PSoC4/CapSense_1.c **** 	* Side Effects:
1861:.\Generated_Source\PSoC4/CapSense_1.c **** 	*  None
1862:.\Generated_Source\PSoC4/CapSense_1.c **** 	*
1863:.\Generated_Source\PSoC4/CapSense_1.c **** 	*******************************************************************************/
1864:.\Generated_Source\PSoC4/CapSense_1.c **** 	void CapSense_1_SetSenseClkDivider(uint32 sensor, uint32 senseClk)
1865:.\Generated_Source\PSoC4/CapSense_1.c **** 	{
 1712              		.loc 1 1865 0
 1713              		.cfi_startproc
 1714              	.LVL216:
1866:.\Generated_Source\PSoC4/CapSense_1.c **** 		#if(0u != CapSense_1_MULTIPLE_FREQUENCY_SET)
1867:.\Generated_Source\PSoC4/CapSense_1.c **** 			CapSense_1_senseClkDividerVal[sensor] = (uint8)senseClk;
 1715              		.loc 1 1867 0
 1716 0000 014B     		ldr	r3, .L114
 1717 0002 1954     		strb	r1, [r3, r0]
1868:.\Generated_Source\PSoC4/CapSense_1.c **** 		#else
1869:.\Generated_Source\PSoC4/CapSense_1.c **** 			CapSense_1_senseClkDividerVal = (uint8)senseClk;
1870:.\Generated_Source\PSoC4/CapSense_1.c **** 		#endif /* (0u != CapSense_1_MULTIPLE_FREQUENCY_SET) */
1871:.\Generated_Source\PSoC4/CapSense_1.c **** 	}
 1718              		.loc 1 1871 0
 1719              		@ sp needed
 1720 0004 7047     		bx	lr
 1721              	.L115:
 1722 0006 C046     		.align	2
 1723              	.L114:
 1724 0008 00000000 		.word	CapSense_1_senseClkDividerVal
 1725              		.cfi_endproc
 1726              	.LFE63:
 1727              		.size	CapSense_1_SetSenseClkDivider, .-CapSense_1_SetSenseClkDivider
 1728              		.section	.text.CapSense_1_GetModulatorClkDivider,"ax",%progbits
 1729              		.align	2
 1730              		.global	CapSense_1_GetModulatorClkDivider
 1731              		.code	16
 1732              		.thumb_func
 1733              		.type	CapSense_1_GetModulatorClkDivider, %function
 1734              	CapSense_1_GetModulatorClkDivider:
 1735              	.LFB64:
1872:.\Generated_Source\PSoC4/CapSense_1.c **** #endif /* (CapSense_1_TUNING_METHOD != CapSense_1__TUNING_NONE) */
1873:.\Generated_Source\PSoC4/CapSense_1.c **** 
1874:.\Generated_Source\PSoC4/CapSense_1.c **** 
1875:.\Generated_Source\PSoC4/CapSense_1.c **** /*******************************************************************************
1876:.\Generated_Source\PSoC4/CapSense_1.c **** * Function Name: CapSense_1_GetModulatorClkDivider
1877:.\Generated_Source\PSoC4/CapSense_1.c **** ********************************************************************************
1878:.\Generated_Source\PSoC4/CapSense_1.c **** *
1879:.\Generated_Source\PSoC4/CapSense_1.c **** * Summary:
1880:.\Generated_Source\PSoC4/CapSense_1.c **** *  This API returns a value of the modulator sample clock divider for the  sensor.
1881:.\Generated_Source\PSoC4/CapSense_1.c **** *
1882:.\Generated_Source\PSoC4/CapSense_1.c **** * Parameters:
1883:.\Generated_Source\PSoC4/CapSense_1.c **** *  sensor: sensor index. The value of index can be 
1884:.\Generated_Source\PSoC4/CapSense_1.c **** *  from 0 to (CapSense_1_TOTAL_SENSOR_COUNT-1).
1885:.\Generated_Source\PSoC4/CapSense_1.c **** *
ARM GAS  C:\Users\danielpi\AppData\Local\Temp\cccuTXvj.s 			page 67


1886:.\Generated_Source\PSoC4/CapSense_1.c **** * Return:
1887:.\Generated_Source\PSoC4/CapSense_1.c **** *  This API returns the modulator sample clock divider for the  sensor.
1888:.\Generated_Source\PSoC4/CapSense_1.c **** *
1889:.\Generated_Source\PSoC4/CapSense_1.c **** * Global Variables:
1890:.\Generated_Source\PSoC4/CapSense_1.c **** *  CapSense_1_sampleClkDividerVal[] - stores the modulator sample divider values.
1891:.\Generated_Source\PSoC4/CapSense_1.c **** * 
1892:.\Generated_Source\PSoC4/CapSense_1.c **** * Side Effects:
1893:.\Generated_Source\PSoC4/CapSense_1.c **** *  None
1894:.\Generated_Source\PSoC4/CapSense_1.c **** *
1895:.\Generated_Source\PSoC4/CapSense_1.c **** *******************************************************************************/
1896:.\Generated_Source\PSoC4/CapSense_1.c **** uint32 CapSense_1_GetModulatorClkDivider(uint32 sensor)
1897:.\Generated_Source\PSoC4/CapSense_1.c **** {
 1736              		.loc 1 1897 0
 1737              		.cfi_startproc
 1738              	.LVL217:
1898:.\Generated_Source\PSoC4/CapSense_1.c **** 	#if(0u != CapSense_1_MULTIPLE_FREQUENCY_SET)
1899:.\Generated_Source\PSoC4/CapSense_1.c **** 		return((uint32)CapSense_1_sampleClkDividerVal[sensor]);
 1739              		.loc 1 1899 0
 1740 0000 014B     		ldr	r3, .L117
 1741 0002 185C     		ldrb	r0, [r3, r0]
 1742              	.LVL218:
1900:.\Generated_Source\PSoC4/CapSense_1.c **** 	#else
1901:.\Generated_Source\PSoC4/CapSense_1.c **** 		return((uint32)CapSense_1_sampleClkDividerVal);
1902:.\Generated_Source\PSoC4/CapSense_1.c **** 	#endif /* (0u != CapSense_1_MULTIPLE_FREQUENCY_SET) */
1903:.\Generated_Source\PSoC4/CapSense_1.c **** }
 1743              		.loc 1 1903 0
 1744              		@ sp needed
 1745 0004 7047     		bx	lr
 1746              	.L118:
 1747 0006 C046     		.align	2
 1748              	.L117:
 1749 0008 00000000 		.word	CapSense_1_sampleClkDividerVal
 1750              		.cfi_endproc
 1751              	.LFE64:
 1752              		.size	CapSense_1_GetModulatorClkDivider, .-CapSense_1_GetModulatorClkDivider
 1753              		.section	.text.CapSense_1_SetModulatorClkDivider,"ax",%progbits
 1754              		.align	2
 1755              		.global	CapSense_1_SetModulatorClkDivider
 1756              		.code	16
 1757              		.thumb_func
 1758              		.type	CapSense_1_SetModulatorClkDivider, %function
 1759              	CapSense_1_SetModulatorClkDivider:
 1760              	.LFB65:
1904:.\Generated_Source\PSoC4/CapSense_1.c **** 
1905:.\Generated_Source\PSoC4/CapSense_1.c **** #if (CapSense_1_TUNING_METHOD != CapSense_1__TUNING_NONE)
1906:.\Generated_Source\PSoC4/CapSense_1.c **** 	/*******************************************************************************
1907:.\Generated_Source\PSoC4/CapSense_1.c **** 	* Function Name: CapSense_1_SetModulatorClkDivider
1908:.\Generated_Source\PSoC4/CapSense_1.c **** 	********************************************************************************
1909:.\Generated_Source\PSoC4/CapSense_1.c **** 	*
1910:.\Generated_Source\PSoC4/CapSense_1.c **** 	* Summary:
1911:.\Generated_Source\PSoC4/CapSense_1.c **** 	*  This API sets a value of the modulator sample clock divider for the  sensor.
1912:.\Generated_Source\PSoC4/CapSense_1.c **** 	*
1913:.\Generated_Source\PSoC4/CapSense_1.c **** 	* Parameters:
1914:.\Generated_Source\PSoC4/CapSense_1.c **** 	*  sensor:  Sensor index.
1915:.\Generated_Source\PSoC4/CapSense_1.c **** 	*  modulatorClk: represents the modulator sample clock value.
1916:.\Generated_Source\PSoC4/CapSense_1.c **** 	*
1917:.\Generated_Source\PSoC4/CapSense_1.c **** 	* Return:
ARM GAS  C:\Users\danielpi\AppData\Local\Temp\cccuTXvj.s 			page 68


1918:.\Generated_Source\PSoC4/CapSense_1.c **** 	*  None.
1919:.\Generated_Source\PSoC4/CapSense_1.c **** 	*
1920:.\Generated_Source\PSoC4/CapSense_1.c **** 	* Global Variables:
1921:.\Generated_Source\PSoC4/CapSense_1.c **** 	*  CapSense_1_sampleClkDividerVal[] - stores the modulator sample divider values.
1922:.\Generated_Source\PSoC4/CapSense_1.c **** 	* 
1923:.\Generated_Source\PSoC4/CapSense_1.c **** 	* Side Effects:
1924:.\Generated_Source\PSoC4/CapSense_1.c **** 	*  None
1925:.\Generated_Source\PSoC4/CapSense_1.c **** 	*
1926:.\Generated_Source\PSoC4/CapSense_1.c **** 	*******************************************************************************/
1927:.\Generated_Source\PSoC4/CapSense_1.c **** 	void CapSense_1_SetModulatorClkDivider(uint32 sensor, uint32 modulatorClk)
1928:.\Generated_Source\PSoC4/CapSense_1.c **** 	{
 1761              		.loc 1 1928 0
 1762              		.cfi_startproc
 1763              	.LVL219:
1929:.\Generated_Source\PSoC4/CapSense_1.c **** 		#if(0u != CapSense_1_MULTIPLE_FREQUENCY_SET)
1930:.\Generated_Source\PSoC4/CapSense_1.c **** 			CapSense_1_sampleClkDividerVal[sensor] = (uint8)modulatorClk;
 1764              		.loc 1 1930 0
 1765 0000 014B     		ldr	r3, .L120
 1766 0002 1954     		strb	r1, [r3, r0]
1931:.\Generated_Source\PSoC4/CapSense_1.c **** 		#else
1932:.\Generated_Source\PSoC4/CapSense_1.c **** 			CapSense_1_sampleClkDividerVal = (uint8)modulatorClk;
1933:.\Generated_Source\PSoC4/CapSense_1.c **** 		#endif /* (0u != CapSense_1_MULTIPLE_FREQUENCY_SET) */
1934:.\Generated_Source\PSoC4/CapSense_1.c **** 	}
 1767              		.loc 1 1934 0
 1768              		@ sp needed
 1769 0004 7047     		bx	lr
 1770              	.L121:
 1771 0006 C046     		.align	2
 1772              	.L120:
 1773 0008 00000000 		.word	CapSense_1_sampleClkDividerVal
 1774              		.cfi_endproc
 1775              	.LFE65:
 1776              		.size	CapSense_1_SetModulatorClkDivider, .-CapSense_1_SetModulatorClkDivider
 1777              		.section	.text.CapSense_1_GetModulationIDAC,"ax",%progbits
 1778              		.align	2
 1779              		.global	CapSense_1_GetModulationIDAC
 1780              		.code	16
 1781              		.thumb_func
 1782              		.type	CapSense_1_GetModulationIDAC, %function
 1783              	CapSense_1_GetModulationIDAC:
 1784              	.LFB66:
1935:.\Generated_Source\PSoC4/CapSense_1.c **** #endif /* (CapSense_1_TUNING_METHOD != CapSense_1__TUNING_NONE) */
1936:.\Generated_Source\PSoC4/CapSense_1.c **** 
1937:.\Generated_Source\PSoC4/CapSense_1.c **** /*******************************************************************************
1938:.\Generated_Source\PSoC4/CapSense_1.c **** * Function Name: CapSense_1_GetModulationIDAC
1939:.\Generated_Source\PSoC4/CapSense_1.c **** ********************************************************************************
1940:.\Generated_Source\PSoC4/CapSense_1.c **** *
1941:.\Generated_Source\PSoC4/CapSense_1.c **** * Summary:
1942:.\Generated_Source\PSoC4/CapSense_1.c **** *  This API returns a value of the modulation IDAC for the  sensor.
1943:.\Generated_Source\PSoC4/CapSense_1.c **** *
1944:.\Generated_Source\PSoC4/CapSense_1.c **** * Parameters:
1945:.\Generated_Source\PSoC4/CapSense_1.c **** *  sensor: sensor index. The index value can be 
1946:.\Generated_Source\PSoC4/CapSense_1.c **** *  from 0 to (CapSense_1_TOTAL_SENSOR_COUNT-1).
1947:.\Generated_Source\PSoC4/CapSense_1.c **** *
1948:.\Generated_Source\PSoC4/CapSense_1.c **** * Return:
1949:.\Generated_Source\PSoC4/CapSense_1.c **** *  This API returns the modulation IDAC of the sensor. 
1950:.\Generated_Source\PSoC4/CapSense_1.c **** *
ARM GAS  C:\Users\danielpi\AppData\Local\Temp\cccuTXvj.s 			page 69


1951:.\Generated_Source\PSoC4/CapSense_1.c **** * Global Variables:
1952:.\Generated_Source\PSoC4/CapSense_1.c **** *  CapSense_1_modulationIDAC[] - stores modulation IDAC values.
1953:.\Generated_Source\PSoC4/CapSense_1.c **** * 
1954:.\Generated_Source\PSoC4/CapSense_1.c **** * Side Effects:
1955:.\Generated_Source\PSoC4/CapSense_1.c **** *  None
1956:.\Generated_Source\PSoC4/CapSense_1.c **** *
1957:.\Generated_Source\PSoC4/CapSense_1.c **** *******************************************************************************/
1958:.\Generated_Source\PSoC4/CapSense_1.c **** uint32 CapSense_1_GetModulationIDAC(uint32 sensor)
1959:.\Generated_Source\PSoC4/CapSense_1.c **** {
 1785              		.loc 1 1959 0
 1786              		.cfi_startproc
 1787              	.LVL220:
1960:.\Generated_Source\PSoC4/CapSense_1.c **** 		return((uint32)CapSense_1_modulationIDAC[sensor]);
 1788              		.loc 1 1960 0
 1789 0000 014B     		ldr	r3, .L123
 1790 0002 185C     		ldrb	r0, [r3, r0]
 1791              	.LVL221:
1961:.\Generated_Source\PSoC4/CapSense_1.c **** }
 1792              		.loc 1 1961 0
 1793              		@ sp needed
 1794 0004 7047     		bx	lr
 1795              	.L124:
 1796 0006 C046     		.align	2
 1797              	.L123:
 1798 0008 00000000 		.word	CapSense_1_modulationIDAC
 1799              		.cfi_endproc
 1800              	.LFE66:
 1801              		.size	CapSense_1_GetModulationIDAC, .-CapSense_1_GetModulationIDAC
 1802              		.section	.text.CapSense_1_SetModulationIDAC,"ax",%progbits
 1803              		.align	2
 1804              		.global	CapSense_1_SetModulationIDAC
 1805              		.code	16
 1806              		.thumb_func
 1807              		.type	CapSense_1_SetModulationIDAC, %function
 1808              	CapSense_1_SetModulationIDAC:
 1809              	.LFB67:
1962:.\Generated_Source\PSoC4/CapSense_1.c **** 
1963:.\Generated_Source\PSoC4/CapSense_1.c **** #if (CapSense_1_TUNING_METHOD != CapSense_1__TUNING_NONE)
1964:.\Generated_Source\PSoC4/CapSense_1.c **** 	/*******************************************************************************
1965:.\Generated_Source\PSoC4/CapSense_1.c **** 	* Function Name: CapSense_1_SetModulationIDAC
1966:.\Generated_Source\PSoC4/CapSense_1.c **** 	********************************************************************************
1967:.\Generated_Source\PSoC4/CapSense_1.c **** 	*
1968:.\Generated_Source\PSoC4/CapSense_1.c **** 	* Summary:
1969:.\Generated_Source\PSoC4/CapSense_1.c **** 	*  This API sets a value of the modulation IDAC for the  sensor.
1970:.\Generated_Source\PSoC4/CapSense_1.c **** 	*
1971:.\Generated_Source\PSoC4/CapSense_1.c **** 	* Parameters:
1972:.\Generated_Source\PSoC4/CapSense_1.c **** 	*  sensor:  Sensor index.
1973:.\Generated_Source\PSoC4/CapSense_1.c **** 	*  compIdacValue: represents the modulation IDAC data register value.
1974:.\Generated_Source\PSoC4/CapSense_1.c **** 	*
1975:.\Generated_Source\PSoC4/CapSense_1.c **** 	* Return:
1976:.\Generated_Source\PSoC4/CapSense_1.c **** 	*  None.
1977:.\Generated_Source\PSoC4/CapSense_1.c **** 	*
1978:.\Generated_Source\PSoC4/CapSense_1.c **** 	* Global Variables:
1979:.\Generated_Source\PSoC4/CapSense_1.c **** 	*  CapSense_1_modulationIDAC[] - array with modulation IDAC values
1980:.\Generated_Source\PSoC4/CapSense_1.c **** 	* 
1981:.\Generated_Source\PSoC4/CapSense_1.c **** 	* Side Effects:
1982:.\Generated_Source\PSoC4/CapSense_1.c **** 	*  None
ARM GAS  C:\Users\danielpi\AppData\Local\Temp\cccuTXvj.s 			page 70


1983:.\Generated_Source\PSoC4/CapSense_1.c **** 	*
1984:.\Generated_Source\PSoC4/CapSense_1.c **** 	*******************************************************************************/
1985:.\Generated_Source\PSoC4/CapSense_1.c **** 	void CapSense_1_SetModulationIDAC(uint32 sensor, uint32 modIdacValue)
1986:.\Generated_Source\PSoC4/CapSense_1.c **** 	{
 1810              		.loc 1 1986 0
 1811              		.cfi_startproc
 1812              	.LVL222:
1987:.\Generated_Source\PSoC4/CapSense_1.c **** 		CapSense_1_modulationIDAC[sensor] = (uint8)modIdacValue;
 1813              		.loc 1 1987 0
 1814 0000 014B     		ldr	r3, .L126
 1815 0002 1954     		strb	r1, [r3, r0]
1988:.\Generated_Source\PSoC4/CapSense_1.c **** 	}
 1816              		.loc 1 1988 0
 1817              		@ sp needed
 1818 0004 7047     		bx	lr
 1819              	.L127:
 1820 0006 C046     		.align	2
 1821              	.L126:
 1822 0008 00000000 		.word	CapSense_1_modulationIDAC
 1823              		.cfi_endproc
 1824              	.LFE67:
 1825              		.size	CapSense_1_SetModulationIDAC, .-CapSense_1_SetModulationIDAC
 1826              		.section	.text.CapSense_1_GetCompensationIDAC,"ax",%progbits
 1827              		.align	2
 1828              		.global	CapSense_1_GetCompensationIDAC
 1829              		.code	16
 1830              		.thumb_func
 1831              		.type	CapSense_1_GetCompensationIDAC, %function
 1832              	CapSense_1_GetCompensationIDAC:
 1833              	.LFB68:
1989:.\Generated_Source\PSoC4/CapSense_1.c **** #endif /* (CapSense_1_TUNING_METHOD != CapSense_1__TUNING_NONE) */
1990:.\Generated_Source\PSoC4/CapSense_1.c **** 
1991:.\Generated_Source\PSoC4/CapSense_1.c **** 
1992:.\Generated_Source\PSoC4/CapSense_1.c **** #if(CapSense_1_IDAC_CNT > 1u)
1993:.\Generated_Source\PSoC4/CapSense_1.c **** 	/*******************************************************************************
1994:.\Generated_Source\PSoC4/CapSense_1.c **** 	* Function Name: CapSense_1_GetCompensationIDAC
1995:.\Generated_Source\PSoC4/CapSense_1.c **** 	********************************************************************************
1996:.\Generated_Source\PSoC4/CapSense_1.c **** 	*
1997:.\Generated_Source\PSoC4/CapSense_1.c **** 	* Summary:
1998:.\Generated_Source\PSoC4/CapSense_1.c **** 	*  This API returns a value of the compensation IDAC for the  sensor.
1999:.\Generated_Source\PSoC4/CapSense_1.c **** 	*
2000:.\Generated_Source\PSoC4/CapSense_1.c **** 	* Parameters:
2001:.\Generated_Source\PSoC4/CapSense_1.c **** 	*  sensor: sensor index. The index value can be 
2002:.\Generated_Source\PSoC4/CapSense_1.c **** 	*  from 0 to (CapSense_1_TOTAL_SENSOR_COUNT-1).
2003:.\Generated_Source\PSoC4/CapSense_1.c **** 	*
2004:.\Generated_Source\PSoC4/CapSense_1.c **** 	* Return:
2005:.\Generated_Source\PSoC4/CapSense_1.c **** 	*  This API returns the compensation IDAC of the sensor. 
2006:.\Generated_Source\PSoC4/CapSense_1.c **** 	*
2007:.\Generated_Source\PSoC4/CapSense_1.c **** 	* Global Variables:
2008:.\Generated_Source\PSoC4/CapSense_1.c **** 	*  CapSense_1_compensationIDAC[] - stores the compensation IDAC values.
2009:.\Generated_Source\PSoC4/CapSense_1.c **** 	* 
2010:.\Generated_Source\PSoC4/CapSense_1.c **** 	* Side Effects:
2011:.\Generated_Source\PSoC4/CapSense_1.c **** 	*  None
2012:.\Generated_Source\PSoC4/CapSense_1.c **** 	*
2013:.\Generated_Source\PSoC4/CapSense_1.c **** 	*******************************************************************************/
2014:.\Generated_Source\PSoC4/CapSense_1.c **** 	uint32 CapSense_1_GetCompensationIDAC(uint32 sensor)
2015:.\Generated_Source\PSoC4/CapSense_1.c **** 	{
ARM GAS  C:\Users\danielpi\AppData\Local\Temp\cccuTXvj.s 			page 71


 1834              		.loc 1 2015 0
 1835              		.cfi_startproc
 1836              	.LVL223:
2016:.\Generated_Source\PSoC4/CapSense_1.c **** 		return((uint32)CapSense_1_compensationIDAC[sensor]);
 1837              		.loc 1 2016 0
 1838 0000 014B     		ldr	r3, .L129
 1839 0002 185C     		ldrb	r0, [r3, r0]
 1840              	.LVL224:
2017:.\Generated_Source\PSoC4/CapSense_1.c **** 	}
 1841              		.loc 1 2017 0
 1842              		@ sp needed
 1843 0004 7047     		bx	lr
 1844              	.L130:
 1845 0006 C046     		.align	2
 1846              	.L129:
 1847 0008 00000000 		.word	CapSense_1_compensationIDAC
 1848              		.cfi_endproc
 1849              	.LFE68:
 1850              		.size	CapSense_1_GetCompensationIDAC, .-CapSense_1_GetCompensationIDAC
 1851              		.section	.text.CapSense_1_SetCompensationIDAC,"ax",%progbits
 1852              		.align	2
 1853              		.global	CapSense_1_SetCompensationIDAC
 1854              		.code	16
 1855              		.thumb_func
 1856              		.type	CapSense_1_SetCompensationIDAC, %function
 1857              	CapSense_1_SetCompensationIDAC:
 1858              	.LFB69:
2018:.\Generated_Source\PSoC4/CapSense_1.c **** #endif /* (CapSense_1_IDAC_CNT > 1u) */
2019:.\Generated_Source\PSoC4/CapSense_1.c **** 
2020:.\Generated_Source\PSoC4/CapSense_1.c **** 
2021:.\Generated_Source\PSoC4/CapSense_1.c **** #if((CapSense_1_TUNING_METHOD != CapSense_1__TUNING_NONE) && (CapSense_1_IDAC_CNT > 1u))
2022:.\Generated_Source\PSoC4/CapSense_1.c **** 	/*******************************************************************************
2023:.\Generated_Source\PSoC4/CapSense_1.c **** 	* Function Name: CapSense_1_SetCompensationIDAC
2024:.\Generated_Source\PSoC4/CapSense_1.c **** 	********************************************************************************
2025:.\Generated_Source\PSoC4/CapSense_1.c **** 	*
2026:.\Generated_Source\PSoC4/CapSense_1.c **** 	* Summary:
2027:.\Generated_Source\PSoC4/CapSense_1.c **** 	*  This API sets a value of compensation IDAC for the  sensor.
2028:.\Generated_Source\PSoC4/CapSense_1.c **** 	*
2029:.\Generated_Source\PSoC4/CapSense_1.c **** 	* Parameters:
2030:.\Generated_Source\PSoC4/CapSense_1.c **** 	*  sensor:  Sensor index.
2031:.\Generated_Source\PSoC4/CapSense_1.c **** 	*  compIdacValue: represents the compensation IDAC data register value.
2032:.\Generated_Source\PSoC4/CapSense_1.c **** 	*
2033:.\Generated_Source\PSoC4/CapSense_1.c **** 	* Return:
2034:.\Generated_Source\PSoC4/CapSense_1.c **** 	*  None.
2035:.\Generated_Source\PSoC4/CapSense_1.c **** 	*
2036:.\Generated_Source\PSoC4/CapSense_1.c **** 	* Global Variables:
2037:.\Generated_Source\PSoC4/CapSense_1.c **** 	*  CapSense_1_compensationIDAC[] - an array with compensation IDAC values
2038:.\Generated_Source\PSoC4/CapSense_1.c **** 	* 
2039:.\Generated_Source\PSoC4/CapSense_1.c **** 	* Side Effects:
2040:.\Generated_Source\PSoC4/CapSense_1.c **** 	*  None
2041:.\Generated_Source\PSoC4/CapSense_1.c **** 	*
2042:.\Generated_Source\PSoC4/CapSense_1.c **** 	*******************************************************************************/
2043:.\Generated_Source\PSoC4/CapSense_1.c **** 	void CapSense_1_SetCompensationIDAC(uint32 sensor, uint32 compIdacValue)
2044:.\Generated_Source\PSoC4/CapSense_1.c **** 	{
 1859              		.loc 1 2044 0
 1860              		.cfi_startproc
 1861              	.LVL225:
ARM GAS  C:\Users\danielpi\AppData\Local\Temp\cccuTXvj.s 			page 72


2045:.\Generated_Source\PSoC4/CapSense_1.c **** 		CapSense_1_compensationIDAC[sensor] = (uint8)compIdacValue;
 1862              		.loc 1 2045 0
 1863 0000 014B     		ldr	r3, .L132
 1864 0002 1954     		strb	r1, [r3, r0]
2046:.\Generated_Source\PSoC4/CapSense_1.c **** 	}
 1865              		.loc 1 2046 0
 1866              		@ sp needed
 1867 0004 7047     		bx	lr
 1868              	.L133:
 1869 0006 C046     		.align	2
 1870              	.L132:
 1871 0008 00000000 		.word	CapSense_1_compensationIDAC
 1872              		.cfi_endproc
 1873              	.LFE69:
 1874              		.size	CapSense_1_SetCompensationIDAC, .-CapSense_1_SetCompensationIDAC
 1875              		.section	.text.CapSense_1_GetIDACRange,"ax",%progbits
 1876              		.align	2
 1877              		.global	CapSense_1_GetIDACRange
 1878              		.code	16
 1879              		.thumb_func
 1880              		.type	CapSense_1_GetIDACRange, %function
 1881              	CapSense_1_GetIDACRange:
 1882              	.LFB70:
2047:.\Generated_Source\PSoC4/CapSense_1.c **** #endif /* ((CapSense_1_TUNING_METHOD != CapSense_1__TUNING_NONE) && (CapSense_1_IDAC_CNT > 1u)) */
2048:.\Generated_Source\PSoC4/CapSense_1.c **** 
2049:.\Generated_Source\PSoC4/CapSense_1.c **** /*******************************************************************************
2050:.\Generated_Source\PSoC4/CapSense_1.c **** * Function Name: CapSense_1_GetIDACRange
2051:.\Generated_Source\PSoC4/CapSense_1.c **** ********************************************************************************
2052:.\Generated_Source\PSoC4/CapSense_1.c **** *
2053:.\Generated_Source\PSoC4/CapSense_1.c **** * Summary:
2054:.\Generated_Source\PSoC4/CapSense_1.c **** *  This API returns a value that indicates the IDAC range used by the 
2055:.\Generated_Source\PSoC4/CapSense_1.c **** *  component to scan sensors. The IDAC range is common for all the sensors.
2056:.\Generated_Source\PSoC4/CapSense_1.c **** *
2057:.\Generated_Source\PSoC4/CapSense_1.c **** * Parameters:
2058:.\Generated_Source\PSoC4/CapSense_1.c **** *  None
2059:.\Generated_Source\PSoC4/CapSense_1.c **** *
2060:.\Generated_Source\PSoC4/CapSense_1.c **** * Return:
2061:.\Generated_Source\PSoC4/CapSense_1.c **** *  This API Returns a value that indicates the IDAC range:
2062:.\Generated_Source\PSoC4/CapSense_1.c **** *      0 - IDAC range set to 4x
2063:.\Generated_Source\PSoC4/CapSense_1.c **** *      1 - IDAC range set to 8x
2064:.\Generated_Source\PSoC4/CapSense_1.c **** *
2065:.\Generated_Source\PSoC4/CapSense_1.c **** * Global Variables:
2066:.\Generated_Source\PSoC4/CapSense_1.c **** *  None
2067:.\Generated_Source\PSoC4/CapSense_1.c **** * 
2068:.\Generated_Source\PSoC4/CapSense_1.c **** * Side Effects:
2069:.\Generated_Source\PSoC4/CapSense_1.c **** *  None
2070:.\Generated_Source\PSoC4/CapSense_1.c **** *
2071:.\Generated_Source\PSoC4/CapSense_1.c **** *******************************************************************************/
2072:.\Generated_Source\PSoC4/CapSense_1.c **** uint32 CapSense_1_GetIDACRange(void)
2073:.\Generated_Source\PSoC4/CapSense_1.c **** {
 1883              		.loc 1 2073 0
 1884              		.cfi_startproc
2074:.\Generated_Source\PSoC4/CapSense_1.c **** 	return((0u != (CapSense_1_CSD_IDAC_REG & CapSense_1_CSD_IDAC1_RANGE_8X)) ? 1uL : 0uL);
 1885              		.loc 1 2074 0
 1886 0000 034B     		ldr	r3, .L137
 1887 0002 1B68     		ldr	r3, [r3]
 1888 0004 5A05     		lsl	r2, r3, #21
ARM GAS  C:\Users\danielpi\AppData\Local\Temp\cccuTXvj.s 			page 73


 1889 0006 01D5     		bpl	.L136
 1890 0008 0120     		mov	r0, #1
 1891 000a 00E0     		b	.L135
 1892              	.L136:
 1893 000c 0020     		mov	r0, #0
 1894              	.L135:
2075:.\Generated_Source\PSoC4/CapSense_1.c **** }
 1895              		.loc 1 2075 0 discriminator 3
 1896              		@ sp needed
 1897 000e 7047     		bx	lr
 1898              	.L138:
 1899              		.align	2
 1900              	.L137:
 1901 0010 08002840 		.word	1076363272
 1902              		.cfi_endproc
 1903              	.LFE70:
 1904              		.size	CapSense_1_GetIDACRange, .-CapSense_1_GetIDACRange
 1905              		.section	.text.CapSense_1_SetIDACRange,"ax",%progbits
 1906              		.align	2
 1907              		.global	CapSense_1_SetIDACRange
 1908              		.code	16
 1909              		.thumb_func
 1910              		.type	CapSense_1_SetIDACRange, %function
 1911              	CapSense_1_SetIDACRange:
 1912              	.LFB71:
2076:.\Generated_Source\PSoC4/CapSense_1.c **** 
2077:.\Generated_Source\PSoC4/CapSense_1.c **** #if (CapSense_1_TUNING_METHOD != CapSense_1__TUNING_NONE)
2078:.\Generated_Source\PSoC4/CapSense_1.c **** 	/*******************************************************************************
2079:.\Generated_Source\PSoC4/CapSense_1.c **** 	* Function Name: CapSense_1_SetIDACRange
2080:.\Generated_Source\PSoC4/CapSense_1.c **** 	********************************************************************************
2081:.\Generated_Source\PSoC4/CapSense_1.c **** 	*
2082:.\Generated_Source\PSoC4/CapSense_1.c **** 	* Summary:
2083:.\Generated_Source\PSoC4/CapSense_1.c **** 	*  This API sets the IDAC range to the 4x (1.2uA/bit) or 8x (2.4uA/bit) mode.
2084:.\Generated_Source\PSoC4/CapSense_1.c ****     *  The IDAC range is common for all the sensors and common for the modulation and 
2085:.\Generated_Source\PSoC4/CapSense_1.c **** 	*  compensation IDACs.
2086:.\Generated_Source\PSoC4/CapSense_1.c **** 	*
2087:.\Generated_Source\PSoC4/CapSense_1.c **** 	* Parameters:
2088:.\Generated_Source\PSoC4/CapSense_1.c **** 	*  iDacRange:  represents value for IDAC range 
2089:.\Generated_Source\PSoC4/CapSense_1.c **** 	*  0 -  IDAC range set to 4x (1.2uA/bit)
2090:.\Generated_Source\PSoC4/CapSense_1.c **** 	*  1 or >1 - IDAC range set to 8x (2.4uA/bit)
2091:.\Generated_Source\PSoC4/CapSense_1.c **** 	*
2092:.\Generated_Source\PSoC4/CapSense_1.c **** 	* Return:
2093:.\Generated_Source\PSoC4/CapSense_1.c **** 	*  None.
2094:.\Generated_Source\PSoC4/CapSense_1.c **** 	*
2095:.\Generated_Source\PSoC4/CapSense_1.c **** 	* Global Variables:
2096:.\Generated_Source\PSoC4/CapSense_1.c **** 	*  None
2097:.\Generated_Source\PSoC4/CapSense_1.c **** 	* 
2098:.\Generated_Source\PSoC4/CapSense_1.c **** 	* Side Effects:
2099:.\Generated_Source\PSoC4/CapSense_1.c **** 	*  None
2100:.\Generated_Source\PSoC4/CapSense_1.c **** 	*
2101:.\Generated_Source\PSoC4/CapSense_1.c **** 	*******************************************************************************/
2102:.\Generated_Source\PSoC4/CapSense_1.c **** 	void CapSense_1_SetIDACRange(uint32 iDacRange)
2103:.\Generated_Source\PSoC4/CapSense_1.c **** 	{
 1913              		.loc 1 2103 0
 1914              		.cfi_startproc
 1915              	.LVL226:
2104:.\Generated_Source\PSoC4/CapSense_1.c **** 	    if(iDacRange != 0u)
ARM GAS  C:\Users\danielpi\AppData\Local\Temp\cccuTXvj.s 			page 74


 1916              		.loc 1 2104 0
 1917 0000 0028     		cmp	r0, #0
 1918 0002 05D0     		beq	.L140
2105:.\Generated_Source\PSoC4/CapSense_1.c **** 		{
2106:.\Generated_Source\PSoC4/CapSense_1.c **** 		    /*  IDAC range = 8x (2.4uA/bit) */ 
2107:.\Generated_Source\PSoC4/CapSense_1.c **** 		    CapSense_1_CSD_IDAC_REG |= (CapSense_1_CSD_IDAC1_RANGE_8X |\
 1919              		.loc 1 2107 0
 1920 0004 054B     		ldr	r3, .L142
 1921 0006 1A68     		ldr	r2, [r3]
 1922 0008 0549     		ldr	r1, .L142+4
 1923 000a 0A43     		orr	r2, r1
 1924 000c 1A60     		str	r2, [r3]
 1925 000e 04E0     		b	.L139
 1926              	.L140:
2108:.\Generated_Source\PSoC4/CapSense_1.c **** 											  CapSense_1_CSD_IDAC2_RANGE_8X);
2109:.\Generated_Source\PSoC4/CapSense_1.c **** 		}
2110:.\Generated_Source\PSoC4/CapSense_1.c **** 		else
2111:.\Generated_Source\PSoC4/CapSense_1.c **** 		{
2112:.\Generated_Source\PSoC4/CapSense_1.c **** 		    /*  IDAC range = 4x (1.2uA/bit) */ 
2113:.\Generated_Source\PSoC4/CapSense_1.c **** 		    /*  IDAC range = 8x (2.4uA/bit) */ 
2114:.\Generated_Source\PSoC4/CapSense_1.c **** 		    CapSense_1_CSD_IDAC_REG &= ~(CapSense_1_CSD_IDAC1_RANGE_8X |\
 1927              		.loc 1 2114 0
 1928 0010 024B     		ldr	r3, .L142
 1929 0012 1968     		ldr	r1, [r3]
 1930 0014 034A     		ldr	r2, .L142+8
 1931 0016 0A40     		and	r2, r1
 1932 0018 1A60     		str	r2, [r3]
 1933              	.L139:
2115:.\Generated_Source\PSoC4/CapSense_1.c **** 											   CapSense_1_CSD_IDAC2_RANGE_8X);
2116:.\Generated_Source\PSoC4/CapSense_1.c **** 		}
2117:.\Generated_Source\PSoC4/CapSense_1.c **** 	}
 1934              		.loc 1 2117 0
 1935              		@ sp needed
 1936 001a 7047     		bx	lr
 1937              	.L143:
 1938              		.align	2
 1939              	.L142:
 1940 001c 08002840 		.word	1076363272
 1941 0020 00040004 		.word	67109888
 1942 0024 FFFBFFFB 		.word	-67109889
 1943              		.cfi_endproc
 1944              	.LFE71:
 1945              		.size	CapSense_1_SetIDACRange, .-CapSense_1_SetIDACRange
 1946              		.section	.text.CapSense_1_GetSensorRaw,"ax",%progbits
 1947              		.align	2
 1948              		.global	CapSense_1_GetSensorRaw
 1949              		.code	16
 1950              		.thumb_func
 1951              		.type	CapSense_1_GetSensorRaw, %function
 1952              	CapSense_1_GetSensorRaw:
 1953              	.LFB72:
2118:.\Generated_Source\PSoC4/CapSense_1.c **** #endif /* (CapSense_1_TUNING_METHOD != CapSense_1__TUNING_NONE) */
2119:.\Generated_Source\PSoC4/CapSense_1.c **** 
2120:.\Generated_Source\PSoC4/CapSense_1.c **** 
2121:.\Generated_Source\PSoC4/CapSense_1.c **** #if((0u != CapSense_1_AUTOCALIBRATION_ENABLE) || (CapSense_1_TUNING_METHOD == CapSense_1__TUNING_AU
2122:.\Generated_Source\PSoC4/CapSense_1.c **** 	/*******************************************************************************
2123:.\Generated_Source\PSoC4/CapSense_1.c **** 	* Function Name: CapSense_1_GetSensorRaw
ARM GAS  C:\Users\danielpi\AppData\Local\Temp\cccuTXvj.s 			page 75


2124:.\Generated_Source\PSoC4/CapSense_1.c **** 	********************************************************************************
2125:.\Generated_Source\PSoC4/CapSense_1.c **** 	*
2126:.\Generated_Source\PSoC4/CapSense_1.c **** 	* Summary:
2127:.\Generated_Source\PSoC4/CapSense_1.c **** 	*  The API updates and gets uprated raw data from the sensor.
2128:.\Generated_Source\PSoC4/CapSense_1.c **** 	*
2129:.\Generated_Source\PSoC4/CapSense_1.c **** 	* Parameters:
2130:.\Generated_Source\PSoC4/CapSense_1.c **** 	*  sensor - Sensor number.
2131:.\Generated_Source\PSoC4/CapSense_1.c **** 	*
2132:.\Generated_Source\PSoC4/CapSense_1.c **** 	* Return:
2133:.\Generated_Source\PSoC4/CapSense_1.c **** 	*  Returns the current raw data value for a defined sensor number.
2134:.\Generated_Source\PSoC4/CapSense_1.c **** 	*
2135:.\Generated_Source\PSoC4/CapSense_1.c **** 	* Global Variables:
2136:.\Generated_Source\PSoC4/CapSense_1.c **** 	*  None
2137:.\Generated_Source\PSoC4/CapSense_1.c **** 	*
2138:.\Generated_Source\PSoC4/CapSense_1.c **** 	* Side Effects:
2139:.\Generated_Source\PSoC4/CapSense_1.c **** 	*  None
2140:.\Generated_Source\PSoC4/CapSense_1.c **** 	*
2141:.\Generated_Source\PSoC4/CapSense_1.c **** 	*******************************************************************************/
2142:.\Generated_Source\PSoC4/CapSense_1.c **** 	uint16  CapSense_1_GetSensorRaw(uint32 sensor)
2143:.\Generated_Source\PSoC4/CapSense_1.c **** 	{
 1954              		.loc 1 2143 0
 1955              		.cfi_startproc
 1956              	.LVL227:
 1957 0000 70B5     		push	{r4, r5, r6, lr}
 1958              		.cfi_def_cfa_offset 16
 1959              		.cfi_offset 4, -16
 1960              		.cfi_offset 5, -12
 1961              		.cfi_offset 6, -8
 1962              		.cfi_offset 14, -4
 1963 0002 061C     		mov	r6, r0
 1964              	.LVL228:
2144:.\Generated_Source\PSoC4/CapSense_1.c **** 		uint32 curSample;
2145:.\Generated_Source\PSoC4/CapSense_1.c **** 		uint32 avgVal = 0u;
 1965              		.loc 1 2145 0
 1966 0004 0025     		mov	r5, #0
2146:.\Generated_Source\PSoC4/CapSense_1.c **** 		
2147:.\Generated_Source\PSoC4/CapSense_1.c **** 		for(curSample = 0u; curSample < CapSense_1_AVG_SAMPLES_NUM; curSample++)
 1967              		.loc 1 2147 0
 1968 0006 0024     		mov	r4, #0
 1969 0008 0BE0     		b	.L145
 1970              	.LVL229:
 1971              	.L147:
2148:.\Generated_Source\PSoC4/CapSense_1.c **** 		{
2149:.\Generated_Source\PSoC4/CapSense_1.c **** 	    
2150:.\Generated_Source\PSoC4/CapSense_1.c **** 			CapSense_1_ScanSensor((uint32)sensor);
 1972              		.loc 1 2150 0
 1973 000a 301C     		mov	r0, r6
 1974 000c FFF7FEFF 		bl	CapSense_1_ScanSensor
 1975              	.LVL230:
 1976              	.L146:
2151:.\Generated_Source\PSoC4/CapSense_1.c **** 		    while(CapSense_1_IsBusy() == 1u)
 1977              		.loc 1 2151 0 discriminator 1
 1978 0010 FFF7FEFF 		bl	CapSense_1_IsBusy
 1979              	.LVL231:
 1980 0014 0128     		cmp	r0, #1
 1981 0016 FBD0     		beq	.L146
2152:.\Generated_Source\PSoC4/CapSense_1.c **** 			{
ARM GAS  C:\Users\danielpi\AppData\Local\Temp\cccuTXvj.s 			page 76


2153:.\Generated_Source\PSoC4/CapSense_1.c **** 				/* Wait while sensor is busy */
2154:.\Generated_Source\PSoC4/CapSense_1.c **** 			}
2155:.\Generated_Source\PSoC4/CapSense_1.c **** 			avgVal += CapSense_1_ReadSensorRaw((uint32)sensor);
 1982              		.loc 1 2155 0
 1983 0018 301C     		mov	r0, r6
 1984 001a FFF7FEFF 		bl	CapSense_1_ReadSensorRaw
 1985              	.LVL232:
 1986 001e 2D18     		add	r5, r5, r0
 1987              	.LVL233:
2147:.\Generated_Source\PSoC4/CapSense_1.c **** 		for(curSample = 0u; curSample < CapSense_1_AVG_SAMPLES_NUM; curSample++)
 1988              		.loc 1 2147 0
 1989 0020 0134     		add	r4, r4, #1
 1990              	.LVL234:
 1991              	.L145:
2147:.\Generated_Source\PSoC4/CapSense_1.c **** 		for(curSample = 0u; curSample < CapSense_1_AVG_SAMPLES_NUM; curSample++)
 1992              		.loc 1 2147 0 is_stmt 0 discriminator 1
 1993 0022 002C     		cmp	r4, #0
 1994 0024 F1D0     		beq	.L147
2156:.\Generated_Source\PSoC4/CapSense_1.c **** 		}
2157:.\Generated_Source\PSoC4/CapSense_1.c **** 	    
2158:.\Generated_Source\PSoC4/CapSense_1.c **** 	    return((uint16)(avgVal / CapSense_1_AVG_SAMPLES_NUM));
 1995              		.loc 1 2158 0 is_stmt 1
 1996 0026 A8B2     		uxth	r0, r5
2159:.\Generated_Source\PSoC4/CapSense_1.c **** 	}
 1997              		.loc 1 2159 0
 1998              		@ sp needed
 1999              	.LVL235:
 2000              	.LVL236:
 2001              	.LVL237:
 2002 0028 70BD     		pop	{r4, r5, r6, pc}
 2003              		.cfi_endproc
 2004              	.LFE72:
 2005              		.size	CapSense_1_GetSensorRaw, .-CapSense_1_GetSensorRaw
 2006 002a C046     		.section	.text.CapSense_1_SetUnscannedSensorState,"ax",%progbits
 2007              		.align	2
 2008              		.global	CapSense_1_SetUnscannedSensorState
 2009              		.code	16
 2010              		.thumb_func
 2011              		.type	CapSense_1_SetUnscannedSensorState, %function
 2012              	CapSense_1_SetUnscannedSensorState:
 2013              	.LFB73:
2160:.\Generated_Source\PSoC4/CapSense_1.c **** #endif /* ((0u != CapSense_1_AUTOCALIBRATION_ENABLE) && (CapSense_1_TUNING_METHOD == CapSense_1__TU
2161:.\Generated_Source\PSoC4/CapSense_1.c **** 
2162:.\Generated_Source\PSoC4/CapSense_1.c **** 
2163:.\Generated_Source\PSoC4/CapSense_1.c **** #if((0u != CapSense_1_AUTOCALIBRATION_ENABLE) && (CapSense_1_TUNING_METHOD != CapSense_1__TUNING_AU
2164:.\Generated_Source\PSoC4/CapSense_1.c **** 	/*******************************************************************************
2165:.\Generated_Source\PSoC4/CapSense_1.c **** 	* Function Name: CapSense_1_CalibrateSensor
2166:.\Generated_Source\PSoC4/CapSense_1.c **** 	********************************************************************************
2167:.\Generated_Source\PSoC4/CapSense_1.c **** 	*
2168:.\Generated_Source\PSoC4/CapSense_1.c **** 	* Summary:
2169:.\Generated_Source\PSoC4/CapSense_1.c **** 	*  Computes the one sensor IDAC value, which provides the raw signal on
2170:.\Generated_Source\PSoC4/CapSense_1.c **** 	*  a specified level, with a specified prescaler, speed, and resolution.
2171:.\Generated_Source\PSoC4/CapSense_1.c **** 	*
2172:.\Generated_Source\PSoC4/CapSense_1.c **** 	* Parameters:
2173:.\Generated_Source\PSoC4/CapSense_1.c **** 	*  sensor - Sensor Number.
2174:.\Generated_Source\PSoC4/CapSense_1.c **** 	*
2175:.\Generated_Source\PSoC4/CapSense_1.c **** 	*  rawLevel -  Raw data level which should be reached during the calibration
ARM GAS  C:\Users\danielpi\AppData\Local\Temp\cccuTXvj.s 			page 77


2176:.\Generated_Source\PSoC4/CapSense_1.c **** 	*              procedure.
2177:.\Generated_Source\PSoC4/CapSense_1.c **** 	*
2178:.\Generated_Source\PSoC4/CapSense_1.c **** 	*  idacLevelsTbl - Pointer to the modulatorIdac data register configuration table.            
2179:.\Generated_Source\PSoC4/CapSense_1.c **** 	*
2180:.\Generated_Source\PSoC4/CapSense_1.c **** 	* Return:       
2181:.\Generated_Source\PSoC4/CapSense_1.c **** 	*  None
2182:.\Generated_Source\PSoC4/CapSense_1.c **** 	*
2183:.\Generated_Source\PSoC4/CapSense_1.c **** 	*******************************************************************************/
2184:.\Generated_Source\PSoC4/CapSense_1.c **** 	void CapSense_1_CalibrateSensor(uint32 sensor, uint32 rawLevel, uint8 idacLevelsTbl[])
2185:.\Generated_Source\PSoC4/CapSense_1.c **** 	{
2186:.\Generated_Source\PSoC4/CapSense_1.c **** 		uint8 mask;
2187:.\Generated_Source\PSoC4/CapSense_1.c **** 		uint16 rawData;
2188:.\Generated_Source\PSoC4/CapSense_1.c **** 		
2189:.\Generated_Source\PSoC4/CapSense_1.c **** 		rawData = 0u;
2190:.\Generated_Source\PSoC4/CapSense_1.c **** 		
2191:.\Generated_Source\PSoC4/CapSense_1.c **** 		mask = 0x80u;
2192:.\Generated_Source\PSoC4/CapSense_1.c **** 		/* Init IDAC for null Channel */
2193:.\Generated_Source\PSoC4/CapSense_1.c **** 		idacLevelsTbl[sensor] = 0x00u;
2194:.\Generated_Source\PSoC4/CapSense_1.c **** 		
2195:.\Generated_Source\PSoC4/CapSense_1.c **** 		do
2196:.\Generated_Source\PSoC4/CapSense_1.c **** 		{
2197:.\Generated_Source\PSoC4/CapSense_1.c **** 		    /* Set bit for null Channel */
2198:.\Generated_Source\PSoC4/CapSense_1.c **** 			idacLevelsTbl[sensor] |= mask;
2199:.\Generated_Source\PSoC4/CapSense_1.c **** 
2200:.\Generated_Source\PSoC4/CapSense_1.c **** 	        /* Scan null Channel and get Rawdata */
2201:.\Generated_Source\PSoC4/CapSense_1.c **** 			rawData = CapSense_1_GetSensorRaw(sensor);
2202:.\Generated_Source\PSoC4/CapSense_1.c **** 			
2203:.\Generated_Source\PSoC4/CapSense_1.c **** 			/* Decrease IDAC until Rawdata reaches rawLevel */ 
2204:.\Generated_Source\PSoC4/CapSense_1.c **** 			if(rawData < rawLevel)
2205:.\Generated_Source\PSoC4/CapSense_1.c **** 			{
2206:.\Generated_Source\PSoC4/CapSense_1.c **** 			    /* Reset bit for null Channel  */ 
2207:.\Generated_Source\PSoC4/CapSense_1.c **** 				idacLevelsTbl[sensor] &= (uint8)~mask;
2208:.\Generated_Source\PSoC4/CapSense_1.c **** 			}
2209:.\Generated_Source\PSoC4/CapSense_1.c **** 			
2210:.\Generated_Source\PSoC4/CapSense_1.c **** 			mask >>= 1u;
2211:.\Generated_Source\PSoC4/CapSense_1.c **** 		}
2212:.\Generated_Source\PSoC4/CapSense_1.c **** 		while(mask > 0u);
2213:.\Generated_Source\PSoC4/CapSense_1.c **** 		
2214:.\Generated_Source\PSoC4/CapSense_1.c **** 	}
2215:.\Generated_Source\PSoC4/CapSense_1.c **** #endif /* ((0u != CapSense_1_AUTOCALIBRATION_ENABLE) && (CapSense_1_TUNING_METHOD != CapSense_1__TU
2216:.\Generated_Source\PSoC4/CapSense_1.c **** 
2217:.\Generated_Source\PSoC4/CapSense_1.c **** 
2218:.\Generated_Source\PSoC4/CapSense_1.c **** /*******************************************************************************
2219:.\Generated_Source\PSoC4/CapSense_1.c **** * Function Name: CapSense_1_SetUnscannedSensorState
2220:.\Generated_Source\PSoC4/CapSense_1.c **** ********************************************************************************
2221:.\Generated_Source\PSoC4/CapSense_1.c **** *
2222:.\Generated_Source\PSoC4/CapSense_1.c **** * Summary:
2223:.\Generated_Source\PSoC4/CapSense_1.c **** *  This API sets a state for un-scanned sensors. 
2224:.\Generated_Source\PSoC4/CapSense_1.c **** *  It is possible to set the state to Ground, High-Z, or the shield electrode. 
2225:.\Generated_Source\PSoC4/CapSense_1.c **** *  The un-scanned sensor can be connected to a shield electrode only if the shield is 
2226:.\Generated_Source\PSoC4/CapSense_1.c **** *  enabled. If the shield is disabled and this API is called with the parameter which
2227:.\Generated_Source\PSoC4/CapSense_1.c **** *  indicates the shield state, the un-scanned sensor will be connected to Ground.
2228:.\Generated_Source\PSoC4/CapSense_1.c **** *
2229:.\Generated_Source\PSoC4/CapSense_1.c **** * Parameters:
2230:.\Generated_Source\PSoC4/CapSense_1.c **** *  sensor - Sensor Number.
2231:.\Generated_Source\PSoC4/CapSense_1.c **** *  sensorState: This parameter indicates un-scanned sensor state:
2232:.\Generated_Source\PSoC4/CapSense_1.c **** *
ARM GAS  C:\Users\danielpi\AppData\Local\Temp\cccuTXvj.s 			page 78


2233:.\Generated_Source\PSoC4/CapSense_1.c **** *     CapSense_1__GROUND 0
2234:.\Generated_Source\PSoC4/CapSense_1.c **** *     CapSense_1__HIZ_ANALOG 1
2235:.\Generated_Source\PSoC4/CapSense_1.c **** *     CapSense_1__SHIELD 2
2236:.\Generated_Source\PSoC4/CapSense_1.c **** *
2237:.\Generated_Source\PSoC4/CapSense_1.c **** * Return:
2238:.\Generated_Source\PSoC4/CapSense_1.c **** *  None.
2239:.\Generated_Source\PSoC4/CapSense_1.c **** *
2240:.\Generated_Source\PSoC4/CapSense_1.c **** * Global Variables:
2241:.\Generated_Source\PSoC4/CapSense_1.c **** *  CapSense_1_unscannedSnsDriveMode[] - used to store the state for
2242:.\Generated_Source\PSoC4/CapSense_1.c **** *  un-scanned sensors.
2243:.\Generated_Source\PSoC4/CapSense_1.c **** * 
2244:.\Generated_Source\PSoC4/CapSense_1.c **** * Side Effects:
2245:.\Generated_Source\PSoC4/CapSense_1.c **** *  None
2246:.\Generated_Source\PSoC4/CapSense_1.c **** *
2247:.\Generated_Source\PSoC4/CapSense_1.c **** *******************************************************************************/
2248:.\Generated_Source\PSoC4/CapSense_1.c **** void CapSense_1_SetUnscannedSensorState(uint32 sensor, uint32 sensorState)
2249:.\Generated_Source\PSoC4/CapSense_1.c **** {
 2014              		.loc 1 2249 0
 2015              		.cfi_startproc
 2016              	.LVL238:
2250:.\Generated_Source\PSoC4/CapSense_1.c ****     CapSense_1_unscannedSnsDriveMode[sensor] = (uint8)sensorState;	
 2017              		.loc 1 2250 0
 2018 0000 014B     		ldr	r3, .L150
 2019 0002 1954     		strb	r1, [r3, r0]
2251:.\Generated_Source\PSoC4/CapSense_1.c **** }
 2020              		.loc 1 2251 0
 2021              		@ sp needed
 2022 0004 7047     		bx	lr
 2023              	.L151:
 2024 0006 C046     		.align	2
 2025              	.L150:
 2026 0008 00000000 		.word	CapSense_1_unscannedSnsDriveMode
 2027              		.cfi_endproc
 2028              	.LFE73:
 2029              		.size	CapSense_1_SetUnscannedSensorState, .-CapSense_1_SetUnscannedSensorState
 2030              		.section	.text.CapSense_1_NormalizeWidgets,"ax",%progbits
 2031              		.align	2
 2032              		.global	CapSense_1_NormalizeWidgets
 2033              		.code	16
 2034              		.thumb_func
 2035              		.type	CapSense_1_NormalizeWidgets, %function
 2036              	CapSense_1_NormalizeWidgets:
 2037              	.LFB74:
2252:.\Generated_Source\PSoC4/CapSense_1.c **** 
2253:.\Generated_Source\PSoC4/CapSense_1.c **** #if(0u != CapSense_1_TOTAL_CENTROIDS_COUNT) 
2254:.\Generated_Source\PSoC4/CapSense_1.c **** /*******************************************************************************
2255:.\Generated_Source\PSoC4/CapSense_1.c **** * Function Name: CapSense_1_NormalizeWidgets
2256:.\Generated_Source\PSoC4/CapSense_1.c **** ********************************************************************************
2257:.\Generated_Source\PSoC4/CapSense_1.c **** *
2258:.\Generated_Source\PSoC4/CapSense_1.c **** * Summary:
2259:.\Generated_Source\PSoC4/CapSense_1.c **** *  This API aligns all the parameters of the widget to the maximum parameter.
2260:.\Generated_Source\PSoC4/CapSense_1.c **** *
2261:.\Generated_Source\PSoC4/CapSense_1.c **** * Parameters:
2262:.\Generated_Source\PSoC4/CapSense_1.c **** *  uint32 widgetsNum: Number of widgets.
2263:.\Generated_Source\PSoC4/CapSense_1.c **** *  uint8 *dataPrt: pointer to array with widget parameters.	
2264:.\Generated_Source\PSoC4/CapSense_1.c **** *
2265:.\Generated_Source\PSoC4/CapSense_1.c **** * Return:
ARM GAS  C:\Users\danielpi\AppData\Local\Temp\cccuTXvj.s 			page 79


2266:.\Generated_Source\PSoC4/CapSense_1.c **** *  None
2267:.\Generated_Source\PSoC4/CapSense_1.c **** *
2268:.\Generated_Source\PSoC4/CapSense_1.c **** * Global Variables:
2269:.\Generated_Source\PSoC4/CapSense_1.c **** *  CapSense_1_numberOfSensors[] - Number of sensors in the widget.
2270:.\Generated_Source\PSoC4/CapSense_1.c **** *  CapSense_1_rawDataIndex[currentWidget] - Contains the  1st sensor
2271:.\Generated_Source\PSoC4/CapSense_1.c **** *  position in the widget.
2272:.\Generated_Source\PSoC4/CapSense_1.c **** *
2273:.\Generated_Source\PSoC4/CapSense_1.c **** * Side Effects:
2274:.\Generated_Source\PSoC4/CapSense_1.c **** *  None
2275:.\Generated_Source\PSoC4/CapSense_1.c **** *
2276:.\Generated_Source\PSoC4/CapSense_1.c **** *******************************************************************************/
2277:.\Generated_Source\PSoC4/CapSense_1.c **** void CapSense_1_NormalizeWidgets(uint32 widgetsNum, uint8 *dataPtr)
2278:.\Generated_Source\PSoC4/CapSense_1.c **** {
 2038              		.loc 1 2278 0
 2039              		.cfi_startproc
 2040              	.LVL239:
 2041 0000 F0B5     		push	{r4, r5, r6, r7, lr}
 2042              		.cfi_def_cfa_offset 20
 2043              		.cfi_offset 4, -20
 2044              		.cfi_offset 5, -16
 2045              		.cfi_offset 6, -12
 2046              		.cfi_offset 7, -8
 2047              		.cfi_offset 14, -4
 2048              	.LVL240:
2279:.\Generated_Source\PSoC4/CapSense_1.c **** 	uint32 currentWidget;
2280:.\Generated_Source\PSoC4/CapSense_1.c **** 	uint32 currentSensor;
2281:.\Generated_Source\PSoC4/CapSense_1.c **** 	uint32 lastSensor;
2282:.\Generated_Source\PSoC4/CapSense_1.c **** 	uint32 sensorsPerWidget;
2283:.\Generated_Source\PSoC4/CapSense_1.c **** 	uint32 maxPerWidget;
2284:.\Generated_Source\PSoC4/CapSense_1.c **** 
2285:.\Generated_Source\PSoC4/CapSense_1.c **** 	for(currentWidget = 0u; currentWidget < widgetsNum; currentWidget++)
 2049              		.loc 1 2285 0
 2050 0002 0027     		mov	r7, #0
2286:.\Generated_Source\PSoC4/CapSense_1.c **** 	{
2287:.\Generated_Source\PSoC4/CapSense_1.c **** 		maxPerWidget = 0u;
 2051              		.loc 1 2287 0
 2052 0004 BC46     		mov	ip, r7
2285:.\Generated_Source\PSoC4/CapSense_1.c **** 	for(currentWidget = 0u; currentWidget < widgetsNum; currentWidget++)
 2053              		.loc 1 2285 0
 2054 0006 16E0     		b	.L153
 2055              	.LVL241:
 2056              	.L159:
2288:.\Generated_Source\PSoC4/CapSense_1.c **** 		
2289:.\Generated_Source\PSoC4/CapSense_1.c **** 		sensorsPerWidget = CapSense_1_numberOfSensors[currentWidget];
 2057              		.loc 1 2289 0
 2058 0008 0C4B     		ldr	r3, .L163
 2059 000a DD5D     		ldrb	r5, [r3, r7]
 2060              	.LVL242:
2290:.\Generated_Source\PSoC4/CapSense_1.c **** 		currentSensor = CapSense_1_rawDataIndex[currentWidget];
 2061              		.loc 1 2290 0
 2062 000c 0C4A     		ldr	r2, .L163+4
 2063 000e D35D     		ldrb	r3, [r2, r7]
 2064              	.LVL243:
2291:.\Generated_Source\PSoC4/CapSense_1.c **** 		lastSensor = currentSensor + sensorsPerWidget;
 2065              		.loc 1 2291 0
 2066 0010 5D19     		add	r5, r3, r5
 2067              	.LVL244:
ARM GAS  C:\Users\danielpi\AppData\Local\Temp\cccuTXvj.s 			page 80


2290:.\Generated_Source\PSoC4/CapSense_1.c **** 		currentSensor = CapSense_1_rawDataIndex[currentWidget];
 2068              		.loc 1 2290 0
 2069 0012 1A1C     		mov	r2, r3
2287:.\Generated_Source\PSoC4/CapSense_1.c **** 		maxPerWidget = 0u;
 2070              		.loc 1 2287 0
 2071 0014 6646     		mov	r6, ip
2292:.\Generated_Source\PSoC4/CapSense_1.c **** 		
2293:.\Generated_Source\PSoC4/CapSense_1.c **** 		while(currentSensor < lastSensor)
 2072              		.loc 1 2293 0
 2073 0016 04E0     		b	.L154
 2074              	.LVL245:
 2075              	.L156:
2294:.\Generated_Source\PSoC4/CapSense_1.c **** 		{
2295:.\Generated_Source\PSoC4/CapSense_1.c **** 			if(maxPerWidget < dataPtr[currentSensor])
 2076              		.loc 1 2295 0
 2077 0018 8C5C     		ldrb	r4, [r1, r2]
 2078 001a B442     		cmp	r4, r6
 2079 001c 00D9     		bls	.L155
2296:.\Generated_Source\PSoC4/CapSense_1.c **** 			{
2297:.\Generated_Source\PSoC4/CapSense_1.c **** 				maxPerWidget = dataPtr[currentSensor];
 2080              		.loc 1 2297 0
 2081 001e 261C     		mov	r6, r4
 2082              	.LVL246:
 2083              	.L155:
2298:.\Generated_Source\PSoC4/CapSense_1.c **** 			}
2299:.\Generated_Source\PSoC4/CapSense_1.c **** 			currentSensor++;
 2084              		.loc 1 2299 0
 2085 0020 0132     		add	r2, r2, #1
 2086              	.LVL247:
 2087              	.L154:
2293:.\Generated_Source\PSoC4/CapSense_1.c **** 		while(currentSensor < lastSensor)
 2088              		.loc 1 2293 0 discriminator 1
 2089 0022 AA42     		cmp	r2, r5
 2090 0024 F8D3     		bcc	.L156
 2091 0026 02E0     		b	.L161
 2092              	.LVL248:
 2093              	.L158:
2300:.\Generated_Source\PSoC4/CapSense_1.c **** 		}
2301:.\Generated_Source\PSoC4/CapSense_1.c **** 		
2302:.\Generated_Source\PSoC4/CapSense_1.c **** 		currentSensor = CapSense_1_rawDataIndex[currentWidget];
2303:.\Generated_Source\PSoC4/CapSense_1.c **** 		
2304:.\Generated_Source\PSoC4/CapSense_1.c **** 		while(currentSensor < lastSensor)
2305:.\Generated_Source\PSoC4/CapSense_1.c **** 		{
2306:.\Generated_Source\PSoC4/CapSense_1.c **** 			dataPtr[currentSensor] = (uint8)maxPerWidget;
 2094              		.loc 1 2306 0
 2095 0028 CE54     		strb	r6, [r1, r3]
2307:.\Generated_Source\PSoC4/CapSense_1.c **** 			currentSensor++;
 2096              		.loc 1 2307 0
 2097 002a 0133     		add	r3, r3, #1
 2098              	.LVL249:
 2099 002c 00E0     		b	.L162
 2100              	.LVL250:
 2101              	.L161:
2306:.\Generated_Source\PSoC4/CapSense_1.c **** 			dataPtr[currentSensor] = (uint8)maxPerWidget;
 2102              		.loc 1 2306 0 discriminator 1
 2103 002e F6B2     		uxtb	r6, r6
 2104              	.LVL251:
ARM GAS  C:\Users\danielpi\AppData\Local\Temp\cccuTXvj.s 			page 81


 2105              	.L162:
2304:.\Generated_Source\PSoC4/CapSense_1.c **** 		while(currentSensor < lastSensor)
 2106              		.loc 1 2304 0 discriminator 1
 2107 0030 AB42     		cmp	r3, r5
 2108 0032 F9D3     		bcc	.L158
2285:.\Generated_Source\PSoC4/CapSense_1.c **** 	for(currentWidget = 0u; currentWidget < widgetsNum; currentWidget++)
 2109              		.loc 1 2285 0
 2110 0034 0137     		add	r7, r7, #1
 2111              	.LVL252:
 2112              	.L153:
2285:.\Generated_Source\PSoC4/CapSense_1.c **** 	for(currentWidget = 0u; currentWidget < widgetsNum; currentWidget++)
 2113              		.loc 1 2285 0 is_stmt 0 discriminator 1
 2114 0036 8742     		cmp	r7, r0
 2115 0038 E6D3     		bcc	.L159
2308:.\Generated_Source\PSoC4/CapSense_1.c **** 		}
2309:.\Generated_Source\PSoC4/CapSense_1.c **** 	}
2310:.\Generated_Source\PSoC4/CapSense_1.c **** }
 2116              		.loc 1 2310 0 is_stmt 1
 2117              		@ sp needed
 2118              	.LVL253:
 2119 003a F0BD     		pop	{r4, r5, r6, r7, pc}
 2120              	.L164:
 2121              		.align	2
 2122              	.L163:
 2123 003c 00000000 		.word	CapSense_1_numberOfSensors
 2124 0040 00000000 		.word	CapSense_1_rawDataIndex
 2125              		.cfi_endproc
 2126              	.LFE74:
 2127              		.size	CapSense_1_NormalizeWidgets, .-CapSense_1_NormalizeWidgets
 2128              		.global	CapSense_1_prtDRTbl
 2129              		.global	CapSense_1_prtCfgTbl
 2130              		.global	CapSense_1_prtSelTbl
 2131              		.global	CapSense_1_widgetNumber
 2132              		.comm	CapSense_1_sampleClkDividerVal,5,4
 2133              		.comm	CapSense_1_senseClkDividerVal,5,4
 2134              		.global	CapSense_1_widgetResolution
 2135              		.comm	CapSense_1_compensationIDAC,5,4
 2136              		.comm	CapSense_1_modulationIDAC,5,4
 2137              		.global	CapSense_1_pinShiftTbl
 2138              		.global	CapSense_1_maskTable
 2139              		.global	CapSense_1_portTable
 2140              		.global	CapSense_1_pcTable
 2141              		.global	CapSense_1_sensorEnableMask
 2142              		.comm	CapSense_1_sensorEnableMaskBackup,1,4
 2143              		.comm	CapSense_1_unscannedSnsDriveMode,5,4
 2144              		.comm	CapSense_1_csdTrim1,1,1
 2145              		.global	CapSense_1_sensorRaw
 2146              		.global	CapSense_1_sensorIndex
 2147              		.global	CapSense_1_csdStatusVar
 2148              		.comm	scanSpeedTbl,1,4
 2149              		.global	CapSense_1_lowLevelTuningDone
 2150              		.section	.rodata
 2151              		.align	2
 2152              		.set	.LANCHOR2,. + 0
 2153              		.type	CapSense_1_portTable, %object
 2154              		.size	CapSense_1_portTable, 5
 2155              	CapSense_1_portTable:
ARM GAS  C:\Users\danielpi\AppData\Local\Temp\cccuTXvj.s 			page 82


 2156 0000 02       		.byte	2
 2157 0001 02       		.byte	2
 2158 0002 02       		.byte	2
 2159 0003 02       		.byte	2
 2160 0004 02       		.byte	2
 2161 0005 000000   		.space	3
 2162              		.type	CapSense_1_pinShiftTbl, %object
 2163              		.size	CapSense_1_pinShiftTbl, 5
 2164              	CapSense_1_pinShiftTbl:
 2165 0008 01       		.byte	1
 2166 0009 02       		.byte	2
 2167 000a 03       		.byte	3
 2168 000b 04       		.byte	4
 2169 000c 05       		.byte	5
 2170 000d 000000   		.space	3
 2171              		.type	CapSense_1_prtSelTbl, %object
 2172              		.size	CapSense_1_prtSelTbl, 24
 2173              	CapSense_1_prtSelTbl:
 2174 0010 00000240 		.word	1073872896
 2175 0014 00010240 		.word	1073873152
 2176 0018 00020240 		.word	1073873408
 2177 001c 00030240 		.word	1073873664
 2178 0020 00040240 		.word	1073873920
 2179 0024 00050240 		.word	1073874176
 2180              		.type	CapSense_1_prtCfgTbl, %object
 2181              		.size	CapSense_1_prtCfgTbl, 24
 2182              	CapSense_1_prtCfgTbl:
 2183 0028 08000440 		.word	1074003976
 2184 002c 08010440 		.word	1074004232
 2185 0030 08020440 		.word	1074004488
 2186 0034 08030440 		.word	1074004744
 2187 0038 08040440 		.word	1074005000
 2188 003c 08050440 		.word	1074005256
 2189              		.type	CapSense_1_prtDRTbl, %object
 2190              		.size	CapSense_1_prtDRTbl, 24
 2191              	CapSense_1_prtDRTbl:
 2192 0040 00000440 		.word	1074003968
 2193 0044 00010440 		.word	1074004224
 2194 0048 00020440 		.word	1074004480
 2195 004c 00030440 		.word	1074004736
 2196 0050 00040440 		.word	1074004992
 2197 0054 00050440 		.word	1074005248
 2198              		.type	CapSense_1_widgetNumber, %object
 2199              		.size	CapSense_1_widgetNumber, 5
 2200              	CapSense_1_widgetNumber:
 2201 0058 00000000 		.space	5
 2201      00
 2202 005d 000000   		.space	3
 2203              		.type	CapSense_1_maskTable, %object
 2204              		.size	CapSense_1_maskTable, 20
 2205              	CapSense_1_maskTable:
 2206 0060 02000000 		.word	2
 2207 0064 04000000 		.word	4
 2208 0068 08000000 		.word	8
 2209 006c 10000000 		.word	16
 2210 0070 20000000 		.word	32
 2211              		.data
ARM GAS  C:\Users\danielpi\AppData\Local\Temp\cccuTXvj.s 			page 83


 2212              		.align	2
 2213              		.set	.LANCHOR1,. + 0
 2214              		.type	CapSense_1_widgetResolution, %object
 2215              		.size	CapSense_1_widgetResolution, 4
 2216              	CapSense_1_widgetResolution:
 2217 0000 0000FF0F 		.word	268369920
 2218              		.type	CapSense_1_sensorEnableMask, %object
 2219              		.size	CapSense_1_sensorEnableMask, 1
 2220              	CapSense_1_sensorEnableMask:
 2221 0004 1F       		.byte	31
 2222 0005 000000   		.space	3
 2223              		.type	CapSense_1_pcTable, %object
 2224              		.size	CapSense_1_pcTable, 20
 2225              	CapSense_1_pcTable:
 2226 0008 08020440 		.word	1074004488
 2227 000c 08020440 		.word	1074004488
 2228 0010 08020440 		.word	1074004488
 2229 0014 08020440 		.word	1074004488
 2230 0018 08020440 		.word	1074004488
 2231              		.bss
 2232              		.align	2
 2233              		.set	.LANCHOR0,. + 0
 2234              		.type	CapSense_1_csdStatusVar, %object
 2235              		.size	CapSense_1_csdStatusVar, 1
 2236              	CapSense_1_csdStatusVar:
 2237 0000 00       		.space	1
 2238 0001 000000   		.space	3
 2239              		.type	CapSense_1_sensorRaw, %object
 2240              		.size	CapSense_1_sensorRaw, 10
 2241              	CapSense_1_sensorRaw:
 2242 0004 00000000 		.space	10
 2242      00000000 
 2242      0000
 2243              		.type	CapSense_1_initVar.5277, %object
 2244              		.size	CapSense_1_initVar.5277, 1
 2245              	CapSense_1_initVar.5277:
 2246 000e 00       		.space	1
 2247              		.type	CapSense_1_lowLevelTuningDone, %object
 2248              		.size	CapSense_1_lowLevelTuningDone, 1
 2249              	CapSense_1_lowLevelTuningDone:
 2250 000f 00       		.space	1
 2251              		.type	CapSense_1_sensorIndex, %object
 2252              		.size	CapSense_1_sensorIndex, 1
 2253              	CapSense_1_sensorIndex:
 2254 0010 00       		.space	1
 2255 0011 000000   		.text
 2256              	.Letext0:
 2257              		.file 2 ".\\Generated_Source\\PSoC4\\cytypes.h"
 2258              		.file 3 ".\\Generated_Source\\PSoC4\\CapSense_1_CSHL.h"
 2259              		.file 4 ".\\Generated_Source\\PSoC4\\CyLib.h"
 2260              		.file 5 ".\\Generated_Source\\PSoC4\\CapSense_1_SenseClk.h"
 2261              		.file 6 ".\\Generated_Source\\PSoC4\\CapSense_1_SampleClk.h"
 2262              		.file 7 ".\\Generated_Source\\PSoC4\\CapSense_1.h"
 2263              		.section	.debug_info,"",%progbits
 2264              	.Ldebug_info0:
 2265 0000 19110000 		.4byte	0x1119
 2266 0004 0400     		.2byte	0x4
ARM GAS  C:\Users\danielpi\AppData\Local\Temp\cccuTXvj.s 			page 84


 2267 0006 00000000 		.4byte	.Ldebug_abbrev0
 2268 000a 04       		.byte	0x4
 2269 000b 01       		.uleb128 0x1
 2270 000c C6030000 		.4byte	.LASF137
 2271 0010 01       		.byte	0x1
 2272 0011 BA070000 		.4byte	.LASF138
 2273 0015 C0080000 		.4byte	.LASF139
 2274 0019 00000000 		.4byte	.Ldebug_ranges0+0
 2275 001d 00000000 		.4byte	0
 2276 0021 00000000 		.4byte	.Ldebug_line0
 2277 0025 02       		.uleb128 0x2
 2278 0026 01       		.byte	0x1
 2279 0027 06       		.byte	0x6
 2280 0028 830A0000 		.4byte	.LASF0
 2281 002c 02       		.uleb128 0x2
 2282 002d 01       		.byte	0x1
 2283 002e 08       		.byte	0x8
 2284 002f BE090000 		.4byte	.LASF1
 2285 0033 02       		.uleb128 0x2
 2286 0034 02       		.byte	0x2
 2287 0035 05       		.byte	0x5
 2288 0036 3A070000 		.4byte	.LASF2
 2289 003a 02       		.uleb128 0x2
 2290 003b 02       		.byte	0x2
 2291 003c 07       		.byte	0x7
 2292 003d 970A0000 		.4byte	.LASF3
 2293 0041 02       		.uleb128 0x2
 2294 0042 04       		.byte	0x4
 2295 0043 05       		.byte	0x5
 2296 0044 61070000 		.4byte	.LASF4
 2297 0048 02       		.uleb128 0x2
 2298 0049 04       		.byte	0x4
 2299 004a 07       		.byte	0x7
 2300 004b AE080000 		.4byte	.LASF5
 2301 004f 02       		.uleb128 0x2
 2302 0050 08       		.byte	0x8
 2303 0051 05       		.byte	0x5
 2304 0052 52050000 		.4byte	.LASF6
 2305 0056 02       		.uleb128 0x2
 2306 0057 08       		.byte	0x8
 2307 0058 07       		.byte	0x7
 2308 0059 12020000 		.4byte	.LASF7
 2309 005d 03       		.uleb128 0x3
 2310 005e 04       		.byte	0x4
 2311 005f 05       		.byte	0x5
 2312 0060 696E7400 		.ascii	"int\000"
 2313 0064 02       		.uleb128 0x2
 2314 0065 04       		.byte	0x4
 2315 0066 07       		.byte	0x7
 2316 0067 AF000000 		.4byte	.LASF8
 2317 006b 04       		.uleb128 0x4
 2318 006c FF0A0000 		.4byte	.LASF9
 2319 0070 02       		.byte	0x2
 2320 0071 C1       		.byte	0xc1
 2321 0072 2C000000 		.4byte	0x2c
 2322 0076 04       		.uleb128 0x4
 2323 0077 F6040000 		.4byte	.LASF10
ARM GAS  C:\Users\danielpi\AppData\Local\Temp\cccuTXvj.s 			page 85


 2324 007b 02       		.byte	0x2
 2325 007c C2       		.byte	0xc2
 2326 007d 3A000000 		.4byte	0x3a
 2327 0081 04       		.uleb128 0x4
 2328 0082 F4050000 		.4byte	.LASF11
 2329 0086 02       		.byte	0x2
 2330 0087 C3       		.byte	0xc3
 2331 0088 48000000 		.4byte	0x48
 2332 008c 02       		.uleb128 0x2
 2333 008d 04       		.byte	0x4
 2334 008e 04       		.byte	0x4
 2335 008f C2010000 		.4byte	.LASF12
 2336 0093 02       		.uleb128 0x2
 2337 0094 08       		.byte	0x8
 2338 0095 04       		.byte	0x4
 2339 0096 050B0000 		.4byte	.LASF13
 2340 009a 02       		.uleb128 0x2
 2341 009b 01       		.byte	0x1
 2342 009c 08       		.byte	0x8
 2343 009d 9B040000 		.4byte	.LASF14
 2344 00a1 05       		.uleb128 0x5
 2345 00a2 CB000000 		.4byte	.LASF15
 2346 00a6 02       		.byte	0x2
 2347 00a7 6B01     		.2byte	0x16b
 2348 00a9 AD000000 		.4byte	0xad
 2349 00ad 06       		.uleb128 0x6
 2350 00ae 6B000000 		.4byte	0x6b
 2351 00b2 05       		.uleb128 0x5
 2352 00b3 AB060000 		.4byte	.LASF16
 2353 00b7 02       		.byte	0x2
 2354 00b8 6D01     		.2byte	0x16d
 2355 00ba BE000000 		.4byte	0xbe
 2356 00be 06       		.uleb128 0x6
 2357 00bf 81000000 		.4byte	0x81
 2358 00c3 05       		.uleb128 0x5
 2359 00c4 D2050000 		.4byte	.LASF17
 2360 00c8 02       		.byte	0x2
 2361 00c9 7D01     		.2byte	0x17d
 2362 00cb CF000000 		.4byte	0xcf
 2363 00cf 07       		.uleb128 0x7
 2364 00d0 04       		.byte	0x4
 2365 00d1 D5000000 		.4byte	0xd5
 2366 00d5 08       		.uleb128 0x8
 2367 00d6 02       		.uleb128 0x2
 2368 00d7 04       		.byte	0x4
 2369 00d8 07       		.byte	0x7
 2370 00d9 A5080000 		.4byte	.LASF18
 2371 00dd 07       		.uleb128 0x7
 2372 00de 04       		.byte	0x4
 2373 00df 6B000000 		.4byte	0x6b
 2374 00e3 07       		.uleb128 0x7
 2375 00e4 04       		.byte	0x4
 2376 00e5 E9000000 		.4byte	0xe9
 2377 00e9 09       		.uleb128 0x9
 2378 00ea 6B000000 		.4byte	0x6b
 2379 00ee 0A       		.uleb128 0xa
 2380 00ef 91090000 		.4byte	.LASF19
ARM GAS  C:\Users\danielpi\AppData\Local\Temp\cccuTXvj.s 			page 86


 2381 00f3 01       		.byte	0x1
 2382 00f4 0301     		.2byte	0x103
 2383 00f6 00000000 		.4byte	.LFB36
 2384 00fa 80000000 		.4byte	.LFE36-.LFB36
 2385 00fe 01       		.uleb128 0x1
 2386 00ff 9C       		.byte	0x9c
 2387 0100 4F010000 		.4byte	0x14f
 2388 0104 0B       		.uleb128 0xb
 2389 0105 AA0A0000 		.4byte	.LASF21
 2390 0109 01       		.byte	0x1
 2391 010a 0501     		.2byte	0x105
 2392 010c 81000000 		.4byte	0x81
 2393 0110 00000000 		.4byte	.LLST0
 2394 0114 0C       		.uleb128 0xc
 2395 0115 48000000 		.4byte	.LVL13
 2396 0119 2C100000 		.4byte	0x102c
 2397 011d 27010000 		.4byte	0x127
 2398 0121 0D       		.uleb128 0xd
 2399 0122 01       		.uleb128 0x1
 2400 0123 50       		.byte	0x50
 2401 0124 01       		.uleb128 0x1
 2402 0125 40       		.byte	0x40
 2403 0126 00       		.byte	0
 2404 0127 0C       		.uleb128 0xc
 2405 0128 50000000 		.4byte	.LVL14
 2406 012c 3D100000 		.4byte	0x103d
 2407 0130 3A010000 		.4byte	0x13a
 2408 0134 0D       		.uleb128 0xd
 2409 0135 01       		.uleb128 0x1
 2410 0136 50       		.byte	0x50
 2411 0137 01       		.uleb128 0x1
 2412 0138 40       		.byte	0x40
 2413 0139 00       		.byte	0
 2414 013a 0E       		.uleb128 0xe
 2415 013b 58000000 		.4byte	.LVL15
 2416 013f 57100000 		.4byte	0x1057
 2417 0143 0D       		.uleb128 0xd
 2418 0144 01       		.uleb128 0x1
 2419 0145 51       		.byte	0x51
 2420 0146 01       		.uleb128 0x1
 2421 0147 33       		.byte	0x33
 2422 0148 0D       		.uleb128 0xd
 2423 0149 01       		.uleb128 0x1
 2424 014a 50       		.byte	0x50
 2425 014b 01       		.uleb128 0x1
 2426 014c 40       		.byte	0x40
 2427 014d 00       		.byte	0
 2428 014e 00       		.byte	0
 2429 014f 0A       		.uleb128 0xa
 2430 0150 40050000 		.4byte	.LASF20
 2431 0154 01       		.byte	0x1
 2432 0155 5801     		.2byte	0x158
 2433 0157 00000000 		.4byte	.LFB37
 2434 015b 40000000 		.4byte	.LFE37-.LFB37
 2435 015f 01       		.uleb128 0x1
 2436 0160 9C       		.byte	0x9c
 2437 0161 EF010000 		.4byte	0x1ef
ARM GAS  C:\Users\danielpi\AppData\Local\Temp\cccuTXvj.s 			page 87


 2438 0165 0B       		.uleb128 0xb
 2439 0166 AA0A0000 		.4byte	.LASF21
 2440 016a 01       		.byte	0x1
 2441 016b 5A01     		.2byte	0x15a
 2442 016d 81000000 		.4byte	0x81
 2443 0171 70000000 		.4byte	.LLST1
 2444 0175 0F       		.uleb128 0xf
 2445 0176 06000000 		.4byte	.LVL16
 2446 017a 6D100000 		.4byte	0x106d
 2447 017e 0F       		.uleb128 0xf
 2448 017f 0A000000 		.4byte	.LVL17
 2449 0183 74100000 		.4byte	0x1074
 2450 0187 0C       		.uleb128 0xc
 2451 0188 12000000 		.4byte	.LVL18
 2452 018c 7B100000 		.4byte	0x107b
 2453 0190 9F010000 		.4byte	0x19f
 2454 0194 0D       		.uleb128 0xd
 2455 0195 01       		.uleb128 0x1
 2456 0196 51       		.byte	0x51
 2457 0197 01       		.uleb128 0x1
 2458 0198 30       		.byte	0x30
 2459 0199 0D       		.uleb128 0xd
 2460 019a 01       		.uleb128 0x1
 2461 019b 50       		.byte	0x50
 2462 019c 01       		.uleb128 0x1
 2463 019d 30       		.byte	0x30
 2464 019e 00       		.byte	0
 2465 019f 0C       		.uleb128 0xc
 2466 01a0 1A000000 		.4byte	.LVL19
 2467 01a4 91100000 		.4byte	0x1091
 2468 01a8 B7010000 		.4byte	0x1b7
 2469 01ac 0D       		.uleb128 0xd
 2470 01ad 01       		.uleb128 0x1
 2471 01ae 51       		.byte	0x51
 2472 01af 01       		.uleb128 0x1
 2473 01b0 30       		.byte	0x30
 2474 01b1 0D       		.uleb128 0xd
 2475 01b2 01       		.uleb128 0x1
 2476 01b3 50       		.byte	0x50
 2477 01b4 01       		.uleb128 0x1
 2478 01b5 30       		.byte	0x30
 2479 01b6 00       		.byte	0
 2480 01b7 0C       		.uleb128 0xc
 2481 01b8 20000000 		.4byte	.LVL20
 2482 01bc A7100000 		.4byte	0x10a7
 2483 01c0 CB010000 		.4byte	0x1cb
 2484 01c4 0D       		.uleb128 0xd
 2485 01c5 01       		.uleb128 0x1
 2486 01c6 50       		.byte	0x50
 2487 01c7 02       		.uleb128 0x2
 2488 01c8 08       		.byte	0x8
 2489 01c9 FF       		.byte	0xff
 2490 01ca 00       		.byte	0
 2491 01cb 0C       		.uleb128 0xc
 2492 01cc 26000000 		.4byte	.LVL21
 2493 01d0 B8100000 		.4byte	0x10b8
 2494 01d4 DF010000 		.4byte	0x1df
ARM GAS  C:\Users\danielpi\AppData\Local\Temp\cccuTXvj.s 			page 88


 2495 01d8 0D       		.uleb128 0xd
 2496 01d9 01       		.uleb128 0x1
 2497 01da 50       		.byte	0x50
 2498 01db 02       		.uleb128 0x2
 2499 01dc 08       		.byte	0x8
 2500 01dd 40       		.byte	0x40
 2501 01de 00       		.byte	0
 2502 01df 0E       		.uleb128 0xe
 2503 01e0 36000000 		.4byte	.LVL24
 2504 01e4 C9100000 		.4byte	0x10c9
 2505 01e8 0D       		.uleb128 0xd
 2506 01e9 01       		.uleb128 0x1
 2507 01ea 50       		.byte	0x50
 2508 01eb 01       		.uleb128 0x1
 2509 01ec 40       		.byte	0x40
 2510 01ed 00       		.byte	0
 2511 01ee 00       		.byte	0
 2512 01ef 0A       		.uleb128 0xa
 2513 01f0 95080000 		.4byte	.LASF22
 2514 01f4 01       		.byte	0x1
 2515 01f5 EF01     		.2byte	0x1ef
 2516 01f7 00000000 		.4byte	.LFB39
 2517 01fb 2C000000 		.4byte	.LFE39-.LFB39
 2518 01ff 01       		.uleb128 0x1
 2519 0200 9C       		.byte	0x9c
 2520 0201 2B020000 		.4byte	0x22b
 2521 0205 0C       		.uleb128 0xc
 2522 0206 08000000 		.4byte	.LVL25
 2523 020a 2C100000 		.4byte	0x102c
 2524 020e 18020000 		.4byte	0x218
 2525 0212 0D       		.uleb128 0xd
 2526 0213 01       		.uleb128 0x1
 2527 0214 50       		.byte	0x50
 2528 0215 01       		.uleb128 0x1
 2529 0216 40       		.byte	0x40
 2530 0217 00       		.byte	0
 2531 0218 0F       		.uleb128 0xf
 2532 0219 1E000000 		.4byte	.LVL26
 2533 021d 6D100000 		.4byte	0x106d
 2534 0221 0F       		.uleb128 0xf
 2535 0222 22000000 		.4byte	.LVL27
 2536 0226 74100000 		.4byte	0x1074
 2537 022a 00       		.byte	0
 2538 022b 10       		.uleb128 0x10
 2539 022c EA020000 		.4byte	.LASF57
 2540 0230 01       		.byte	0x1
 2541 0231 EA02     		.2byte	0x2ea
 2542 0233 81000000 		.4byte	0x81
 2543 0237 00000000 		.4byte	.LFB44
 2544 023b 10000000 		.4byte	.LFE44-.LFB44
 2545 023f 01       		.uleb128 0x1
 2546 0240 9C       		.byte	0x9c
 2547 0241 11       		.uleb128 0x11
 2548 0242 B60A0000 		.4byte	.LASF29
 2549 0246 01       		.byte	0x1
 2550 0247 0803     		.2byte	0x308
 2551 0249 76000000 		.4byte	0x76
ARM GAS  C:\Users\danielpi\AppData\Local\Temp\cccuTXvj.s 			page 89


 2552 024d 00000000 		.4byte	.LFB45
 2553 0251 10000000 		.4byte	.LFE45-.LFB45
 2554 0255 01       		.uleb128 0x1
 2555 0256 9C       		.byte	0x9c
 2556 0257 6C020000 		.4byte	0x26c
 2557 025b 12       		.uleb128 0x12
 2558 025c 82040000 		.4byte	.LASF24
 2559 0260 01       		.byte	0x1
 2560 0261 0803     		.2byte	0x308
 2561 0263 81000000 		.4byte	0x81
 2562 0267 83000000 		.4byte	.LLST2
 2563 026b 00       		.byte	0
 2564 026c 0A       		.uleb128 0xa
 2565 026d 0C0B0000 		.4byte	.LASF23
 2566 0271 01       		.byte	0x1
 2567 0272 2303     		.2byte	0x323
 2568 0274 00000000 		.4byte	.LFB46
 2569 0278 10000000 		.4byte	.LFE46-.LFB46
 2570 027c 01       		.uleb128 0x1
 2571 027d 9C       		.byte	0x9c
 2572 027e A1020000 		.4byte	0x2a1
 2573 0282 12       		.uleb128 0x12
 2574 0283 82040000 		.4byte	.LASF24
 2575 0287 01       		.byte	0x1
 2576 0288 2303     		.2byte	0x323
 2577 028a 81000000 		.4byte	0x81
 2578 028e A4000000 		.4byte	.LLST3
 2579 0292 13       		.uleb128 0x13
 2580 0293 82020000 		.4byte	.LASF25
 2581 0297 01       		.byte	0x1
 2582 0298 2303     		.2byte	0x323
 2583 029a 76000000 		.4byte	0x76
 2584 029e 01       		.uleb128 0x1
 2585 029f 51       		.byte	0x51
 2586 02a0 00       		.byte	0
 2587 02a1 0A       		.uleb128 0xa
 2588 02a2 63000000 		.4byte	.LASF26
 2589 02a6 01       		.byte	0x1
 2590 02a7 4D03     		.2byte	0x34d
 2591 02a9 00000000 		.4byte	.LFB47
 2592 02ad 0C000000 		.4byte	.LFE47-.LFB47
 2593 02b1 01       		.uleb128 0x1
 2594 02b2 9C       		.byte	0x9c
 2595 02b3 D6020000 		.4byte	0x2d6
 2596 02b7 12       		.uleb128 0x12
 2597 02b8 30020000 		.4byte	.LASF27
 2598 02bc 01       		.byte	0x1
 2599 02bd 4D03     		.2byte	0x34d
 2600 02bf 81000000 		.4byte	0x81
 2601 02c3 C5000000 		.4byte	.LLST4
 2602 02c7 13       		.uleb128 0x13
 2603 02c8 28050000 		.4byte	.LASF28
 2604 02cc 01       		.byte	0x1
 2605 02cd 4D03     		.2byte	0x34d
 2606 02cf 81000000 		.4byte	0x81
 2607 02d3 01       		.uleb128 0x1
 2608 02d4 51       		.byte	0x51
ARM GAS  C:\Users\danielpi\AppData\Local\Temp\cccuTXvj.s 			page 90


 2609 02d5 00       		.byte	0
 2610 02d6 11       		.uleb128 0x11
 2611 02d7 D0000000 		.4byte	.LASF30
 2612 02db 01       		.byte	0x1
 2613 02dc 7603     		.2byte	0x376
 2614 02de 81000000 		.4byte	0x81
 2615 02e2 00000000 		.4byte	.LFB48
 2616 02e6 0C000000 		.4byte	.LFE48-.LFB48
 2617 02ea 01       		.uleb128 0x1
 2618 02eb 9C       		.byte	0x9c
 2619 02ec 01030000 		.4byte	0x301
 2620 02f0 12       		.uleb128 0x12
 2621 02f1 30020000 		.4byte	.LASF27
 2622 02f5 01       		.byte	0x1
 2623 02f6 7603     		.2byte	0x376
 2624 02f8 81000000 		.4byte	0x81
 2625 02fc E6000000 		.4byte	.LLST5
 2626 0300 00       		.byte	0
 2627 0301 0A       		.uleb128 0xa
 2628 0302 E8060000 		.4byte	.LASF31
 2629 0306 01       		.byte	0x1
 2630 0307 2F04     		.2byte	0x42f
 2631 0309 00000000 		.4byte	.LFB50
 2632 030d 48000000 		.4byte	.LFE50-.LFB50
 2633 0311 01       		.uleb128 0x1
 2634 0312 9C       		.byte	0x9c
 2635 0313 8A030000 		.4byte	0x38a
 2636 0317 12       		.uleb128 0x12
 2637 0318 82040000 		.4byte	.LASF24
 2638 031c 01       		.byte	0x1
 2639 031d 2F04     		.2byte	0x42f
 2640 031f 81000000 		.4byte	0x81
 2641 0323 07010000 		.4byte	.LLST6
 2642 0327 0B       		.uleb128 0xb
 2643 0328 60010000 		.4byte	.LASF32
 2644 032c 01       		.byte	0x1
 2645 032d 3104     		.2byte	0x431
 2646 032f 6B000000 		.4byte	0x6b
 2647 0333 28010000 		.4byte	.LLST7
 2648 0337 0B       		.uleb128 0xb
 2649 0338 0D010000 		.4byte	.LASF33
 2650 033c 01       		.byte	0x1
 2651 033d 3204     		.2byte	0x432
 2652 033f 6B000000 		.4byte	0x6b
 2653 0343 65010000 		.4byte	.LLST8
 2654 0347 0B       		.uleb128 0xb
 2655 0348 BC000000 		.4byte	.LASF34
 2656 034c 01       		.byte	0x1
 2657 034d 3304     		.2byte	0x433
 2658 034f 6B000000 		.4byte	0x6b
 2659 0353 9B010000 		.4byte	.LLST9
 2660 0357 0B       		.uleb128 0xb
 2661 0358 A0020000 		.4byte	.LASF35
 2662 035c 01       		.byte	0x1
 2663 035d 3404     		.2byte	0x434
 2664 035f 81000000 		.4byte	0x81
 2665 0363 AE010000 		.4byte	.LLST10
ARM GAS  C:\Users\danielpi\AppData\Local\Temp\cccuTXvj.s 			page 91


 2666 0367 0B       		.uleb128 0xb
 2667 0368 49090000 		.4byte	.LASF36
 2668 036c 01       		.byte	0x1
 2669 036d 3504     		.2byte	0x435
 2670 036f 81000000 		.4byte	0x81
 2671 0373 CC010000 		.4byte	.LLST11
 2672 0377 0F       		.uleb128 0xf
 2673 0378 18000000 		.4byte	.LVL41
 2674 037c DA100000 		.4byte	0x10da
 2675 0380 0F       		.uleb128 0xf
 2676 0381 40000000 		.4byte	.LVL48
 2677 0385 E5100000 		.4byte	0x10e5
 2678 0389 00       		.byte	0
 2679 038a 0A       		.uleb128 0xa
 2680 038b A0040000 		.4byte	.LASF37
 2681 038f 01       		.byte	0x1
 2682 0390 6404     		.2byte	0x464
 2683 0392 00000000 		.4byte	.LFB51
 2684 0396 70000000 		.4byte	.LFE51-.LFB51
 2685 039a 01       		.uleb128 0x1
 2686 039b 9C       		.byte	0x9c
 2687 039c 33040000 		.4byte	0x433
 2688 03a0 12       		.uleb128 0x12
 2689 03a1 82040000 		.4byte	.LASF24
 2690 03a5 01       		.byte	0x1
 2691 03a6 6404     		.2byte	0x464
 2692 03a8 81000000 		.4byte	0x81
 2693 03ac 0E020000 		.4byte	.LLST12
 2694 03b0 0B       		.uleb128 0xb
 2695 03b1 BC000000 		.4byte	.LASF34
 2696 03b5 01       		.byte	0x1
 2697 03b6 6604     		.2byte	0x466
 2698 03b8 6B000000 		.4byte	0x6b
 2699 03bc 2F020000 		.4byte	.LLST13
 2700 03c0 0B       		.uleb128 0xb
 2701 03c1 A0020000 		.4byte	.LASF35
 2702 03c5 01       		.byte	0x1
 2703 03c6 6704     		.2byte	0x467
 2704 03c8 81000000 		.4byte	0x81
 2705 03cc 42020000 		.4byte	.LLST14
 2706 03d0 0B       		.uleb128 0xb
 2707 03d1 49090000 		.4byte	.LASF36
 2708 03d5 01       		.byte	0x1
 2709 03d6 6904     		.2byte	0x469
 2710 03d8 81000000 		.4byte	0x81
 2711 03dc 60020000 		.4byte	.LLST15
 2712 03e0 0B       		.uleb128 0xb
 2713 03e1 0D010000 		.4byte	.LASF33
 2714 03e5 01       		.byte	0x1
 2715 03e6 6A04     		.2byte	0x46a
 2716 03e8 6B000000 		.4byte	0x6b
 2717 03ec BB020000 		.4byte	.LLST16
 2718 03f0 0B       		.uleb128 0xb
 2719 03f1 60010000 		.4byte	.LASF32
 2720 03f5 01       		.byte	0x1
 2721 03f6 6B04     		.2byte	0x46b
 2722 03f8 6B000000 		.4byte	0x6b
ARM GAS  C:\Users\danielpi\AppData\Local\Temp\cccuTXvj.s 			page 92


 2723 03fc F5020000 		.4byte	.LLST17
 2724 0400 0B       		.uleb128 0xb
 2725 0401 6D010000 		.4byte	.LASF38
 2726 0405 01       		.byte	0x1
 2727 0406 6D04     		.2byte	0x46d
 2728 0408 81000000 		.4byte	0x81
 2729 040c 44030000 		.4byte	.LLST18
 2730 0410 0B       		.uleb128 0xb
 2731 0411 DE020000 		.4byte	.LASF39
 2732 0415 01       		.byte	0x1
 2733 0416 6E04     		.2byte	0x46e
 2734 0418 81000000 		.4byte	0x81
 2735 041c 63030000 		.4byte	.LLST19
 2736 0420 0F       		.uleb128 0xf
 2737 0421 3C000000 		.4byte	.LVL60
 2738 0425 DA100000 		.4byte	0x10da
 2739 0429 0F       		.uleb128 0xf
 2740 042a 58000000 		.4byte	.LVL69
 2741 042e E5100000 		.4byte	0x10e5
 2742 0432 00       		.byte	0
 2743 0433 0A       		.uleb128 0xa
 2744 0434 43030000 		.4byte	.LASF40
 2745 0438 01       		.byte	0x1
 2746 0439 9103     		.2byte	0x391
 2747 043b 00000000 		.4byte	.LFB49
 2748 043f 14000000 		.4byte	.LFE49-.LFB49
 2749 0443 01       		.uleb128 0x1
 2750 0444 9C       		.byte	0x9c
 2751 0445 6A040000 		.4byte	0x46a
 2752 0449 0B       		.uleb128 0xb
 2753 044a 7A060000 		.4byte	.LASF41
 2754 044e 01       		.byte	0x1
 2755 044f 9303     		.2byte	0x393
 2756 0451 81000000 		.4byte	0x81
 2757 0455 76030000 		.4byte	.LLST20
 2758 0459 0E       		.uleb128 0xe
 2759 045a 0C000000 		.4byte	.LVL74
 2760 045e 8A030000 		.4byte	0x38a
 2761 0462 0D       		.uleb128 0xd
 2762 0463 01       		.uleb128 0x1
 2763 0464 50       		.byte	0x50
 2764 0465 02       		.uleb128 0x2
 2765 0466 74       		.byte	0x74
 2766 0467 00       		.sleb128 0
 2767 0468 00       		.byte	0
 2768 0469 00       		.byte	0
 2769 046a 0A       		.uleb128 0xa
 2770 046b 5B030000 		.4byte	.LASF42
 2771 046f 01       		.byte	0x1
 2772 0470 2E05     		.2byte	0x52e
 2773 0472 00000000 		.4byte	.LFB54
 2774 0476 24000000 		.4byte	.LFE54-.LFB54
 2775 047a 01       		.uleb128 0x1
 2776 047b 9C       		.byte	0x9c
 2777 047c D1040000 		.4byte	0x4d1
 2778 0480 12       		.uleb128 0x12
 2779 0481 430B0000 		.4byte	.LASF43
ARM GAS  C:\Users\danielpi\AppData\Local\Temp\cccuTXvj.s 			page 93


 2780 0485 01       		.byte	0x1
 2781 0486 2E05     		.2byte	0x52e
 2782 0488 81000000 		.4byte	0x81
 2783 048c 95030000 		.4byte	.LLST21
 2784 0490 12       		.uleb128 0x12
 2785 0491 70060000 		.4byte	.LASF44
 2786 0495 01       		.byte	0x1
 2787 0496 2E05     		.2byte	0x52e
 2788 0498 81000000 		.4byte	0x81
 2789 049c B6030000 		.4byte	.LLST22
 2790 04a0 12       		.uleb128 0x12
 2791 04a1 D0060000 		.4byte	.LASF45
 2792 04a5 01       		.byte	0x1
 2793 04a6 2E05     		.2byte	0x52e
 2794 04a8 81000000 		.4byte	0x81
 2795 04ac D7030000 		.4byte	.LLST23
 2796 04b0 0B       		.uleb128 0xb
 2797 04b1 60010000 		.4byte	.LASF32
 2798 04b5 01       		.byte	0x1
 2799 04b6 3005     		.2byte	0x530
 2800 04b8 81000000 		.4byte	0x81
 2801 04bc F8030000 		.4byte	.LLST24
 2802 04c0 0B       		.uleb128 0xb
 2803 04c1 A0020000 		.4byte	.LASF35
 2804 04c5 01       		.byte	0x1
 2805 04c6 3105     		.2byte	0x531
 2806 04c8 81000000 		.4byte	0x81
 2807 04cc 1F040000 		.4byte	.LLST25
 2808 04d0 00       		.byte	0
 2809 04d1 0A       		.uleb128 0xa
 2810 04d2 7D010000 		.4byte	.LASF46
 2811 04d6 01       		.byte	0x1
 2812 04d7 B104     		.2byte	0x4b1
 2813 04d9 00000000 		.4byte	.LFB52
 2814 04dd 30000000 		.4byte	.LFE52-.LFB52
 2815 04e1 01       		.uleb128 0x1
 2816 04e2 9C       		.byte	0x9c
 2817 04e3 74050000 		.4byte	0x574
 2818 04e7 12       		.uleb128 0x12
 2819 04e8 430B0000 		.4byte	.LASF43
 2820 04ec 01       		.byte	0x1
 2821 04ed B104     		.2byte	0x4b1
 2822 04ef 81000000 		.4byte	0x81
 2823 04f3 3D040000 		.4byte	.LLST26
 2824 04f7 0B       		.uleb128 0xb
 2825 04f8 260B0000 		.4byte	.LASF47
 2826 04fc 01       		.byte	0x1
 2827 04fd B304     		.2byte	0x4b3
 2828 04ff 6B000000 		.4byte	0x6b
 2829 0503 69040000 		.4byte	.LLST27
 2830 0507 0B       		.uleb128 0xb
 2831 0508 A8030000 		.4byte	.LASF48
 2832 050c 01       		.byte	0x1
 2833 050d B804     		.2byte	0x4b8
 2834 050f 81000000 		.4byte	0x81
 2835 0513 A0040000 		.4byte	.LLST28
 2836 0517 0B       		.uleb128 0xb
ARM GAS  C:\Users\danielpi\AppData\Local\Temp\cccuTXvj.s 			page 94


 2837 0518 33050000 		.4byte	.LASF49
 2838 051c 01       		.byte	0x1
 2839 051d B904     		.2byte	0x4b9
 2840 051f 81000000 		.4byte	0x81
 2841 0523 DF040000 		.4byte	.LLST29
 2842 0527 0C       		.uleb128 0xc
 2843 0528 16000000 		.4byte	.LVL90
 2844 052c 6A040000 		.4byte	0x46a
 2845 0530 59050000 		.4byte	0x559
 2846 0534 0D       		.uleb128 0xd
 2847 0535 01       		.uleb128 0x1
 2848 0536 52       		.byte	0x52
 2849 0537 0A       		.uleb128 0xa
 2850 0538 75       		.byte	0x75
 2851 0539 00       		.sleb128 0
 2852 053a 74       		.byte	0x74
 2853 053b 00       		.sleb128 0
 2854 053c 22       		.byte	0x22
 2855 053d 94       		.byte	0x94
 2856 053e 01       		.byte	0x1
 2857 053f 08       		.byte	0x8
 2858 0540 FF       		.byte	0xff
 2859 0541 1A       		.byte	0x1a
 2860 0542 0D       		.uleb128 0xd
 2861 0543 01       		.uleb128 0x1
 2862 0544 51       		.byte	0x51
 2863 0545 0C       		.uleb128 0xc
 2864 0546 75       		.byte	0x75
 2865 0547 00       		.sleb128 0
 2866 0548 74       		.byte	0x74
 2867 0549 00       		.sleb128 0
 2868 054a 22       		.byte	0x22
 2869 054b 23       		.byte	0x23
 2870 054c 08       		.uleb128 0x8
 2871 054d 94       		.byte	0x94
 2872 054e 01       		.byte	0x1
 2873 054f 08       		.byte	0x8
 2874 0550 FF       		.byte	0xff
 2875 0551 1A       		.byte	0x1a
 2876 0552 0D       		.uleb128 0xd
 2877 0553 01       		.uleb128 0x1
 2878 0554 50       		.byte	0x50
 2879 0555 02       		.uleb128 0x2
 2880 0556 76       		.byte	0x76
 2881 0557 00       		.sleb128 0
 2882 0558 00       		.byte	0
 2883 0559 0E       		.uleb128 0xe
 2884 055a 28000000 		.4byte	.LVL93
 2885 055e 6A040000 		.4byte	0x46a
 2886 0562 0D       		.uleb128 0xd
 2887 0563 01       		.uleb128 0x1
 2888 0564 52       		.byte	0x52
 2889 0565 01       		.uleb128 0x1
 2890 0566 34       		.byte	0x34
 2891 0567 0D       		.uleb128 0xd
 2892 0568 01       		.uleb128 0x1
 2893 0569 51       		.byte	0x51
ARM GAS  C:\Users\danielpi\AppData\Local\Temp\cccuTXvj.s 			page 95


 2894 056a 01       		.uleb128 0x1
 2895 056b 30       		.byte	0x30
 2896 056c 0D       		.uleb128 0xd
 2897 056d 01       		.uleb128 0x1
 2898 056e 50       		.byte	0x50
 2899 056f 02       		.uleb128 0x2
 2900 0570 76       		.byte	0x76
 2901 0571 00       		.sleb128 0
 2902 0572 00       		.byte	0
 2903 0573 00       		.byte	0
 2904 0574 0A       		.uleb128 0xa
 2905 0575 010A0000 		.4byte	.LASF50
 2906 0579 01       		.byte	0x1
 2907 057a FA04     		.2byte	0x4fa
 2908 057c 00000000 		.4byte	.LFB53
 2909 0580 1C000000 		.4byte	.LFE53-.LFB53
 2910 0584 01       		.uleb128 0x1
 2911 0585 9C       		.byte	0x9c
 2912 0586 A8050000 		.4byte	0x5a8
 2913 058a 14       		.uleb128 0x14
 2914 058b A0020000 		.4byte	.LASF35
 2915 058f 01       		.byte	0x1
 2916 0590 FC04     		.2byte	0x4fc
 2917 0592 81000000 		.4byte	0x81
 2918 0596 01       		.uleb128 0x1
 2919 0597 52       		.byte	0x52
 2920 0598 0E       		.uleb128 0xe
 2921 0599 08000000 		.4byte	.LVL96
 2922 059d D1040000 		.4byte	0x4d1
 2923 05a1 0D       		.uleb128 0xd
 2924 05a2 01       		.uleb128 0x1
 2925 05a3 50       		.byte	0x50
 2926 05a4 01       		.uleb128 0x1
 2927 05a5 30       		.byte	0x30
 2928 05a6 00       		.byte	0
 2929 05a7 00       		.byte	0
 2930 05a8 0A       		.uleb128 0xa
 2931 05a9 19060000 		.4byte	.LASF51
 2932 05ad 01       		.byte	0x1
 2933 05ae 6906     		.2byte	0x669
 2934 05b0 00000000 		.4byte	.LFB57
 2935 05b4 34000000 		.4byte	.LFE57-.LFB57
 2936 05b8 01       		.uleb128 0x1
 2937 05b9 9C       		.byte	0x9c
 2938 05ba EF050000 		.4byte	0x5ef
 2939 05be 12       		.uleb128 0x12
 2940 05bf 70060000 		.4byte	.LASF44
 2941 05c3 01       		.byte	0x1
 2942 05c4 6906     		.2byte	0x669
 2943 05c6 81000000 		.4byte	0x81
 2944 05ca 20050000 		.4byte	.LLST30
 2945 05ce 12       		.uleb128 0x12
 2946 05cf D0060000 		.4byte	.LASF45
 2947 05d3 01       		.byte	0x1
 2948 05d4 6906     		.2byte	0x669
 2949 05d6 81000000 		.4byte	0x81
 2950 05da 41050000 		.4byte	.LLST31
ARM GAS  C:\Users\danielpi\AppData\Local\Temp\cccuTXvj.s 			page 96


 2951 05de 0B       		.uleb128 0xb
 2952 05df AA0A0000 		.4byte	.LASF21
 2953 05e3 01       		.byte	0x1
 2954 05e4 6B06     		.2byte	0x66b
 2955 05e6 81000000 		.4byte	0x81
 2956 05ea 62050000 		.4byte	.LLST32
 2957 05ee 00       		.byte	0
 2958 05ef 0A       		.uleb128 0xa
 2959 05f0 2F090000 		.4byte	.LASF52
 2960 05f4 01       		.byte	0x1
 2961 05f5 8C06     		.2byte	0x68c
 2962 05f7 00000000 		.4byte	.LFB58
 2963 05fb 14000000 		.4byte	.LFE58-.LFB58
 2964 05ff 01       		.uleb128 0x1
 2965 0600 9C       		.byte	0x9c
 2966 0601 26060000 		.4byte	0x626
 2967 0605 12       		.uleb128 0x12
 2968 0606 6A070000 		.4byte	.LASF53
 2969 060a 01       		.byte	0x1
 2970 060b 8C06     		.2byte	0x68c
 2971 060d 81000000 		.4byte	0x81
 2972 0611 80050000 		.4byte	.LLST33
 2973 0615 0B       		.uleb128 0xb
 2974 0616 AA0A0000 		.4byte	.LASF21
 2975 061a 01       		.byte	0x1
 2976 061b 8E06     		.2byte	0x68e
 2977 061d 81000000 		.4byte	0x81
 2978 0621 AE050000 		.4byte	.LLST34
 2979 0625 00       		.byte	0
 2980 0626 15       		.uleb128 0x15
 2981 0627 E4010000 		.4byte	.LASF54
 2982 062b 01       		.byte	0x1
 2983 062c C2       		.byte	0xc2
 2984 062d 00000000 		.4byte	.LFB35
 2985 0631 28000000 		.4byte	.LFE35-.LFB35
 2986 0635 01       		.uleb128 0x1
 2987 0636 9C       		.byte	0x9c
 2988 0637 70060000 		.4byte	0x670
 2989 063b 16       		.uleb128 0x16
 2990 063c 260B0000 		.4byte	.LASF47
 2991 0640 01       		.byte	0x1
 2992 0641 C4       		.byte	0xc4
 2993 0642 81000000 		.4byte	0x81
 2994 0646 CC050000 		.4byte	.LLST35
 2995 064a 0F       		.uleb128 0xf
 2996 064b 16000000 		.4byte	.LVL114
 2997 064f EE000000 		.4byte	0xee
 2998 0653 0C       		.uleb128 0xc
 2999 0654 1C000000 		.4byte	.LVL115
 3000 0658 EF050000 		.4byte	0x5ef
 3001 065c 66060000 		.4byte	0x666
 3002 0660 0D       		.uleb128 0xd
 3003 0661 01       		.uleb128 0x1
 3004 0662 50       		.byte	0x50
 3005 0663 01       		.uleb128 0x1
 3006 0664 30       		.byte	0x30
 3007 0665 00       		.byte	0
ARM GAS  C:\Users\danielpi\AppData\Local\Temp\cccuTXvj.s 			page 97


 3008 0666 0F       		.uleb128 0xf
 3009 0667 20000000 		.4byte	.LVL116
 3010 066b 33040000 		.4byte	0x433
 3011 066f 00       		.byte	0
 3012 0670 0A       		.uleb128 0xa
 3013 0671 9C010000 		.4byte	.LASF55
 3014 0675 01       		.byte	0x1
 3015 0676 9301     		.2byte	0x193
 3016 0678 00000000 		.4byte	.LFB38
 3017 067c 38000000 		.4byte	.LFE38-.LFB38
 3018 0680 01       		.uleb128 0x1
 3019 0681 9C       		.byte	0x9c
 3020 0682 B4060000 		.4byte	0x6b4
 3021 0686 14       		.uleb128 0x14
 3022 0687 76030000 		.4byte	.LASF56
 3023 068b 01       		.byte	0x1
 3024 068c 9601     		.2byte	0x196
 3025 068e 6B000000 		.4byte	0x6b
 3026 0692 05       		.uleb128 0x5
 3027 0693 03       		.byte	0x3
 3028 0694 0E000000 		.4byte	CapSense_1_initVar.5277
 3029 0698 0F       		.uleb128 0xf
 3030 0699 0E000000 		.4byte	.LVL117
 3031 069d 26060000 		.4byte	0x626
 3032 06a1 0F       		.uleb128 0xf
 3033 06a2 18000000 		.4byte	.LVL118
 3034 06a6 4F010000 		.4byte	0x14f
 3035 06aa 0F       		.uleb128 0xf
 3036 06ab 1C000000 		.4byte	.LVL119
 3037 06af F6100000 		.4byte	0x10f6
 3038 06b3 00       		.byte	0
 3039 06b4 10       		.uleb128 0x10
 3040 06b5 7C050000 		.4byte	.LASF58
 3041 06b9 01       		.byte	0x1
 3042 06ba B006     		.2byte	0x6b0
 3043 06bc 81000000 		.4byte	0x81
 3044 06c0 00000000 		.4byte	.LFB59
 3045 06c4 1C000000 		.4byte	.LFE59-.LFB59
 3046 06c8 01       		.uleb128 0x1
 3047 06c9 9C       		.byte	0x9c
 3048 06ca 11       		.uleb128 0x11
 3049 06cb 6B040000 		.4byte	.LASF59
 3050 06cf 01       		.byte	0x1
 3051 06d0 CC06     		.2byte	0x6cc
 3052 06d2 81000000 		.4byte	0x81
 3053 06d6 00000000 		.4byte	.LFB60
 3054 06da 18000000 		.4byte	.LFE60-.LFB60
 3055 06de 01       		.uleb128 0x1
 3056 06df 9C       		.byte	0x9c
 3057 06e0 23070000 		.4byte	0x723
 3058 06e4 12       		.uleb128 0x12
 3059 06e5 F0040000 		.4byte	.LASF60
 3060 06e9 01       		.byte	0x1
 3061 06ea CC06     		.2byte	0x6cc
 3062 06ec E3000000 		.4byte	0xe3
 3063 06f0 EB050000 		.4byte	.LLST36
 3064 06f4 12       		.uleb128 0x12
ARM GAS  C:\Users\danielpi\AppData\Local\Temp\cccuTXvj.s 			page 98


 3065 06f5 4D0B0000 		.4byte	.LASF61
 3066 06f9 01       		.byte	0x1
 3067 06fa CC06     		.2byte	0x6cc
 3068 06fc 81000000 		.4byte	0x81
 3069 0700 25060000 		.4byte	.LLST37
 3070 0704 0B       		.uleb128 0xb
 3071 0705 29020000 		.4byte	.LASF62
 3072 0709 01       		.byte	0x1
 3073 070a CE06     		.2byte	0x6ce
 3074 070c 81000000 		.4byte	0x81
 3075 0710 46060000 		.4byte	.LLST38
 3076 0714 14       		.uleb128 0x14
 3077 0715 AB090000 		.4byte	.LASF63
 3078 0719 01       		.byte	0x1
 3079 071a CF06     		.2byte	0x6cf
 3080 071c 6B000000 		.4byte	0x6b
 3081 0720 01       		.uleb128 0x1
 3082 0721 52       		.byte	0x52
 3083 0722 00       		.byte	0
 3084 0723 11       		.uleb128 0x11
 3085 0724 95000000 		.4byte	.LASF64
 3086 0728 01       		.byte	0x1
 3087 0729 1502     		.2byte	0x215
 3088 072b 6B000000 		.4byte	0x6b
 3089 072f 00000000 		.4byte	.LFB40
 3090 0733 24000000 		.4byte	.LFE40-.LFB40
 3091 0737 01       		.uleb128 0x1
 3092 0738 9C       		.byte	0x9c
 3093 0739 74070000 		.4byte	0x774
 3094 073d 12       		.uleb128 0x12
 3095 073e 7A060000 		.4byte	.LASF41
 3096 0742 01       		.byte	0x1
 3097 0743 1502     		.2byte	0x215
 3098 0745 6B000000 		.4byte	0x6b
 3099 0749 69060000 		.4byte	.LLST39
 3100 074d 0B       		.uleb128 0xb
 3101 074e B9050000 		.4byte	.LASF65
 3102 0752 01       		.byte	0x1
 3103 0753 1702     		.2byte	0x217
 3104 0755 81000000 		.4byte	0x81
 3105 0759 AA060000 		.4byte	.LLST40
 3106 075d 0E       		.uleb128 0xe
 3107 075e 18000000 		.4byte	.LVL132
 3108 0762 CA060000 		.4byte	0x6ca
 3109 0766 0D       		.uleb128 0xd
 3110 0767 01       		.uleb128 0x1
 3111 0768 51       		.byte	0x51
 3112 0769 02       		.uleb128 0x2
 3113 076a 74       		.byte	0x74
 3114 076b 00       		.sleb128 0
 3115 076c 0D       		.uleb128 0xd
 3116 076d 01       		.uleb128 0x1
 3117 076e 50       		.byte	0x50
 3118 076f 02       		.uleb128 0x2
 3119 0770 75       		.byte	0x75
 3120 0771 00       		.sleb128 0
 3121 0772 00       		.byte	0
ARM GAS  C:\Users\danielpi\AppData\Local\Temp\cccuTXvj.s 			page 99


 3122 0773 00       		.byte	0
 3123 0774 0A       		.uleb128 0xa
 3124 0775 CB020000 		.4byte	.LASF66
 3125 0779 01       		.byte	0x1
 3126 077a 5205     		.2byte	0x552
 3127 077c 00000000 		.4byte	.LFB55
 3128 0780 0C010000 		.4byte	.LFE55-.LFB55
 3129 0784 01       		.uleb128 0x1
 3130 0785 9C       		.byte	0x9c
 3131 0786 07090000 		.4byte	0x907
 3132 078a 12       		.uleb128 0x12
 3133 078b 82040000 		.4byte	.LASF24
 3134 078f 01       		.byte	0x1
 3135 0790 5205     		.2byte	0x552
 3136 0792 81000000 		.4byte	0x81
 3137 0796 BD060000 		.4byte	.LLST41
 3138 079a 0B       		.uleb128 0xb
 3139 079b 30020000 		.4byte	.LASF27
 3140 079f 01       		.byte	0x1
 3141 07a0 5405     		.2byte	0x554
 3142 07a2 6B000000 		.4byte	0x6b
 3143 07a6 E9060000 		.4byte	.LLST42
 3144 07aa 0B       		.uleb128 0xb
 3145 07ab BC000000 		.4byte	.LASF34
 3146 07af 01       		.byte	0x1
 3147 07b0 5505     		.2byte	0x555
 3148 07b2 6B000000 		.4byte	0x6b
 3149 07b6 37070000 		.4byte	.LLST43
 3150 07ba 0B       		.uleb128 0xb
 3151 07bb AA0A0000 		.4byte	.LASF21
 3152 07bf 01       		.byte	0x1
 3153 07c0 5605     		.2byte	0x556
 3154 07c2 81000000 		.4byte	0x81
 3155 07c6 55070000 		.4byte	.LLST44
 3156 07ca 0B       		.uleb128 0xb
 3157 07cb CC090000 		.4byte	.LASF67
 3158 07cf 01       		.byte	0x1
 3159 07d0 5705     		.2byte	0x557
 3160 07d2 81000000 		.4byte	0x81
 3161 07d6 7E070000 		.4byte	.LLST45
 3162 07da 0B       		.uleb128 0xb
 3163 07db 300B0000 		.4byte	.LASF68
 3164 07df 01       		.byte	0x1
 3165 07e0 6005     		.2byte	0x560
 3166 07e2 81000000 		.4byte	0x81
 3167 07e6 A7070000 		.4byte	.LLST46
 3168 07ea 0C       		.uleb128 0xc
 3169 07eb 18000000 		.4byte	.LVL140
 3170 07ef CA060000 		.4byte	0x6ca
 3171 07f3 07080000 		.4byte	0x807
 3172 07f7 0D       		.uleb128 0xd
 3173 07f8 01       		.uleb128 0x1
 3174 07f9 51       		.byte	0x51
 3175 07fa 02       		.uleb128 0x2
 3176 07fb 74       		.byte	0x74
 3177 07fc 00       		.sleb128 0
 3178 07fd 0D       		.uleb128 0xd
ARM GAS  C:\Users\danielpi\AppData\Local\Temp\cccuTXvj.s 			page 100


 3179 07fe 01       		.uleb128 0x1
 3180 07ff 50       		.byte	0x50
 3181 0800 05       		.uleb128 0x5
 3182 0801 03       		.byte	0x3
 3183 0802 00000000 		.4byte	scanSpeedTbl
 3184 0806 00       		.byte	0
 3185 0807 0F       		.uleb128 0xf
 3186 0808 2C000000 		.4byte	.LVL144
 3187 080c 6D100000 		.4byte	0x106d
 3188 0810 0F       		.uleb128 0xf
 3189 0811 30000000 		.4byte	.LVL145
 3190 0815 74100000 		.4byte	0x1074
 3191 0819 0C       		.uleb128 0xc
 3192 081a 3E000000 		.4byte	.LVL146
 3193 081e 7B100000 		.4byte	0x107b
 3194 0822 2C080000 		.4byte	0x82c
 3195 0826 0D       		.uleb128 0xd
 3196 0827 01       		.uleb128 0x1
 3197 0828 51       		.byte	0x51
 3198 0829 01       		.uleb128 0x1
 3199 082a 30       		.byte	0x30
 3200 082b 00       		.byte	0
 3201 082c 0C       		.uleb128 0xc
 3202 082d 4C000000 		.4byte	.LVL147
 3203 0831 91100000 		.4byte	0x1091
 3204 0835 3F080000 		.4byte	0x83f
 3205 0839 0D       		.uleb128 0xd
 3206 083a 01       		.uleb128 0x1
 3207 083b 51       		.byte	0x51
 3208 083c 01       		.uleb128 0x1
 3209 083d 30       		.byte	0x30
 3210 083e 00       		.byte	0
 3211 083f 0C       		.uleb128 0xc
 3212 0840 52000000 		.4byte	.LVL148
 3213 0844 A7100000 		.4byte	0x10a7
 3214 0848 53080000 		.4byte	0x853
 3215 084c 0D       		.uleb128 0xd
 3216 084d 01       		.uleb128 0x1
 3217 084e 50       		.byte	0x50
 3218 084f 02       		.uleb128 0x2
 3219 0850 08       		.byte	0x8
 3220 0851 FF       		.byte	0xff
 3221 0852 00       		.byte	0
 3222 0853 0C       		.uleb128 0xc
 3223 0854 58000000 		.4byte	.LVL149
 3224 0858 B8100000 		.4byte	0x10b8
 3225 085c 67080000 		.4byte	0x867
 3226 0860 0D       		.uleb128 0xd
 3227 0861 01       		.uleb128 0x1
 3228 0862 50       		.byte	0x50
 3229 0863 02       		.uleb128 0x2
 3230 0864 08       		.byte	0x8
 3231 0865 40       		.byte	0x40
 3232 0866 00       		.byte	0
 3233 0867 0C       		.uleb128 0xc
 3234 0868 5E000000 		.4byte	.LVL150
 3235 086c 2C100000 		.4byte	0x102c
ARM GAS  C:\Users\danielpi\AppData\Local\Temp\cccuTXvj.s 			page 101


 3236 0870 7A080000 		.4byte	0x87a
 3237 0874 0D       		.uleb128 0xd
 3238 0875 01       		.uleb128 0x1
 3239 0876 50       		.byte	0x50
 3240 0877 01       		.uleb128 0x1
 3241 0878 40       		.byte	0x40
 3242 0879 00       		.byte	0
 3243 087a 0C       		.uleb128 0xc
 3244 087b 7A000000 		.4byte	.LVL151
 3245 087f FE100000 		.4byte	0x10fe
 3246 0883 8D080000 		.4byte	0x88d
 3247 0887 0D       		.uleb128 0xd
 3248 0888 01       		.uleb128 0x1
 3249 0889 50       		.byte	0x50
 3250 088a 01       		.uleb128 0x1
 3251 088b 40       		.byte	0x40
 3252 088c 00       		.byte	0
 3253 088d 0C       		.uleb128 0xc
 3254 088e 80000000 		.4byte	.LVL152
 3255 0892 C9100000 		.4byte	0x10c9
 3256 0896 A0080000 		.4byte	0x8a0
 3257 089a 0D       		.uleb128 0xd
 3258 089b 01       		.uleb128 0x1
 3259 089c 50       		.byte	0x50
 3260 089d 01       		.uleb128 0x1
 3261 089e 40       		.byte	0x40
 3262 089f 00       		.byte	0
 3263 08a0 0C       		.uleb128 0xc
 3264 08a1 86000000 		.4byte	.LVL153
 3265 08a5 2C100000 		.4byte	0x102c
 3266 08a9 B3080000 		.4byte	0x8b3
 3267 08ad 0D       		.uleb128 0xd
 3268 08ae 01       		.uleb128 0x1
 3269 08af 50       		.byte	0x50
 3270 08b0 01       		.uleb128 0x1
 3271 08b1 40       		.byte	0x40
 3272 08b2 00       		.byte	0
 3273 08b3 0C       		.uleb128 0xc
 3274 08b4 B0000000 		.4byte	.LVL160
 3275 08b8 C9100000 		.4byte	0x10c9
 3276 08bc C6080000 		.4byte	0x8c6
 3277 08c0 0D       		.uleb128 0xd
 3278 08c1 01       		.uleb128 0x1
 3279 08c2 50       		.byte	0x50
 3280 08c3 01       		.uleb128 0x1
 3281 08c4 40       		.byte	0x40
 3282 08c5 00       		.byte	0
 3283 08c6 0C       		.uleb128 0xc
 3284 08c7 B6000000 		.4byte	.LVL161
 3285 08cb 01030000 		.4byte	0x301
 3286 08cf DA080000 		.4byte	0x8da
 3287 08d3 0D       		.uleb128 0xd
 3288 08d4 01       		.uleb128 0x1
 3289 08d5 50       		.byte	0x50
 3290 08d6 02       		.uleb128 0x2
 3291 08d7 74       		.byte	0x74
 3292 08d8 00       		.sleb128 0
ARM GAS  C:\Users\danielpi\AppData\Local\Temp\cccuTXvj.s 			page 102


 3293 08d9 00       		.byte	0
 3294 08da 0F       		.uleb128 0xf
 3295 08db BA000000 		.4byte	.LVL162
 3296 08df DA100000 		.4byte	0x10da
 3297 08e3 0C       		.uleb128 0xc
 3298 08e4 C4000000 		.4byte	.LVL165
 3299 08e8 0F110000 		.4byte	0x110f
 3300 08ec F6080000 		.4byte	0x8f6
 3301 08f0 0D       		.uleb128 0xd
 3302 08f1 01       		.uleb128 0x1
 3303 08f2 50       		.byte	0x50
 3304 08f3 01       		.uleb128 0x1
 3305 08f4 30       		.byte	0x30
 3306 08f5 00       		.byte	0
 3307 08f6 0E       		.uleb128 0xe
 3308 08f7 CE000000 		.4byte	.LVL166
 3309 08fb E5100000 		.4byte	0x10e5
 3310 08ff 0D       		.uleb128 0xd
 3311 0900 01       		.uleb128 0x1
 3312 0901 50       		.byte	0x50
 3313 0902 02       		.uleb128 0x2
 3314 0903 74       		.byte	0x74
 3315 0904 00       		.sleb128 0
 3316 0905 00       		.byte	0
 3317 0906 00       		.byte	0
 3318 0907 0A       		.uleb128 0xa
 3319 0908 1B010000 		.4byte	.LASF69
 3320 090c 01       		.byte	0x1
 3321 090d 4502     		.2byte	0x245
 3322 090f 00000000 		.4byte	.LFB41
 3323 0913 1C000000 		.4byte	.LFE41-.LFB41
 3324 0917 01       		.uleb128 0x1
 3325 0918 9C       		.byte	0x9c
 3326 0919 3F090000 		.4byte	0x93f
 3327 091d 12       		.uleb128 0x12
 3328 091e 82040000 		.4byte	.LASF24
 3329 0922 01       		.byte	0x1
 3330 0923 4502     		.2byte	0x245
 3331 0925 81000000 		.4byte	0x81
 3332 0929 BA070000 		.4byte	.LLST47
 3333 092d 0E       		.uleb128 0xe
 3334 092e 14000000 		.4byte	.LVL171
 3335 0932 74070000 		.4byte	0x774
 3336 0936 0D       		.uleb128 0xd
 3337 0937 01       		.uleb128 0x1
 3338 0938 50       		.byte	0x50
 3339 0939 03       		.uleb128 0x3
 3340 093a F3       		.byte	0xf3
 3341 093b 01       		.uleb128 0x1
 3342 093c 50       		.byte	0x50
 3343 093d 00       		.byte	0
 3344 093e 00       		.byte	0
 3345 093f 0A       		.uleb128 0xa
 3346 0940 3A060000 		.4byte	.LASF70
 3347 0944 01       		.byte	0x1
 3348 0945 C102     		.2byte	0x2c1
 3349 0947 00000000 		.4byte	.LFB43
ARM GAS  C:\Users\danielpi\AppData\Local\Temp\cccuTXvj.s 			page 103


 3350 094b 34000000 		.4byte	.LFE43-.LFB43
 3351 094f 01       		.uleb128 0x1
 3352 0950 9C       		.byte	0x9c
 3353 0951 68090000 		.4byte	0x968
 3354 0955 0F       		.uleb128 0xf
 3355 0956 14000000 		.4byte	.LVL172
 3356 095a 23070000 		.4byte	0x723
 3357 095e 0F       		.uleb128 0xf
 3358 095f 2E000000 		.4byte	.LVL173
 3359 0963 74070000 		.4byte	0x774
 3360 0967 00       		.byte	0
 3361 0968 0A       		.uleb128 0xa
 3362 0969 E0070000 		.4byte	.LASF71
 3363 096d 01       		.byte	0x1
 3364 096e 0F06     		.2byte	0x60f
 3365 0970 00000000 		.4byte	.LFB56
 3366 0974 8C000000 		.4byte	.LFE56-.LFB56
 3367 0978 01       		.uleb128 0x1
 3368 0979 9C       		.byte	0x9c
 3369 097a 120A0000 		.4byte	0xa12
 3370 097e 12       		.uleb128 0x12
 3371 097f 82040000 		.4byte	.LASF24
 3372 0983 01       		.byte	0x1
 3373 0984 0F06     		.2byte	0x60f
 3374 0986 81000000 		.4byte	0x81
 3375 098a DB070000 		.4byte	.LLST48
 3376 098e 0B       		.uleb128 0xb
 3377 098f AA0A0000 		.4byte	.LASF21
 3378 0993 01       		.byte	0x1
 3379 0994 1106     		.2byte	0x611
 3380 0996 81000000 		.4byte	0x81
 3381 099a 07080000 		.4byte	.LLST49
 3382 099e 0B       		.uleb128 0xb
 3383 099f 300B0000 		.4byte	.LASF68
 3384 09a3 01       		.byte	0x1
 3385 09a4 1406     		.2byte	0x614
 3386 09a6 81000000 		.4byte	0x81
 3387 09aa 34080000 		.4byte	.LLST50
 3388 09ae 0B       		.uleb128 0xb
 3389 09af 30020000 		.4byte	.LASF27
 3390 09b3 01       		.byte	0x1
 3391 09b4 1506     		.2byte	0x615
 3392 09b6 81000000 		.4byte	0x81
 3393 09ba 47080000 		.4byte	.LLST51
 3394 09be 0C       		.uleb128 0xc
 3395 09bf 2C000000 		.4byte	.LVL179
 3396 09c3 CA060000 		.4byte	0x6ca
 3397 09c7 DB090000 		.4byte	0x9db
 3398 09cb 0D       		.uleb128 0xd
 3399 09cc 01       		.uleb128 0x1
 3400 09cd 51       		.byte	0x51
 3401 09ce 02       		.uleb128 0x2
 3402 09cf 74       		.byte	0x74
 3403 09d0 00       		.sleb128 0
 3404 09d1 0D       		.uleb128 0xd
 3405 09d2 01       		.uleb128 0x1
 3406 09d3 50       		.byte	0x50
ARM GAS  C:\Users\danielpi\AppData\Local\Temp\cccuTXvj.s 			page 104


 3407 09d4 05       		.uleb128 0x5
 3408 09d5 03       		.byte	0x3
 3409 09d6 00000000 		.4byte	scanSpeedTbl
 3410 09da 00       		.byte	0
 3411 09db 0C       		.uleb128 0xc
 3412 09dc 3C000000 		.4byte	.LVL181
 3413 09e0 8A030000 		.4byte	0x38a
 3414 09e4 EF090000 		.4byte	0x9ef
 3415 09e8 0D       		.uleb128 0xd
 3416 09e9 01       		.uleb128 0x1
 3417 09ea 50       		.byte	0x50
 3418 09eb 02       		.uleb128 0x2
 3419 09ec 74       		.byte	0x74
 3420 09ed 00       		.sleb128 0
 3421 09ee 00       		.byte	0
 3422 09ef 0C       		.uleb128 0xc
 3423 09f0 42000000 		.4byte	.LVL182
 3424 09f4 2C100000 		.4byte	0x102c
 3425 09f8 020A0000 		.4byte	0xa02
 3426 09fc 0D       		.uleb128 0xd
 3427 09fd 01       		.uleb128 0x1
 3428 09fe 50       		.byte	0x50
 3429 09ff 01       		.uleb128 0x1
 3430 0a00 40       		.byte	0x40
 3431 0a01 00       		.byte	0
 3432 0a02 0E       		.uleb128 0xe
 3433 0a03 62000000 		.4byte	.LVL188
 3434 0a07 C9100000 		.4byte	0x10c9
 3435 0a0b 0D       		.uleb128 0xd
 3436 0a0c 01       		.uleb128 0x1
 3437 0a0d 50       		.byte	0x50
 3438 0a0e 01       		.uleb128 0x1
 3439 0a0f 40       		.byte	0x40
 3440 0a10 00       		.byte	0
 3441 0a11 00       		.byte	0
 3442 0a12 0A       		.uleb128 0xa
 3443 0a13 37020000 		.4byte	.LASF72
 3444 0a17 01       		.byte	0x1
 3445 0a18 F706     		.2byte	0x6f7
 3446 0a1a 00000000 		.4byte	.LFB61
 3447 0a1e 26000000 		.4byte	.LFE61-.LFB61
 3448 0a22 01       		.uleb128 0x1
 3449 0a23 9C       		.byte	0x9c
 3450 0a24 770A0000 		.4byte	0xa77
 3451 0a28 12       		.uleb128 0x12
 3452 0a29 F0040000 		.4byte	.LASF60
 3453 0a2d 01       		.byte	0x1
 3454 0a2e F706     		.2byte	0x6f7
 3455 0a30 DD000000 		.4byte	0xdd
 3456 0a34 B8080000 		.4byte	.LLST52
 3457 0a38 12       		.uleb128 0x12
 3458 0a39 4D0B0000 		.4byte	.LASF61
 3459 0a3d 01       		.byte	0x1
 3460 0a3e F706     		.2byte	0x6f7
 3461 0a40 81000000 		.4byte	0x81
 3462 0a44 F2080000 		.4byte	.LLST53
 3463 0a48 13       		.uleb128 0x13
ARM GAS  C:\Users\danielpi\AppData\Local\Temp\cccuTXvj.s 			page 105


 3464 0a49 82020000 		.4byte	.LASF25
 3465 0a4d 01       		.byte	0x1
 3466 0a4e F706     		.2byte	0x6f7
 3467 0a50 81000000 		.4byte	0x81
 3468 0a54 01       		.uleb128 0x1
 3469 0a55 52       		.byte	0x52
 3470 0a56 0B       		.uleb128 0xb
 3471 0a57 29020000 		.4byte	.LASF62
 3472 0a5b 01       		.byte	0x1
 3473 0a5c F906     		.2byte	0x6f9
 3474 0a5e 81000000 		.4byte	0x81
 3475 0a62 13090000 		.4byte	.LLST54
 3476 0a66 0B       		.uleb128 0xb
 3477 0a67 AB090000 		.4byte	.LASF63
 3478 0a6b 01       		.byte	0x1
 3479 0a6c FA06     		.2byte	0x6fa
 3480 0a6e 6B000000 		.4byte	0x6b
 3481 0a72 51090000 		.4byte	.LLST55
 3482 0a76 00       		.byte	0
 3483 0a77 0A       		.uleb128 0xa
 3484 0a78 740B0000 		.4byte	.LASF73
 3485 0a7c 01       		.byte	0x1
 3486 0a7d 6C02     		.2byte	0x26c
 3487 0a7f 00000000 		.4byte	.LFB42
 3488 0a83 98000000 		.4byte	.LFE42-.LFB42
 3489 0a87 01       		.uleb128 0x1
 3490 0a88 9C       		.byte	0x9c
 3491 0a89 150B0000 		.4byte	0xb15
 3492 0a8d 12       		.uleb128 0x12
 3493 0a8e 30020000 		.4byte	.LASF27
 3494 0a92 01       		.byte	0x1
 3495 0a93 6C02     		.2byte	0x26c
 3496 0a95 81000000 		.4byte	0x81
 3497 0a99 76090000 		.4byte	.LLST56
 3498 0a9d 0B       		.uleb128 0xb
 3499 0a9e B5030000 		.4byte	.LASF74
 3500 0aa2 01       		.byte	0x1
 3501 0aa3 6E02     		.2byte	0x26e
 3502 0aa5 81000000 		.4byte	0x81
 3503 0aa9 97090000 		.4byte	.LLST57
 3504 0aad 0B       		.uleb128 0xb
 3505 0aae A0060000 		.4byte	.LASF75
 3506 0ab2 01       		.byte	0x1
 3507 0ab3 6F02     		.2byte	0x26f
 3508 0ab5 81000000 		.4byte	0x81
 3509 0ab9 AA090000 		.4byte	.LLST58
 3510 0abd 0B       		.uleb128 0xb
 3511 0abe 7A060000 		.4byte	.LASF41
 3512 0ac2 01       		.byte	0x1
 3513 0ac3 7002     		.2byte	0x270
 3514 0ac5 81000000 		.4byte	0x81
 3515 0ac9 BD090000 		.4byte	.LLST59
 3516 0acd 0C       		.uleb128 0xc
 3517 0ace 52000000 		.4byte	.LVL208
 3518 0ad2 120A0000 		.4byte	0xa12
 3519 0ad6 EC0A0000 		.4byte	0xaec
 3520 0ada 0D       		.uleb128 0xd
ARM GAS  C:\Users\danielpi\AppData\Local\Temp\cccuTXvj.s 			page 106


 3521 0adb 01       		.uleb128 0x1
 3522 0adc 52       		.byte	0x52
 3523 0add 01       		.uleb128 0x1
 3524 0ade 31       		.byte	0x31
 3525 0adf 0D       		.uleb128 0xd
 3526 0ae0 01       		.uleb128 0x1
 3527 0ae1 51       		.byte	0x51
 3528 0ae2 02       		.uleb128 0x2
 3529 0ae3 74       		.byte	0x74
 3530 0ae4 00       		.sleb128 0
 3531 0ae5 0D       		.uleb128 0xd
 3532 0ae6 01       		.uleb128 0x1
 3533 0ae7 50       		.byte	0x50
 3534 0ae8 02       		.uleb128 0x2
 3535 0ae9 76       		.byte	0x76
 3536 0aea 00       		.sleb128 0
 3537 0aeb 00       		.byte	0
 3538 0aec 0C       		.uleb128 0xc
 3539 0aed 5E000000 		.4byte	.LVL209
 3540 0af1 120A0000 		.4byte	0xa12
 3541 0af5 0B0B0000 		.4byte	0xb0b
 3542 0af9 0D       		.uleb128 0xd
 3543 0afa 01       		.uleb128 0x1
 3544 0afb 52       		.byte	0x52
 3545 0afc 01       		.uleb128 0x1
 3546 0afd 30       		.byte	0x30
 3547 0afe 0D       		.uleb128 0xd
 3548 0aff 01       		.uleb128 0x1
 3549 0b00 51       		.byte	0x51
 3550 0b01 02       		.uleb128 0x2
 3551 0b02 74       		.byte	0x74
 3552 0b03 00       		.sleb128 0
 3553 0b04 0D       		.uleb128 0xd
 3554 0b05 01       		.uleb128 0x1
 3555 0b06 50       		.byte	0x50
 3556 0b07 02       		.uleb128 0x2
 3557 0b08 76       		.byte	0x76
 3558 0b09 00       		.sleb128 0
 3559 0b0a 00       		.byte	0
 3560 0b0b 0F       		.uleb128 0xf
 3561 0b0c 7C000000 		.4byte	.LVL211
 3562 0b10 74070000 		.4byte	0x774
 3563 0b14 00       		.byte	0
 3564 0b15 11       		.uleb128 0x11
 3565 0b16 FB050000 		.4byte	.LASF76
 3566 0b1a 01       		.byte	0x1
 3567 0b1b 2907     		.2byte	0x729
 3568 0b1d 81000000 		.4byte	0x81
 3569 0b21 00000000 		.4byte	.LFB62
 3570 0b25 0C000000 		.4byte	.LFE62-.LFB62
 3571 0b29 01       		.uleb128 0x1
 3572 0b2a 9C       		.byte	0x9c
 3573 0b2b 400B0000 		.4byte	0xb40
 3574 0b2f 12       		.uleb128 0x12
 3575 0b30 82040000 		.4byte	.LASF24
 3576 0b34 01       		.byte	0x1
 3577 0b35 2907     		.2byte	0x729
ARM GAS  C:\Users\danielpi\AppData\Local\Temp\cccuTXvj.s 			page 107


 3578 0b37 81000000 		.4byte	0x81
 3579 0b3b E7090000 		.4byte	.LLST60
 3580 0b3f 00       		.byte	0
 3581 0b40 0A       		.uleb128 0xa
 3582 0b41 F4010000 		.4byte	.LASF77
 3583 0b45 01       		.byte	0x1
 3584 0b46 4807     		.2byte	0x748
 3585 0b48 00000000 		.4byte	.LFB63
 3586 0b4c 0C000000 		.4byte	.LFE63-.LFB63
 3587 0b50 01       		.uleb128 0x1
 3588 0b51 9C       		.byte	0x9c
 3589 0b52 730B0000 		.4byte	0xb73
 3590 0b56 13       		.uleb128 0x13
 3591 0b57 82040000 		.4byte	.LASF24
 3592 0b5b 01       		.byte	0x1
 3593 0b5c 4807     		.2byte	0x748
 3594 0b5e 81000000 		.4byte	0x81
 3595 0b62 01       		.uleb128 0x1
 3596 0b63 50       		.byte	0x50
 3597 0b64 13       		.uleb128 0x13
 3598 0b65 00070000 		.4byte	.LASF78
 3599 0b69 01       		.byte	0x1
 3600 0b6a 4807     		.2byte	0x748
 3601 0b6c 81000000 		.4byte	0x81
 3602 0b70 01       		.uleb128 0x1
 3603 0b71 51       		.byte	0x51
 3604 0b72 00       		.byte	0
 3605 0b73 11       		.uleb128 0x11
 3606 0b74 6F090000 		.4byte	.LASF79
 3607 0b78 01       		.byte	0x1
 3608 0b79 6807     		.2byte	0x768
 3609 0b7b 81000000 		.4byte	0x81
 3610 0b7f 00000000 		.4byte	.LFB64
 3611 0b83 0C000000 		.4byte	.LFE64-.LFB64
 3612 0b87 01       		.uleb128 0x1
 3613 0b88 9C       		.byte	0x9c
 3614 0b89 9E0B0000 		.4byte	0xb9e
 3615 0b8d 12       		.uleb128 0x12
 3616 0b8e 82040000 		.4byte	.LASF24
 3617 0b92 01       		.byte	0x1
 3618 0b93 6807     		.2byte	0x768
 3619 0b95 81000000 		.4byte	0x81
 3620 0b99 080A0000 		.4byte	.LLST61
 3621 0b9d 00       		.byte	0
 3622 0b9e 0A       		.uleb128 0xa
 3623 0b9f 70070000 		.4byte	.LASF80
 3624 0ba3 01       		.byte	0x1
 3625 0ba4 8707     		.2byte	0x787
 3626 0ba6 00000000 		.4byte	.LFB65
 3627 0baa 0C000000 		.4byte	.LFE65-.LFB65
 3628 0bae 01       		.uleb128 0x1
 3629 0baf 9C       		.byte	0x9c
 3630 0bb0 D10B0000 		.4byte	0xbd1
 3631 0bb4 13       		.uleb128 0x13
 3632 0bb5 82040000 		.4byte	.LASF24
 3633 0bb9 01       		.byte	0x1
 3634 0bba 8707     		.2byte	0x787
ARM GAS  C:\Users\danielpi\AppData\Local\Temp\cccuTXvj.s 			page 108


 3635 0bbc 81000000 		.4byte	0x81
 3636 0bc0 01       		.uleb128 0x1
 3637 0bc1 50       		.byte	0x50
 3638 0bc2 13       		.uleb128 0x13
 3639 0bc3 240A0000 		.4byte	.LASF81
 3640 0bc7 01       		.byte	0x1
 3641 0bc8 8707     		.2byte	0x787
 3642 0bca 81000000 		.4byte	0x81
 3643 0bce 01       		.uleb128 0x1
 3644 0bcf 51       		.byte	0x51
 3645 0bd0 00       		.byte	0
 3646 0bd1 11       		.uleb128 0x11
 3647 0bd2 83060000 		.4byte	.LASF82
 3648 0bd6 01       		.byte	0x1
 3649 0bd7 A607     		.2byte	0x7a6
 3650 0bd9 81000000 		.4byte	0x81
 3651 0bdd 00000000 		.4byte	.LFB66
 3652 0be1 0C000000 		.4byte	.LFE66-.LFB66
 3653 0be5 01       		.uleb128 0x1
 3654 0be6 9C       		.byte	0x9c
 3655 0be7 FC0B0000 		.4byte	0xbfc
 3656 0beb 12       		.uleb128 0x12
 3657 0bec 82040000 		.4byte	.LASF24
 3658 0bf0 01       		.byte	0x1
 3659 0bf1 A607     		.2byte	0x7a6
 3660 0bf3 81000000 		.4byte	0x81
 3661 0bf7 290A0000 		.4byte	.LLST62
 3662 0bfb 00       		.byte	0
 3663 0bfc 0A       		.uleb128 0xa
 3664 0bfd 1D070000 		.4byte	.LASF83
 3665 0c01 01       		.byte	0x1
 3666 0c02 C107     		.2byte	0x7c1
 3667 0c04 00000000 		.4byte	.LFB67
 3668 0c08 0C000000 		.4byte	.LFE67-.LFB67
 3669 0c0c 01       		.uleb128 0x1
 3670 0c0d 9C       		.byte	0x9c
 3671 0c0e 2F0C0000 		.4byte	0xc2f
 3672 0c12 13       		.uleb128 0x13
 3673 0c13 82040000 		.4byte	.LASF24
 3674 0c17 01       		.byte	0x1
 3675 0c18 C107     		.2byte	0x7c1
 3676 0c1a 81000000 		.4byte	0x81
 3677 0c1e 01       		.uleb128 0x1
 3678 0c1f 50       		.byte	0x50
 3679 0c20 13       		.uleb128 0x13
 3680 0c21 70080000 		.4byte	.LASF84
 3681 0c25 01       		.byte	0x1
 3682 0c26 C107     		.2byte	0x7c1
 3683 0c28 81000000 		.4byte	0x81
 3684 0c2c 01       		.uleb128 0x1
 3685 0c2d 51       		.byte	0x51
 3686 0c2e 00       		.byte	0
 3687 0c2f 11       		.uleb128 0x11
 3688 0c30 89030000 		.4byte	.LASF85
 3689 0c34 01       		.byte	0x1
 3690 0c35 DE07     		.2byte	0x7de
 3691 0c37 81000000 		.4byte	0x81
ARM GAS  C:\Users\danielpi\AppData\Local\Temp\cccuTXvj.s 			page 109


 3692 0c3b 00000000 		.4byte	.LFB68
 3693 0c3f 0C000000 		.4byte	.LFE68-.LFB68
 3694 0c43 01       		.uleb128 0x1
 3695 0c44 9C       		.byte	0x9c
 3696 0c45 5A0C0000 		.4byte	0xc5a
 3697 0c49 12       		.uleb128 0x12
 3698 0c4a 82040000 		.4byte	.LASF24
 3699 0c4e 01       		.byte	0x1
 3700 0c4f DE07     		.2byte	0x7de
 3701 0c51 81000000 		.4byte	0x81
 3702 0c55 4A0A0000 		.4byte	.LLST63
 3703 0c59 00       		.byte	0
 3704 0c5a 0A       		.uleb128 0xa
 3705 0c5b B1060000 		.4byte	.LASF86
 3706 0c5f 01       		.byte	0x1
 3707 0c60 FB07     		.2byte	0x7fb
 3708 0c62 00000000 		.4byte	.LFB69
 3709 0c66 0C000000 		.4byte	.LFE69-.LFB69
 3710 0c6a 01       		.uleb128 0x1
 3711 0c6b 9C       		.byte	0x9c
 3712 0c6c 8D0C0000 		.4byte	0xc8d
 3713 0c70 13       		.uleb128 0x13
 3714 0c71 82040000 		.4byte	.LASF24
 3715 0c75 01       		.byte	0x1
 3716 0c76 FB07     		.2byte	0x7fb
 3717 0c78 81000000 		.4byte	0x81
 3718 0c7c 01       		.uleb128 0x1
 3719 0c7d 50       		.byte	0x50
 3720 0c7e 13       		.uleb128 0x13
 3721 0c7f 31080000 		.4byte	.LASF87
 3722 0c83 01       		.byte	0x1
 3723 0c84 FB07     		.2byte	0x7fb
 3724 0c86 81000000 		.4byte	0x81
 3725 0c8a 01       		.uleb128 0x1
 3726 0c8b 51       		.byte	0x51
 3727 0c8c 00       		.byte	0
 3728 0c8d 10       		.uleb128 0x10
 3729 0c8e 58060000 		.4byte	.LASF88
 3730 0c92 01       		.byte	0x1
 3731 0c93 1808     		.2byte	0x818
 3732 0c95 81000000 		.4byte	0x81
 3733 0c99 00000000 		.4byte	.LFB70
 3734 0c9d 14000000 		.4byte	.LFE70-.LFB70
 3735 0ca1 01       		.uleb128 0x1
 3736 0ca2 9C       		.byte	0x9c
 3737 0ca3 0A       		.uleb128 0xa
 3738 0ca4 19080000 		.4byte	.LASF89
 3739 0ca8 01       		.byte	0x1
 3740 0ca9 3608     		.2byte	0x836
 3741 0cab 00000000 		.4byte	.LFB71
 3742 0caf 28000000 		.4byte	.LFE71-.LFB71
 3743 0cb3 01       		.uleb128 0x1
 3744 0cb4 9C       		.byte	0x9c
 3745 0cb5 C80C0000 		.4byte	0xcc8
 3746 0cb9 13       		.uleb128 0x13
 3747 0cba B0070000 		.4byte	.LASF90
 3748 0cbe 01       		.byte	0x1
ARM GAS  C:\Users\danielpi\AppData\Local\Temp\cccuTXvj.s 			page 110


 3749 0cbf 3608     		.2byte	0x836
 3750 0cc1 81000000 		.4byte	0x81
 3751 0cc5 01       		.uleb128 0x1
 3752 0cc6 50       		.byte	0x50
 3753 0cc7 00       		.byte	0
 3754 0cc8 11       		.uleb128 0x11
 3755 0cc9 7D080000 		.4byte	.LASF91
 3756 0ccd 01       		.byte	0x1
 3757 0cce 5E08     		.2byte	0x85e
 3758 0cd0 76000000 		.4byte	0x76
 3759 0cd4 00000000 		.4byte	.LFB72
 3760 0cd8 2A000000 		.4byte	.LFE72-.LFB72
 3761 0cdc 01       		.uleb128 0x1
 3762 0cdd 9C       		.byte	0x9c
 3763 0cde 400D0000 		.4byte	0xd40
 3764 0ce2 12       		.uleb128 0x12
 3765 0ce3 82040000 		.4byte	.LASF24
 3766 0ce7 01       		.byte	0x1
 3767 0ce8 5E08     		.2byte	0x85e
 3768 0cea 81000000 		.4byte	0x81
 3769 0cee 6B0A0000 		.4byte	.LLST64
 3770 0cf2 0B       		.uleb128 0xb
 3771 0cf3 42040000 		.4byte	.LASF92
 3772 0cf7 01       		.byte	0x1
 3773 0cf8 6008     		.2byte	0x860
 3774 0cfa 81000000 		.4byte	0x81
 3775 0cfe 970A0000 		.4byte	.LLST65
 3776 0d02 0B       		.uleb128 0xb
 3777 0d03 3E010000 		.4byte	.LASF93
 3778 0d07 01       		.byte	0x1
 3779 0d08 6108     		.2byte	0x861
 3780 0d0a 81000000 		.4byte	0x81
 3781 0d0e B60A0000 		.4byte	.LLST66
 3782 0d12 0C       		.uleb128 0xc
 3783 0d13 10000000 		.4byte	.LVL230
 3784 0d17 07090000 		.4byte	0x907
 3785 0d1b 260D0000 		.4byte	0xd26
 3786 0d1f 0D       		.uleb128 0xd
 3787 0d20 01       		.uleb128 0x1
 3788 0d21 50       		.byte	0x50
 3789 0d22 02       		.uleb128 0x2
 3790 0d23 76       		.byte	0x76
 3791 0d24 00       		.sleb128 0
 3792 0d25 00       		.byte	0
 3793 0d26 0F       		.uleb128 0xf
 3794 0d27 14000000 		.4byte	.LVL231
 3795 0d2b 2B020000 		.4byte	0x22b
 3796 0d2f 0E       		.uleb128 0xe
 3797 0d30 1E000000 		.4byte	.LVL232
 3798 0d34 41020000 		.4byte	0x241
 3799 0d38 0D       		.uleb128 0xd
 3800 0d39 01       		.uleb128 0x1
 3801 0d3a 50       		.byte	0x50
 3802 0d3b 02       		.uleb128 0x2
 3803 0d3c 76       		.byte	0x76
 3804 0d3d 00       		.sleb128 0
 3805 0d3e 00       		.byte	0
ARM GAS  C:\Users\danielpi\AppData\Local\Temp\cccuTXvj.s 			page 111


 3806 0d3f 00       		.byte	0
 3807 0d40 0A       		.uleb128 0xa
 3808 0d41 DE090000 		.4byte	.LASF94
 3809 0d45 01       		.byte	0x1
 3810 0d46 C808     		.2byte	0x8c8
 3811 0d48 00000000 		.4byte	.LFB73
 3812 0d4c 0C000000 		.4byte	.LFE73-.LFB73
 3813 0d50 01       		.uleb128 0x1
 3814 0d51 9C       		.byte	0x9c
 3815 0d52 730D0000 		.4byte	0xd73
 3816 0d56 13       		.uleb128 0x13
 3817 0d57 82040000 		.4byte	.LASF24
 3818 0d5b 01       		.byte	0x1
 3819 0d5c C808     		.2byte	0x8c8
 3820 0d5e 81000000 		.4byte	0x81
 3821 0d62 01       		.uleb128 0x1
 3822 0d63 50       		.byte	0x50
 3823 0d64 13       		.uleb128 0x13
 3824 0d65 DE020000 		.4byte	.LASF39
 3825 0d69 01       		.byte	0x1
 3826 0d6a C808     		.2byte	0x8c8
 3827 0d6c 81000000 		.4byte	0x81
 3828 0d70 01       		.uleb128 0x1
 3829 0d71 51       		.byte	0x51
 3830 0d72 00       		.byte	0
 3831 0d73 0A       		.uleb128 0xa
 3832 0d74 66020000 		.4byte	.LASF95
 3833 0d78 01       		.byte	0x1
 3834 0d79 E508     		.2byte	0x8e5
 3835 0d7b 00000000 		.4byte	.LFB74
 3836 0d7f 44000000 		.4byte	.LFE74-.LFB74
 3837 0d83 01       		.uleb128 0x1
 3838 0d84 9C       		.byte	0x9c
 3839 0d85 F60D0000 		.4byte	0xdf6
 3840 0d89 13       		.uleb128 0x13
 3841 0d8a ED000000 		.4byte	.LASF96
 3842 0d8e 01       		.byte	0x1
 3843 0d8f E508     		.2byte	0x8e5
 3844 0d91 81000000 		.4byte	0x81
 3845 0d95 01       		.uleb128 0x1
 3846 0d96 50       		.byte	0x50
 3847 0d97 13       		.uleb128 0x13
 3848 0d98 8F0A0000 		.4byte	.LASF97
 3849 0d9c 01       		.byte	0x1
 3850 0d9d E508     		.2byte	0x8e5
 3851 0d9f DD000000 		.4byte	0xdd
 3852 0da3 01       		.uleb128 0x1
 3853 0da4 51       		.byte	0x51
 3854 0da5 0B       		.uleb128 0xb
 3855 0da6 C4050000 		.4byte	.LASF98
 3856 0daa 01       		.byte	0x1
 3857 0dab E708     		.2byte	0x8e7
 3858 0dad 81000000 		.4byte	0x81
 3859 0db1 D50A0000 		.4byte	.LLST67
 3860 0db5 0B       		.uleb128 0xb
 3861 0db6 F4070000 		.4byte	.LASF99
 3862 0dba 01       		.byte	0x1
ARM GAS  C:\Users\danielpi\AppData\Local\Temp\cccuTXvj.s 			page 112


 3863 0dbb E808     		.2byte	0x8e8
 3864 0dbd 81000000 		.4byte	0x81
 3865 0dc1 F40A0000 		.4byte	.LLST68
 3866 0dc5 0B       		.uleb128 0xb
 3867 0dc6 A0060000 		.4byte	.LASF75
 3868 0dca 01       		.byte	0x1
 3869 0dcb E908     		.2byte	0x8e9
 3870 0dcd 81000000 		.4byte	0x81
 3871 0dd1 330B0000 		.4byte	.LLST69
 3872 0dd5 0B       		.uleb128 0xb
 3873 0dd6 B5030000 		.4byte	.LASF74
 3874 0dda 01       		.byte	0x1
 3875 0ddb EA08     		.2byte	0x8ea
 3876 0ddd 81000000 		.4byte	0x81
 3877 0de1 460B0000 		.4byte	.LLST70
 3878 0de5 0B       		.uleb128 0xb
 3879 0de6 DB060000 		.4byte	.LASF100
 3880 0dea 01       		.byte	0x1
 3881 0deb EB08     		.2byte	0x8eb
 3882 0ded 81000000 		.4byte	0x81
 3883 0df1 6B0B0000 		.4byte	.LLST71
 3884 0df5 00       		.byte	0
 3885 0df6 17       		.uleb128 0x17
 3886 0df7 560B0000 		.4byte	.LASF101
 3887 0dfb 01       		.byte	0x1
 3888 0dfc 23       		.byte	0x23
 3889 0dfd 6B000000 		.4byte	0x6b
 3890 0e01 05       		.uleb128 0x5
 3891 0e02 03       		.byte	0x3
 3892 0e03 00000000 		.4byte	CapSense_1_lowLevelTuningDone
 3893 0e07 18       		.uleb128 0x18
 3894 0e08 6B000000 		.4byte	0x6b
 3895 0e0c 170E0000 		.4byte	0xe17
 3896 0e10 19       		.uleb128 0x19
 3897 0e11 D6000000 		.4byte	0xd6
 3898 0e15 00       		.byte	0
 3899 0e16 00       		.byte	0
 3900 0e17 17       		.uleb128 0x17
 3901 0e18 11000000 		.4byte	.LASF102
 3902 0e1c 01       		.byte	0x1
 3903 0e1d 24       		.byte	0x24
 3904 0e1e 070E0000 		.4byte	0xe07
 3905 0e22 05       		.uleb128 0x5
 3906 0e23 03       		.byte	0x3
 3907 0e24 00000000 		.4byte	scanSpeedTbl
 3908 0e28 17       		.uleb128 0x17
 3909 0e29 4E020000 		.4byte	.LASF103
 3910 0e2d 01       		.byte	0x1
 3911 0e2e 2C       		.byte	0x2c
 3912 0e2f AD000000 		.4byte	0xad
 3913 0e33 05       		.uleb128 0x5
 3914 0e34 03       		.byte	0x3
 3915 0e35 00000000 		.4byte	CapSense_1_csdStatusVar
 3916 0e39 17       		.uleb128 0x17
 3917 0e3a 02080000 		.4byte	.LASF104
 3918 0e3e 01       		.byte	0x1
 3919 0e3f 2D       		.byte	0x2d
ARM GAS  C:\Users\danielpi\AppData\Local\Temp\cccuTXvj.s 			page 113


 3920 0e40 AD000000 		.4byte	0xad
 3921 0e44 05       		.uleb128 0x5
 3922 0e45 03       		.byte	0x3
 3923 0e46 00000000 		.4byte	CapSense_1_sensorIndex
 3924 0e4a 18       		.uleb128 0x18
 3925 0e4b 76000000 		.4byte	0x76
 3926 0e4f 5A0E0000 		.4byte	0xe5a
 3927 0e53 19       		.uleb128 0x19
 3928 0e54 D6000000 		.4byte	0xd6
 3929 0e58 04       		.byte	0x4
 3930 0e59 00       		.byte	0
 3931 0e5a 17       		.uleb128 0x17
 3932 0e5b FC020000 		.4byte	.LASF105
 3933 0e5f 01       		.byte	0x1
 3934 0e60 30       		.byte	0x30
 3935 0e61 4A0E0000 		.4byte	0xe4a
 3936 0e65 05       		.uleb128 0x5
 3937 0e66 03       		.byte	0x3
 3938 0e67 00000000 		.4byte	CapSense_1_sensorRaw
 3939 0e6b 18       		.uleb128 0x18
 3940 0e6c 6B000000 		.4byte	0x6b
 3941 0e70 7B0E0000 		.4byte	0xe7b
 3942 0e74 19       		.uleb128 0x19
 3943 0e75 D6000000 		.4byte	0xd6
 3944 0e79 04       		.byte	0x4
 3945 0e7a 00       		.byte	0
 3946 0e7b 17       		.uleb128 0x17
 3947 0e7c 4E090000 		.4byte	.LASF106
 3948 0e80 01       		.byte	0x1
 3949 0e81 3A       		.byte	0x3a
 3950 0e82 6B0E0000 		.4byte	0xe6b
 3951 0e86 05       		.uleb128 0x5
 3952 0e87 03       		.byte	0x3
 3953 0e88 00000000 		.4byte	CapSense_1_unscannedSnsDriveMode
 3954 0e8c 17       		.uleb128 0x17
 3955 0e8d 4A0A0000 		.4byte	.LASF107
 3956 0e91 01       		.byte	0x1
 3957 0e92 3D       		.byte	0x3d
 3958 0e93 070E0000 		.4byte	0xe07
 3959 0e97 05       		.uleb128 0x5
 3960 0e98 03       		.byte	0x3
 3961 0e99 00000000 		.4byte	CapSense_1_sensorEnableMaskBackup
 3962 0e9d 17       		.uleb128 0x17
 3963 0e9e C8010000 		.4byte	.LASF108
 3964 0ea2 01       		.byte	0x1
 3965 0ea3 40       		.byte	0x40
 3966 0ea4 070E0000 		.4byte	0xe07
 3967 0ea8 05       		.uleb128 0x5
 3968 0ea9 03       		.byte	0x3
 3969 0eaa 00000000 		.4byte	CapSense_1_sensorEnableMask
 3970 0eae 17       		.uleb128 0x17
 3971 0eaf 32000000 		.4byte	.LASF109
 3972 0eb3 01       		.byte	0x1
 3973 0eb4 63       		.byte	0x63
 3974 0eb5 6B0E0000 		.4byte	0xe6b
 3975 0eb9 05       		.uleb128 0x5
 3976 0eba 03       		.byte	0x3
ARM GAS  C:\Users\danielpi\AppData\Local\Temp\cccuTXvj.s 			page 114


 3977 0ebb 00000000 		.4byte	CapSense_1_modulationIDAC
 3978 0ebf 17       		.uleb128 0x17
 3979 0ec0 E30A0000 		.4byte	.LASF110
 3980 0ec4 01       		.byte	0x1
 3981 0ec5 64       		.byte	0x64
 3982 0ec6 6B0E0000 		.4byte	0xe6b
 3983 0eca 05       		.uleb128 0x5
 3984 0ecb 03       		.byte	0x3
 3985 0ecc 00000000 		.4byte	CapSense_1_compensationIDAC
 3986 0ed0 18       		.uleb128 0x18
 3987 0ed1 81000000 		.4byte	0x81
 3988 0ed5 E00E0000 		.4byte	0xee0
 3989 0ed9 19       		.uleb128 0x19
 3990 0eda D6000000 		.4byte	0xd6
 3991 0ede 00       		.byte	0
 3992 0edf 00       		.byte	0
 3993 0ee0 17       		.uleb128 0x17
 3994 0ee1 FD040000 		.4byte	.LASF111
 3995 0ee5 01       		.byte	0x1
 3996 0ee6 66       		.byte	0x66
 3997 0ee7 D00E0000 		.4byte	0xed0
 3998 0eeb 05       		.uleb128 0x5
 3999 0eec 03       		.byte	0x3
 4000 0eed 00000000 		.4byte	CapSense_1_widgetResolution
 4001 0ef1 17       		.uleb128 0x17
 4002 0ef2 92070000 		.4byte	.LASF112
 4003 0ef6 01       		.byte	0x1
 4004 0ef7 6A       		.byte	0x6a
 4005 0ef8 6B0E0000 		.4byte	0xe6b
 4006 0efc 05       		.uleb128 0x5
 4007 0efd 03       		.byte	0x3
 4008 0efe 00000000 		.4byte	CapSense_1_senseClkDividerVal
 4009 0f02 17       		.uleb128 0x17
 4010 0f03 4C040000 		.4byte	.LASF113
 4011 0f07 01       		.byte	0x1
 4012 0f08 6B       		.byte	0x6b
 4013 0f09 6B0E0000 		.4byte	0xe6b
 4014 0f0d 05       		.uleb128 0x5
 4015 0f0e 03       		.byte	0x3
 4016 0f0f 00000000 		.4byte	CapSense_1_sampleClkDividerVal
 4017 0f13 17       		.uleb128 0x17
 4018 0f14 A1050000 		.4byte	.LASF114
 4019 0f18 01       		.byte	0x1
 4020 0f19 6D       		.byte	0x6d
 4021 0f1a 240F0000 		.4byte	0xf24
 4022 0f1e 05       		.uleb128 0x5
 4023 0f1f 03       		.byte	0x3
 4024 0f20 00000000 		.4byte	CapSense_1_widgetNumber
 4025 0f24 09       		.uleb128 0x9
 4026 0f25 6B0E0000 		.4byte	0xe6b
 4027 0f29 18       		.uleb128 0x18
 4028 0f2a 390F0000 		.4byte	0xf39
 4029 0f2e 390F0000 		.4byte	0xf39
 4030 0f32 19       		.uleb128 0x19
 4031 0f33 D6000000 		.4byte	0xd6
 4032 0f37 05       		.byte	0x5
 4033 0f38 00       		.byte	0
ARM GAS  C:\Users\danielpi\AppData\Local\Temp\cccuTXvj.s 			page 115


 4034 0f39 07       		.uleb128 0x7
 4035 0f3a 04       		.byte	0x4
 4036 0f3b 3F0F0000 		.4byte	0xf3f
 4037 0f3f 06       		.uleb128 0x6
 4038 0f40 48000000 		.4byte	0x48
 4039 0f44 17       		.uleb128 0x17
 4040 0f45 F8000000 		.4byte	.LASF115
 4041 0f49 01       		.byte	0x1
 4042 0f4a 73       		.byte	0x73
 4043 0f4b 550F0000 		.4byte	0xf55
 4044 0f4f 05       		.uleb128 0x5
 4045 0f50 03       		.byte	0x3
 4046 0f51 00000000 		.4byte	CapSense_1_prtSelTbl
 4047 0f55 09       		.uleb128 0x9
 4048 0f56 290F0000 		.4byte	0xf29
 4049 0f5a 17       		.uleb128 0x17
 4050 0f5b AD010000 		.4byte	.LASF116
 4051 0f5f 01       		.byte	0x1
 4052 0f60 86       		.byte	0x86
 4053 0f61 6B0F0000 		.4byte	0xf6b
 4054 0f65 05       		.uleb128 0x5
 4055 0f66 03       		.byte	0x3
 4056 0f67 00000000 		.4byte	CapSense_1_prtCfgTbl
 4057 0f6b 09       		.uleb128 0x9
 4058 0f6c 290F0000 		.4byte	0xf29
 4059 0f70 17       		.uleb128 0x17
 4060 0f71 CF0A0000 		.4byte	.LASF117
 4061 0f75 01       		.byte	0x1
 4062 0f76 99       		.byte	0x99
 4063 0f77 810F0000 		.4byte	0xf81
 4064 0f7b 05       		.uleb128 0x5
 4065 0f7c 03       		.byte	0x3
 4066 0f7d 00000000 		.4byte	CapSense_1_prtDRTbl
 4067 0f81 09       		.uleb128 0x9
 4068 0f82 290F0000 		.4byte	0xf29
 4069 0f86 18       		.uleb128 0x18
 4070 0f87 390F0000 		.4byte	0xf39
 4071 0f8b 960F0000 		.4byte	0xf96
 4072 0f8f 19       		.uleb128 0x19
 4073 0f90 D6000000 		.4byte	0xd6
 4074 0f94 04       		.byte	0x4
 4075 0f95 00       		.byte	0
 4076 0f96 17       		.uleb128 0x17
 4077 0f97 DD040000 		.4byte	.LASF118
 4078 0f9b 01       		.byte	0x1
 4079 0f9c 43       		.byte	0x43
 4080 0f9d 860F0000 		.4byte	0xf86
 4081 0fa1 05       		.uleb128 0x5
 4082 0fa2 03       		.byte	0x3
 4083 0fa3 00000000 		.4byte	CapSense_1_pcTable
 4084 0fa7 17       		.uleb128 0x17
 4085 0fa8 80000000 		.4byte	.LASF119
 4086 0fac 01       		.byte	0x1
 4087 0fad 4B       		.byte	0x4b
 4088 0fae B80F0000 		.4byte	0xfb8
 4089 0fb2 05       		.uleb128 0x5
 4090 0fb3 03       		.byte	0x3
ARM GAS  C:\Users\danielpi\AppData\Local\Temp\cccuTXvj.s 			page 116


 4091 0fb4 00000000 		.4byte	CapSense_1_portTable
 4092 0fb8 09       		.uleb128 0x9
 4093 0fb9 6B0E0000 		.4byte	0xe6b
 4094 0fbd 18       		.uleb128 0x18
 4095 0fbe 81000000 		.4byte	0x81
 4096 0fc2 CD0F0000 		.4byte	0xfcd
 4097 0fc6 19       		.uleb128 0x19
 4098 0fc7 D6000000 		.4byte	0xd6
 4099 0fcb 04       		.byte	0x4
 4100 0fcc 00       		.byte	0
 4101 0fcd 17       		.uleb128 0x17
 4102 0fce DF050000 		.4byte	.LASF120
 4103 0fd2 01       		.byte	0x1
 4104 0fd3 53       		.byte	0x53
 4105 0fd4 DE0F0000 		.4byte	0xfde
 4106 0fd8 05       		.uleb128 0x5
 4107 0fd9 03       		.byte	0x3
 4108 0fda 00000000 		.4byte	CapSense_1_maskTable
 4109 0fde 09       		.uleb128 0x9
 4110 0fdf BD0F0000 		.4byte	0xfbd
 4111 0fe3 17       		.uleb128 0x17
 4112 0fe4 4C000000 		.4byte	.LASF121
 4113 0fe8 01       		.byte	0x1
 4114 0fe9 5B       		.byte	0x5b
 4115 0fea F40F0000 		.4byte	0xff4
 4116 0fee 05       		.uleb128 0x5
 4117 0fef 03       		.byte	0x3
 4118 0ff0 00000000 		.4byte	CapSense_1_pinShiftTbl
 4119 0ff4 09       		.uleb128 0x9
 4120 0ff5 6B0E0000 		.4byte	0xe6b
 4121 0ff9 1A       		.uleb128 0x1a
 4122 0ffa 88020000 		.4byte	.LASF122
 4123 0ffe 03       		.byte	0x3
 4124 0fff 3A01     		.2byte	0x13a
 4125 1001 05100000 		.4byte	0x1005
 4126 1005 09       		.uleb128 0x9
 4127 1006 070E0000 		.4byte	0xe07
 4128 100a 1A       		.uleb128 0x1a
 4129 100b 45010000 		.4byte	.LASF123
 4130 100f 03       		.byte	0x3
 4131 1010 3B01     		.2byte	0x13b
 4132 1012 16100000 		.4byte	0x1016
 4133 1016 09       		.uleb128 0x9
 4134 1017 070E0000 		.4byte	0xe07
 4135 101b 17       		.uleb128 0x17
 4136 101c 1E000000 		.4byte	.LASF124
 4137 1020 01       		.byte	0x1
 4138 1021 36       		.byte	0x36
 4139 1022 6B000000 		.4byte	0x6b
 4140 1026 05       		.uleb128 0x5
 4141 1027 03       		.byte	0x3
 4142 1028 00000000 		.4byte	CapSense_1_csdTrim1
 4143 102c 1B       		.uleb128 0x1b
 4144 102d 31010000 		.4byte	.LASF125
 4145 1031 04       		.byte	0x4
 4146 1032 4E       		.byte	0x4e
 4147 1033 3D100000 		.4byte	0x103d
ARM GAS  C:\Users\danielpi\AppData\Local\Temp\cccuTXvj.s 			page 117


 4148 1037 1C       		.uleb128 0x1c
 4149 1038 6B000000 		.4byte	0x6b
 4150 103c 00       		.byte	0
 4151 103d 1D       		.uleb128 0x1d
 4152 103e 19050000 		.4byte	.LASF140
 4153 1042 04       		.byte	0x4
 4154 1043 46       		.byte	0x46
 4155 1044 C3000000 		.4byte	0xc3
 4156 1048 57100000 		.4byte	0x1057
 4157 104c 1C       		.uleb128 0x1c
 4158 104d 6B000000 		.4byte	0x6b
 4159 1051 1C       		.uleb128 0x1c
 4160 1052 C3000000 		.4byte	0xc3
 4161 1056 00       		.byte	0
 4162 1057 1B       		.uleb128 0x1b
 4163 1058 00000000 		.4byte	.LASF126
 4164 105c 04       		.byte	0x4
 4165 105d 49       		.byte	0x49
 4166 105e 6D100000 		.4byte	0x106d
 4167 1062 1C       		.uleb128 0x1c
 4168 1063 6B000000 		.4byte	0x6b
 4169 1067 1C       		.uleb128 0x1c
 4170 1068 6B000000 		.4byte	0x6b
 4171 106c 00       		.byte	0
 4172 106d 1E       		.uleb128 0x1e
 4173 106e 310A0000 		.4byte	.LASF127
 4174 1072 05       		.byte	0x5
 4175 1073 27       		.byte	0x27
 4176 1074 1E       		.uleb128 0x1e
 4177 1075 B1020000 		.4byte	.LASF128
 4178 1079 06       		.byte	0x6
 4179 107a 27       		.byte	0x27
 4180 107b 1B       		.uleb128 0x1b
 4181 107c 11030000 		.4byte	.LASF129
 4182 1080 06       		.byte	0x6
 4183 1081 29       		.byte	0x29
 4184 1082 91100000 		.4byte	0x1091
 4185 1086 1C       		.uleb128 0x1c
 4186 1087 76000000 		.4byte	0x76
 4187 108b 1C       		.uleb128 0x1c
 4188 108c 6B000000 		.4byte	0x6b
 4189 1090 00       		.byte	0
 4190 1091 1B       		.uleb128 0x1b
 4191 1092 3F080000 		.4byte	.LASF130
 4192 1096 05       		.byte	0x5
 4193 1097 29       		.byte	0x29
 4194 1098 A7100000 		.4byte	0x10a7
 4195 109c 1C       		.uleb128 0x1c
 4196 109d 76000000 		.4byte	0x76
 4197 10a1 1C       		.uleb128 0x1c
 4198 10a2 6B000000 		.4byte	0x6b
 4199 10a6 00       		.byte	0
 4200 10a7 1B       		.uleb128 0x1b
 4201 10a8 44070000 		.4byte	.LASF131
 4202 10ac 06       		.byte	0x6
 4203 10ad 1D       		.byte	0x1d
 4204 10ae B8100000 		.4byte	0x10b8
ARM GAS  C:\Users\danielpi\AppData\Local\Temp\cccuTXvj.s 			page 118


 4205 10b2 1C       		.uleb128 0x1c
 4206 10b3 81000000 		.4byte	0x81
 4207 10b7 00       		.byte	0
 4208 10b8 1B       		.uleb128 0x1b
 4209 10b9 60050000 		.4byte	.LASF132
 4210 10bd 05       		.byte	0x5
 4211 10be 1D       		.byte	0x1d
 4212 10bf C9100000 		.4byte	0x10c9
 4213 10c3 1C       		.uleb128 0x1c
 4214 10c4 81000000 		.4byte	0x81
 4215 10c8 00       		.byte	0
 4216 10c9 1B       		.uleb128 0x1b
 4217 10ca B2090000 		.4byte	.LASF133
 4218 10ce 04       		.byte	0x4
 4219 10cf 4C       		.byte	0x4c
 4220 10d0 DA100000 		.4byte	0x10da
 4221 10d4 1C       		.uleb128 0x1c
 4222 10d5 6B000000 		.4byte	0x6b
 4223 10d9 00       		.byte	0
 4224 10da 1F       		.uleb128 0x1f
 4225 10db 6C0A0000 		.4byte	.LASF141
 4226 10df 04       		.byte	0x4
 4227 10e0 5E       		.byte	0x5e
 4228 10e1 6B000000 		.4byte	0x6b
 4229 10e5 1B       		.uleb128 0x1b
 4230 10e6 B9040000 		.4byte	.LASF134
 4231 10ea 04       		.byte	0x4
 4232 10eb 5F       		.byte	0x5f
 4233 10ec F6100000 		.4byte	0x10f6
 4234 10f0 1C       		.uleb128 0x1c
 4235 10f1 6B000000 		.4byte	0x6b
 4236 10f5 00       		.byte	0
 4237 10f6 20       		.uleb128 0x20
 4238 10f7 09070000 		.4byte	.LASF135
 4239 10fb 07       		.byte	0x7
 4240 10fc CA03     		.2byte	0x3ca
 4241 10fe 1B       		.uleb128 0x1b
 4242 10ff 89040000 		.4byte	.LASF136
 4243 1103 04       		.byte	0x4
 4244 1104 51       		.byte	0x51
 4245 1105 0F110000 		.4byte	0x110f
 4246 1109 1C       		.uleb128 0x1c
 4247 110a 6B000000 		.4byte	0x6b
 4248 110e 00       		.byte	0
 4249 110f 21       		.uleb128 0x21
 4250 1110 CF040000 		.4byte	.LASF142
 4251 1114 04       		.byte	0x4
 4252 1115 5A       		.byte	0x5a
 4253 1116 1C       		.uleb128 0x1c
 4254 1117 81000000 		.4byte	0x81
 4255 111b 00       		.byte	0
 4256 111c 00       		.byte	0
 4257              		.section	.debug_abbrev,"",%progbits
 4258              	.Ldebug_abbrev0:
 4259 0000 01       		.uleb128 0x1
 4260 0001 11       		.uleb128 0x11
 4261 0002 01       		.byte	0x1
ARM GAS  C:\Users\danielpi\AppData\Local\Temp\cccuTXvj.s 			page 119


 4262 0003 25       		.uleb128 0x25
 4263 0004 0E       		.uleb128 0xe
 4264 0005 13       		.uleb128 0x13
 4265 0006 0B       		.uleb128 0xb
 4266 0007 03       		.uleb128 0x3
 4267 0008 0E       		.uleb128 0xe
 4268 0009 1B       		.uleb128 0x1b
 4269 000a 0E       		.uleb128 0xe
 4270 000b 55       		.uleb128 0x55
 4271 000c 17       		.uleb128 0x17
 4272 000d 11       		.uleb128 0x11
 4273 000e 01       		.uleb128 0x1
 4274 000f 10       		.uleb128 0x10
 4275 0010 17       		.uleb128 0x17
 4276 0011 00       		.byte	0
 4277 0012 00       		.byte	0
 4278 0013 02       		.uleb128 0x2
 4279 0014 24       		.uleb128 0x24
 4280 0015 00       		.byte	0
 4281 0016 0B       		.uleb128 0xb
 4282 0017 0B       		.uleb128 0xb
 4283 0018 3E       		.uleb128 0x3e
 4284 0019 0B       		.uleb128 0xb
 4285 001a 03       		.uleb128 0x3
 4286 001b 0E       		.uleb128 0xe
 4287 001c 00       		.byte	0
 4288 001d 00       		.byte	0
 4289 001e 03       		.uleb128 0x3
 4290 001f 24       		.uleb128 0x24
 4291 0020 00       		.byte	0
 4292 0021 0B       		.uleb128 0xb
 4293 0022 0B       		.uleb128 0xb
 4294 0023 3E       		.uleb128 0x3e
 4295 0024 0B       		.uleb128 0xb
 4296 0025 03       		.uleb128 0x3
 4297 0026 08       		.uleb128 0x8
 4298 0027 00       		.byte	0
 4299 0028 00       		.byte	0
 4300 0029 04       		.uleb128 0x4
 4301 002a 16       		.uleb128 0x16
 4302 002b 00       		.byte	0
 4303 002c 03       		.uleb128 0x3
 4304 002d 0E       		.uleb128 0xe
 4305 002e 3A       		.uleb128 0x3a
 4306 002f 0B       		.uleb128 0xb
 4307 0030 3B       		.uleb128 0x3b
 4308 0031 0B       		.uleb128 0xb
 4309 0032 49       		.uleb128 0x49
 4310 0033 13       		.uleb128 0x13
 4311 0034 00       		.byte	0
 4312 0035 00       		.byte	0
 4313 0036 05       		.uleb128 0x5
 4314 0037 16       		.uleb128 0x16
 4315 0038 00       		.byte	0
 4316 0039 03       		.uleb128 0x3
 4317 003a 0E       		.uleb128 0xe
 4318 003b 3A       		.uleb128 0x3a
ARM GAS  C:\Users\danielpi\AppData\Local\Temp\cccuTXvj.s 			page 120


 4319 003c 0B       		.uleb128 0xb
 4320 003d 3B       		.uleb128 0x3b
 4321 003e 05       		.uleb128 0x5
 4322 003f 49       		.uleb128 0x49
 4323 0040 13       		.uleb128 0x13
 4324 0041 00       		.byte	0
 4325 0042 00       		.byte	0
 4326 0043 06       		.uleb128 0x6
 4327 0044 35       		.uleb128 0x35
 4328 0045 00       		.byte	0
 4329 0046 49       		.uleb128 0x49
 4330 0047 13       		.uleb128 0x13
 4331 0048 00       		.byte	0
 4332 0049 00       		.byte	0
 4333 004a 07       		.uleb128 0x7
 4334 004b 0F       		.uleb128 0xf
 4335 004c 00       		.byte	0
 4336 004d 0B       		.uleb128 0xb
 4337 004e 0B       		.uleb128 0xb
 4338 004f 49       		.uleb128 0x49
 4339 0050 13       		.uleb128 0x13
 4340 0051 00       		.byte	0
 4341 0052 00       		.byte	0
 4342 0053 08       		.uleb128 0x8
 4343 0054 15       		.uleb128 0x15
 4344 0055 00       		.byte	0
 4345 0056 27       		.uleb128 0x27
 4346 0057 19       		.uleb128 0x19
 4347 0058 00       		.byte	0
 4348 0059 00       		.byte	0
 4349 005a 09       		.uleb128 0x9
 4350 005b 26       		.uleb128 0x26
 4351 005c 00       		.byte	0
 4352 005d 49       		.uleb128 0x49
 4353 005e 13       		.uleb128 0x13
 4354 005f 00       		.byte	0
 4355 0060 00       		.byte	0
 4356 0061 0A       		.uleb128 0xa
 4357 0062 2E       		.uleb128 0x2e
 4358 0063 01       		.byte	0x1
 4359 0064 3F       		.uleb128 0x3f
 4360 0065 19       		.uleb128 0x19
 4361 0066 03       		.uleb128 0x3
 4362 0067 0E       		.uleb128 0xe
 4363 0068 3A       		.uleb128 0x3a
 4364 0069 0B       		.uleb128 0xb
 4365 006a 3B       		.uleb128 0x3b
 4366 006b 05       		.uleb128 0x5
 4367 006c 27       		.uleb128 0x27
 4368 006d 19       		.uleb128 0x19
 4369 006e 11       		.uleb128 0x11
 4370 006f 01       		.uleb128 0x1
 4371 0070 12       		.uleb128 0x12
 4372 0071 06       		.uleb128 0x6
 4373 0072 40       		.uleb128 0x40
 4374 0073 18       		.uleb128 0x18
 4375 0074 9742     		.uleb128 0x2117
ARM GAS  C:\Users\danielpi\AppData\Local\Temp\cccuTXvj.s 			page 121


 4376 0076 19       		.uleb128 0x19
 4377 0077 01       		.uleb128 0x1
 4378 0078 13       		.uleb128 0x13
 4379 0079 00       		.byte	0
 4380 007a 00       		.byte	0
 4381 007b 0B       		.uleb128 0xb
 4382 007c 34       		.uleb128 0x34
 4383 007d 00       		.byte	0
 4384 007e 03       		.uleb128 0x3
 4385 007f 0E       		.uleb128 0xe
 4386 0080 3A       		.uleb128 0x3a
 4387 0081 0B       		.uleb128 0xb
 4388 0082 3B       		.uleb128 0x3b
 4389 0083 05       		.uleb128 0x5
 4390 0084 49       		.uleb128 0x49
 4391 0085 13       		.uleb128 0x13
 4392 0086 02       		.uleb128 0x2
 4393 0087 17       		.uleb128 0x17
 4394 0088 00       		.byte	0
 4395 0089 00       		.byte	0
 4396 008a 0C       		.uleb128 0xc
 4397 008b 898201   		.uleb128 0x4109
 4398 008e 01       		.byte	0x1
 4399 008f 11       		.uleb128 0x11
 4400 0090 01       		.uleb128 0x1
 4401 0091 31       		.uleb128 0x31
 4402 0092 13       		.uleb128 0x13
 4403 0093 01       		.uleb128 0x1
 4404 0094 13       		.uleb128 0x13
 4405 0095 00       		.byte	0
 4406 0096 00       		.byte	0
 4407 0097 0D       		.uleb128 0xd
 4408 0098 8A8201   		.uleb128 0x410a
 4409 009b 00       		.byte	0
 4410 009c 02       		.uleb128 0x2
 4411 009d 18       		.uleb128 0x18
 4412 009e 9142     		.uleb128 0x2111
 4413 00a0 18       		.uleb128 0x18
 4414 00a1 00       		.byte	0
 4415 00a2 00       		.byte	0
 4416 00a3 0E       		.uleb128 0xe
 4417 00a4 898201   		.uleb128 0x4109
 4418 00a7 01       		.byte	0x1
 4419 00a8 11       		.uleb128 0x11
 4420 00a9 01       		.uleb128 0x1
 4421 00aa 31       		.uleb128 0x31
 4422 00ab 13       		.uleb128 0x13
 4423 00ac 00       		.byte	0
 4424 00ad 00       		.byte	0
 4425 00ae 0F       		.uleb128 0xf
 4426 00af 898201   		.uleb128 0x4109
 4427 00b2 00       		.byte	0
 4428 00b3 11       		.uleb128 0x11
 4429 00b4 01       		.uleb128 0x1
 4430 00b5 31       		.uleb128 0x31
 4431 00b6 13       		.uleb128 0x13
 4432 00b7 00       		.byte	0
ARM GAS  C:\Users\danielpi\AppData\Local\Temp\cccuTXvj.s 			page 122


 4433 00b8 00       		.byte	0
 4434 00b9 10       		.uleb128 0x10
 4435 00ba 2E       		.uleb128 0x2e
 4436 00bb 00       		.byte	0
 4437 00bc 3F       		.uleb128 0x3f
 4438 00bd 19       		.uleb128 0x19
 4439 00be 03       		.uleb128 0x3
 4440 00bf 0E       		.uleb128 0xe
 4441 00c0 3A       		.uleb128 0x3a
 4442 00c1 0B       		.uleb128 0xb
 4443 00c2 3B       		.uleb128 0x3b
 4444 00c3 05       		.uleb128 0x5
 4445 00c4 27       		.uleb128 0x27
 4446 00c5 19       		.uleb128 0x19
 4447 00c6 49       		.uleb128 0x49
 4448 00c7 13       		.uleb128 0x13
 4449 00c8 11       		.uleb128 0x11
 4450 00c9 01       		.uleb128 0x1
 4451 00ca 12       		.uleb128 0x12
 4452 00cb 06       		.uleb128 0x6
 4453 00cc 40       		.uleb128 0x40
 4454 00cd 18       		.uleb128 0x18
 4455 00ce 9742     		.uleb128 0x2117
 4456 00d0 19       		.uleb128 0x19
 4457 00d1 00       		.byte	0
 4458 00d2 00       		.byte	0
 4459 00d3 11       		.uleb128 0x11
 4460 00d4 2E       		.uleb128 0x2e
 4461 00d5 01       		.byte	0x1
 4462 00d6 3F       		.uleb128 0x3f
 4463 00d7 19       		.uleb128 0x19
 4464 00d8 03       		.uleb128 0x3
 4465 00d9 0E       		.uleb128 0xe
 4466 00da 3A       		.uleb128 0x3a
 4467 00db 0B       		.uleb128 0xb
 4468 00dc 3B       		.uleb128 0x3b
 4469 00dd 05       		.uleb128 0x5
 4470 00de 27       		.uleb128 0x27
 4471 00df 19       		.uleb128 0x19
 4472 00e0 49       		.uleb128 0x49
 4473 00e1 13       		.uleb128 0x13
 4474 00e2 11       		.uleb128 0x11
 4475 00e3 01       		.uleb128 0x1
 4476 00e4 12       		.uleb128 0x12
 4477 00e5 06       		.uleb128 0x6
 4478 00e6 40       		.uleb128 0x40
 4479 00e7 18       		.uleb128 0x18
 4480 00e8 9742     		.uleb128 0x2117
 4481 00ea 19       		.uleb128 0x19
 4482 00eb 01       		.uleb128 0x1
 4483 00ec 13       		.uleb128 0x13
 4484 00ed 00       		.byte	0
 4485 00ee 00       		.byte	0
 4486 00ef 12       		.uleb128 0x12
 4487 00f0 05       		.uleb128 0x5
 4488 00f1 00       		.byte	0
 4489 00f2 03       		.uleb128 0x3
ARM GAS  C:\Users\danielpi\AppData\Local\Temp\cccuTXvj.s 			page 123


 4490 00f3 0E       		.uleb128 0xe
 4491 00f4 3A       		.uleb128 0x3a
 4492 00f5 0B       		.uleb128 0xb
 4493 00f6 3B       		.uleb128 0x3b
 4494 00f7 05       		.uleb128 0x5
 4495 00f8 49       		.uleb128 0x49
 4496 00f9 13       		.uleb128 0x13
 4497 00fa 02       		.uleb128 0x2
 4498 00fb 17       		.uleb128 0x17
 4499 00fc 00       		.byte	0
 4500 00fd 00       		.byte	0
 4501 00fe 13       		.uleb128 0x13
 4502 00ff 05       		.uleb128 0x5
 4503 0100 00       		.byte	0
 4504 0101 03       		.uleb128 0x3
 4505 0102 0E       		.uleb128 0xe
 4506 0103 3A       		.uleb128 0x3a
 4507 0104 0B       		.uleb128 0xb
 4508 0105 3B       		.uleb128 0x3b
 4509 0106 05       		.uleb128 0x5
 4510 0107 49       		.uleb128 0x49
 4511 0108 13       		.uleb128 0x13
 4512 0109 02       		.uleb128 0x2
 4513 010a 18       		.uleb128 0x18
 4514 010b 00       		.byte	0
 4515 010c 00       		.byte	0
 4516 010d 14       		.uleb128 0x14
 4517 010e 34       		.uleb128 0x34
 4518 010f 00       		.byte	0
 4519 0110 03       		.uleb128 0x3
 4520 0111 0E       		.uleb128 0xe
 4521 0112 3A       		.uleb128 0x3a
 4522 0113 0B       		.uleb128 0xb
 4523 0114 3B       		.uleb128 0x3b
 4524 0115 05       		.uleb128 0x5
 4525 0116 49       		.uleb128 0x49
 4526 0117 13       		.uleb128 0x13
 4527 0118 02       		.uleb128 0x2
 4528 0119 18       		.uleb128 0x18
 4529 011a 00       		.byte	0
 4530 011b 00       		.byte	0
 4531 011c 15       		.uleb128 0x15
 4532 011d 2E       		.uleb128 0x2e
 4533 011e 01       		.byte	0x1
 4534 011f 3F       		.uleb128 0x3f
 4535 0120 19       		.uleb128 0x19
 4536 0121 03       		.uleb128 0x3
 4537 0122 0E       		.uleb128 0xe
 4538 0123 3A       		.uleb128 0x3a
 4539 0124 0B       		.uleb128 0xb
 4540 0125 3B       		.uleb128 0x3b
 4541 0126 0B       		.uleb128 0xb
 4542 0127 27       		.uleb128 0x27
 4543 0128 19       		.uleb128 0x19
 4544 0129 11       		.uleb128 0x11
 4545 012a 01       		.uleb128 0x1
 4546 012b 12       		.uleb128 0x12
ARM GAS  C:\Users\danielpi\AppData\Local\Temp\cccuTXvj.s 			page 124


 4547 012c 06       		.uleb128 0x6
 4548 012d 40       		.uleb128 0x40
 4549 012e 18       		.uleb128 0x18
 4550 012f 9742     		.uleb128 0x2117
 4551 0131 19       		.uleb128 0x19
 4552 0132 01       		.uleb128 0x1
 4553 0133 13       		.uleb128 0x13
 4554 0134 00       		.byte	0
 4555 0135 00       		.byte	0
 4556 0136 16       		.uleb128 0x16
 4557 0137 34       		.uleb128 0x34
 4558 0138 00       		.byte	0
 4559 0139 03       		.uleb128 0x3
 4560 013a 0E       		.uleb128 0xe
 4561 013b 3A       		.uleb128 0x3a
 4562 013c 0B       		.uleb128 0xb
 4563 013d 3B       		.uleb128 0x3b
 4564 013e 0B       		.uleb128 0xb
 4565 013f 49       		.uleb128 0x49
 4566 0140 13       		.uleb128 0x13
 4567 0141 02       		.uleb128 0x2
 4568 0142 17       		.uleb128 0x17
 4569 0143 00       		.byte	0
 4570 0144 00       		.byte	0
 4571 0145 17       		.uleb128 0x17
 4572 0146 34       		.uleb128 0x34
 4573 0147 00       		.byte	0
 4574 0148 03       		.uleb128 0x3
 4575 0149 0E       		.uleb128 0xe
 4576 014a 3A       		.uleb128 0x3a
 4577 014b 0B       		.uleb128 0xb
 4578 014c 3B       		.uleb128 0x3b
 4579 014d 0B       		.uleb128 0xb
 4580 014e 49       		.uleb128 0x49
 4581 014f 13       		.uleb128 0x13
 4582 0150 3F       		.uleb128 0x3f
 4583 0151 19       		.uleb128 0x19
 4584 0152 02       		.uleb128 0x2
 4585 0153 18       		.uleb128 0x18
 4586 0154 00       		.byte	0
 4587 0155 00       		.byte	0
 4588 0156 18       		.uleb128 0x18
 4589 0157 01       		.uleb128 0x1
 4590 0158 01       		.byte	0x1
 4591 0159 49       		.uleb128 0x49
 4592 015a 13       		.uleb128 0x13
 4593 015b 01       		.uleb128 0x1
 4594 015c 13       		.uleb128 0x13
 4595 015d 00       		.byte	0
 4596 015e 00       		.byte	0
 4597 015f 19       		.uleb128 0x19
 4598 0160 21       		.uleb128 0x21
 4599 0161 00       		.byte	0
 4600 0162 49       		.uleb128 0x49
 4601 0163 13       		.uleb128 0x13
 4602 0164 2F       		.uleb128 0x2f
 4603 0165 0B       		.uleb128 0xb
ARM GAS  C:\Users\danielpi\AppData\Local\Temp\cccuTXvj.s 			page 125


 4604 0166 00       		.byte	0
 4605 0167 00       		.byte	0
 4606 0168 1A       		.uleb128 0x1a
 4607 0169 34       		.uleb128 0x34
 4608 016a 00       		.byte	0
 4609 016b 03       		.uleb128 0x3
 4610 016c 0E       		.uleb128 0xe
 4611 016d 3A       		.uleb128 0x3a
 4612 016e 0B       		.uleb128 0xb
 4613 016f 3B       		.uleb128 0x3b
 4614 0170 05       		.uleb128 0x5
 4615 0171 49       		.uleb128 0x49
 4616 0172 13       		.uleb128 0x13
 4617 0173 3F       		.uleb128 0x3f
 4618 0174 19       		.uleb128 0x19
 4619 0175 3C       		.uleb128 0x3c
 4620 0176 19       		.uleb128 0x19
 4621 0177 00       		.byte	0
 4622 0178 00       		.byte	0
 4623 0179 1B       		.uleb128 0x1b
 4624 017a 2E       		.uleb128 0x2e
 4625 017b 01       		.byte	0x1
 4626 017c 3F       		.uleb128 0x3f
 4627 017d 19       		.uleb128 0x19
 4628 017e 03       		.uleb128 0x3
 4629 017f 0E       		.uleb128 0xe
 4630 0180 3A       		.uleb128 0x3a
 4631 0181 0B       		.uleb128 0xb
 4632 0182 3B       		.uleb128 0x3b
 4633 0183 0B       		.uleb128 0xb
 4634 0184 27       		.uleb128 0x27
 4635 0185 19       		.uleb128 0x19
 4636 0186 3C       		.uleb128 0x3c
 4637 0187 19       		.uleb128 0x19
 4638 0188 01       		.uleb128 0x1
 4639 0189 13       		.uleb128 0x13
 4640 018a 00       		.byte	0
 4641 018b 00       		.byte	0
 4642 018c 1C       		.uleb128 0x1c
 4643 018d 05       		.uleb128 0x5
 4644 018e 00       		.byte	0
 4645 018f 49       		.uleb128 0x49
 4646 0190 13       		.uleb128 0x13
 4647 0191 00       		.byte	0
 4648 0192 00       		.byte	0
 4649 0193 1D       		.uleb128 0x1d
 4650 0194 2E       		.uleb128 0x2e
 4651 0195 01       		.byte	0x1
 4652 0196 3F       		.uleb128 0x3f
 4653 0197 19       		.uleb128 0x19
 4654 0198 03       		.uleb128 0x3
 4655 0199 0E       		.uleb128 0xe
 4656 019a 3A       		.uleb128 0x3a
 4657 019b 0B       		.uleb128 0xb
 4658 019c 3B       		.uleb128 0x3b
 4659 019d 0B       		.uleb128 0xb
 4660 019e 27       		.uleb128 0x27
ARM GAS  C:\Users\danielpi\AppData\Local\Temp\cccuTXvj.s 			page 126


 4661 019f 19       		.uleb128 0x19
 4662 01a0 49       		.uleb128 0x49
 4663 01a1 13       		.uleb128 0x13
 4664 01a2 3C       		.uleb128 0x3c
 4665 01a3 19       		.uleb128 0x19
 4666 01a4 01       		.uleb128 0x1
 4667 01a5 13       		.uleb128 0x13
 4668 01a6 00       		.byte	0
 4669 01a7 00       		.byte	0
 4670 01a8 1E       		.uleb128 0x1e
 4671 01a9 2E       		.uleb128 0x2e
 4672 01aa 00       		.byte	0
 4673 01ab 3F       		.uleb128 0x3f
 4674 01ac 19       		.uleb128 0x19
 4675 01ad 03       		.uleb128 0x3
 4676 01ae 0E       		.uleb128 0xe
 4677 01af 3A       		.uleb128 0x3a
 4678 01b0 0B       		.uleb128 0xb
 4679 01b1 3B       		.uleb128 0x3b
 4680 01b2 0B       		.uleb128 0xb
 4681 01b3 27       		.uleb128 0x27
 4682 01b4 19       		.uleb128 0x19
 4683 01b5 3C       		.uleb128 0x3c
 4684 01b6 19       		.uleb128 0x19
 4685 01b7 00       		.byte	0
 4686 01b8 00       		.byte	0
 4687 01b9 1F       		.uleb128 0x1f
 4688 01ba 2E       		.uleb128 0x2e
 4689 01bb 00       		.byte	0
 4690 01bc 3F       		.uleb128 0x3f
 4691 01bd 19       		.uleb128 0x19
 4692 01be 03       		.uleb128 0x3
 4693 01bf 0E       		.uleb128 0xe
 4694 01c0 3A       		.uleb128 0x3a
 4695 01c1 0B       		.uleb128 0xb
 4696 01c2 3B       		.uleb128 0x3b
 4697 01c3 0B       		.uleb128 0xb
 4698 01c4 27       		.uleb128 0x27
 4699 01c5 19       		.uleb128 0x19
 4700 01c6 49       		.uleb128 0x49
 4701 01c7 13       		.uleb128 0x13
 4702 01c8 3C       		.uleb128 0x3c
 4703 01c9 19       		.uleb128 0x19
 4704 01ca 00       		.byte	0
 4705 01cb 00       		.byte	0
 4706 01cc 20       		.uleb128 0x20
 4707 01cd 2E       		.uleb128 0x2e
 4708 01ce 00       		.byte	0
 4709 01cf 3F       		.uleb128 0x3f
 4710 01d0 19       		.uleb128 0x19
 4711 01d1 03       		.uleb128 0x3
 4712 01d2 0E       		.uleb128 0xe
 4713 01d3 3A       		.uleb128 0x3a
 4714 01d4 0B       		.uleb128 0xb
 4715 01d5 3B       		.uleb128 0x3b
 4716 01d6 05       		.uleb128 0x5
 4717 01d7 27       		.uleb128 0x27
ARM GAS  C:\Users\danielpi\AppData\Local\Temp\cccuTXvj.s 			page 127


 4718 01d8 19       		.uleb128 0x19
 4719 01d9 3C       		.uleb128 0x3c
 4720 01da 19       		.uleb128 0x19
 4721 01db 00       		.byte	0
 4722 01dc 00       		.byte	0
 4723 01dd 21       		.uleb128 0x21
 4724 01de 2E       		.uleb128 0x2e
 4725 01df 01       		.byte	0x1
 4726 01e0 3F       		.uleb128 0x3f
 4727 01e1 19       		.uleb128 0x19
 4728 01e2 03       		.uleb128 0x3
 4729 01e3 0E       		.uleb128 0xe
 4730 01e4 3A       		.uleb128 0x3a
 4731 01e5 0B       		.uleb128 0xb
 4732 01e6 3B       		.uleb128 0x3b
 4733 01e7 0B       		.uleb128 0xb
 4734 01e8 27       		.uleb128 0x27
 4735 01e9 19       		.uleb128 0x19
 4736 01ea 3C       		.uleb128 0x3c
 4737 01eb 19       		.uleb128 0x19
 4738 01ec 00       		.byte	0
 4739 01ed 00       		.byte	0
 4740 01ee 00       		.byte	0
 4741              		.section	.debug_loc,"",%progbits
 4742              	.Ldebug_loc0:
 4743              	.LLST0:
 4744 0000 0C000000 		.4byte	.LVL0
 4745 0004 12000000 		.4byte	.LVL1
 4746 0008 0100     		.2byte	0x1
 4747 000a 51       		.byte	0x51
 4748 000b 12000000 		.4byte	.LVL1
 4749 000f 1C000000 		.4byte	.LVL2
 4750 0013 0100     		.2byte	0x1
 4751 0015 54       		.byte	0x54
 4752 0016 1C000000 		.4byte	.LVL2
 4753 001a 26000000 		.4byte	.LVL4
 4754 001e 0100     		.2byte	0x1
 4755 0020 50       		.byte	0x50
 4756 0021 26000000 		.4byte	.LVL4
 4757 0025 2A000000 		.4byte	.LVL5
 4758 0029 0100     		.2byte	0x1
 4759 002b 51       		.byte	0x51
 4760 002c 2A000000 		.4byte	.LVL5
 4761 0030 2C000000 		.4byte	.LVL6
 4762 0034 0200     		.2byte	0x2
 4763 0036 72       		.byte	0x72
 4764 0037 00       		.sleb128 0
 4765 0038 2C000000 		.4byte	.LVL6
 4766 003c 2E000000 		.4byte	.LVL7
 4767 0040 0500     		.2byte	0x5
 4768 0042 0C       		.byte	0xc
 4769 0043 00FF2840 		.4byte	0x4028ff00
 4770 0047 38000000 		.4byte	.LVL8
 4771 004b 3A000000 		.4byte	.LVL9
 4772 004f 0100     		.2byte	0x1
 4773 0051 51       		.byte	0x51
 4774 0052 3C000000 		.4byte	.LVL10
ARM GAS  C:\Users\danielpi\AppData\Local\Temp\cccuTXvj.s 			page 128


 4775 0056 3E000000 		.4byte	.LVL11
 4776 005a 0100     		.2byte	0x1
 4777 005c 51       		.byte	0x51
 4778 005d 3E000000 		.4byte	.LVL11
 4779 0061 47000000 		.4byte	.LVL13-1
 4780 0065 0100     		.2byte	0x1
 4781 0067 53       		.byte	0x53
 4782 0068 00000000 		.4byte	0
 4783 006c 00000000 		.4byte	0
 4784              	.LLST1:
 4785 0070 2A000000 		.4byte	.LVL22
 4786 0074 35000000 		.4byte	.LVL24-1
 4787 0078 0100     		.2byte	0x1
 4788 007a 52       		.byte	0x52
 4789 007b 00000000 		.4byte	0
 4790 007f 00000000 		.4byte	0
 4791              	.LLST2:
 4792 0083 00000000 		.4byte	.LVL28
 4793 0087 02000000 		.4byte	.LVL29
 4794 008b 0100     		.2byte	0x1
 4795 008d 50       		.byte	0x50
 4796 008e 02000000 		.4byte	.LVL29
 4797 0092 10000000 		.4byte	.LFE45
 4798 0096 0400     		.2byte	0x4
 4799 0098 F3       		.byte	0xf3
 4800 0099 01       		.uleb128 0x1
 4801 009a 50       		.byte	0x50
 4802 009b 9F       		.byte	0x9f
 4803 009c 00000000 		.4byte	0
 4804 00a0 00000000 		.4byte	0
 4805              	.LLST3:
 4806 00a4 00000000 		.4byte	.LVL30
 4807 00a8 02000000 		.4byte	.LVL31
 4808 00ac 0100     		.2byte	0x1
 4809 00ae 50       		.byte	0x50
 4810 00af 02000000 		.4byte	.LVL31
 4811 00b3 10000000 		.4byte	.LFE46
 4812 00b7 0400     		.2byte	0x4
 4813 00b9 F3       		.byte	0xf3
 4814 00ba 01       		.uleb128 0x1
 4815 00bb 50       		.byte	0x50
 4816 00bc 9F       		.byte	0x9f
 4817 00bd 00000000 		.4byte	0
 4818 00c1 00000000 		.4byte	0
 4819              	.LLST4:
 4820 00c5 00000000 		.4byte	.LVL32
 4821 00c9 02000000 		.4byte	.LVL33
 4822 00cd 0100     		.2byte	0x1
 4823 00cf 50       		.byte	0x50
 4824 00d0 02000000 		.4byte	.LVL33
 4825 00d4 0C000000 		.4byte	.LFE47
 4826 00d8 0400     		.2byte	0x4
 4827 00da F3       		.byte	0xf3
 4828 00db 01       		.uleb128 0x1
 4829 00dc 50       		.byte	0x50
 4830 00dd 9F       		.byte	0x9f
 4831 00de 00000000 		.4byte	0
ARM GAS  C:\Users\danielpi\AppData\Local\Temp\cccuTXvj.s 			page 129


 4832 00e2 00000000 		.4byte	0
 4833              	.LLST5:
 4834 00e6 00000000 		.4byte	.LVL34
 4835 00ea 02000000 		.4byte	.LVL35
 4836 00ee 0100     		.2byte	0x1
 4837 00f0 50       		.byte	0x50
 4838 00f1 02000000 		.4byte	.LVL35
 4839 00f5 0C000000 		.4byte	.LFE48
 4840 00f9 0400     		.2byte	0x4
 4841 00fb F3       		.byte	0xf3
 4842 00fc 01       		.uleb128 0x1
 4843 00fd 50       		.byte	0x50
 4844 00fe 9F       		.byte	0x9f
 4845 00ff 00000000 		.4byte	0
 4846 0103 00000000 		.4byte	0
 4847              	.LLST6:
 4848 0107 00000000 		.4byte	.LVL36
 4849 010b 08000000 		.4byte	.LVL38
 4850 010f 0100     		.2byte	0x1
 4851 0111 50       		.byte	0x50
 4852 0112 08000000 		.4byte	.LVL38
 4853 0116 48000000 		.4byte	.LFE50
 4854 011a 0400     		.2byte	0x4
 4855 011c F3       		.byte	0xf3
 4856 011d 01       		.uleb128 0x1
 4857 011e 50       		.byte	0x50
 4858 011f 9F       		.byte	0x9f
 4859 0120 00000000 		.4byte	0
 4860 0124 00000000 		.4byte	0
 4861              	.LLST7:
 4862 0128 10000000 		.4byte	.LVL39
 4863 012c 40000000 		.4byte	.LVL50
 4864 0130 0100     		.2byte	0x1
 4865 0132 56       		.byte	0x56
 4866 0133 40000000 		.4byte	.LVL50
 4867 0137 48000000 		.4byte	.LFE50
 4868 013b 2000     		.2byte	0x20
 4869 013d F3       		.byte	0xf3
 4870 013e 01       		.uleb128 0x1
 4871 013f 50       		.byte	0x50
 4872 0140 03       		.byte	0x3
 4873 0141 08000000 		.4byte	.LANCHOR2+8
 4874 0145 22       		.byte	0x22
 4875 0146 94       		.byte	0x94
 4876 0147 01       		.byte	0x1
 4877 0148 08       		.byte	0x8
 4878 0149 FF       		.byte	0xff
 4879 014a 1A       		.byte	0x1a
 4880 014b 31       		.byte	0x31
 4881 014c 24       		.byte	0x24
 4882 014d F3       		.byte	0xf3
 4883 014e 01       		.uleb128 0x1
 4884 014f 50       		.byte	0x50
 4885 0150 03       		.byte	0x3
 4886 0151 08000000 		.4byte	.LANCHOR2+8
 4887 0155 22       		.byte	0x22
 4888 0156 94       		.byte	0x94
ARM GAS  C:\Users\danielpi\AppData\Local\Temp\cccuTXvj.s 			page 130


 4889 0157 01       		.byte	0x1
 4890 0158 08       		.byte	0x8
 4891 0159 FF       		.byte	0xff
 4892 015a 1A       		.byte	0x1a
 4893 015b 22       		.byte	0x22
 4894 015c 9F       		.byte	0x9f
 4895 015d 00000000 		.4byte	0
 4896 0161 00000000 		.4byte	0
 4897              	.LLST8:
 4898 0165 14000000 		.4byte	.LVL40
 4899 0169 17000000 		.4byte	.LVL41-1
 4900 016d 0100     		.2byte	0x1
 4901 016f 53       		.byte	0x53
 4902 0170 17000000 		.4byte	.LVL41-1
 4903 0174 2C000000 		.4byte	.LVL46
 4904 0178 0100     		.2byte	0x1
 4905 017a 55       		.byte	0x55
 4906 017b 2C000000 		.4byte	.LVL46
 4907 017f 48000000 		.4byte	.LFE50
 4908 0183 0E00     		.2byte	0xe
 4909 0185 F3       		.byte	0xf3
 4910 0186 01       		.uleb128 0x1
 4911 0187 50       		.byte	0x50
 4912 0188 03       		.byte	0x3
 4913 0189 08000000 		.4byte	.LANCHOR2+8
 4914 018d 22       		.byte	0x22
 4915 018e 94       		.byte	0x94
 4916 018f 01       		.byte	0x1
 4917 0190 32       		.byte	0x32
 4918 0191 24       		.byte	0x24
 4919 0192 9F       		.byte	0x9f
 4920 0193 00000000 		.4byte	0
 4921 0197 00000000 		.4byte	0
 4922              	.LLST9:
 4923 019b 18000000 		.4byte	.LVL41
 4924 019f 3F000000 		.4byte	.LVL48-1
 4925 01a3 0100     		.2byte	0x1
 4926 01a5 50       		.byte	0x50
 4927 01a6 00000000 		.4byte	0
 4928 01aa 00000000 		.4byte	0
 4929              	.LLST10:
 4930 01ae 20000000 		.4byte	.LVL44
 4931 01b2 2E000000 		.4byte	.LVL47
 4932 01b6 0100     		.2byte	0x1
 4933 01b8 51       		.byte	0x51
 4934 01b9 2E000000 		.4byte	.LVL47
 4935 01bd 40000000 		.4byte	.LVL49
 4936 01c1 0100     		.2byte	0x1
 4937 01c3 55       		.byte	0x55
 4938 01c4 00000000 		.4byte	0
 4939 01c8 00000000 		.4byte	0
 4940              	.LLST11:
 4941 01cc 06000000 		.4byte	.LVL37
 4942 01d0 1A000000 		.4byte	.LVL42
 4943 01d4 0100     		.2byte	0x1
 4944 01d6 57       		.byte	0x57
 4945 01d7 1A000000 		.4byte	.LVL42
ARM GAS  C:\Users\danielpi\AppData\Local\Temp\cccuTXvj.s 			page 131


 4946 01db 1C000000 		.4byte	.LVL43
 4947 01df 0C00     		.2byte	0xc
 4948 01e1 74       		.byte	0x74
 4949 01e2 00       		.sleb128 0
 4950 01e3 F3       		.byte	0xf3
 4951 01e4 01       		.uleb128 0x1
 4952 01e5 50       		.byte	0x50
 4953 01e6 22       		.byte	0x22
 4954 01e7 94       		.byte	0x94
 4955 01e8 01       		.byte	0x1
 4956 01e9 08       		.byte	0x8
 4957 01ea FF       		.byte	0xff
 4958 01eb 1A       		.byte	0x1a
 4959 01ec 9F       		.byte	0x9f
 4960 01ed 1C000000 		.4byte	.LVL43
 4961 01f1 48000000 		.4byte	.LFE50
 4962 01f5 0F00     		.2byte	0xf
 4963 01f7 F3       		.byte	0xf3
 4964 01f8 01       		.uleb128 0x1
 4965 01f9 50       		.byte	0x50
 4966 01fa 03       		.byte	0x3
 4967 01fb 00000000 		.4byte	.LANCHOR2
 4968 01ff 22       		.byte	0x22
 4969 0200 94       		.byte	0x94
 4970 0201 01       		.byte	0x1
 4971 0202 08       		.byte	0x8
 4972 0203 FF       		.byte	0xff
 4973 0204 1A       		.byte	0x1a
 4974 0205 9F       		.byte	0x9f
 4975 0206 00000000 		.4byte	0
 4976 020a 00000000 		.4byte	0
 4977              	.LLST12:
 4978 020e 00000000 		.4byte	.LVL51
 4979 0212 22000000 		.4byte	.LVL56
 4980 0216 0100     		.2byte	0x1
 4981 0218 50       		.byte	0x50
 4982 0219 22000000 		.4byte	.LVL56
 4983 021d 70000000 		.4byte	.LFE51
 4984 0221 0400     		.2byte	0x4
 4985 0223 F3       		.byte	0xf3
 4986 0224 01       		.uleb128 0x1
 4987 0225 50       		.byte	0x50
 4988 0226 9F       		.byte	0x9f
 4989 0227 00000000 		.4byte	0
 4990 022b 00000000 		.4byte	0
 4991              	.LLST13:
 4992 022f 3C000000 		.4byte	.LVL60
 4993 0233 57000000 		.4byte	.LVL69-1
 4994 0237 0100     		.2byte	0x1
 4995 0239 50       		.byte	0x50
 4996 023a 00000000 		.4byte	0
 4997 023e 00000000 		.4byte	0
 4998              	.LLST14:
 4999 0242 46000000 		.4byte	.LVL64
 5000 0246 52000000 		.4byte	.LVL68
 5001 024a 0100     		.2byte	0x1
 5002 024c 52       		.byte	0x52
ARM GAS  C:\Users\danielpi\AppData\Local\Temp\cccuTXvj.s 			page 132


 5003 024d 52000000 		.4byte	.LVL68
 5004 0251 64000000 		.4byte	.LVL71
 5005 0255 0100     		.2byte	0x1
 5006 0257 56       		.byte	0x56
 5007 0258 00000000 		.4byte	0
 5008 025c 00000000 		.4byte	0
 5009              	.LLST15:
 5010 0260 06000000 		.4byte	.LVL52
 5011 0264 3E000000 		.4byte	.LVL61
 5012 0268 0100     		.2byte	0x1
 5013 026a 55       		.byte	0x55
 5014 026b 3E000000 		.4byte	.LVL61
 5015 026f 40000000 		.4byte	.LVL62
 5016 0273 0F00     		.2byte	0xf
 5017 0275 F3       		.byte	0xf3
 5018 0276 01       		.uleb128 0x1
 5019 0277 50       		.byte	0x50
 5020 0278 03       		.byte	0x3
 5021 0279 00000000 		.4byte	.LANCHOR2
 5022 027d 22       		.byte	0x22
 5023 027e 94       		.byte	0x94
 5024 027f 01       		.byte	0x1
 5025 0280 08       		.byte	0x8
 5026 0281 FF       		.byte	0xff
 5027 0282 1A       		.byte	0x1a
 5028 0283 9F       		.byte	0x9f
 5029 0284 40000000 		.4byte	.LVL62
 5030 0288 44000000 		.4byte	.LVL63
 5031 028c 0C00     		.2byte	0xc
 5032 028e 73       		.byte	0x73
 5033 028f 00       		.sleb128 0
 5034 0290 F3       		.byte	0xf3
 5035 0291 01       		.uleb128 0x1
 5036 0292 50       		.byte	0x50
 5037 0293 22       		.byte	0x22
 5038 0294 94       		.byte	0x94
 5039 0295 01       		.byte	0x1
 5040 0296 08       		.byte	0x8
 5041 0297 FF       		.byte	0xff
 5042 0298 1A       		.byte	0x1a
 5043 0299 9F       		.byte	0x9f
 5044 029a 44000000 		.4byte	.LVL63
 5045 029e 70000000 		.4byte	.LFE51
 5046 02a2 0F00     		.2byte	0xf
 5047 02a4 F3       		.byte	0xf3
 5048 02a5 01       		.uleb128 0x1
 5049 02a6 50       		.byte	0x50
 5050 02a7 03       		.byte	0x3
 5051 02a8 00000000 		.4byte	.LANCHOR2
 5052 02ac 22       		.byte	0x22
 5053 02ad 94       		.byte	0x94
 5054 02ae 01       		.byte	0x1
 5055 02af 08       		.byte	0x8
 5056 02b0 FF       		.byte	0xff
 5057 02b1 1A       		.byte	0x1a
 5058 02b2 9F       		.byte	0x9f
 5059 02b3 00000000 		.4byte	0
ARM GAS  C:\Users\danielpi\AppData\Local\Temp\cccuTXvj.s 			page 133


 5060 02b7 00000000 		.4byte	0
 5061              	.LLST16:
 5062 02bb 0E000000 		.4byte	.LVL53
 5063 02bf 34000000 		.4byte	.LVL58
 5064 02c3 0100     		.2byte	0x1
 5065 02c5 57       		.byte	0x57
 5066 02c6 34000000 		.4byte	.LVL58
 5067 02ca 64000000 		.4byte	.LVL70
 5068 02ce 0500     		.2byte	0x5
 5069 02d0 74       		.byte	0x74
 5070 02d1 00       		.sleb128 0
 5071 02d2 32       		.byte	0x32
 5072 02d3 24       		.byte	0x24
 5073 02d4 9F       		.byte	0x9f
 5074 02d5 64000000 		.4byte	.LVL70
 5075 02d9 70000000 		.4byte	.LFE51
 5076 02dd 0E00     		.2byte	0xe
 5077 02df F3       		.byte	0xf3
 5078 02e0 01       		.uleb128 0x1
 5079 02e1 50       		.byte	0x50
 5080 02e2 03       		.byte	0x3
 5081 02e3 08000000 		.4byte	.LANCHOR2+8
 5082 02e7 22       		.byte	0x22
 5083 02e8 94       		.byte	0x94
 5084 02e9 01       		.byte	0x1
 5085 02ea 32       		.byte	0x32
 5086 02eb 24       		.byte	0x24
 5087 02ec 9F       		.byte	0x9f
 5088 02ed 00000000 		.4byte	0
 5089 02f1 00000000 		.4byte	0
 5090              	.LLST17:
 5091 02f5 14000000 		.4byte	.LVL54
 5092 02f9 50000000 		.4byte	.LVL67
 5093 02fd 0100     		.2byte	0x1
 5094 02ff 56       		.byte	0x56
 5095 0300 50000000 		.4byte	.LVL67
 5096 0304 64000000 		.4byte	.LVL70
 5097 0308 0800     		.2byte	0x8
 5098 030a 74       		.byte	0x74
 5099 030b 00       		.sleb128 0
 5100 030c 31       		.byte	0x31
 5101 030d 24       		.byte	0x24
 5102 030e 74       		.byte	0x74
 5103 030f 00       		.sleb128 0
 5104 0310 22       		.byte	0x22
 5105 0311 9F       		.byte	0x9f
 5106 0312 64000000 		.4byte	.LVL70
 5107 0316 70000000 		.4byte	.LFE51
 5108 031a 2000     		.2byte	0x20
 5109 031c F3       		.byte	0xf3
 5110 031d 01       		.uleb128 0x1
 5111 031e 50       		.byte	0x50
 5112 031f 03       		.byte	0x3
 5113 0320 08000000 		.4byte	.LANCHOR2+8
 5114 0324 22       		.byte	0x22
 5115 0325 94       		.byte	0x94
 5116 0326 01       		.byte	0x1
ARM GAS  C:\Users\danielpi\AppData\Local\Temp\cccuTXvj.s 			page 134


 5117 0327 08       		.byte	0x8
 5118 0328 FF       		.byte	0xff
 5119 0329 1A       		.byte	0x1a
 5120 032a 31       		.byte	0x31
 5121 032b 24       		.byte	0x24
 5122 032c F3       		.byte	0xf3
 5123 032d 01       		.uleb128 0x1
 5124 032e 50       		.byte	0x50
 5125 032f 03       		.byte	0x3
 5126 0330 08000000 		.4byte	.LANCHOR2+8
 5127 0334 22       		.byte	0x22
 5128 0335 94       		.byte	0x94
 5129 0336 01       		.byte	0x1
 5130 0337 08       		.byte	0x8
 5131 0338 FF       		.byte	0xff
 5132 0339 1A       		.byte	0x1a
 5133 033a 22       		.byte	0x22
 5134 033b 9F       		.byte	0x9f
 5135 033c 00000000 		.4byte	0
 5136 0340 00000000 		.4byte	0
 5137              	.LLST18:
 5138 0344 14000000 		.4byte	.LVL54
 5139 0348 38000000 		.4byte	.LVL59
 5140 034c 0200     		.2byte	0x2
 5141 034e 30       		.byte	0x30
 5142 034f 9F       		.byte	0x9f
 5143 0350 38000000 		.4byte	.LVL59
 5144 0354 4E000000 		.4byte	.LVL66
 5145 0358 0100     		.2byte	0x1
 5146 035a 57       		.byte	0x57
 5147 035b 00000000 		.4byte	0
 5148 035f 00000000 		.4byte	0
 5149              	.LLST19:
 5150 0363 18000000 		.4byte	.LVL55
 5151 0367 3B000000 		.4byte	.LVL60-1
 5152 036b 0100     		.2byte	0x1
 5153 036d 52       		.byte	0x52
 5154 036e 00000000 		.4byte	0
 5155 0372 00000000 		.4byte	0
 5156              	.LLST20:
 5157 0376 02000000 		.4byte	.LVL72
 5158 037a 06000000 		.4byte	.LVL73
 5159 037e 0200     		.2byte	0x2
 5160 0380 30       		.byte	0x30
 5161 0381 9F       		.byte	0x9f
 5162 0382 06000000 		.4byte	.LVL73
 5163 0386 12000000 		.4byte	.LVL76
 5164 038a 0100     		.2byte	0x1
 5165 038c 54       		.byte	0x54
 5166 038d 00000000 		.4byte	0
 5167 0391 00000000 		.4byte	0
 5168              	.LLST21:
 5169 0395 00000000 		.4byte	.LVL77
 5170 0399 18000000 		.4byte	.LVL82
 5171 039d 0100     		.2byte	0x1
 5172 039f 50       		.byte	0x50
 5173 03a0 18000000 		.4byte	.LVL82
ARM GAS  C:\Users\danielpi\AppData\Local\Temp\cccuTXvj.s 			page 135


 5174 03a4 24000000 		.4byte	.LFE54
 5175 03a8 0400     		.2byte	0x4
 5176 03aa F3       		.byte	0xf3
 5177 03ab 01       		.uleb128 0x1
 5178 03ac 50       		.byte	0x50
 5179 03ad 9F       		.byte	0x9f
 5180 03ae 00000000 		.4byte	0
 5181 03b2 00000000 		.4byte	0
 5182              	.LLST22:
 5183 03b6 00000000 		.4byte	.LVL77
 5184 03ba 06000000 		.4byte	.LVL78
 5185 03be 0100     		.2byte	0x1
 5186 03c0 51       		.byte	0x51
 5187 03c1 06000000 		.4byte	.LVL78
 5188 03c5 24000000 		.4byte	.LFE54
 5189 03c9 0400     		.2byte	0x4
 5190 03cb F3       		.byte	0xf3
 5191 03cc 01       		.uleb128 0x1
 5192 03cd 51       		.byte	0x51
 5193 03ce 9F       		.byte	0x9f
 5194 03cf 00000000 		.4byte	0
 5195 03d3 00000000 		.4byte	0
 5196              	.LLST23:
 5197 03d7 00000000 		.4byte	.LVL77
 5198 03db 08000000 		.4byte	.LVL79
 5199 03df 0100     		.2byte	0x1
 5200 03e1 52       		.byte	0x52
 5201 03e2 08000000 		.4byte	.LVL79
 5202 03e6 24000000 		.4byte	.LFE54
 5203 03ea 0400     		.2byte	0x4
 5204 03ec F3       		.byte	0xf3
 5205 03ed 01       		.uleb128 0x1
 5206 03ee 52       		.byte	0x52
 5207 03ef 9F       		.byte	0x9f
 5208 03f0 00000000 		.4byte	0
 5209 03f4 00000000 		.4byte	0
 5210              	.LLST24:
 5211 03f8 06000000 		.4byte	.LVL78
 5212 03fc 1A000000 		.4byte	.LVL83
 5213 0400 0100     		.2byte	0x1
 5214 0402 51       		.byte	0x51
 5215 0403 1A000000 		.4byte	.LVL83
 5216 0407 24000000 		.4byte	.LFE54
 5217 040b 0A00     		.2byte	0xa
 5218 040d F3       		.byte	0xf3
 5219 040e 01       		.uleb128 0x1
 5220 040f 51       		.byte	0x51
 5221 0410 31       		.byte	0x31
 5222 0411 24       		.byte	0x24
 5223 0412 F3       		.byte	0xf3
 5224 0413 01       		.uleb128 0x1
 5225 0414 51       		.byte	0x51
 5226 0415 22       		.byte	0x22
 5227 0416 9F       		.byte	0x9f
 5228 0417 00000000 		.4byte	0
 5229 041b 00000000 		.4byte	0
 5230              	.LLST25:
ARM GAS  C:\Users\danielpi\AppData\Local\Temp\cccuTXvj.s 			page 136


 5231 041f 10000000 		.4byte	.LVL80
 5232 0423 1C000000 		.4byte	.LVL84
 5233 0427 0100     		.2byte	0x1
 5234 0429 52       		.byte	0x52
 5235 042a 1C000000 		.4byte	.LVL84
 5236 042e 24000000 		.4byte	.LFE54
 5237 0432 0100     		.2byte	0x1
 5238 0434 51       		.byte	0x51
 5239 0435 00000000 		.4byte	0
 5240 0439 00000000 		.4byte	0
 5241              	.LLST26:
 5242 043d 00000000 		.4byte	.LVL85
 5243 0441 0A000000 		.4byte	.LVL87
 5244 0445 0100     		.2byte	0x1
 5245 0447 50       		.byte	0x50
 5246 0448 0A000000 		.4byte	.LVL87
 5247 044c 28000000 		.4byte	.LVL95
 5248 0450 0100     		.2byte	0x1
 5249 0452 56       		.byte	0x56
 5250 0453 28000000 		.4byte	.LVL95
 5251 0457 30000000 		.4byte	.LFE52
 5252 045b 0400     		.2byte	0x4
 5253 045d F3       		.byte	0xf3
 5254 045e 01       		.uleb128 0x1
 5255 045f 50       		.byte	0x50
 5256 0460 9F       		.byte	0x9f
 5257 0461 00000000 		.4byte	0
 5258 0465 00000000 		.4byte	0
 5259              	.LLST27:
 5260 0469 04000000 		.4byte	.LVL86
 5261 046d 0A000000 		.4byte	.LVL87
 5262 0471 0200     		.2byte	0x2
 5263 0473 30       		.byte	0x30
 5264 0474 9F       		.byte	0x9f
 5265 0475 0A000000 		.4byte	.LVL87
 5266 0479 18000000 		.4byte	.LVL91
 5267 047d 0100     		.2byte	0x1
 5268 047f 54       		.byte	0x54
 5269 0480 18000000 		.4byte	.LVL91
 5270 0484 1A000000 		.4byte	.LVL92
 5271 0488 0300     		.2byte	0x3
 5272 048a 74       		.byte	0x74
 5273 048b 7F       		.sleb128 -1
 5274 048c 9F       		.byte	0x9f
 5275 048d 1A000000 		.4byte	.LVL92
 5276 0491 28000000 		.4byte	.LVL94
 5277 0495 0100     		.2byte	0x1
 5278 0497 54       		.byte	0x54
 5279 0498 00000000 		.4byte	0
 5280 049c 00000000 		.4byte	0
 5281              	.LLST28:
 5282 04a0 0C000000 		.4byte	.LVL88
 5283 04a4 15000000 		.4byte	.LVL90-1
 5284 04a8 0100     		.2byte	0x1
 5285 04aa 52       		.byte	0x52
 5286 04ab 15000000 		.4byte	.LVL90-1
 5287 04af 18000000 		.4byte	.LVL91
ARM GAS  C:\Users\danielpi\AppData\Local\Temp\cccuTXvj.s 			page 137


 5288 04b3 0B00     		.2byte	0xb
 5289 04b5 75       		.byte	0x75
 5290 04b6 00       		.sleb128 0
 5291 04b7 74       		.byte	0x74
 5292 04b8 00       		.sleb128 0
 5293 04b9 22       		.byte	0x22
 5294 04ba 94       		.byte	0x94
 5295 04bb 01       		.byte	0x1
 5296 04bc 08       		.byte	0x8
 5297 04bd FF       		.byte	0xff
 5298 04be 1A       		.byte	0x1a
 5299 04bf 9F       		.byte	0x9f
 5300 04c0 18000000 		.4byte	.LVL91
 5301 04c4 1A000000 		.4byte	.LVL92
 5302 04c8 0D00     		.2byte	0xd
 5303 04ca 75       		.byte	0x75
 5304 04cb 00       		.sleb128 0
 5305 04cc 74       		.byte	0x74
 5306 04cd 00       		.sleb128 0
 5307 04ce 22       		.byte	0x22
 5308 04cf 31       		.byte	0x31
 5309 04d0 1C       		.byte	0x1c
 5310 04d1 94       		.byte	0x94
 5311 04d2 01       		.byte	0x1
 5312 04d3 08       		.byte	0x8
 5313 04d4 FF       		.byte	0xff
 5314 04d5 1A       		.byte	0x1a
 5315 04d6 9F       		.byte	0x9f
 5316 04d7 00000000 		.4byte	0
 5317 04db 00000000 		.4byte	0
 5318              	.LLST29:
 5319 04df 10000000 		.4byte	.LVL89
 5320 04e3 15000000 		.4byte	.LVL90-1
 5321 04e7 0100     		.2byte	0x1
 5322 04e9 51       		.byte	0x51
 5323 04ea 15000000 		.4byte	.LVL90-1
 5324 04ee 18000000 		.4byte	.LVL91
 5325 04f2 0D00     		.2byte	0xd
 5326 04f4 75       		.byte	0x75
 5327 04f5 00       		.sleb128 0
 5328 04f6 74       		.byte	0x74
 5329 04f7 00       		.sleb128 0
 5330 04f8 22       		.byte	0x22
 5331 04f9 23       		.byte	0x23
 5332 04fa 08       		.uleb128 0x8
 5333 04fb 94       		.byte	0x94
 5334 04fc 01       		.byte	0x1
 5335 04fd 08       		.byte	0x8
 5336 04fe FF       		.byte	0xff
 5337 04ff 1A       		.byte	0x1a
 5338 0500 9F       		.byte	0x9f
 5339 0501 18000000 		.4byte	.LVL91
 5340 0505 1A000000 		.4byte	.LVL92
 5341 0509 0D00     		.2byte	0xd
 5342 050b 75       		.byte	0x75
 5343 050c 00       		.sleb128 0
 5344 050d 74       		.byte	0x74
ARM GAS  C:\Users\danielpi\AppData\Local\Temp\cccuTXvj.s 			page 138


 5345 050e 00       		.sleb128 0
 5346 050f 22       		.byte	0x22
 5347 0510 23       		.byte	0x23
 5348 0511 07       		.uleb128 0x7
 5349 0512 94       		.byte	0x94
 5350 0513 01       		.byte	0x1
 5351 0514 08       		.byte	0x8
 5352 0515 FF       		.byte	0xff
 5353 0516 1A       		.byte	0x1a
 5354 0517 9F       		.byte	0x9f
 5355 0518 00000000 		.4byte	0
 5356 051c 00000000 		.4byte	0
 5357              	.LLST30:
 5358 0520 00000000 		.4byte	.LVL100
 5359 0524 1E000000 		.4byte	.LVL103
 5360 0528 0100     		.2byte	0x1
 5361 052a 50       		.byte	0x50
 5362 052b 1E000000 		.4byte	.LVL103
 5363 052f 34000000 		.4byte	.LFE57
 5364 0533 0400     		.2byte	0x4
 5365 0535 F3       		.byte	0xf3
 5366 0536 01       		.uleb128 0x1
 5367 0537 50       		.byte	0x50
 5368 0538 9F       		.byte	0x9f
 5369 0539 00000000 		.4byte	0
 5370 053d 00000000 		.4byte	0
 5371              	.LLST31:
 5372 0541 00000000 		.4byte	.LVL100
 5373 0545 04000000 		.4byte	.LVL101
 5374 0549 0100     		.2byte	0x1
 5375 054b 51       		.byte	0x51
 5376 054c 04000000 		.4byte	.LVL101
 5377 0550 34000000 		.4byte	.LFE57
 5378 0554 0400     		.2byte	0x4
 5379 0556 F3       		.byte	0xf3
 5380 0557 01       		.uleb128 0x1
 5381 0558 51       		.byte	0x51
 5382 0559 9F       		.byte	0x9f
 5383 055a 00000000 		.4byte	0
 5384 055e 00000000 		.4byte	0
 5385              	.LLST32:
 5386 0562 1C000000 		.4byte	.LVL102
 5387 0566 2C000000 		.4byte	.LVL105
 5388 056a 0100     		.2byte	0x1
 5389 056c 52       		.byte	0x52
 5390 056d 2C000000 		.4byte	.LVL105
 5391 0571 34000000 		.4byte	.LFE57
 5392 0575 0100     		.2byte	0x1
 5393 0577 50       		.byte	0x50
 5394 0578 00000000 		.4byte	0
 5395 057c 00000000 		.4byte	0
 5396              	.LLST33:
 5397 0580 00000000 		.4byte	.LVL106
 5398 0584 04000000 		.4byte	.LVL107
 5399 0588 0100     		.2byte	0x1
 5400 058a 50       		.byte	0x50
 5401 058b 04000000 		.4byte	.LVL107
ARM GAS  C:\Users\danielpi\AppData\Local\Temp\cccuTXvj.s 			page 139


 5402 058f 0A000000 		.4byte	.LVL109
 5403 0593 0100     		.2byte	0x1
 5404 0595 50       		.byte	0x50
 5405 0596 0A000000 		.4byte	.LVL109
 5406 059a 14000000 		.4byte	.LFE58
 5407 059e 0600     		.2byte	0x6
 5408 05a0 F3       		.byte	0xf3
 5409 05a1 01       		.uleb128 0x1
 5410 05a2 50       		.byte	0x50
 5411 05a3 33       		.byte	0x33
 5412 05a4 1A       		.byte	0x1a
 5413 05a5 9F       		.byte	0x9f
 5414 05a6 00000000 		.4byte	0
 5415 05aa 00000000 		.4byte	0
 5416              	.LLST34:
 5417 05ae 08000000 		.4byte	.LVL108
 5418 05b2 0C000000 		.4byte	.LVL110
 5419 05b6 0100     		.2byte	0x1
 5420 05b8 52       		.byte	0x52
 5421 05b9 0C000000 		.4byte	.LVL110
 5422 05bd 14000000 		.4byte	.LFE58
 5423 05c1 0100     		.2byte	0x1
 5424 05c3 50       		.byte	0x50
 5425 05c4 00000000 		.4byte	0
 5426 05c8 00000000 		.4byte	0
 5427              	.LLST35:
 5428 05cc 02000000 		.4byte	.LVL111
 5429 05d0 0A000000 		.4byte	.LVL112
 5430 05d4 0200     		.2byte	0x2
 5431 05d6 30       		.byte	0x30
 5432 05d7 9F       		.byte	0x9f
 5433 05d8 0A000000 		.4byte	.LVL112
 5434 05dc 15000000 		.4byte	.LVL114-1
 5435 05e0 0100     		.2byte	0x1
 5436 05e2 53       		.byte	0x53
 5437 05e3 00000000 		.4byte	0
 5438 05e7 00000000 		.4byte	0
 5439              	.LLST36:
 5440 05eb 00000000 		.4byte	.LVL120
 5441 05ef 12000000 		.4byte	.LVL125
 5442 05f3 0100     		.2byte	0x1
 5443 05f5 50       		.byte	0x50
 5444 05f6 12000000 		.4byte	.LVL125
 5445 05fa 14000000 		.4byte	.LVL126
 5446 05fe 0400     		.2byte	0x4
 5447 0600 F3       		.byte	0xf3
 5448 0601 01       		.uleb128 0x1
 5449 0602 50       		.byte	0x50
 5450 0603 9F       		.byte	0x9f
 5451 0604 14000000 		.4byte	.LVL126
 5452 0608 16000000 		.4byte	.LVL127
 5453 060c 0100     		.2byte	0x1
 5454 060e 50       		.byte	0x50
 5455 060f 16000000 		.4byte	.LVL127
 5456 0613 18000000 		.4byte	.LFE60
 5457 0617 0400     		.2byte	0x4
 5458 0619 F3       		.byte	0xf3
ARM GAS  C:\Users\danielpi\AppData\Local\Temp\cccuTXvj.s 			page 140


 5459 061a 01       		.uleb128 0x1
 5460 061b 50       		.byte	0x50
 5461 061c 9F       		.byte	0x9f
 5462 061d 00000000 		.4byte	0
 5463 0621 00000000 		.4byte	0
 5464              	.LLST37:
 5465 0625 00000000 		.4byte	.LVL120
 5466 0629 06000000 		.4byte	.LVL122
 5467 062d 0100     		.2byte	0x1
 5468 062f 51       		.byte	0x51
 5469 0630 06000000 		.4byte	.LVL122
 5470 0634 18000000 		.4byte	.LFE60
 5471 0638 0400     		.2byte	0x4
 5472 063a F3       		.byte	0xf3
 5473 063b 01       		.uleb128 0x1
 5474 063c 51       		.byte	0x51
 5475 063d 9F       		.byte	0x9f
 5476 063e 00000000 		.4byte	0
 5477 0642 00000000 		.4byte	0
 5478              	.LLST38:
 5479 0646 02000000 		.4byte	.LVL121
 5480 064a 0C000000 		.4byte	.LVL124
 5481 064e 0100     		.2byte	0x1
 5482 0650 53       		.byte	0x53
 5483 0651 0C000000 		.4byte	.LVL124
 5484 0655 18000000 		.4byte	.LFE60
 5485 0659 0600     		.2byte	0x6
 5486 065b F3       		.byte	0xf3
 5487 065c 01       		.uleb128 0x1
 5488 065d 51       		.byte	0x51
 5489 065e 33       		.byte	0x33
 5490 065f 25       		.byte	0x25
 5491 0660 9F       		.byte	0x9f
 5492 0661 00000000 		.4byte	0
 5493 0665 00000000 		.4byte	0
 5494              	.LLST39:
 5495 0669 00000000 		.4byte	.LVL128
 5496 066d 08000000 		.4byte	.LVL129
 5497 0671 0100     		.2byte	0x1
 5498 0673 50       		.byte	0x50
 5499 0674 08000000 		.4byte	.LVL129
 5500 0678 0A000000 		.4byte	.LVL130
 5501 067c 0100     		.2byte	0x1
 5502 067e 54       		.byte	0x54
 5503 067f 0A000000 		.4byte	.LVL130
 5504 0683 0C000000 		.4byte	.LVL131
 5505 0687 0300     		.2byte	0x3
 5506 0689 74       		.byte	0x74
 5507 068a 7F       		.sleb128 -1
 5508 068b 9F       		.byte	0x9f
 5509 068c 0C000000 		.4byte	.LVL131
 5510 0690 1E000000 		.4byte	.LVL134
 5511 0694 0100     		.2byte	0x1
 5512 0696 54       		.byte	0x54
 5513 0697 1E000000 		.4byte	.LVL134
 5514 069b 24000000 		.4byte	.LFE40
 5515 069f 0100     		.2byte	0x1
ARM GAS  C:\Users\danielpi\AppData\Local\Temp\cccuTXvj.s 			page 141


 5516 06a1 50       		.byte	0x50
 5517 06a2 00000000 		.4byte	0
 5518 06a6 00000000 		.4byte	0
 5519              	.LLST40:
 5520 06aa 18000000 		.4byte	.LVL132
 5521 06ae 1C000000 		.4byte	.LVL133
 5522 06b2 0100     		.2byte	0x1
 5523 06b4 50       		.byte	0x50
 5524 06b5 00000000 		.4byte	0
 5525 06b9 00000000 		.4byte	0
 5526              	.LLST41:
 5527 06bd 00000000 		.4byte	.LVL135
 5528 06c1 12000000 		.4byte	.LVL139
 5529 06c5 0100     		.2byte	0x1
 5530 06c7 50       		.byte	0x50
 5531 06c8 12000000 		.4byte	.LVL139
 5532 06cc BC000000 		.4byte	.LVL163
 5533 06d0 0100     		.2byte	0x1
 5534 06d2 54       		.byte	0x54
 5535 06d3 BC000000 		.4byte	.LVL163
 5536 06d7 0C010000 		.4byte	.LFE55
 5537 06db 0400     		.2byte	0x4
 5538 06dd F3       		.byte	0xf3
 5539 06de 01       		.uleb128 0x1
 5540 06df 50       		.byte	0x50
 5541 06e0 9F       		.byte	0x9f
 5542 06e1 00000000 		.4byte	0
 5543 06e5 00000000 		.4byte	0
 5544              	.LLST42:
 5545 06e9 0A000000 		.4byte	.LVL136
 5546 06ed 0E000000 		.4byte	.LVL137
 5547 06f1 0500     		.2byte	0x5
 5548 06f3 73       		.byte	0x73
 5549 06f4 00       		.sleb128 0
 5550 06f5 70       		.byte	0x70
 5551 06f6 00       		.sleb128 0
 5552 06f7 22       		.byte	0x22
 5553 06f8 0E000000 		.4byte	.LVL137
 5554 06fc 12000000 		.4byte	.LVL139
 5555 0700 0800     		.2byte	0x8
 5556 0702 70       		.byte	0x70
 5557 0703 00       		.sleb128 0
 5558 0704 03       		.byte	0x3
 5559 0705 58000000 		.4byte	.LANCHOR2+88
 5560 0709 22       		.byte	0x22
 5561 070a 12000000 		.4byte	.LVL139
 5562 070e BC000000 		.4byte	.LVL163
 5563 0712 0800     		.2byte	0x8
 5564 0714 74       		.byte	0x74
 5565 0715 00       		.sleb128 0
 5566 0716 03       		.byte	0x3
 5567 0717 58000000 		.4byte	.LANCHOR2+88
 5568 071b 22       		.byte	0x22
 5569 071c BC000000 		.4byte	.LVL163
 5570 0720 0C010000 		.4byte	.LFE55
 5571 0724 0900     		.2byte	0x9
 5572 0726 F3       		.byte	0xf3
ARM GAS  C:\Users\danielpi\AppData\Local\Temp\cccuTXvj.s 			page 142


 5573 0727 01       		.uleb128 0x1
 5574 0728 50       		.byte	0x50
 5575 0729 03       		.byte	0x3
 5576 072a 58000000 		.4byte	.LANCHOR2+88
 5577 072e 22       		.byte	0x22
 5578 072f 00000000 		.4byte	0
 5579 0733 00000000 		.4byte	0
 5580              	.LLST43:
 5581 0737 BC000000 		.4byte	.LVL163
 5582 073b C0000000 		.4byte	.LVL164
 5583 073f 0100     		.2byte	0x1
 5584 0741 50       		.byte	0x50
 5585 0742 C0000000 		.4byte	.LVL164
 5586 0746 CE000000 		.4byte	.LVL167
 5587 074a 0100     		.2byte	0x1
 5588 074c 54       		.byte	0x54
 5589 074d 00000000 		.4byte	0
 5590 0751 00000000 		.4byte	0
 5591              	.LLST44:
 5592 0755 8A000000 		.4byte	.LVL154
 5593 0759 9C000000 		.4byte	.LVL156
 5594 075d 0100     		.2byte	0x1
 5595 075f 51       		.byte	0x51
 5596 0760 9C000000 		.4byte	.LVL156
 5597 0764 A2000000 		.4byte	.LVL157
 5598 0768 0100     		.2byte	0x1
 5599 076a 52       		.byte	0x52
 5600 076b A2000000 		.4byte	.LVL157
 5601 076f CE000000 		.4byte	.LVL169
 5602 0773 0100     		.2byte	0x1
 5603 0775 57       		.byte	0x57
 5604 0776 00000000 		.4byte	0
 5605 077a 00000000 		.4byte	0
 5606              	.LLST45:
 5607 077e 10000000 		.4byte	.LVL138
 5608 0782 20000000 		.4byte	.LVL141
 5609 0786 0100     		.2byte	0x1
 5610 0788 55       		.byte	0x55
 5611 0789 22000000 		.4byte	.LVL142
 5612 078d 28000000 		.4byte	.LVL143
 5613 0791 0100     		.2byte	0x1
 5614 0793 50       		.byte	0x50
 5615 0794 28000000 		.4byte	.LVL143
 5616 0798 CE000000 		.4byte	.LVL168
 5617 079c 0100     		.2byte	0x1
 5618 079e 55       		.byte	0x55
 5619 079f 00000000 		.4byte	0
 5620 07a3 00000000 		.4byte	0
 5621              	.LLST46:
 5622 07a7 18000000 		.4byte	.LVL140
 5623 07ab 22000000 		.4byte	.LVL142
 5624 07af 0100     		.2byte	0x1
 5625 07b1 50       		.byte	0x50
 5626 07b2 00000000 		.4byte	0
 5627 07b6 00000000 		.4byte	0
 5628              	.LLST47:
 5629 07ba 00000000 		.4byte	.LVL170
ARM GAS  C:\Users\danielpi\AppData\Local\Temp\cccuTXvj.s 			page 143


 5630 07be 13000000 		.4byte	.LVL171-1
 5631 07c2 0100     		.2byte	0x1
 5632 07c4 50       		.byte	0x50
 5633 07c5 13000000 		.4byte	.LVL171-1
 5634 07c9 1C000000 		.4byte	.LFE41
 5635 07cd 0400     		.2byte	0x4
 5636 07cf F3       		.byte	0xf3
 5637 07d0 01       		.uleb128 0x1
 5638 07d1 50       		.byte	0x50
 5639 07d2 9F       		.byte	0x9f
 5640 07d3 00000000 		.4byte	0
 5641 07d7 00000000 		.4byte	0
 5642              	.LLST48:
 5643 07db 00000000 		.4byte	.LVL174
 5644 07df 26000000 		.4byte	.LVL178
 5645 07e3 0100     		.2byte	0x1
 5646 07e5 50       		.byte	0x50
 5647 07e6 26000000 		.4byte	.LVL178
 5648 07ea 62000000 		.4byte	.LVL189
 5649 07ee 0100     		.2byte	0x1
 5650 07f0 54       		.byte	0x54
 5651 07f1 62000000 		.4byte	.LVL189
 5652 07f5 8C000000 		.4byte	.LFE56
 5653 07f9 0400     		.2byte	0x4
 5654 07fb F3       		.byte	0xf3
 5655 07fc 01       		.uleb128 0x1
 5656 07fd 50       		.byte	0x50
 5657 07fe 9F       		.byte	0x9f
 5658 07ff 00000000 		.4byte	0
 5659 0803 00000000 		.4byte	0
 5660              	.LLST49:
 5661 0807 46000000 		.4byte	.LVL183
 5662 080b 4A000000 		.4byte	.LVL184
 5663 080f 0100     		.2byte	0x1
 5664 0811 51       		.byte	0x51
 5665 0812 4A000000 		.4byte	.LVL184
 5666 0816 58000000 		.4byte	.LVL186
 5667 081a 0100     		.2byte	0x1
 5668 081c 52       		.byte	0x52
 5669 081d 58000000 		.4byte	.LVL186
 5670 0821 5C000000 		.4byte	.LVL187
 5671 0825 0500     		.2byte	0x5
 5672 0827 0C       		.byte	0xc
 5673 0828 04002840 		.4byte	0x40280004
 5674 082c 00000000 		.4byte	0
 5675 0830 00000000 		.4byte	0
 5676              	.LLST50:
 5677 0834 2C000000 		.4byte	.LVL179
 5678 0838 36000000 		.4byte	.LVL180
 5679 083c 0100     		.2byte	0x1
 5680 083e 50       		.byte	0x50
 5681 083f 00000000 		.4byte	0
 5682 0843 00000000 		.4byte	0
 5683              	.LLST51:
 5684 0847 18000000 		.4byte	.LVL175
 5685 084b 1A000000 		.4byte	.LVL176
 5686 084f 0100     		.2byte	0x1
ARM GAS  C:\Users\danielpi\AppData\Local\Temp\cccuTXvj.s 			page 144


 5687 0851 52       		.byte	0x52
 5688 0852 1A000000 		.4byte	.LVL176
 5689 0856 1C000000 		.4byte	.LVL177
 5690 085a 0B00     		.2byte	0xb
 5691 085c 73       		.byte	0x73
 5692 085d 00       		.sleb128 0
 5693 085e 70       		.byte	0x70
 5694 085f 00       		.sleb128 0
 5695 0860 22       		.byte	0x22
 5696 0861 94       		.byte	0x94
 5697 0862 01       		.byte	0x1
 5698 0863 08       		.byte	0x8
 5699 0864 FF       		.byte	0xff
 5700 0865 1A       		.byte	0x1a
 5701 0866 9F       		.byte	0x9f
 5702 0867 1C000000 		.4byte	.LVL177
 5703 086b 26000000 		.4byte	.LVL178
 5704 086f 0E00     		.2byte	0xe
 5705 0871 70       		.byte	0x70
 5706 0872 00       		.sleb128 0
 5707 0873 03       		.byte	0x3
 5708 0874 58000000 		.4byte	.LANCHOR2+88
 5709 0878 22       		.byte	0x22
 5710 0879 94       		.byte	0x94
 5711 087a 01       		.byte	0x1
 5712 087b 08       		.byte	0x8
 5713 087c FF       		.byte	0xff
 5714 087d 1A       		.byte	0x1a
 5715 087e 9F       		.byte	0x9f
 5716 087f 26000000 		.4byte	.LVL178
 5717 0883 62000000 		.4byte	.LVL189
 5718 0887 0E00     		.2byte	0xe
 5719 0889 74       		.byte	0x74
 5720 088a 00       		.sleb128 0
 5721 088b 03       		.byte	0x3
 5722 088c 58000000 		.4byte	.LANCHOR2+88
 5723 0890 22       		.byte	0x22
 5724 0891 94       		.byte	0x94
 5725 0892 01       		.byte	0x1
 5726 0893 08       		.byte	0x8
 5727 0894 FF       		.byte	0xff
 5728 0895 1A       		.byte	0x1a
 5729 0896 9F       		.byte	0x9f
 5730 0897 62000000 		.4byte	.LVL189
 5731 089b 8C000000 		.4byte	.LFE56
 5732 089f 0F00     		.2byte	0xf
 5733 08a1 F3       		.byte	0xf3
 5734 08a2 01       		.uleb128 0x1
 5735 08a3 50       		.byte	0x50
 5736 08a4 03       		.byte	0x3
 5737 08a5 58000000 		.4byte	.LANCHOR2+88
 5738 08a9 22       		.byte	0x22
 5739 08aa 94       		.byte	0x94
 5740 08ab 01       		.byte	0x1
 5741 08ac 08       		.byte	0x8
 5742 08ad FF       		.byte	0xff
 5743 08ae 1A       		.byte	0x1a
ARM GAS  C:\Users\danielpi\AppData\Local\Temp\cccuTXvj.s 			page 145


 5744 08af 9F       		.byte	0x9f
 5745 08b0 00000000 		.4byte	0
 5746 08b4 00000000 		.4byte	0
 5747              	.LLST52:
 5748 08b8 00000000 		.4byte	.LVL190
 5749 08bc 14000000 		.4byte	.LVL194
 5750 08c0 0100     		.2byte	0x1
 5751 08c2 50       		.byte	0x50
 5752 08c3 14000000 		.4byte	.LVL194
 5753 08c7 1C000000 		.4byte	.LVL196
 5754 08cb 0400     		.2byte	0x4
 5755 08cd F3       		.byte	0xf3
 5756 08ce 01       		.uleb128 0x1
 5757 08cf 50       		.byte	0x50
 5758 08d0 9F       		.byte	0x9f
 5759 08d1 1C000000 		.4byte	.LVL196
 5760 08d5 1E000000 		.4byte	.LVL197
 5761 08d9 0100     		.2byte	0x1
 5762 08db 50       		.byte	0x50
 5763 08dc 1E000000 		.4byte	.LVL197
 5764 08e0 26000000 		.4byte	.LFE61
 5765 08e4 0400     		.2byte	0x4
 5766 08e6 F3       		.byte	0xf3
 5767 08e7 01       		.uleb128 0x1
 5768 08e8 50       		.byte	0x50
 5769 08e9 9F       		.byte	0x9f
 5770 08ea 00000000 		.4byte	0
 5771 08ee 00000000 		.4byte	0
 5772              	.LLST53:
 5773 08f2 00000000 		.4byte	.LVL190
 5774 08f6 08000000 		.4byte	.LVL192
 5775 08fa 0100     		.2byte	0x1
 5776 08fc 51       		.byte	0x51
 5777 08fd 08000000 		.4byte	.LVL192
 5778 0901 26000000 		.4byte	.LFE61
 5779 0905 0400     		.2byte	0x4
 5780 0907 F3       		.byte	0xf3
 5781 0908 01       		.uleb128 0x1
 5782 0909 51       		.byte	0x51
 5783 090a 9F       		.byte	0x9f
 5784 090b 00000000 		.4byte	0
 5785 090f 00000000 		.4byte	0
 5786              	.LLST54:
 5787 0913 04000000 		.4byte	.LVL191
 5788 0917 16000000 		.4byte	.LVL195
 5789 091b 0100     		.2byte	0x1
 5790 091d 53       		.byte	0x53
 5791 091e 16000000 		.4byte	.LVL195
 5792 0922 1C000000 		.4byte	.LVL196
 5793 0926 0600     		.2byte	0x6
 5794 0928 F3       		.byte	0xf3
 5795 0929 01       		.uleb128 0x1
 5796 092a 51       		.byte	0x51
 5797 092b 33       		.byte	0x33
 5798 092c 25       		.byte	0x25
 5799 092d 9F       		.byte	0x9f
 5800 092e 1C000000 		.4byte	.LVL196
ARM GAS  C:\Users\danielpi\AppData\Local\Temp\cccuTXvj.s 			page 146


 5801 0932 20000000 		.4byte	.LVL198
 5802 0936 0100     		.2byte	0x1
 5803 0938 53       		.byte	0x53
 5804 0939 20000000 		.4byte	.LVL198
 5805 093d 26000000 		.4byte	.LFE61
 5806 0941 0600     		.2byte	0x6
 5807 0943 F3       		.byte	0xf3
 5808 0944 01       		.uleb128 0x1
 5809 0945 51       		.byte	0x51
 5810 0946 33       		.byte	0x33
 5811 0947 25       		.byte	0x25
 5812 0948 9F       		.byte	0x9f
 5813 0949 00000000 		.4byte	0
 5814 094d 00000000 		.4byte	0
 5815              	.LLST55:
 5816 0951 0E000000 		.4byte	.LVL193
 5817 0955 24000000 		.4byte	.LVL199
 5818 0959 0100     		.2byte	0x1
 5819 095b 54       		.byte	0x54
 5820 095c 24000000 		.4byte	.LVL199
 5821 0960 26000000 		.4byte	.LFE61
 5822 0964 0800     		.2byte	0x8
 5823 0966 31       		.byte	0x31
 5824 0967 F3       		.byte	0xf3
 5825 0968 01       		.uleb128 0x1
 5826 0969 51       		.byte	0x51
 5827 096a 37       		.byte	0x37
 5828 096b 1A       		.byte	0x1a
 5829 096c 24       		.byte	0x24
 5830 096d 9F       		.byte	0x9f
 5831 096e 00000000 		.4byte	0
 5832 0972 00000000 		.4byte	0
 5833              	.LLST56:
 5834 0976 00000000 		.4byte	.LVL200
 5835 097a 3C000000 		.4byte	.LVL207
 5836 097e 0100     		.2byte	0x1
 5837 0980 50       		.byte	0x50
 5838 0981 3C000000 		.4byte	.LVL207
 5839 0985 98000000 		.4byte	.LFE42
 5840 0989 0400     		.2byte	0x4
 5841 098b F3       		.byte	0xf3
 5842 098c 01       		.uleb128 0x1
 5843 098d 50       		.byte	0x50
 5844 098e 9F       		.byte	0x9f
 5845 098f 00000000 		.4byte	0
 5846 0993 00000000 		.4byte	0
 5847              	.LLST57:
 5848 0997 12000000 		.4byte	.LVL201
 5849 099b 1E000000 		.4byte	.LVL204
 5850 099f 0100     		.2byte	0x1
 5851 09a1 53       		.byte	0x53
 5852 09a2 00000000 		.4byte	0
 5853 09a6 00000000 		.4byte	0
 5854              	.LLST58:
 5855 09aa 1C000000 		.4byte	.LVL203
 5856 09ae 7C000000 		.4byte	.LVL213
 5857 09b2 0100     		.2byte	0x1
ARM GAS  C:\Users\danielpi\AppData\Local\Temp\cccuTXvj.s 			page 147


 5858 09b4 57       		.byte	0x57
 5859 09b5 00000000 		.4byte	0
 5860 09b9 00000000 		.4byte	0
 5861              	.LLST59:
 5862 09bd 1C000000 		.4byte	.LVL203
 5863 09c1 20000000 		.4byte	.LVL205
 5864 09c5 0200     		.2byte	0x2
 5865 09c7 30       		.byte	0x30
 5866 09c8 9F       		.byte	0x9f
 5867 09c9 20000000 		.4byte	.LVL205
 5868 09cd 3C000000 		.4byte	.LVL207
 5869 09d1 0100     		.2byte	0x1
 5870 09d3 53       		.byte	0x53
 5871 09d4 3C000000 		.4byte	.LVL207
 5872 09d8 7C000000 		.4byte	.LVL212
 5873 09dc 0100     		.2byte	0x1
 5874 09de 54       		.byte	0x54
 5875 09df 00000000 		.4byte	0
 5876 09e3 00000000 		.4byte	0
 5877              	.LLST60:
 5878 09e7 00000000 		.4byte	.LVL214
 5879 09eb 04000000 		.4byte	.LVL215
 5880 09ef 0100     		.2byte	0x1
 5881 09f1 50       		.byte	0x50
 5882 09f2 04000000 		.4byte	.LVL215
 5883 09f6 0C000000 		.4byte	.LFE62
 5884 09fa 0400     		.2byte	0x4
 5885 09fc F3       		.byte	0xf3
 5886 09fd 01       		.uleb128 0x1
 5887 09fe 50       		.byte	0x50
 5888 09ff 9F       		.byte	0x9f
 5889 0a00 00000000 		.4byte	0
 5890 0a04 00000000 		.4byte	0
 5891              	.LLST61:
 5892 0a08 00000000 		.4byte	.LVL217
 5893 0a0c 04000000 		.4byte	.LVL218
 5894 0a10 0100     		.2byte	0x1
 5895 0a12 50       		.byte	0x50
 5896 0a13 04000000 		.4byte	.LVL218
 5897 0a17 0C000000 		.4byte	.LFE64
 5898 0a1b 0400     		.2byte	0x4
 5899 0a1d F3       		.byte	0xf3
 5900 0a1e 01       		.uleb128 0x1
 5901 0a1f 50       		.byte	0x50
 5902 0a20 9F       		.byte	0x9f
 5903 0a21 00000000 		.4byte	0
 5904 0a25 00000000 		.4byte	0
 5905              	.LLST62:
 5906 0a29 00000000 		.4byte	.LVL220
 5907 0a2d 04000000 		.4byte	.LVL221
 5908 0a31 0100     		.2byte	0x1
 5909 0a33 50       		.byte	0x50
 5910 0a34 04000000 		.4byte	.LVL221
 5911 0a38 0C000000 		.4byte	.LFE66
 5912 0a3c 0400     		.2byte	0x4
 5913 0a3e F3       		.byte	0xf3
 5914 0a3f 01       		.uleb128 0x1
ARM GAS  C:\Users\danielpi\AppData\Local\Temp\cccuTXvj.s 			page 148


 5915 0a40 50       		.byte	0x50
 5916 0a41 9F       		.byte	0x9f
 5917 0a42 00000000 		.4byte	0
 5918 0a46 00000000 		.4byte	0
 5919              	.LLST63:
 5920 0a4a 00000000 		.4byte	.LVL223
 5921 0a4e 04000000 		.4byte	.LVL224
 5922 0a52 0100     		.2byte	0x1
 5923 0a54 50       		.byte	0x50
 5924 0a55 04000000 		.4byte	.LVL224
 5925 0a59 0C000000 		.4byte	.LFE68
 5926 0a5d 0400     		.2byte	0x4
 5927 0a5f F3       		.byte	0xf3
 5928 0a60 01       		.uleb128 0x1
 5929 0a61 50       		.byte	0x50
 5930 0a62 9F       		.byte	0x9f
 5931 0a63 00000000 		.4byte	0
 5932 0a67 00000000 		.4byte	0
 5933              	.LLST64:
 5934 0a6b 00000000 		.4byte	.LVL227
 5935 0a6f 0A000000 		.4byte	.LVL229
 5936 0a73 0100     		.2byte	0x1
 5937 0a75 50       		.byte	0x50
 5938 0a76 0A000000 		.4byte	.LVL229
 5939 0a7a 28000000 		.4byte	.LVL237
 5940 0a7e 0100     		.2byte	0x1
 5941 0a80 56       		.byte	0x56
 5942 0a81 28000000 		.4byte	.LVL237
 5943 0a85 2A000000 		.4byte	.LFE72
 5944 0a89 0400     		.2byte	0x4
 5945 0a8b F3       		.byte	0xf3
 5946 0a8c 01       		.uleb128 0x1
 5947 0a8d 50       		.byte	0x50
 5948 0a8e 9F       		.byte	0x9f
 5949 0a8f 00000000 		.4byte	0
 5950 0a93 00000000 		.4byte	0
 5951              	.LLST65:
 5952 0a97 04000000 		.4byte	.LVL228
 5953 0a9b 0A000000 		.4byte	.LVL229
 5954 0a9f 0200     		.2byte	0x2
 5955 0aa1 30       		.byte	0x30
 5956 0aa2 9F       		.byte	0x9f
 5957 0aa3 0A000000 		.4byte	.LVL229
 5958 0aa7 28000000 		.4byte	.LVL235
 5959 0aab 0100     		.2byte	0x1
 5960 0aad 54       		.byte	0x54
 5961 0aae 00000000 		.4byte	0
 5962 0ab2 00000000 		.4byte	0
 5963              	.LLST66:
 5964 0ab6 04000000 		.4byte	.LVL228
 5965 0aba 0A000000 		.4byte	.LVL229
 5966 0abe 0200     		.2byte	0x2
 5967 0ac0 30       		.byte	0x30
 5968 0ac1 9F       		.byte	0x9f
 5969 0ac2 0A000000 		.4byte	.LVL229
 5970 0ac6 28000000 		.4byte	.LVL236
 5971 0aca 0100     		.2byte	0x1
ARM GAS  C:\Users\danielpi\AppData\Local\Temp\cccuTXvj.s 			page 149


 5972 0acc 55       		.byte	0x55
 5973 0acd 00000000 		.4byte	0
 5974 0ad1 00000000 		.4byte	0
 5975              	.LLST67:
 5976 0ad5 02000000 		.4byte	.LVL240
 5977 0ad9 08000000 		.4byte	.LVL241
 5978 0add 0200     		.2byte	0x2
 5979 0adf 30       		.byte	0x30
 5980 0ae0 9F       		.byte	0x9f
 5981 0ae1 08000000 		.4byte	.LVL241
 5982 0ae5 3A000000 		.4byte	.LVL253
 5983 0ae9 0100     		.2byte	0x1
 5984 0aeb 57       		.byte	0x57
 5985 0aec 00000000 		.4byte	0
 5986 0af0 00000000 		.4byte	0
 5987              	.LLST68:
 5988 0af4 10000000 		.4byte	.LVL243
 5989 0af8 18000000 		.4byte	.LVL245
 5990 0afc 0100     		.2byte	0x1
 5991 0afe 53       		.byte	0x53
 5992 0aff 18000000 		.4byte	.LVL245
 5993 0b03 28000000 		.4byte	.LVL248
 5994 0b07 0100     		.2byte	0x1
 5995 0b09 52       		.byte	0x52
 5996 0b0a 28000000 		.4byte	.LVL248
 5997 0b0e 2E000000 		.4byte	.LVL250
 5998 0b12 0100     		.2byte	0x1
 5999 0b14 53       		.byte	0x53
 6000 0b15 2E000000 		.4byte	.LVL250
 6001 0b19 30000000 		.4byte	.LVL251
 6002 0b1d 0100     		.2byte	0x1
 6003 0b1f 52       		.byte	0x52
 6004 0b20 30000000 		.4byte	.LVL251
 6005 0b24 36000000 		.4byte	.LVL252
 6006 0b28 0100     		.2byte	0x1
 6007 0b2a 53       		.byte	0x53
 6008 0b2b 00000000 		.4byte	0
 6009 0b2f 00000000 		.4byte	0
 6010              	.LLST69:
 6011 0b33 12000000 		.4byte	.LVL244
 6012 0b37 36000000 		.4byte	.LVL252
 6013 0b3b 0100     		.2byte	0x1
 6014 0b3d 55       		.byte	0x55
 6015 0b3e 00000000 		.4byte	0
 6016 0b42 00000000 		.4byte	0
 6017              	.LLST70:
 6018 0b46 0C000000 		.4byte	.LVL242
 6019 0b4a 12000000 		.4byte	.LVL244
 6020 0b4e 0100     		.2byte	0x1
 6021 0b50 55       		.byte	0x55
 6022 0b51 12000000 		.4byte	.LVL244
 6023 0b55 36000000 		.4byte	.LVL252
 6024 0b59 0800     		.2byte	0x8
 6025 0b5b 77       		.byte	0x77
 6026 0b5c 00       		.sleb128 0
 6027 0b5d 94       		.byte	0x94
 6028 0b5e 01       		.byte	0x1
ARM GAS  C:\Users\danielpi\AppData\Local\Temp\cccuTXvj.s 			page 150


 6029 0b5f 08       		.byte	0x8
 6030 0b60 FF       		.byte	0xff
 6031 0b61 1A       		.byte	0x1a
 6032 0b62 9F       		.byte	0x9f
 6033 0b63 00000000 		.4byte	0
 6034 0b67 00000000 		.4byte	0
 6035              	.LLST71:
 6036 0b6b 08000000 		.4byte	.LVL241
 6037 0b6f 18000000 		.4byte	.LVL245
 6038 0b73 0200     		.2byte	0x2
 6039 0b75 30       		.byte	0x30
 6040 0b76 9F       		.byte	0x9f
 6041 0b77 18000000 		.4byte	.LVL245
 6042 0b7b 28000000 		.4byte	.LVL248
 6043 0b7f 0100     		.2byte	0x1
 6044 0b81 56       		.byte	0x56
 6045 0b82 2E000000 		.4byte	.LVL250
 6046 0b86 30000000 		.4byte	.LVL251
 6047 0b8a 0100     		.2byte	0x1
 6048 0b8c 56       		.byte	0x56
 6049 0b8d 00000000 		.4byte	0
 6050 0b91 00000000 		.4byte	0
 6051              		.section	.debug_aranges,"",%progbits
 6052 0000 54010000 		.4byte	0x154
 6053 0004 0200     		.2byte	0x2
 6054 0006 00000000 		.4byte	.Ldebug_info0
 6055 000a 04       		.byte	0x4
 6056 000b 00       		.byte	0
 6057 000c 0000     		.2byte	0
 6058 000e 0000     		.2byte	0
 6059 0010 00000000 		.4byte	.LFB36
 6060 0014 80000000 		.4byte	.LFE36-.LFB36
 6061 0018 00000000 		.4byte	.LFB37
 6062 001c 40000000 		.4byte	.LFE37-.LFB37
 6063 0020 00000000 		.4byte	.LFB39
 6064 0024 2C000000 		.4byte	.LFE39-.LFB39
 6065 0028 00000000 		.4byte	.LFB44
 6066 002c 10000000 		.4byte	.LFE44-.LFB44
 6067 0030 00000000 		.4byte	.LFB45
 6068 0034 10000000 		.4byte	.LFE45-.LFB45
 6069 0038 00000000 		.4byte	.LFB46
 6070 003c 10000000 		.4byte	.LFE46-.LFB46
 6071 0040 00000000 		.4byte	.LFB47
 6072 0044 0C000000 		.4byte	.LFE47-.LFB47
 6073 0048 00000000 		.4byte	.LFB48
 6074 004c 0C000000 		.4byte	.LFE48-.LFB48
 6075 0050 00000000 		.4byte	.LFB50
 6076 0054 48000000 		.4byte	.LFE50-.LFB50
 6077 0058 00000000 		.4byte	.LFB51
 6078 005c 70000000 		.4byte	.LFE51-.LFB51
 6079 0060 00000000 		.4byte	.LFB49
 6080 0064 14000000 		.4byte	.LFE49-.LFB49
 6081 0068 00000000 		.4byte	.LFB54
 6082 006c 24000000 		.4byte	.LFE54-.LFB54
 6083 0070 00000000 		.4byte	.LFB52
 6084 0074 30000000 		.4byte	.LFE52-.LFB52
 6085 0078 00000000 		.4byte	.LFB53
ARM GAS  C:\Users\danielpi\AppData\Local\Temp\cccuTXvj.s 			page 151


 6086 007c 1C000000 		.4byte	.LFE53-.LFB53
 6087 0080 00000000 		.4byte	.LFB57
 6088 0084 34000000 		.4byte	.LFE57-.LFB57
 6089 0088 00000000 		.4byte	.LFB58
 6090 008c 14000000 		.4byte	.LFE58-.LFB58
 6091 0090 00000000 		.4byte	.LFB35
 6092 0094 28000000 		.4byte	.LFE35-.LFB35
 6093 0098 00000000 		.4byte	.LFB38
 6094 009c 38000000 		.4byte	.LFE38-.LFB38
 6095 00a0 00000000 		.4byte	.LFB59
 6096 00a4 1C000000 		.4byte	.LFE59-.LFB59
 6097 00a8 00000000 		.4byte	.LFB60
 6098 00ac 18000000 		.4byte	.LFE60-.LFB60
 6099 00b0 00000000 		.4byte	.LFB40
 6100 00b4 24000000 		.4byte	.LFE40-.LFB40
 6101 00b8 00000000 		.4byte	.LFB55
 6102 00bc 0C010000 		.4byte	.LFE55-.LFB55
 6103 00c0 00000000 		.4byte	.LFB41
 6104 00c4 1C000000 		.4byte	.LFE41-.LFB41
 6105 00c8 00000000 		.4byte	.LFB43
 6106 00cc 34000000 		.4byte	.LFE43-.LFB43
 6107 00d0 00000000 		.4byte	.LFB56
 6108 00d4 8C000000 		.4byte	.LFE56-.LFB56
 6109 00d8 00000000 		.4byte	.LFB61
 6110 00dc 26000000 		.4byte	.LFE61-.LFB61
 6111 00e0 00000000 		.4byte	.LFB42
 6112 00e4 98000000 		.4byte	.LFE42-.LFB42
 6113 00e8 00000000 		.4byte	.LFB62
 6114 00ec 0C000000 		.4byte	.LFE62-.LFB62
 6115 00f0 00000000 		.4byte	.LFB63
 6116 00f4 0C000000 		.4byte	.LFE63-.LFB63
 6117 00f8 00000000 		.4byte	.LFB64
 6118 00fc 0C000000 		.4byte	.LFE64-.LFB64
 6119 0100 00000000 		.4byte	.LFB65
 6120 0104 0C000000 		.4byte	.LFE65-.LFB65
 6121 0108 00000000 		.4byte	.LFB66
 6122 010c 0C000000 		.4byte	.LFE66-.LFB66
 6123 0110 00000000 		.4byte	.LFB67
 6124 0114 0C000000 		.4byte	.LFE67-.LFB67
 6125 0118 00000000 		.4byte	.LFB68
 6126 011c 0C000000 		.4byte	.LFE68-.LFB68
 6127 0120 00000000 		.4byte	.LFB69
 6128 0124 0C000000 		.4byte	.LFE69-.LFB69
 6129 0128 00000000 		.4byte	.LFB70
 6130 012c 14000000 		.4byte	.LFE70-.LFB70
 6131 0130 00000000 		.4byte	.LFB71
 6132 0134 28000000 		.4byte	.LFE71-.LFB71
 6133 0138 00000000 		.4byte	.LFB72
 6134 013c 2A000000 		.4byte	.LFE72-.LFB72
 6135 0140 00000000 		.4byte	.LFB73
 6136 0144 0C000000 		.4byte	.LFE73-.LFB73
 6137 0148 00000000 		.4byte	.LFB74
 6138 014c 44000000 		.4byte	.LFE74-.LFB74
 6139 0150 00000000 		.4byte	0
 6140 0154 00000000 		.4byte	0
 6141              		.section	.debug_ranges,"",%progbits
 6142              	.Ldebug_ranges0:
ARM GAS  C:\Users\danielpi\AppData\Local\Temp\cccuTXvj.s 			page 152


 6143 0000 00000000 		.4byte	.LFB36
 6144 0004 80000000 		.4byte	.LFE36
 6145 0008 00000000 		.4byte	.LFB37
 6146 000c 40000000 		.4byte	.LFE37
 6147 0010 00000000 		.4byte	.LFB39
 6148 0014 2C000000 		.4byte	.LFE39
 6149 0018 00000000 		.4byte	.LFB44
 6150 001c 10000000 		.4byte	.LFE44
 6151 0020 00000000 		.4byte	.LFB45
 6152 0024 10000000 		.4byte	.LFE45
 6153 0028 00000000 		.4byte	.LFB46
 6154 002c 10000000 		.4byte	.LFE46
 6155 0030 00000000 		.4byte	.LFB47
 6156 0034 0C000000 		.4byte	.LFE47
 6157 0038 00000000 		.4byte	.LFB48
 6158 003c 0C000000 		.4byte	.LFE48
 6159 0040 00000000 		.4byte	.LFB50
 6160 0044 48000000 		.4byte	.LFE50
 6161 0048 00000000 		.4byte	.LFB51
 6162 004c 70000000 		.4byte	.LFE51
 6163 0050 00000000 		.4byte	.LFB49
 6164 0054 14000000 		.4byte	.LFE49
 6165 0058 00000000 		.4byte	.LFB54
 6166 005c 24000000 		.4byte	.LFE54
 6167 0060 00000000 		.4byte	.LFB52
 6168 0064 30000000 		.4byte	.LFE52
 6169 0068 00000000 		.4byte	.LFB53
 6170 006c 1C000000 		.4byte	.LFE53
 6171 0070 00000000 		.4byte	.LFB57
 6172 0074 34000000 		.4byte	.LFE57
 6173 0078 00000000 		.4byte	.LFB58
 6174 007c 14000000 		.4byte	.LFE58
 6175 0080 00000000 		.4byte	.LFB35
 6176 0084 28000000 		.4byte	.LFE35
 6177 0088 00000000 		.4byte	.LFB38
 6178 008c 38000000 		.4byte	.LFE38
 6179 0090 00000000 		.4byte	.LFB59
 6180 0094 1C000000 		.4byte	.LFE59
 6181 0098 00000000 		.4byte	.LFB60
 6182 009c 18000000 		.4byte	.LFE60
 6183 00a0 00000000 		.4byte	.LFB40
 6184 00a4 24000000 		.4byte	.LFE40
 6185 00a8 00000000 		.4byte	.LFB55
 6186 00ac 0C010000 		.4byte	.LFE55
 6187 00b0 00000000 		.4byte	.LFB41
 6188 00b4 1C000000 		.4byte	.LFE41
 6189 00b8 00000000 		.4byte	.LFB43
 6190 00bc 34000000 		.4byte	.LFE43
 6191 00c0 00000000 		.4byte	.LFB56
 6192 00c4 8C000000 		.4byte	.LFE56
 6193 00c8 00000000 		.4byte	.LFB61
 6194 00cc 26000000 		.4byte	.LFE61
 6195 00d0 00000000 		.4byte	.LFB42
 6196 00d4 98000000 		.4byte	.LFE42
 6197 00d8 00000000 		.4byte	.LFB62
 6198 00dc 0C000000 		.4byte	.LFE62
 6199 00e0 00000000 		.4byte	.LFB63
ARM GAS  C:\Users\danielpi\AppData\Local\Temp\cccuTXvj.s 			page 153


 6200 00e4 0C000000 		.4byte	.LFE63
 6201 00e8 00000000 		.4byte	.LFB64
 6202 00ec 0C000000 		.4byte	.LFE64
 6203 00f0 00000000 		.4byte	.LFB65
 6204 00f4 0C000000 		.4byte	.LFE65
 6205 00f8 00000000 		.4byte	.LFB66
 6206 00fc 0C000000 		.4byte	.LFE66
 6207 0100 00000000 		.4byte	.LFB67
 6208 0104 0C000000 		.4byte	.LFE67
 6209 0108 00000000 		.4byte	.LFB68
 6210 010c 0C000000 		.4byte	.LFE68
 6211 0110 00000000 		.4byte	.LFB69
 6212 0114 0C000000 		.4byte	.LFE69
 6213 0118 00000000 		.4byte	.LFB70
 6214 011c 14000000 		.4byte	.LFE70
 6215 0120 00000000 		.4byte	.LFB71
 6216 0124 28000000 		.4byte	.LFE71
 6217 0128 00000000 		.4byte	.LFB72
 6218 012c 2A000000 		.4byte	.LFE72
 6219 0130 00000000 		.4byte	.LFB73
 6220 0134 0C000000 		.4byte	.LFE73
 6221 0138 00000000 		.4byte	.LFB74
 6222 013c 44000000 		.4byte	.LFE74
 6223 0140 00000000 		.4byte	0
 6224 0144 00000000 		.4byte	0
 6225              		.section	.debug_line,"",%progbits
 6226              	.Ldebug_line0:
 6227 0000 0E050000 		.section	.debug_str,"MS",%progbits,1
 6227      0200AC00 
 6227      00000201 
 6227      FB0E0D00 
 6227      01010101 
 6228              	.LASF126:
 6229 0000 4379496E 		.ascii	"CyIntSetPriority\000"
 6229      74536574 
 6229      5072696F 
 6229      72697479 
 6229      00
 6230              	.LASF102:
 6231 0011 7363616E 		.ascii	"scanSpeedTbl\000"
 6231      53706565 
 6231      6454626C 
 6231      00
 6232              	.LASF124:
 6233 001e 43617053 		.ascii	"CapSense_1_csdTrim1\000"
 6233      656E7365 
 6233      5F315F63 
 6233      73645472 
 6233      696D3100 
 6234              	.LASF109:
 6235 0032 43617053 		.ascii	"CapSense_1_modulationIDAC\000"
 6235      656E7365 
 6235      5F315F6D 
 6235      6F64756C 
 6235      6174696F 
 6236              	.LASF121:
 6237 004c 43617053 		.ascii	"CapSense_1_pinShiftTbl\000"
ARM GAS  C:\Users\danielpi\AppData\Local\Temp\cccuTXvj.s 			page 154


 6237      656E7365 
 6237      5F315F70 
 6237      696E5368 
 6237      69667454 
 6238              	.LASF26:
 6239 0063 43617053 		.ascii	"CapSense_1_SetScanResolution\000"
 6239      656E7365 
 6239      5F315F53 
 6239      65745363 
 6239      616E5265 
 6240              	.LASF119:
 6241 0080 43617053 		.ascii	"CapSense_1_portTable\000"
 6241      656E7365 
 6241      5F315F70 
 6241      6F727454 
 6241      61626C65 
 6242              	.LASF64:
 6243 0095 43617053 		.ascii	"CapSense_1_FindNextSensor\000"
 6243      656E7365 
 6243      5F315F46 
 6243      696E644E 
 6243      65787453 
 6244              	.LASF8:
 6245 00af 756E7369 		.ascii	"unsigned int\000"
 6245      676E6564 
 6245      20696E74 
 6245      00
 6246              	.LASF34:
 6247 00bc 696E7465 		.ascii	"interruptState\000"
 6247      72727570 
 6247      74537461 
 6247      746500
 6248              	.LASF15:
 6249 00cb 72656738 		.ascii	"reg8\000"
 6249      00
 6250              	.LASF30:
 6251 00d0 43617053 		.ascii	"CapSense_1_GetScanResolution\000"
 6251      656E7365 
 6251      5F315F47 
 6251      65745363 
 6251      616E5265 
 6252              	.LASF96:
 6253 00ed 77696467 		.ascii	"widgetsNum\000"
 6253      6574734E 
 6253      756D00
 6254              	.LASF115:
 6255 00f8 43617053 		.ascii	"CapSense_1_prtSelTbl\000"
 6255      656E7365 
 6255      5F315F70 
 6255      72745365 
 6255      6C54626C 
 6256              	.LASF33:
 6257 010d 70696E48 		.ascii	"pinHSIOMShift\000"
 6257      53494F4D 
 6257      53686966 
 6257      7400
 6258              	.LASF69:
ARM GAS  C:\Users\danielpi\AppData\Local\Temp\cccuTXvj.s 			page 155


 6259 011b 43617053 		.ascii	"CapSense_1_ScanSensor\000"
 6259      656E7365 
 6259      5F315F53 
 6259      63616E53 
 6259      656E736F 
 6260              	.LASF125:
 6261 0131 4379496E 		.ascii	"CyIntDisable\000"
 6261      74446973 
 6261      61626C65 
 6261      00
 6262              	.LASF93:
 6263 013e 61766756 		.ascii	"avgVal\000"
 6263      616C00
 6264              	.LASF123:
 6265 0145 43617053 		.ascii	"CapSense_1_numberOfSensors\000"
 6265      656E7365 
 6265      5F315F6E 
 6265      756D6265 
 6265      724F6653 
 6266              	.LASF32:
 6267 0160 70696E4D 		.ascii	"pinModeShift\000"
 6267      6F646553 
 6267      68696674 
 6267      00
 6268              	.LASF38:
 6269 016d 696E6163 		.ascii	"inactiveConnect\000"
 6269      74697665 
 6269      436F6E6E 
 6269      65637400 
 6270              	.LASF46:
 6271 017d 43617053 		.ascii	"CapSense_1_SetDriveModeAllPins\000"
 6271      656E7365 
 6271      5F315F53 
 6271      65744472 
 6271      6976654D 
 6272              	.LASF55:
 6273 019c 43617053 		.ascii	"CapSense_1_Start\000"
 6273      656E7365 
 6273      5F315F53 
 6273      74617274 
 6273      00
 6274              	.LASF116:
 6275 01ad 43617053 		.ascii	"CapSense_1_prtCfgTbl\000"
 6275      656E7365 
 6275      5F315F70 
 6275      72744366 
 6275      6754626C 
 6276              	.LASF12:
 6277 01c2 666C6F61 		.ascii	"float\000"
 6277      7400
 6278              	.LASF108:
 6279 01c8 43617053 		.ascii	"CapSense_1_sensorEnableMask\000"
 6279      656E7365 
 6279      5F315F73 
 6279      656E736F 
 6279      72456E61 
 6280              	.LASF54:
ARM GAS  C:\Users\danielpi\AppData\Local\Temp\cccuTXvj.s 			page 156


 6281 01e4 43617053 		.ascii	"CapSense_1_Init\000"
 6281      656E7365 
 6281      5F315F49 
 6281      6E697400 
 6282              	.LASF77:
 6283 01f4 43617053 		.ascii	"CapSense_1_SetSenseClkDivider\000"
 6283      656E7365 
 6283      5F315F53 
 6283      65745365 
 6283      6E736543 
 6284              	.LASF7:
 6285 0212 6C6F6E67 		.ascii	"long long unsigned int\000"
 6285      206C6F6E 
 6285      6720756E 
 6285      7369676E 
 6285      65642069 
 6286              	.LASF62:
 6287 0229 6F666673 		.ascii	"offset\000"
 6287      657400
 6288              	.LASF27:
 6289 0230 77696467 		.ascii	"widget\000"
 6289      657400
 6290              	.LASF72:
 6291 0237 43617053 		.ascii	"CapSense_1_SetBitValue\000"
 6291      656E7365 
 6291      5F315F53 
 6291      65744269 
 6291      7456616C 
 6292              	.LASF103:
 6293 024e 43617053 		.ascii	"CapSense_1_csdStatusVar\000"
 6293      656E7365 
 6293      5F315F63 
 6293      73645374 
 6293      61747573 
 6294              	.LASF95:
 6295 0266 43617053 		.ascii	"CapSense_1_NormalizeWidgets\000"
 6295      656E7365 
 6295      5F315F4E 
 6295      6F726D61 
 6295      6C697A65 
 6296              	.LASF25:
 6297 0282 76616C75 		.ascii	"value\000"
 6297      6500
 6298              	.LASF122:
 6299 0288 43617053 		.ascii	"CapSense_1_rawDataIndex\000"
 6299      656E7365 
 6299      5F315F72 
 6299      61774461 
 6299      7461496E 
 6300              	.LASF35:
 6301 02a0 6E657752 		.ascii	"newRegisterValue\000"
 6301      65676973 
 6301      74657256 
 6301      616C7565 
 6301      00
 6302              	.LASF128:
 6303 02b1 43617053 		.ascii	"CapSense_1_SampleClk_Stop\000"
ARM GAS  C:\Users\danielpi\AppData\Local\Temp\cccuTXvj.s 			page 157


 6303      656E7365 
 6303      5F315F53 
 6303      616D706C 
 6303      65436C6B 
 6304              	.LASF66:
 6305 02cb 43617053 		.ascii	"CapSense_1_PreScan\000"
 6305      656E7365 
 6305      5F315F50 
 6305      72655363 
 6305      616E00
 6306              	.LASF39:
 6307 02de 73656E73 		.ascii	"sensorState\000"
 6307      6F725374 
 6307      61746500 
 6308              	.LASF57:
 6309 02ea 43617053 		.ascii	"CapSense_1_IsBusy\000"
 6309      656E7365 
 6309      5F315F49 
 6309      73427573 
 6309      7900
 6310              	.LASF105:
 6311 02fc 43617053 		.ascii	"CapSense_1_sensorRaw\000"
 6311      656E7365 
 6311      5F315F73 
 6311      656E736F 
 6311      72526177 
 6312              	.LASF129:
 6313 0311 43617053 		.ascii	"CapSense_1_SampleClk_SetFractionalDividerRegister\000"
 6313      656E7365 
 6313      5F315F53 
 6313      616D706C 
 6313      65436C6B 
 6314              	.LASF40:
 6315 0343 43617053 		.ascii	"CapSense_1_ClearSensors\000"
 6315      656E7365 
 6315      5F315F43 
 6315      6C656172 
 6315      53656E73 
 6316              	.LASF42:
 6317 035b 43617053 		.ascii	"CapSense_1_SetPinDriveMode\000"
 6317      656E7365 
 6317      5F315F53 
 6317      65745069 
 6317      6E447269 
 6318              	.LASF56:
 6319 0376 43617053 		.ascii	"CapSense_1_initVar\000"
 6319      656E7365 
 6319      5F315F69 
 6319      6E697456 
 6319      617200
 6320              	.LASF85:
 6321 0389 43617053 		.ascii	"CapSense_1_GetCompensationIDAC\000"
 6321      656E7365 
 6321      5F315F47 
 6321      6574436F 
 6321      6D70656E 
 6322              	.LASF48:
ARM GAS  C:\Users\danielpi\AppData\Local\Temp\cccuTXvj.s 			page 158


 6323 03a8 7072744E 		.ascii	"prtNumberTmp\000"
 6323      756D6265 
 6323      72546D70 
 6323      00
 6324              	.LASF74:
 6325 03b5 73656E73 		.ascii	"sensorsPerWidget\000"
 6325      6F727350 
 6325      65725769 
 6325      64676574 
 6325      00
 6326              	.LASF137:
 6327 03c6 474E5520 		.ascii	"GNU C 4.8.4 20140526 (release) [ARM/embedded-4_8-br"
 6327      4320342E 
 6327      382E3420 
 6327      32303134 
 6327      30353236 
 6328 03f9 616E6368 		.ascii	"anch revision 211358] -mcpu=cortex-m0 -mthumb -g -O"
 6328      20726576 
 6328      6973696F 
 6328      6E203231 
 6328      31333538 
 6329 042c 67202D66 		.ascii	"g -ffunction-sections\000"
 6329      66756E63 
 6329      74696F6E 
 6329      2D736563 
 6329      74696F6E 
 6330              	.LASF92:
 6331 0442 63757253 		.ascii	"curSample\000"
 6331      616D706C 
 6331      6500
 6332              	.LASF113:
 6333 044c 43617053 		.ascii	"CapSense_1_sampleClkDividerVal\000"
 6333      656E7365 
 6333      5F315F73 
 6333      616D706C 
 6333      65436C6B 
 6334              	.LASF59:
 6335 046b 43617053 		.ascii	"CapSense_1_GetBitValue\000"
 6335      656E7365 
 6335      5F315F47 
 6335      65744269 
 6335      7456616C 
 6336              	.LASF24:
 6337 0482 73656E73 		.ascii	"sensor\000"
 6337      6F7200
 6338              	.LASF136:
 6339 0489 4379496E 		.ascii	"CyIntClearPending\000"
 6339      74436C65 
 6339      61725065 
 6339      6E64696E 
 6339      6700
 6340              	.LASF14:
 6341 049b 63686172 		.ascii	"char\000"
 6341      00
 6342              	.LASF37:
 6343 04a0 43617053 		.ascii	"CapSense_1_DisableSensor\000"
 6343      656E7365 
ARM GAS  C:\Users\danielpi\AppData\Local\Temp\cccuTXvj.s 			page 159


 6343      5F315F44 
 6343      69736162 
 6343      6C655365 
 6344              	.LASF134:
 6345 04b9 43794578 		.ascii	"CyExitCriticalSection\000"
 6345      69744372 
 6345      69746963 
 6345      616C5365 
 6345      6374696F 
 6346              	.LASF142:
 6347 04cf 43794465 		.ascii	"CyDelayCycles\000"
 6347      6C617943 
 6347      79636C65 
 6347      7300
 6348              	.LASF118:
 6349 04dd 43617053 		.ascii	"CapSense_1_pcTable\000"
 6349      656E7365 
 6349      5F315F70 
 6349      63546162 
 6349      6C6500
 6350              	.LASF60:
 6351 04f0 7461626C 		.ascii	"table\000"
 6351      6500
 6352              	.LASF10:
 6353 04f6 75696E74 		.ascii	"uint16\000"
 6353      313600
 6354              	.LASF111:
 6355 04fd 43617053 		.ascii	"CapSense_1_widgetResolution\000"
 6355      656E7365 
 6355      5F315F77 
 6355      69646765 
 6355      74526573 
 6356              	.LASF140:
 6357 0519 4379496E 		.ascii	"CyIntSetVector\000"
 6357      74536574 
 6357      56656374 
 6357      6F7200
 6358              	.LASF28:
 6359 0528 7265736F 		.ascii	"resolution\000"
 6359      6C757469 
 6359      6F6E00
 6360              	.LASF49:
 6361 0533 70696E4E 		.ascii	"pinNumberTmp\000"
 6361      756D6265 
 6361      72546D70 
 6361      00
 6362              	.LASF20:
 6363 0540 43617053 		.ascii	"CapSense_1_Enable\000"
 6363      656E7365 
 6363      5F315F45 
 6363      6E61626C 
 6363      6500
 6364              	.LASF6:
 6365 0552 6C6F6E67 		.ascii	"long long int\000"
 6365      206C6F6E 
 6365      6720696E 
 6365      7400
ARM GAS  C:\Users\danielpi\AppData\Local\Temp\cccuTXvj.s 			page 160


 6366              	.LASF132:
 6367 0560 43617053 		.ascii	"CapSense_1_SenseClk_StartEx\000"
 6367      656E7365 
 6367      5F315F53 
 6367      656E7365 
 6367      436C6B5F 
 6368              	.LASF58:
 6369 057c 43617053 		.ascii	"CapSense_1_ReadCurrentScanningSensor\000"
 6369      656E7365 
 6369      5F315F52 
 6369      65616443 
 6369      75727265 
 6370              	.LASF114:
 6371 05a1 43617053 		.ascii	"CapSense_1_widgetNumber\000"
 6371      656E7365 
 6371      5F315F77 
 6371      69646765 
 6371      744E756D 
 6372              	.LASF65:
 6373 05b9 656E6162 		.ascii	"enableFlag\000"
 6373      6C65466C 
 6373      616700
 6374              	.LASF98:
 6375 05c4 63757272 		.ascii	"currentWidget\000"
 6375      656E7457 
 6375      69646765 
 6375      7400
 6376              	.LASF17:
 6377 05d2 63796973 		.ascii	"cyisraddress\000"
 6377      72616464 
 6377      72657373 
 6377      00
 6378              	.LASF120:
 6379 05df 43617053 		.ascii	"CapSense_1_maskTable\000"
 6379      656E7365 
 6379      5F315F6D 
 6379      61736B54 
 6379      61626C65 
 6380              	.LASF11:
 6381 05f4 75696E74 		.ascii	"uint32\000"
 6381      333200
 6382              	.LASF76:
 6383 05fb 43617053 		.ascii	"CapSense_1_GetSenseClkDivider\000"
 6383      656E7365 
 6383      5F315F47 
 6383      65745365 
 6383      6E736543 
 6384              	.LASF51:
 6385 0619 43617053 		.ascii	"CapSense_1_EnableShieldElectrode\000"
 6385      656E7365 
 6385      5F315F45 
 6385      6E61626C 
 6385      65536869 
 6386              	.LASF70:
 6387 063a 43617053 		.ascii	"CapSense_1_ScanEnabledWidgets\000"
 6387      656E7365 
 6387      5F315F53 
ARM GAS  C:\Users\danielpi\AppData\Local\Temp\cccuTXvj.s 			page 161


 6387      63616E45 
 6387      6E61626C 
 6388              	.LASF88:
 6389 0658 43617053 		.ascii	"CapSense_1_GetIDACRange\000"
 6389      656E7365 
 6389      5F315F47 
 6389      65744944 
 6389      41435261 
 6390              	.LASF44:
 6391 0670 70696E4E 		.ascii	"pinNumber\000"
 6391      756D6265 
 6391      7200
 6392              	.LASF41:
 6393 067a 736E7349 		.ascii	"snsIndex\000"
 6393      6E646578 
 6393      00
 6394              	.LASF82:
 6395 0683 43617053 		.ascii	"CapSense_1_GetModulationIDAC\000"
 6395      656E7365 
 6395      5F315F47 
 6395      65744D6F 
 6395      64756C61 
 6396              	.LASF75:
 6397 06a0 6C617374 		.ascii	"lastSensor\000"
 6397      53656E73 
 6397      6F7200
 6398              	.LASF16:
 6399 06ab 72656733 		.ascii	"reg32\000"
 6399      3200
 6400              	.LASF86:
 6401 06b1 43617053 		.ascii	"CapSense_1_SetCompensationIDAC\000"
 6401      656E7365 
 6401      5F315F53 
 6401      6574436F 
 6401      6D70656E 
 6402              	.LASF45:
 6403 06d0 706F7274 		.ascii	"portNumber\000"
 6403      4E756D62 
 6403      657200
 6404              	.LASF100:
 6405 06db 6D617850 		.ascii	"maxPerWidget\000"
 6405      65725769 
 6405      64676574 
 6405      00
 6406              	.LASF31:
 6407 06e8 43617053 		.ascii	"CapSense_1_EnableSensor\000"
 6407      656E7365 
 6407      5F315F45 
 6407      6E61626C 
 6407      6553656E 
 6408              	.LASF78:
 6409 0700 73656E73 		.ascii	"senseClk\000"
 6409      65436C6B 
 6409      00
 6410              	.LASF135:
 6411 0709 43617053 		.ascii	"CapSense_1_AutoTune\000"
 6411      656E7365 
ARM GAS  C:\Users\danielpi\AppData\Local\Temp\cccuTXvj.s 			page 162


 6411      5F315F41 
 6411      75746F54 
 6411      756E6500 
 6412              	.LASF83:
 6413 071d 43617053 		.ascii	"CapSense_1_SetModulationIDAC\000"
 6413      656E7365 
 6413      5F315F53 
 6413      65744D6F 
 6413      64756C61 
 6414              	.LASF2:
 6415 073a 73686F72 		.ascii	"short int\000"
 6415      7420696E 
 6415      7400
 6416              	.LASF131:
 6417 0744 43617053 		.ascii	"CapSense_1_SampleClk_StartEx\000"
 6417      656E7365 
 6417      5F315F53 
 6417      616D706C 
 6417      65436C6B 
 6418              	.LASF4:
 6419 0761 6C6F6E67 		.ascii	"long int\000"
 6419      20696E74 
 6419      00
 6420              	.LASF53:
 6421 076a 64656C61 		.ascii	"delay\000"
 6421      7900
 6422              	.LASF80:
 6423 0770 43617053 		.ascii	"CapSense_1_SetModulatorClkDivider\000"
 6423      656E7365 
 6423      5F315F53 
 6423      65744D6F 
 6423      64756C61 
 6424              	.LASF112:
 6425 0792 43617053 		.ascii	"CapSense_1_senseClkDividerVal\000"
 6425      656E7365 
 6425      5F315F73 
 6425      656E7365 
 6425      436C6B44 
 6426              	.LASF90:
 6427 07b0 69446163 		.ascii	"iDacRange\000"
 6427      52616E67 
 6427      6500
 6428              	.LASF138:
 6429 07ba 2E5C4765 		.ascii	".\\Generated_Source\\PSoC4\\CapSense_1.c\000"
 6429      6E657261 
 6429      7465645F 
 6429      536F7572 
 6429      63655C50 
 6430              	.LASF71:
 6431 07e0 43617053 		.ascii	"CapSense_1_PostScan\000"
 6431      656E7365 
 6431      5F315F50 
 6431      6F737453 
 6431      63616E00 
 6432              	.LASF99:
 6433 07f4 63757272 		.ascii	"currentSensor\000"
 6433      656E7453 
ARM GAS  C:\Users\danielpi\AppData\Local\Temp\cccuTXvj.s 			page 163


 6433      656E736F 
 6433      7200
 6434              	.LASF104:
 6435 0802 43617053 		.ascii	"CapSense_1_sensorIndex\000"
 6435      656E7365 
 6435      5F315F73 
 6435      656E736F 
 6435      72496E64 
 6436              	.LASF89:
 6437 0819 43617053 		.ascii	"CapSense_1_SetIDACRange\000"
 6437      656E7365 
 6437      5F315F53 
 6437      65744944 
 6437      41435261 
 6438              	.LASF87:
 6439 0831 636F6D70 		.ascii	"compIdacValue\000"
 6439      49646163 
 6439      56616C75 
 6439      6500
 6440              	.LASF130:
 6441 083f 43617053 		.ascii	"CapSense_1_SenseClk_SetFractionalDividerRegister\000"
 6441      656E7365 
 6441      5F315F53 
 6441      656E7365 
 6441      436C6B5F 
 6442              	.LASF84:
 6443 0870 6D6F6449 		.ascii	"modIdacValue\000"
 6443      64616356 
 6443      616C7565 
 6443      00
 6444              	.LASF91:
 6445 087d 43617053 		.ascii	"CapSense_1_GetSensorRaw\000"
 6445      656E7365 
 6445      5F315F47 
 6445      65745365 
 6445      6E736F72 
 6446              	.LASF22:
 6447 0895 43617053 		.ascii	"CapSense_1_Stop\000"
 6447      656E7365 
 6447      5F315F53 
 6447      746F7000 
 6448              	.LASF18:
 6449 08a5 73697A65 		.ascii	"sizetype\000"
 6449      74797065 
 6449      00
 6450              	.LASF5:
 6451 08ae 6C6F6E67 		.ascii	"long unsigned int\000"
 6451      20756E73 
 6451      69676E65 
 6451      6420696E 
 6451      7400
 6452              	.LASF139:
 6453 08c0 593A5C72 		.ascii	"Y:\\repos\\PSoC-4-BLE-Experiments\\Project 003 Cust"
 6453      65706F73 
 6453      5C50536F 
 6453      432D342D 
 6453      424C452D 
ARM GAS  C:\Users\danielpi\AppData\Local\Temp\cccuTXvj.s 			page 164


 6454 08f0 6F6D2050 		.ascii	"om Profile CapSense RGB LED\\PSoC\\CapSenseRGB\\Cap"
 6454      726F6669 
 6454      6C652043 
 6454      61705365 
 6454      6E736520 
 6455 0920 53656E73 		.ascii	"SenseRGB.cydsn\000"
 6455      65524742 
 6455      2E637964 
 6455      736E00
 6456              	.LASF52:
 6457 092f 43617053 		.ascii	"CapSense_1_SetShieldDelay\000"
 6457      656E7365 
 6457      5F315F53 
 6457      65745368 
 6457      69656C64 
 6458              	.LASF36:
 6459 0949 706F7274 		.ascii	"port\000"
 6459      00
 6460              	.LASF106:
 6461 094e 43617053 		.ascii	"CapSense_1_unscannedSnsDriveMode\000"
 6461      656E7365 
 6461      5F315F75 
 6461      6E736361 
 6461      6E6E6564 
 6462              	.LASF79:
 6463 096f 43617053 		.ascii	"CapSense_1_GetModulatorClkDivider\000"
 6463      656E7365 
 6463      5F315F47 
 6463      65744D6F 
 6463      64756C61 
 6464              	.LASF19:
 6465 0991 43617053 		.ascii	"CapSense_1_CsdHwBlockInit\000"
 6465      656E7365 
 6465      5F315F43 
 6465      73644877 
 6465      426C6F63 
 6466              	.LASF63:
 6467 09ab 656E4D61 		.ascii	"enMask\000"
 6467      736B00
 6468              	.LASF133:
 6469 09b2 4379496E 		.ascii	"CyIntEnable\000"
 6469      74456E61 
 6469      626C6500 
 6470              	.LASF1:
 6471 09be 756E7369 		.ascii	"unsigned char\000"
 6471      676E6564 
 6471      20636861 
 6471      7200
 6472              	.LASF67:
 6473 09cc 636F756E 		.ascii	"counterResolution\000"
 6473      74657252 
 6473      65736F6C 
 6473      7574696F 
 6473      6E00
 6474              	.LASF94:
 6475 09de 43617053 		.ascii	"CapSense_1_SetUnscannedSensorState\000"
 6475      656E7365 
ARM GAS  C:\Users\danielpi\AppData\Local\Temp\cccuTXvj.s 			page 165


 6475      5F315F53 
 6475      6574556E 
 6475      7363616E 
 6476              	.LASF50:
 6477 0a01 43617053 		.ascii	"CapSense_1_RestoreDriveModeAllPins\000"
 6477      656E7365 
 6477      5F315F52 
 6477      6573746F 
 6477      72654472 
 6478              	.LASF81:
 6479 0a24 6D6F6475 		.ascii	"modulatorClk\000"
 6479      6C61746F 
 6479      72436C6B 
 6479      00
 6480              	.LASF127:
 6481 0a31 43617053 		.ascii	"CapSense_1_SenseClk_Stop\000"
 6481      656E7365 
 6481      5F315F53 
 6481      656E7365 
 6481      436C6B5F 
 6482              	.LASF107:
 6483 0a4a 43617053 		.ascii	"CapSense_1_sensorEnableMaskBackup\000"
 6483      656E7365 
 6483      5F315F73 
 6483      656E736F 
 6483      72456E61 
 6484              	.LASF141:
 6485 0a6c 4379456E 		.ascii	"CyEnterCriticalSection\000"
 6485      74657243 
 6485      72697469 
 6485      63616C53 
 6485      65637469 
 6486              	.LASF0:
 6487 0a83 7369676E 		.ascii	"signed char\000"
 6487      65642063 
 6487      68617200 
 6488              	.LASF97:
 6489 0a8f 64617461 		.ascii	"dataPtr\000"
 6489      50747200 
 6490              	.LASF3:
 6491 0a97 73686F72 		.ascii	"short unsigned int\000"
 6491      7420756E 
 6491      7369676E 
 6491      65642069 
 6491      6E7400
 6492              	.LASF21:
 6493 0aaa 6E657752 		.ascii	"newRegValue\000"
 6493      65675661 
 6493      6C756500 
 6494              	.LASF29:
 6495 0ab6 43617053 		.ascii	"CapSense_1_ReadSensorRaw\000"
 6495      656E7365 
 6495      5F315F52 
 6495      65616453 
 6495      656E736F 
 6496              	.LASF117:
 6497 0acf 43617053 		.ascii	"CapSense_1_prtDRTbl\000"
ARM GAS  C:\Users\danielpi\AppData\Local\Temp\cccuTXvj.s 			page 166


 6497      656E7365 
 6497      5F315F70 
 6497      72744452 
 6497      54626C00 
 6498              	.LASF110:
 6499 0ae3 43617053 		.ascii	"CapSense_1_compensationIDAC\000"
 6499      656E7365 
 6499      5F315F63 
 6499      6F6D7065 
 6499      6E736174 
 6500              	.LASF9:
 6501 0aff 75696E74 		.ascii	"uint8\000"
 6501      3800
 6502              	.LASF13:
 6503 0b05 646F7562 		.ascii	"double\000"
 6503      6C6500
 6504              	.LASF23:
 6505 0b0c 43617053 		.ascii	"CapSense_1_WriteSensorRaw\000"
 6505      656E7365 
 6505      5F315F57 
 6505      72697465 
 6505      53656E73 
 6506              	.LASF47:
 6507 0b26 63757253 		.ascii	"curSensor\000"
 6507      656E736F 
 6507      7200
 6508              	.LASF68:
 6509 0b30 6F766572 		.ascii	"oversamplingFactor\000"
 6509      73616D70 
 6509      6C696E67 
 6509      46616374 
 6509      6F7200
 6510              	.LASF43:
 6511 0b43 64726976 		.ascii	"driveMode\000"
 6511      654D6F64 
 6511      6500
 6512              	.LASF61:
 6513 0b4d 706F7369 		.ascii	"position\000"
 6513      74696F6E 
 6513      00
 6514              	.LASF101:
 6515 0b56 43617053 		.ascii	"CapSense_1_lowLevelTuningDone\000"
 6515      656E7365 
 6515      5F315F6C 
 6515      6F774C65 
 6515      76656C54 
 6516              	.LASF73:
 6517 0b74 43617053 		.ascii	"CapSense_1_ScanWidget\000"
 6517      656E7365 
 6517      5F315F53 
 6517      63616E57 
 6517      69646765 
 6518              		.ident	"GCC: (GNU Tools for ARM Embedded Processors) 4.8.4 20140526 (release) [ARM/embedded-4_8-br
