ARM GAS  C:\Users\danielpi\AppData\Local\Temp\cc1ycywe.s 			page 1


   1              		.cpu cortex-m0
   2              		.fpu softvfp
   3              		.eabi_attribute 20, 1
   4              		.eabi_attribute 21, 1
   5              		.eabi_attribute 23, 3
   6              		.eabi_attribute 24, 1
   7              		.eabi_attribute 25, 1
   8              		.eabi_attribute 26, 1
   9              		.eabi_attribute 30, 1
  10              		.eabi_attribute 34, 0
  11              		.eabi_attribute 18, 4
  12              		.code	16
  13              		.file	"main.c"
  14              		.text
  15              	.Ltext0:
  16              		.cfi_sections	.debug_frame
  17              		.section	.text.bluetoothEventHandler,"ax",%progbits
  18              		.align	2
  19              		.global	bluetoothEventHandler
  20              		.code	16
  21              		.thumb_func
  22              		.type	bluetoothEventHandler, %function
  23              	bluetoothEventHandler:
  24              	.LFB37:
  25              		.file 1 ".\\main.c"
   1:.\main.c      **** /* ========================================
   2:.\main.c      ****  *
   3:.\main.c      ****  * Copyright YOUR COMPANY, THE YEAR
   4:.\main.c      ****  * All Rights Reserved
   5:.\main.c      ****  * UNPUBLISHED, LICENSED SOFTWARE.
   6:.\main.c      ****  *
   7:.\main.c      ****  * CONFIDENTIAL AND PROPRIETARY INFORMATION
   8:.\main.c      ****  * WHICH IS THE PROPERTY OF your company.
   9:.\main.c      ****  *
  10:.\main.c      ****  * ========================================
  11:.\main.c      **** */
  12:.\main.c      **** #include <project.h>
  13:.\main.c      **** #include <main.h>
  14:.\main.c      **** 
  15:.\main.c      **** #define TRUE 	(1)
  16:.\main.c      **** #define FALSE 	(0)
  17:.\main.c      **** 
  18:.\main.c      **** uint8 deviceConnected = FALSE;
  19:.\main.c      **** 
  20:.\main.c      **** 
  21:.\main.c      **** int main()
  22:.\main.c      **** {
  23:.\main.c      ****     initializeSystem();
  24:.\main.c      **** 
  25:.\main.c      ****     for(;;)
  26:.\main.c      ****     {
  27:.\main.c      ****         /* Place your application code here. */
  28:.\main.c      ****         CyBle_ProcessEvents();
  29:.\main.c      ****         
  30:.\main.c      ****         
  31:.\main.c      ****     }
  32:.\main.c      **** }
ARM GAS  C:\Users\danielpi\AppData\Local\Temp\cc1ycywe.s 			page 2


  33:.\main.c      **** 
  34:.\main.c      **** void initializeSystem() {
  35:.\main.c      **** 	// Init Processor
  36:.\main.c      **** 	CyGlobalIntEnable; // What is this? Not a function call.
  37:.\main.c      **** 	
  38:.\main.c      **** 	
  39:.\main.c      **** 	// Init BLE component
  40:.\main.c      **** 	CyBle_Start(bluetoothEventHandler);
  41:.\main.c      **** 	
  42:.\main.c      **** 	
  43:.\main.c      **** 	// Init LED
  44:.\main.c      **** 	// Start the PrISM components
  45:.\main.c      **** 	RedGreenPrISM_Start();
  46:.\main.c      **** 	BluePrISM_Start();
  47:.\main.c      **** 	
  48:.\main.c      **** 	// The RGB LEDs are active low. Drive HIGH on pin to turn
  49:.\main.c      **** 	// the LED off.
  50:.\main.c      **** 	RedGreenPrISM_WritePulse0(255);
  51:.\main.c      **** 	RedGreenPrISM_WritePulse1(255);
  52:.\main.c      **** 	BluePrISM_WritePulse0(255);
  53:.\main.c      **** 	
  54:.\main.c      **** 	// Set the drive mode of the output pins from HiZ to Strong
  55:.\main.c      **** 	// Is this to stop the LED from blinking on power up???
  56:.\main.c      **** 	RED_SetDriveMode(RED_DM_STRONG);
  57:.\main.c      **** 	GREEN_SetDriveMode(GREEN_DM_STRONG);
  58:.\main.c      **** 	BLUE_SetDriveMode(BLUE_DM_STRONG);
  59:.\main.c      **** 	
  60:.\main.c      **** 	
  61:.\main.c      **** 	// Init CapSense
  62:.\main.c      **** 	Slider_Start();
  63:.\main.c      **** 	Slider_InitializeAllBaselines();
  64:.\main.c      **** }
  65:.\main.c      **** 
  66:.\main.c      **** void bluetoothEventHandler(uint32 event, void * eventParam) {
  26              		.loc 1 66 0
  27              		.cfi_startproc
  28              	.LVL0:
  29 0000 08B5     		push	{r3, lr}
  30              		.cfi_def_cfa_offset 8
  31              		.cfi_offset 3, -8
  32              		.cfi_offset 14, -4
  67:.\main.c      ****     switch(event) {
  33              		.loc 1 67 0
  34 0002 2828     		cmp	r0, #40
  35 0004 0AD0     		beq	.L3
  36 0006 04D8     		bhi	.L4
  37 0008 0128     		cmp	r0, #1
  38 000a 07D0     		beq	.L3
  39 000c 2628     		cmp	r0, #38
  40 000e 09D0     		beq	.L5
  41 0010 17E0     		b	.L1
  42              	.L4:
  43 0012 4128     		cmp	r0, #65
  44 0014 0ED0     		beq	.L6
  45 0016 4228     		cmp	r0, #66
  46 0018 10D0     		beq	.L7
  47 001a 12E0     		b	.L1
ARM GAS  C:\Users\danielpi\AppData\Local\Temp\cc1ycywe.s 			page 3


  48              	.L3:
  68:.\main.c      ****     	case CYBLE_EVT_STACK_ON:
  69:.\main.c      **** 		case CYBLE_EVT_GAP_DEVICE_DISCONNECTED:
  70:.\main.c      **** 			// Start advertising and enter discoverable mode
  71:.\main.c      **** 			CyBle_GappStartAdvertisement(CYBLE_ADVERTISING_FAST);
  49              		.loc 1 71 0
  50 001c 0020     		mov	r0, #0
  51              	.LVL1:
  52 001e FFF7FEFF 		bl	CyBle_GappStartAdvertisement
  53              	.LVL2:
  72:.\main.c      **** 			break;
  54              		.loc 1 72 0
  55 0022 0EE0     		b	.L1
  56              	.LVL3:
  57              	.L5:
  73:.\main.c      **** 			
  74:.\main.c      **** 		case CYBLE_EVT_GAPP_ADVERTISEMENT_START_STOP:
  75:.\main.c      **** 			// When advertising stops and we aren't connected to
  76:.\main.c      **** 			// to a computer we want to restart advertising
  77:.\main.c      **** 			if (CYBLE_STATE_DISCONNECTED == CyBle_GetState()) {
  58              		.loc 1 77 0
  59 0024 074B     		ldr	r3, .L8
  60 0026 1B78     		ldrb	r3, [r3]
  61 0028 042B     		cmp	r3, #4
  62 002a 0AD1     		bne	.L1
  78:.\main.c      **** 				CyBle_GappStartAdvertisement(CYBLE_ADVERTISING_FAST);
  63              		.loc 1 78 0
  64 002c 0020     		mov	r0, #0
  65              	.LVL4:
  66 002e FFF7FEFF 		bl	CyBle_GappStartAdvertisement
  67              	.LVL5:
  68 0032 06E0     		b	.L1
  69              	.LVL6:
  70              	.L6:
  79:.\main.c      **** 			}
  80:.\main.c      **** 			break;
  81:.\main.c      **** 			
  82:.\main.c      **** 		case CYBLE_EVT_GATT_CONNECT_IND:
  83:.\main.c      **** 			// This flag is used to keep track of the current state
  84:.\main.c      **** 			// of the connection.
  85:.\main.c      **** 			deviceConnected = TRUE;
  71              		.loc 1 85 0
  72 0034 0122     		mov	r2, #1
  73 0036 044B     		ldr	r3, .L8+4
  74 0038 1A70     		strb	r2, [r3]
  86:.\main.c      **** 			break;
  75              		.loc 1 86 0
  76 003a 02E0     		b	.L1
  77              	.L7:
  87:.\main.c      **** 			
  88:.\main.c      **** 		case CYBLE_EVT_GATT_DISCONNECT_IND:
  89:.\main.c      **** 			deviceConnected = FALSE;
  78              		.loc 1 89 0
  79 003c 0022     		mov	r2, #0
  80 003e 024B     		ldr	r3, .L8+4
  81 0040 1A70     		strb	r2, [r3]
  82              	.LVL7:
ARM GAS  C:\Users\danielpi\AppData\Local\Temp\cc1ycywe.s 			page 4


  83              	.L1:
  90:.\main.c      **** 			
  91:.\main.c      **** 			// Reset the CapSense notification
  92:.\main.c      **** 			// Reset the CCD value
  93:.\main.c      **** 			
  94:.\main.c      **** 			// Reset the color coordinates
  95:.\main.c      **** 			break;
  96:.\main.c      **** 			
  97:.\main.c      ****     }
  98:.\main.c      **** }
  84              		.loc 1 98 0
  85              		@ sp needed
  86 0042 08BD     		pop	{r3, pc}
  87              	.L9:
  88              		.align	2
  89              	.L8:
  90 0044 00000000 		.word	cyBle_state
  91 0048 00000000 		.word	.LANCHOR0
  92              		.cfi_endproc
  93              	.LFE37:
  94              		.size	bluetoothEventHandler, .-bluetoothEventHandler
  95              		.section	.text.initializeSystem,"ax",%progbits
  96              		.align	2
  97              		.global	initializeSystem
  98              		.code	16
  99              		.thumb_func
 100              		.type	initializeSystem, %function
 101              	initializeSystem:
 102              	.LFB36:
  34:.\main.c      **** void initializeSystem() {
 103              		.loc 1 34 0
 104              		.cfi_startproc
 105 0000 08B5     		push	{r3, lr}
 106              		.cfi_def_cfa_offset 8
 107              		.cfi_offset 3, -8
 108              		.cfi_offset 14, -4
  36:.\main.c      **** 	CyGlobalIntEnable; // What is this? Not a function call.
 109              		.loc 1 36 0
 110              	@ 36 ".\main.c" 1
 111 0002 62B6     		CPSIE   i
 112              	@ 0 "" 2
  40:.\main.c      **** 	CyBle_Start(bluetoothEventHandler);
 113              		.loc 1 40 0
 114              		.code	16
 115 0004 0E48     		ldr	r0, .L11
 116 0006 FFF7FEFF 		bl	CyBle_Start
 117              	.LVL8:
  45:.\main.c      **** 	RedGreenPrISM_Start();
 118              		.loc 1 45 0
 119 000a FFF7FEFF 		bl	RedGreenPrISM_Start
 120              	.LVL9:
  46:.\main.c      **** 	BluePrISM_Start();
 121              		.loc 1 46 0
 122 000e FFF7FEFF 		bl	BluePrISM_Start
 123              	.LVL10:
  50:.\main.c      **** 	RedGreenPrISM_WritePulse0(255);
 124              		.loc 1 50 0
ARM GAS  C:\Users\danielpi\AppData\Local\Temp\cc1ycywe.s 			page 5


 125 0012 FF20     		mov	r0, #255
 126 0014 FFF7FEFF 		bl	RedGreenPrISM_WritePulse0
 127              	.LVL11:
  51:.\main.c      **** 	RedGreenPrISM_WritePulse1(255);
 128              		.loc 1 51 0
 129 0018 FF20     		mov	r0, #255
 130 001a FFF7FEFF 		bl	RedGreenPrISM_WritePulse1
 131              	.LVL12:
  52:.\main.c      **** 	BluePrISM_WritePulse0(255);
 132              		.loc 1 52 0
 133 001e FF20     		mov	r0, #255
 134 0020 FFF7FEFF 		bl	BluePrISM_WritePulse0
 135              	.LVL13:
  56:.\main.c      **** 	RED_SetDriveMode(RED_DM_STRONG);
 136              		.loc 1 56 0
 137 0024 0620     		mov	r0, #6
 138 0026 FFF7FEFF 		bl	RED_SetDriveMode
 139              	.LVL14:
  57:.\main.c      **** 	GREEN_SetDriveMode(GREEN_DM_STRONG);
 140              		.loc 1 57 0
 141 002a 0620     		mov	r0, #6
 142 002c FFF7FEFF 		bl	GREEN_SetDriveMode
 143              	.LVL15:
  58:.\main.c      **** 	BLUE_SetDriveMode(BLUE_DM_STRONG);
 144              		.loc 1 58 0
 145 0030 0620     		mov	r0, #6
 146 0032 FFF7FEFF 		bl	BLUE_SetDriveMode
 147              	.LVL16:
  62:.\main.c      **** 	Slider_Start();
 148              		.loc 1 62 0
 149 0036 FFF7FEFF 		bl	Slider_Start
 150              	.LVL17:
  63:.\main.c      **** 	Slider_InitializeAllBaselines();
 151              		.loc 1 63 0
 152 003a FFF7FEFF 		bl	Slider_InitializeAllBaselines
 153              	.LVL18:
  64:.\main.c      **** }
 154              		.loc 1 64 0
 155              		@ sp needed
 156 003e 08BD     		pop	{r3, pc}
 157              	.L12:
 158              		.align	2
 159              	.L11:
 160 0040 00000000 		.word	bluetoothEventHandler
 161              		.cfi_endproc
 162              	.LFE36:
 163              		.size	initializeSystem, .-initializeSystem
 164              		.section	.text.main,"ax",%progbits
 165              		.align	2
 166              		.global	main
 167              		.code	16
 168              		.thumb_func
 169              		.type	main, %function
 170              	main:
 171              	.LFB35:
  22:.\main.c      **** {
 172              		.loc 1 22 0
ARM GAS  C:\Users\danielpi\AppData\Local\Temp\cc1ycywe.s 			page 6


 173              		.cfi_startproc
 174 0000 08B5     		push	{r3, lr}
 175              		.cfi_def_cfa_offset 8
 176              		.cfi_offset 3, -8
 177              		.cfi_offset 14, -4
  23:.\main.c      ****     initializeSystem();
 178              		.loc 1 23 0
 179 0002 FFF7FEFF 		bl	initializeSystem
 180              	.LVL19:
 181              	.L14:
  28:.\main.c      ****         CyBle_ProcessEvents();
 182              		.loc 1 28 0 discriminator 1
 183 0006 FFF7FEFF 		bl	CyBle_ProcessEvents
 184              	.LVL20:
 185 000a FCE7     		b	.L14
 186              		.cfi_endproc
 187              	.LFE35:
 188              		.size	main, .-main
 189              		.global	deviceConnected
 190              		.bss
 191              		.set	.LANCHOR0,. + 0
 192              		.type	deviceConnected, %object
 193              		.size	deviceConnected, 1
 194              	deviceConnected:
 195 0000 00       		.space	1
 196              		.text
 197              	.Letext0:
 198              		.file 2 "Generated_Source\\PSoC4/cytypes.h"
 199              		.file 3 "Generated_Source\\PSoC4/BLE_Stack.h"
 200              		.file 4 "Generated_Source\\PSoC4/BLE.h"
 201              		.file 5 "Generated_Source\\PSoC4/BLE_eventHandler.h"
 202              		.file 6 "Generated_Source\\PSoC4/RedGreenPrISM.h"
 203              		.file 7 "Generated_Source\\PSoC4/BluePrISM.h"
 204              		.file 8 "Generated_Source\\PSoC4/RED.h"
 205              		.file 9 "Generated_Source\\PSoC4/GREEN.h"
 206              		.file 10 "Generated_Source\\PSoC4/BLUE.h"
 207              		.file 11 "Generated_Source\\PSoC4/Slider.h"
 208              		.file 12 "Generated_Source\\PSoC4/Slider_CSHL.h"