ARM GAS  C:\Users\ELECTR~1\AppData\Local\Temp\ccgiaJs0.s 			page 1


   1              		.cpu cortex-m0
   2              		.fpu softvfp
   3              		.eabi_attribute 20, 1
   4              		.eabi_attribute 21, 1
   5              		.eabi_attribute 23, 3
   6              		.eabi_attribute 24, 1
   7              		.eabi_attribute 25, 1
   8              		.eabi_attribute 26, 1
   9              		.eabi_attribute 30, 1
  10              		.eabi_attribute 34, 0
  11              		.eabi_attribute 18, 4
  12              		.code	16
  13              		.file	"BLE.c"
  14              		.text
  15              	.Ltext0:
  16              		.cfi_sections	.debug_frame
  17              		.section	.text.CyBle_ChangeAdLocalName,"ax",%progbits
  18              		.align	2
  19              		.code	16
  20              		.thumb_func
  21              		.type	CyBle_ChangeAdLocalName, %function
  22              	CyBle_ChangeAdLocalName:
  23              	.LFB10:
  24              		.file 1 ".\\Generated_Source\\PSoC4\\BLE.c"
   1:.\Generated_Source\PSoC4/BLE.c **** /*******************************************************************************
   2:.\Generated_Source\PSoC4/BLE.c **** File Name: CYBLE.c
   3:.\Generated_Source\PSoC4/BLE.c **** Version 2.10
   4:.\Generated_Source\PSoC4/BLE.c **** 
   5:.\Generated_Source\PSoC4/BLE.c **** Description:
   6:.\Generated_Source\PSoC4/BLE.c ****  This file contains the source code for the Common APIs of the BLE Component.
   7:.\Generated_Source\PSoC4/BLE.c **** 
   8:.\Generated_Source\PSoC4/BLE.c **** ********************************************************************************
   9:.\Generated_Source\PSoC4/BLE.c **** Copyright 2014-2015, Cypress Semiconductor Corporation.  All rights reserved.
  10:.\Generated_Source\PSoC4/BLE.c **** You may use this file only in accordance with the license, terms, conditions,
  11:.\Generated_Source\PSoC4/BLE.c **** disclaimers, and limitations in the end user license agreement accompanying
  12:.\Generated_Source\PSoC4/BLE.c **** the software package with which this file was provided.
  13:.\Generated_Source\PSoC4/BLE.c **** *******************************************************************************/
  14:.\Generated_Source\PSoC4/BLE.c **** 
  15:.\Generated_Source\PSoC4/BLE.c **** #include "BLE_eventHandler.h"
  16:.\Generated_Source\PSoC4/BLE.c **** #include "BLE_HAL_PVT.h"
  17:.\Generated_Source\PSoC4/BLE.c **** 
  18:.\Generated_Source\PSoC4/BLE.c **** 
  19:.\Generated_Source\PSoC4/BLE.c **** /***************************************
  20:.\Generated_Source\PSoC4/BLE.c **** ##Function Prototypes
  21:.\Generated_Source\PSoC4/BLE.c **** ***************************************/
  22:.\Generated_Source\PSoC4/BLE.c **** 
  23:.\Generated_Source\PSoC4/BLE.c **** #if(CYBLE_GATT_ROLE_SERVER)
  24:.\Generated_Source\PSoC4/BLE.c ****     #if(CYBLE_GAP_ROLE_PERIPHERAL)
  25:.\Generated_Source\PSoC4/BLE.c ****         static void CyBle_ChangeAdLocalName(const char8 name[], uint8 dest);
  26:.\Generated_Source\PSoC4/BLE.c ****     #endif /* (CYBLE_GAP_ROLE_PERIPHERAL) */
  27:.\Generated_Source\PSoC4/BLE.c **** #endif /* (CYBLE_GATT_ROLE_SERVER) */
  28:.\Generated_Source\PSoC4/BLE.c ****     
  29:.\Generated_Source\PSoC4/BLE.c **** 
  30:.\Generated_Source\PSoC4/BLE.c **** /***************************************
  31:.\Generated_Source\PSoC4/BLE.c **** ##Global Variables
  32:.\Generated_Source\PSoC4/BLE.c **** ***************************************/
  33:.\Generated_Source\PSoC4/BLE.c **** 
ARM GAS  C:\Users\ELECTR~1\AppData\Local\Temp\ccgiaJs0.s 			page 2


  34:.\Generated_Source\PSoC4/BLE.c **** /* Indicates whether the BLE has been initialized. The variable is initialized to
  35:.\Generated_Source\PSoC4/BLE.c ****    0 and set to 1 the first time CyBle_Start() is called. This allows the component
  36:.\Generated_Source\PSoC4/BLE.c ****    to restart without reinitialization after the first call to the CyBle_Start() 
  37:.\Generated_Source\PSoC4/BLE.c ****    routine. If reinitialization of the component is required, the variable should 
  38:.\Generated_Source\PSoC4/BLE.c ****    be set to 0 before the CyBle_Start() routine is called. Alternatively, the BLE
  39:.\Generated_Source\PSoC4/BLE.c ****    can be reinitialized by calling the CyBle_Init() function.
  40:.\Generated_Source\PSoC4/BLE.c **** */
  41:.\Generated_Source\PSoC4/BLE.c **** uint8  cyBle_initVar = 0u;
  42:.\Generated_Source\PSoC4/BLE.c **** 
  43:.\Generated_Source\PSoC4/BLE.c **** /* Allocate RAM memory for stack. This buffer could be reused by application when 
  44:.\Generated_Source\PSoC4/BLE.c ****    BLE component is stopped. 
  45:.\Generated_Source\PSoC4/BLE.c **** */
  46:.\Generated_Source\PSoC4/BLE.c **** CYBLE_CYALIGNED_BEGIN uint8 cyBle_stackMemoryRam[CYBLE_STACK_RAM_SIZE] CYBLE_CYALIGNED_END;
  47:.\Generated_Source\PSoC4/BLE.c **** 
  48:.\Generated_Source\PSoC4/BLE.c **** #if(CYBLE_GAP_ROLE_PERIPHERAL || CYBLE_GAP_ROLE_BROADCASTER)
  49:.\Generated_Source\PSoC4/BLE.c **** 
  50:.\Generated_Source\PSoC4/BLE.c **** CYBLE_GAPP_DISC_PARAM_T cyBle_discoveryParam =
  51:.\Generated_Source\PSoC4/BLE.c **** {
  52:.\Generated_Source\PSoC4/BLE.c ****     0x0140u,    /* uint16 advertising_interval_min */
  53:.\Generated_Source\PSoC4/BLE.c ****     0x01E0u,    /* uint16 advertising_interval_max */
  54:.\Generated_Source\PSoC4/BLE.c ****     CYBLE_GAPP_CONNECTABLE_UNDIRECTED_ADV, /* uint8 advertising_type */
  55:.\Generated_Source\PSoC4/BLE.c ****     0x00u,      /* uint8 own_addr_type */
  56:.\Generated_Source\PSoC4/BLE.c ****     0x00u,      /* uint8 direct_addr_type */
  57:.\Generated_Source\PSoC4/BLE.c ****     {0x00u, 0x00u, 0x00u, 0x50u, 0xA0u, 0x00u}, /* uint8* direct_addr */
  58:.\Generated_Source\PSoC4/BLE.c ****     0x07u,      /* uint8 advertising_channel_map */
  59:.\Generated_Source\PSoC4/BLE.c ****     0x00u,      /* uint8 advertising_filter_policy */
  60:.\Generated_Source\PSoC4/BLE.c **** };
  61:.\Generated_Source\PSoC4/BLE.c **** 
  62:.\Generated_Source\PSoC4/BLE.c **** CYBLE_GAPP_DISC_DATA_T cyBle_discoveryData =
  63:.\Generated_Source\PSoC4/BLE.c **** {
  64:.\Generated_Source\PSoC4/BLE.c ****     { 0x02u, 0x01u, 0x06u, 0x0Du, 0x09u, 0x50u, 0x53u,
  65:.\Generated_Source\PSoC4/BLE.c ****     0x6Fu, 0x43u, 0x20u, 0x50u, 0x69u, 0x6Fu, 0x6Eu, 0x65u,
  66:.\Generated_Source\PSoC4/BLE.c ****     0x65u, 0x72u, 0x05u, 0x03u, 0xB5u, 0xCAu, 0xBBu, 0xCBu,
  67:.\Generated_Source\PSoC4/BLE.c ****     0x00u, 0x00u, 0x00u, 0x00u, 0x00u, 0x00u, 0x00u, 0x00u }, /* uint8 advertising_data[CYBLE_MAX_A
  68:.\Generated_Source\PSoC4/BLE.c ****     0x17u,      /* uint8 adv_data_length */
  69:.\Generated_Source\PSoC4/BLE.c **** };
  70:.\Generated_Source\PSoC4/BLE.c **** 
  71:.\Generated_Source\PSoC4/BLE.c **** CYBLE_GAPP_SCAN_RSP_DATA_T cyBle_scanRspData =
  72:.\Generated_Source\PSoC4/BLE.c **** {
  73:.\Generated_Source\PSoC4/BLE.c ****     { 0x07u, 0x16u, 0xBBu, 0xCBu, 0xFFu, 0xFFu, 0xFFu,
  74:.\Generated_Source\PSoC4/BLE.c ****     0xFFu, 0x00u, 0x00u, 0x00u, 0x00u, 0x00u, 0x00u, 0x00u,
  75:.\Generated_Source\PSoC4/BLE.c ****     0x00u, 0x00u, 0x00u, 0x00u, 0x00u, 0x00u, 0x00u, 0x00u,
  76:.\Generated_Source\PSoC4/BLE.c ****     0x00u, 0x00u, 0x00u, 0x00u, 0x00u, 0x00u, 0x00u, 0x00u }, /* uint8 scan_rsp_data[CYBLE_MAX_SCAN
  77:.\Generated_Source\PSoC4/BLE.c ****     0x08u,      /* uint8 scan_rsp_data_length */
  78:.\Generated_Source\PSoC4/BLE.c **** };
  79:.\Generated_Source\PSoC4/BLE.c **** 
  80:.\Generated_Source\PSoC4/BLE.c **** /* This variable of type CYBLE_GAPP_DISC_MODE_INFO_T is present only when 
  81:.\Generated_Source\PSoC4/BLE.c ****    the BLE component is configured for Peripheral GAP role or Central and 
  82:.\Generated_Source\PSoC4/BLE.c ****    Peripheral GAP role. It contains the Advertisement settings and also the 
  83:.\Generated_Source\PSoC4/BLE.c ****    Advertisement and Scan response data parameters entered in the customizer.
  84:.\Generated_Source\PSoC4/BLE.c ****    This variable can be used by advanced users to change Advertisement settings,
  85:.\Generated_Source\PSoC4/BLE.c ****    Advertisement or Scan response data in runtime. 
  86:.\Generated_Source\PSoC4/BLE.c **** */
  87:.\Generated_Source\PSoC4/BLE.c **** CYBLE_GAPP_DISC_MODE_INFO_T cyBle_discoveryModeInfo =
  88:.\Generated_Source\PSoC4/BLE.c **** {
  89:.\Generated_Source\PSoC4/BLE.c ****     0x02u,      /* uint8 discMode */
  90:.\Generated_Source\PSoC4/BLE.c ****     &cyBle_discoveryParam,
ARM GAS  C:\Users\ELECTR~1\AppData\Local\Temp\ccgiaJs0.s 			page 3


  91:.\Generated_Source\PSoC4/BLE.c ****     &cyBle_discoveryData,
  92:.\Generated_Source\PSoC4/BLE.c ****     &cyBle_scanRspData,
  93:.\Generated_Source\PSoC4/BLE.c ****     0x0078u,    /* uint16 advTo */
  94:.\Generated_Source\PSoC4/BLE.c **** };
  95:.\Generated_Source\PSoC4/BLE.c **** 
  96:.\Generated_Source\PSoC4/BLE.c **** 
  97:.\Generated_Source\PSoC4/BLE.c **** #endif /* CYBLE_GAP_ROLE_PERIPHERAL || CYBLE_GAP_ROLE_BROADCASTER */
  98:.\Generated_Source\PSoC4/BLE.c **** 
  99:.\Generated_Source\PSoC4/BLE.c **** #if(CYBLE_GAP_ROLE_CENTRAL)
 100:.\Generated_Source\PSoC4/BLE.c ****     
 101:.\Generated_Source\PSoC4/BLE.c **** CYBLE_GAPC_CONN_PARAM_T cyBle_connectionParameters;
 102:.\Generated_Source\PSoC4/BLE.c **** 
 103:.\Generated_Source\PSoC4/BLE.c **** /* Connecting timeout is set to 30 seconds in CyBle_Init function. 
 104:.\Generated_Source\PSoC4/BLE.c ****    Not zero value starts timer in CyBle_GapcConnectDevice API.
 105:.\Generated_Source\PSoC4/BLE.c **** */
 106:.\Generated_Source\PSoC4/BLE.c **** uint16 cyBle_connectingTimeout;
 107:.\Generated_Source\PSoC4/BLE.c ****     
 108:.\Generated_Source\PSoC4/BLE.c **** #endif /* CYBLE_GAP_ROLE_CENTRAL */
 109:.\Generated_Source\PSoC4/BLE.c **** 
 110:.\Generated_Source\PSoC4/BLE.c **** #if(CYBLE_GAP_ROLE_CENTRAL || CYBLE_GAP_ROLE_OBSERVER)
 111:.\Generated_Source\PSoC4/BLE.c ****     
 112:.\Generated_Source\PSoC4/BLE.c **** 
 113:.\Generated_Source\PSoC4/BLE.c ****     
 114:.\Generated_Source\PSoC4/BLE.c **** #endif /* CYBLE_GAP_ROLE_CENTRAL || CYBLE_GAP_ROLE_OBSERVER */
 115:.\Generated_Source\PSoC4/BLE.c **** 
 116:.\Generated_Source\PSoC4/BLE.c **** #if((CYBLE_GAP_ROLE_PERIPHERAL || CYBLE_GAP_ROLE_CENTRAL) && (CYBLE_BONDING_REQUIREMENT == CYBLE_BO
 117:.\Generated_Source\PSoC4/BLE.c **** 
 118:.\Generated_Source\PSoC4/BLE.c **** uint8 cyBle_pendingFlashWrite;
 119:.\Generated_Source\PSoC4/BLE.c ****     
 120:.\Generated_Source\PSoC4/BLE.c **** #endif  /* (CYBLE_BONDING_REQUIREMENT == CYBLE_BONDING_YES) */
 121:.\Generated_Source\PSoC4/BLE.c **** 
 122:.\Generated_Source\PSoC4/BLE.c **** CYBLE_CALLBACK_T CyBle_ApplCallback;
 123:.\Generated_Source\PSoC4/BLE.c **** CYBLE_GAP_BD_ADDR_T cyBle_deviceAddress = {{0x00u, 0x00u, 0x00u, 0x50u, 0xA0u, 0x00u}, 0x00u };
 124:.\Generated_Source\PSoC4/BLE.c **** CYBLE_GAP_BD_ADDR_T * cyBle_sflashDeviceAddress = CYBLE_SFLASH_DEVICE_ADDRESS_PTR;
 125:.\Generated_Source\PSoC4/BLE.c **** 
 126:.\Generated_Source\PSoC4/BLE.c **** #if(CYBLE_MODE_PROFILE)
 127:.\Generated_Source\PSoC4/BLE.c ****     #if defined(__ARMCC_VERSION)
 128:.\Generated_Source\PSoC4/BLE.c ****         CY_ALIGN(CYDEV_FLS_ROW_SIZE) const uint8 cyBle_StackFlashptr[CYBLE_STACK_FLASH_SIZE] = {0u}
 129:.\Generated_Source\PSoC4/BLE.c ****     #elif defined (__GNUC__)
 130:.\Generated_Source\PSoC4/BLE.c ****         const uint8 cyBle_StackFlashptr[CYBLE_STACK_FLASH_SIZE] CY_ALIGN(CYDEV_FLS_ROW_SIZE) = {0u}
 131:.\Generated_Source\PSoC4/BLE.c ****     #elif defined (__ICCARM__)
 132:.\Generated_Source\PSoC4/BLE.c ****         #pragma data_alignment=CY_FLASH_SIZEOF_ROW
 133:.\Generated_Source\PSoC4/BLE.c ****         const uint8 cyBle_StackFlashptr[CYBLE_STACK_FLASH_SIZE] = {0u};
 134:.\Generated_Source\PSoC4/BLE.c ****     #endif  /* (__ARMCC_VERSION) */
 135:.\Generated_Source\PSoC4/BLE.c **** #endif /* (CYBLE_MODE_PROFILE) */
 136:.\Generated_Source\PSoC4/BLE.c **** 
 137:.\Generated_Source\PSoC4/BLE.c **** 
 138:.\Generated_Source\PSoC4/BLE.c **** /******************************************************************************
 139:.\Generated_Source\PSoC4/BLE.c **** ##Function Name: CyBle_Init
 140:.\Generated_Source\PSoC4/BLE.c **** *******************************************************************************
 141:.\Generated_Source\PSoC4/BLE.c ****  Summary:
 142:.\Generated_Source\PSoC4/BLE.c ****   Initializes the component with the parameters set in the customizer.
 143:.\Generated_Source\PSoC4/BLE.c **** 
 144:.\Generated_Source\PSoC4/BLE.c ****  Parameters:
 145:.\Generated_Source\PSoC4/BLE.c ****   None
 146:.\Generated_Source\PSoC4/BLE.c **** 
 147:.\Generated_Source\PSoC4/BLE.c ****  Return:
ARM GAS  C:\Users\ELECTR~1\AppData\Local\Temp\ccgiaJs0.s 			page 4


 148:.\Generated_Source\PSoC4/BLE.c ****   None
 149:.\Generated_Source\PSoC4/BLE.c **** 
 150:.\Generated_Source\PSoC4/BLE.c **** ******************************************************************************/
 151:.\Generated_Source\PSoC4/BLE.c **** void CyBle_Init(void)
 152:.\Generated_Source\PSoC4/BLE.c **** {
 153:.\Generated_Source\PSoC4/BLE.c ****     cyBle_eventHandlerFlag = 0u;
 154:.\Generated_Source\PSoC4/BLE.c ****     cyBle_busyStatus = CYBLE_STACK_STATE_FREE;
 155:.\Generated_Source\PSoC4/BLE.c ****     
 156:.\Generated_Source\PSoC4/BLE.c ****     #if(CYBLE_GAP_ROLE_PERIPHERAL || CYBLE_GAP_ROLE_BROADCASTER) 
 157:.\Generated_Source\PSoC4/BLE.c ****         cyBle_advertisingIntervalType = CYBLE_ADVERTISING_FAST; 
 158:.\Generated_Source\PSoC4/BLE.c ****     #endif /* (CYBLE_GAP_ROLE_PERIPHERAL || CYBLE_GAP_ROLE_BROADCASTER)  */
 159:.\Generated_Source\PSoC4/BLE.c ****     #if(CYBLE_GAP_ROLE_CENTRAL || CYBLE_GAP_ROLE_OBSERVER)
 160:.\Generated_Source\PSoC4/BLE.c ****         cyBle_scanningIntervalType = CYBLE_SCANNING_FAST; 
 161:.\Generated_Source\PSoC4/BLE.c ****     #endif /* (CYBLE_GAP_ROLE_CENTRAL || CYBLE_GAP_ROLE_OBSERVER) */
 162:.\Generated_Source\PSoC4/BLE.c ****         
 163:.\Generated_Source\PSoC4/BLE.c ****     /* Init default connection parameters. 
 164:.\Generated_Source\PSoC4/BLE.c ****        Application may change it before initiating a connection */
 165:.\Generated_Source\PSoC4/BLE.c ****     #if(CYBLE_GAP_ROLE_CENTRAL)
 166:.\Generated_Source\PSoC4/BLE.c ****         cyBle_connectionParameters.scanIntv = cyBle_discoveryInfo.scanIntv;
 167:.\Generated_Source\PSoC4/BLE.c ****         cyBle_connectionParameters.scanWindow = cyBle_discoveryInfo.scanWindow;
 168:.\Generated_Source\PSoC4/BLE.c ****         cyBle_connectionParameters.ownAddrType = cyBle_discoveryInfo.ownAddrType;
 169:.\Generated_Source\PSoC4/BLE.c ****         cyBle_connectionParameters.initiatorFilterPolicy = cyBle_discoveryInfo.scanFilterPolicy;
 170:.\Generated_Source\PSoC4/BLE.c ****         cyBle_connectionParameters.connIntvMin = CYBLE_GAPC_CONNECTION_INTERVAL_MIN;
 171:.\Generated_Source\PSoC4/BLE.c ****         cyBle_connectionParameters.connIntvMax = CYBLE_GAPC_CONNECTION_INTERVAL_MAX;
 172:.\Generated_Source\PSoC4/BLE.c ****         cyBle_connectionParameters.connLatency = CYBLE_GAPC_CONNECTION_SLAVE_LATENCY;
 173:.\Generated_Source\PSoC4/BLE.c ****         cyBle_connectionParameters.supervisionTO = CYBLE_GAPC_CONNECTION_TIME_OUT;
 174:.\Generated_Source\PSoC4/BLE.c ****         cyBle_connectionParameters.minCeLength = 0x0000u;
 175:.\Generated_Source\PSoC4/BLE.c ****         cyBle_connectionParameters.maxCeLength = 0xFFFFu;
 176:.\Generated_Source\PSoC4/BLE.c ****         
 177:.\Generated_Source\PSoC4/BLE.c ****         cyBle_connectingTimeout = CYBLE_GAPC_CONNECTING_TIMEOUT;
 178:.\Generated_Source\PSoC4/BLE.c ****     #endif /* CYBLE_GAP_ROLE_CENTRAL */
 179:.\Generated_Source\PSoC4/BLE.c **** 
 180:.\Generated_Source\PSoC4/BLE.c ****     CyBle_ServiceInit();
 181:.\Generated_Source\PSoC4/BLE.c **** 
 182:.\Generated_Source\PSoC4/BLE.c **** #if((CYBLE_GAP_ROLE_PERIPHERAL || CYBLE_GAP_ROLE_CENTRAL) && (CYBLE_BONDING_REQUIREMENT == CYBLE_BO
 183:.\Generated_Source\PSoC4/BLE.c ****     cyBle_pendingFlashWrite = 0u;
 184:.\Generated_Source\PSoC4/BLE.c **** #endif  /* (CYBLE_BONDING_REQUIREMENT == CYBLE_BONDING_YES) */
 185:.\Generated_Source\PSoC4/BLE.c **** 
 186:.\Generated_Source\PSoC4/BLE.c **** }
 187:.\Generated_Source\PSoC4/BLE.c **** 
 188:.\Generated_Source\PSoC4/BLE.c **** 
 189:.\Generated_Source\PSoC4/BLE.c **** /******************************************************************************
 190:.\Generated_Source\PSoC4/BLE.c **** ##Function Name: CyBle_ServiceInit
 191:.\Generated_Source\PSoC4/BLE.c **** *******************************************************************************
 192:.\Generated_Source\PSoC4/BLE.c **** 
 193:.\Generated_Source\PSoC4/BLE.c **** Summary:
 194:.\Generated_Source\PSoC4/BLE.c ****  Initializes all included services.
 195:.\Generated_Source\PSoC4/BLE.c **** 
 196:.\Generated_Source\PSoC4/BLE.c **** Parameters:
 197:.\Generated_Source\PSoC4/BLE.c ****  None
 198:.\Generated_Source\PSoC4/BLE.c **** 
 199:.\Generated_Source\PSoC4/BLE.c **** Return:
 200:.\Generated_Source\PSoC4/BLE.c ****  None
 201:.\Generated_Source\PSoC4/BLE.c **** 
 202:.\Generated_Source\PSoC4/BLE.c **** ******************************************************************************/
 203:.\Generated_Source\PSoC4/BLE.c **** void CyBle_ServiceInit(void)
 204:.\Generated_Source\PSoC4/BLE.c **** {
ARM GAS  C:\Users\ELECTR~1\AppData\Local\Temp\ccgiaJs0.s 			page 5


 205:.\Generated_Source\PSoC4/BLE.c ****     #if(CYBLE_GATT_ROLE_CLIENT)
 206:.\Generated_Source\PSoC4/BLE.c ****         (void)memset(&cyBle_gapc, 0, sizeof(cyBle_gapc));
 207:.\Generated_Source\PSoC4/BLE.c ****         (void)memset(&cyBle_gattc, 0, sizeof(cyBle_gattc));
 208:.\Generated_Source\PSoC4/BLE.c ****     #endif /* CYBLE_GATT_ROLE_CLIENT */
 209:.\Generated_Source\PSoC4/BLE.c ****     
 210:.\Generated_Source\PSoC4/BLE.c ****     #ifdef CYBLE_ANS
 211:.\Generated_Source\PSoC4/BLE.c ****         CyBle_AnsInit();
 212:.\Generated_Source\PSoC4/BLE.c ****     #endif /* CYBLE_ANS */
 213:.\Generated_Source\PSoC4/BLE.c ****     
 214:.\Generated_Source\PSoC4/BLE.c ****     #ifdef CYBLE_BAS
 215:.\Generated_Source\PSoC4/BLE.c ****         CyBle_BasInit();
 216:.\Generated_Source\PSoC4/BLE.c ****     #endif /* CYBLE_BAS */
 217:.\Generated_Source\PSoC4/BLE.c ****     
 218:.\Generated_Source\PSoC4/BLE.c ****     #ifdef CYBLE_BLS
 219:.\Generated_Source\PSoC4/BLE.c ****         CyBle_BlsInit();
 220:.\Generated_Source\PSoC4/BLE.c ****     #endif /* CYBLE_BLS */
 221:.\Generated_Source\PSoC4/BLE.c ****     
 222:.\Generated_Source\PSoC4/BLE.c ****     #ifdef CYBLE_BMS
 223:.\Generated_Source\PSoC4/BLE.c ****         CyBle_BmsInit();
 224:.\Generated_Source\PSoC4/BLE.c ****     #endif /* CYBLE_BMS */
 225:.\Generated_Source\PSoC4/BLE.c ****     
 226:.\Generated_Source\PSoC4/BLE.c ****     #ifdef CYBLE_CGMS
 227:.\Generated_Source\PSoC4/BLE.c ****         CyBle_CgmsInit();
 228:.\Generated_Source\PSoC4/BLE.c ****     #endif /* CYBLE_CGMS */
 229:.\Generated_Source\PSoC4/BLE.c **** 
 230:.\Generated_Source\PSoC4/BLE.c ****     #ifdef CYBLE_CPS
 231:.\Generated_Source\PSoC4/BLE.c ****         CyBle_CpsInit();
 232:.\Generated_Source\PSoC4/BLE.c ****     #endif /* CYBLE_CPS */
 233:.\Generated_Source\PSoC4/BLE.c **** 
 234:.\Generated_Source\PSoC4/BLE.c ****     #ifdef CYBLE_CSCS
 235:.\Generated_Source\PSoC4/BLE.c ****         CyBle_CscsInit();
 236:.\Generated_Source\PSoC4/BLE.c ****     #endif /* CYBLE_CSCS */
 237:.\Generated_Source\PSoC4/BLE.c ****     
 238:.\Generated_Source\PSoC4/BLE.c ****     #ifdef CYBLE_CTS
 239:.\Generated_Source\PSoC4/BLE.c ****         CyBle_CtsInit();
 240:.\Generated_Source\PSoC4/BLE.c ****     #endif /* CYBLE_CTS */
 241:.\Generated_Source\PSoC4/BLE.c **** 
 242:.\Generated_Source\PSoC4/BLE.c ****     #ifdef CYBLE_DIS
 243:.\Generated_Source\PSoC4/BLE.c ****         CyBle_DisInit();
 244:.\Generated_Source\PSoC4/BLE.c ****     #endif /* CYBLE_DIS */
 245:.\Generated_Source\PSoC4/BLE.c **** 
 246:.\Generated_Source\PSoC4/BLE.c ****     #ifdef CYBLE_ESS
 247:.\Generated_Source\PSoC4/BLE.c ****         CyBle_EssInit();
 248:.\Generated_Source\PSoC4/BLE.c ****     #endif /* CYBLE_ESS */
 249:.\Generated_Source\PSoC4/BLE.c ****     
 250:.\Generated_Source\PSoC4/BLE.c ****     #ifdef CYBLE_GLS
 251:.\Generated_Source\PSoC4/BLE.c ****         CyBle_GlsInit();
 252:.\Generated_Source\PSoC4/BLE.c ****     #endif /* CYBLE_GLS */
 253:.\Generated_Source\PSoC4/BLE.c ****     
 254:.\Generated_Source\PSoC4/BLE.c ****     #ifdef CYBLE_CUSTOM
 255:.\Generated_Source\PSoC4/BLE.c ****         CyBle_CustomInit();
 256:.\Generated_Source\PSoC4/BLE.c ****     #endif /* CYBLE_CUSTOM */
 257:.\Generated_Source\PSoC4/BLE.c **** 
 258:.\Generated_Source\PSoC4/BLE.c ****     #ifdef CYBLE_HIDS
 259:.\Generated_Source\PSoC4/BLE.c ****         CyBle_HidsInit();
 260:.\Generated_Source\PSoC4/BLE.c ****     #endif /* CYBLE_HIDS */
 261:.\Generated_Source\PSoC4/BLE.c **** 
ARM GAS  C:\Users\ELECTR~1\AppData\Local\Temp\ccgiaJs0.s 			page 6


 262:.\Generated_Source\PSoC4/BLE.c ****     #ifdef CYBLE_HRS
 263:.\Generated_Source\PSoC4/BLE.c ****         CyBle_HrsInit();
 264:.\Generated_Source\PSoC4/BLE.c ****     #endif /* CYBLE_HRS */
 265:.\Generated_Source\PSoC4/BLE.c ****     
 266:.\Generated_Source\PSoC4/BLE.c ****     #ifdef CYBLE_HTS
 267:.\Generated_Source\PSoC4/BLE.c ****         CyBle_HtsInit();
 268:.\Generated_Source\PSoC4/BLE.c ****     #endif /* CYBLE_RSCS */
 269:.\Generated_Source\PSoC4/BLE.c **** 
 270:.\Generated_Source\PSoC4/BLE.c ****     #ifdef CYBLE_IAS
 271:.\Generated_Source\PSoC4/BLE.c ****         CyBle_IasInit();
 272:.\Generated_Source\PSoC4/BLE.c ****     #endif /* CYBLE_IAS */
 273:.\Generated_Source\PSoC4/BLE.c **** 
 274:.\Generated_Source\PSoC4/BLE.c ****     #ifdef CYBLE_LLS
 275:.\Generated_Source\PSoC4/BLE.c ****         CyBle_LlsInit();
 276:.\Generated_Source\PSoC4/BLE.c ****     #endif /* CYBLE_LLS */
 277:.\Generated_Source\PSoC4/BLE.c **** 
 278:.\Generated_Source\PSoC4/BLE.c ****     #ifdef CYBLE_RTUS
 279:.\Generated_Source\PSoC4/BLE.c ****         CyBle_RtusInit();
 280:.\Generated_Source\PSoC4/BLE.c ****     #endif /* CYBLE_RTUS */
 281:.\Generated_Source\PSoC4/BLE.c **** 
 282:.\Generated_Source\PSoC4/BLE.c ****     #ifdef CYBLE_LNS
 283:.\Generated_Source\PSoC4/BLE.c ****         CyBle_LnsInit();
 284:.\Generated_Source\PSoC4/BLE.c ****     #endif /* CYBLE_LNS */
 285:.\Generated_Source\PSoC4/BLE.c ****     
 286:.\Generated_Source\PSoC4/BLE.c ****     #ifdef CYBLE_PASS
 287:.\Generated_Source\PSoC4/BLE.c ****         CyBle_PassInit();
 288:.\Generated_Source\PSoC4/BLE.c ****     #endif /* CYBLE_PASS */
 289:.\Generated_Source\PSoC4/BLE.c ****     
 290:.\Generated_Source\PSoC4/BLE.c ****     #ifdef CYBLE_RSCS
 291:.\Generated_Source\PSoC4/BLE.c ****         CyBle_RscsInit();
 292:.\Generated_Source\PSoC4/BLE.c ****     #endif /* CYBLE_RSCS */
 293:.\Generated_Source\PSoC4/BLE.c **** 
 294:.\Generated_Source\PSoC4/BLE.c ****     #ifdef CYBLE_SCPS
 295:.\Generated_Source\PSoC4/BLE.c ****         CyBle_ScpsInit();
 296:.\Generated_Source\PSoC4/BLE.c ****     #endif /* CYBLE_SCPS */
 297:.\Generated_Source\PSoC4/BLE.c ****     
 298:.\Generated_Source\PSoC4/BLE.c ****     #ifdef CYBLE_TPS
 299:.\Generated_Source\PSoC4/BLE.c ****         CyBle_TpsInit();
 300:.\Generated_Source\PSoC4/BLE.c ****     #endif /* CYBLE_TPS */
 301:.\Generated_Source\PSoC4/BLE.c ****     
 302:.\Generated_Source\PSoC4/BLE.c ****     #ifdef CYBLE_UDS
 303:.\Generated_Source\PSoC4/BLE.c ****         CyBle_UdsInit();
 304:.\Generated_Source\PSoC4/BLE.c ****     #endif /* CYBLE_UDS */
 305:.\Generated_Source\PSoC4/BLE.c **** 
 306:.\Generated_Source\PSoC4/BLE.c ****     #ifdef CYBLE_WPTS
 307:.\Generated_Source\PSoC4/BLE.c ****         CyBle_WptsInit();
 308:.\Generated_Source\PSoC4/BLE.c ****     #endif /* CYBLE_WPTS */
 309:.\Generated_Source\PSoC4/BLE.c **** 
 310:.\Generated_Source\PSoC4/BLE.c ****     #ifdef CYBLE_WSS
 311:.\Generated_Source\PSoC4/BLE.c ****         CyBle_WssInit();
 312:.\Generated_Source\PSoC4/BLE.c ****     #endif /* CYBLE_WSS */
 313:.\Generated_Source\PSoC4/BLE.c **** }
 314:.\Generated_Source\PSoC4/BLE.c **** 
 315:.\Generated_Source\PSoC4/BLE.c **** 
 316:.\Generated_Source\PSoC4/BLE.c **** /******************************************************************************
 317:.\Generated_Source\PSoC4/BLE.c **** ##Function Name: CyBle_Start
 318:.\Generated_Source\PSoC4/BLE.c **** *******************************************************************************
ARM GAS  C:\Users\ELECTR~1\AppData\Local\Temp\ccgiaJs0.s 			page 7


 319:.\Generated_Source\PSoC4/BLE.c **** 
 320:.\Generated_Source\PSoC4/BLE.c **** Summary:
 321:.\Generated_Source\PSoC4/BLE.c ****  This function initializes the BLE Stack, which consists of the BLE Stack 
 322:.\Generated_Source\PSoC4/BLE.c ****  Manager, BLE Controller, and BLE Host modules. It takes care of initializing
 323:.\Generated_Source\PSoC4/BLE.c ****  the Profile layer, schedulers, Timer and other platform related
 324:.\Generated_Source\PSoC4/BLE.c ****  resources required for the BLE component. It also registers the callback 
 325:.\Generated_Source\PSoC4/BLE.c ****  function for BLE events that will be registered in the BLE stack.
 326:.\Generated_Source\PSoC4/BLE.c **** 
 327:.\Generated_Source\PSoC4/BLE.c ****  Note that this function does not reset the BLE Stack.
 328:.\Generated_Source\PSoC4/BLE.c **** 
 329:.\Generated_Source\PSoC4/BLE.c ****  For HCI-Mode of operation, this function will not initialize the BLE Host 
 330:.\Generated_Source\PSoC4/BLE.c ****  module.
 331:.\Generated_Source\PSoC4/BLE.c **** 
 332:.\Generated_Source\PSoC4/BLE.c ****  Calling this function results in the generation of CYBLE_EVT_STACK_ON event
 333:.\Generated_Source\PSoC4/BLE.c ****  on successful initialization of the BLE Stack.
 334:.\Generated_Source\PSoC4/BLE.c **** 
 335:.\Generated_Source\PSoC4/BLE.c **** Parameters:
 336:.\Generated_Source\PSoC4/BLE.c ****  callbackFunc: Event callback function to receive events from BLE stack.
 337:.\Generated_Source\PSoC4/BLE.c ****   CYBLE_CALLBACK_T is a function pointer type.
 338:.\Generated_Source\PSoC4/BLE.c **** 
 339:.\Generated_Source\PSoC4/BLE.c **** Return:
 340:.\Generated_Source\PSoC4/BLE.c ****  CYBLE_API_RESULT_T : Return value indicates if the function succeeded or 
 341:.\Generated_Source\PSoC4/BLE.c ****  failed. Following are the possible error codes.
 342:.\Generated_Source\PSoC4/BLE.c ****  <table>
 343:.\Generated_Source\PSoC4/BLE.c ****   Errors codes                        Description
 344:.\Generated_Source\PSoC4/BLE.c ****   ------------                        -----------------
 345:.\Generated_Source\PSoC4/BLE.c ****   CYBLE_ERROR_OK                      On successful operation.
 346:.\Generated_Source\PSoC4/BLE.c ****   CYBLE_ERROR_INVALID_PARAMETER       On passing a NULL pointer to the 
 347:.\Generated_Source\PSoC4/BLE.c ****                                        function when the BLE stack is not 
 348:.\Generated_Source\PSoC4/BLE.c ****                                        built in HCI mode.
 349:.\Generated_Source\PSoC4/BLE.c ****                                        CYBLE_ERROR_INVALID_PARAMETER
 350:.\Generated_Source\PSoC4/BLE.c ****                                        is never returned in HCI mode.
 351:.\Generated_Source\PSoC4/BLE.c ****   CYBLE_ERROR_REPEATED_ATTEMPTS       On invoking this function more
 352:.\Generated_Source\PSoC4/BLE.c ****                                        than once without calling
 353:.\Generated_Source\PSoC4/BLE.c ****                                        CyBle_Shutdown() function 
 354:.\Generated_Source\PSoC4/BLE.c ****                                        between calls to this function.
 355:.\Generated_Source\PSoC4/BLE.c ****  </table>
 356:.\Generated_Source\PSoC4/BLE.c **** 
 357:.\Generated_Source\PSoC4/BLE.c ****  Global variables:
 358:.\Generated_Source\PSoC4/BLE.c ****   The BLE_intiVar variable is used to indicate initial
 359:.\Generated_Source\PSoC4/BLE.c ****   configuration of this component. The variable is initialized to zero (0u)
 360:.\Generated_Source\PSoC4/BLE.c ****   and set to one (1u) the first time BLE_Start() is called. This
 361:.\Generated_Source\PSoC4/BLE.c ****   allows for component initialization without re-initialization in all
 362:.\Generated_Source\PSoC4/BLE.c ****   subsequent calls to the BLE_Start() routine.
 363:.\Generated_Source\PSoC4/BLE.c **** 
 364:.\Generated_Source\PSoC4/BLE.c **** ******************************************************************************/
 365:.\Generated_Source\PSoC4/BLE.c **** CYBLE_API_RESULT_T CyBle_Start(CYBLE_CALLBACK_T callbackFunc)
 366:.\Generated_Source\PSoC4/BLE.c **** {
 367:.\Generated_Source\PSoC4/BLE.c ****     CYBLE_API_RESULT_T apiResult = CYBLE_ERROR_INVALID_PARAMETER;
 368:.\Generated_Source\PSoC4/BLE.c ****     
 369:.\Generated_Source\PSoC4/BLE.c ****     /* If not initialized then initialize all the required hardware and software */
 370:.\Generated_Source\PSoC4/BLE.c ****     if(cyBle_initVar == 0u)
 371:.\Generated_Source\PSoC4/BLE.c ****     {
 372:.\Generated_Source\PSoC4/BLE.c ****         CyBle_Init();
 373:.\Generated_Source\PSoC4/BLE.c ****         cyBle_initVar = 1u;
 374:.\Generated_Source\PSoC4/BLE.c ****     }
 375:.\Generated_Source\PSoC4/BLE.c ****     
ARM GAS  C:\Users\ELECTR~1\AppData\Local\Temp\ccgiaJs0.s 			page 8


 376:.\Generated_Source\PSoC4/BLE.c ****     if(callbackFunc != NULL)
 377:.\Generated_Source\PSoC4/BLE.c ****     {
 378:.\Generated_Source\PSoC4/BLE.c ****     #if(CYBLE_MODE_PROFILE)
 379:.\Generated_Source\PSoC4/BLE.c ****         CYBLE_STK_APP_DATA_BUFF_T dataBuff[CYBLE_STACK_BUF_COUNT] = 
 380:.\Generated_Source\PSoC4/BLE.c ****         {
 381:.\Generated_Source\PSoC4/BLE.c ****             {CYBLE_GATT_MTU_PLUS_L2CAP_MEM_EXT, CYBLE_GATT_MTU_BUF_COUNT},
 382:.\Generated_Source\PSoC4/BLE.c ****             {CYBLE_GATT_MAX_ATTR_LEN_PLUS_L2CAP_MEM_EXT, 1u},
 383:.\Generated_Source\PSoC4/BLE.c ****             {CYBLE_L2CAP_PSM_PLUS_L2CAP_MEM_EXT, CYBLE_L2CAP_PSM_COUNT},
 384:.\Generated_Source\PSoC4/BLE.c ****             {CYBLE_L2CAP_CBFC_PLUS_L2CAP_MEM_EXT, CYBLE_L2CAP_LOGICAL_CHANNEL_COUNT},
 385:.\Generated_Source\PSoC4/BLE.c ****             {CYBLE_L2CAP_MTU_PLUS_L2CAP_MEM_EXT, CYBLE_L2CAP_LOGICAL_CHANNEL_COUNT},
 386:.\Generated_Source\PSoC4/BLE.c ****             {CYBLE_L2CAP_MPS_PLUS_L2CAP_MEM_EXT, CYBLE_L2CAP_LOGICAL_CHANNEL_COUNT * (CYBLE_L2CAP_M
 387:.\Generated_Source\PSoC4/BLE.c ****         }; 
 388:.\Generated_Source\PSoC4/BLE.c ****     
 389:.\Generated_Source\PSoC4/BLE.c ****         apiResult = CyBle_StackInit(&CyBle_EventHandler, cyBle_stackMemoryRam, CYBLE_STACK_RAM_SIZE
 390:.\Generated_Source\PSoC4/BLE.c ****             dataBuff, CYBLE_STACK_BUF_COUNT, cyBle_StackFlashptr,CYBLE_STACK_FLASH_SIZE);
 391:.\Generated_Source\PSoC4/BLE.c ****     #else
 392:.\Generated_Source\PSoC4/BLE.c ****         apiResult = CyBle_StackInit(&CyBle_EventHandler, cyBle_stackMemoryRam, CYBLE_STACK_RAM_SIZE
 393:.\Generated_Source\PSoC4/BLE.c ****             NULL, 0u, NULL, 0u);
 394:.\Generated_Source\PSoC4/BLE.c ****     #endif /* CYBLE_MODE_PROFILE */  
 395:.\Generated_Source\PSoC4/BLE.c **** 
 396:.\Generated_Source\PSoC4/BLE.c ****         CyBle_ApplCallback = callbackFunc;
 397:.\Generated_Source\PSoC4/BLE.c ****         
 398:.\Generated_Source\PSoC4/BLE.c **** 
 399:.\Generated_Source\PSoC4/BLE.c ****         if(apiResult == CYBLE_ERROR_OK)
 400:.\Generated_Source\PSoC4/BLE.c ****         {
 401:.\Generated_Source\PSoC4/BLE.c ****             CyBle_SetState(CYBLE_STATE_INITIALIZING);
 402:.\Generated_Source\PSoC4/BLE.c ****             
 403:.\Generated_Source\PSoC4/BLE.c ****         #if (CYBLE_GATT_ROLE_CLIENT)
 404:.\Generated_Source\PSoC4/BLE.c ****             CyBle_SetClientState(CYBLE_CLIENT_STATE_DISCONNECTED);
 405:.\Generated_Source\PSoC4/BLE.c ****         #endif /* CYBLE_GATT_ROLE_CLIENT */
 406:.\Generated_Source\PSoC4/BLE.c ****             
 407:.\Generated_Source\PSoC4/BLE.c ****         #if(CYBLE_GATT_ROLE_SERVER)
 408:.\Generated_Source\PSoC4/BLE.c ****             apiResult = CyBle_GattsDbRegister(cyBle_gattDB, CYBLE_GATT_DB_INDEX_COUNT, CYBLE_GATT_D
 409:.\Generated_Source\PSoC4/BLE.c ****         #endif /* CYBLE_GATT_ROLE_SERVER */
 410:.\Generated_Source\PSoC4/BLE.c ****         }
 411:.\Generated_Source\PSoC4/BLE.c ****     }
 412:.\Generated_Source\PSoC4/BLE.c **** 
 413:.\Generated_Source\PSoC4/BLE.c ****     return (apiResult);
 414:.\Generated_Source\PSoC4/BLE.c **** }
 415:.\Generated_Source\PSoC4/BLE.c **** 
 416:.\Generated_Source\PSoC4/BLE.c **** 
 417:.\Generated_Source\PSoC4/BLE.c **** /******************************************************************************
 418:.\Generated_Source\PSoC4/BLE.c **** ##Function Name: CyBle_Stop
 419:.\Generated_Source\PSoC4/BLE.c **** *******************************************************************************
 420:.\Generated_Source\PSoC4/BLE.c **** 
 421:.\Generated_Source\PSoC4/BLE.c **** Summary:
 422:.\Generated_Source\PSoC4/BLE.c ****  This function stops any ongoing operation in the BLE Stack and forces the 
 423:.\Generated_Source\PSoC4/BLE.c ****  BLE Stack to shut down. The only function that can be called after calling
 424:.\Generated_Source\PSoC4/BLE.c ****  this function is CyBle_Start(). 
 425:.\Generated_Source\PSoC4/BLE.c **** 
 426:.\Generated_Source\PSoC4/BLE.c **** Parameters:
 427:.\Generated_Source\PSoC4/BLE.c ****  None
 428:.\Generated_Source\PSoC4/BLE.c **** 
 429:.\Generated_Source\PSoC4/BLE.c **** Return:
 430:.\Generated_Source\PSoC4/BLE.c ****  None
 431:.\Generated_Source\PSoC4/BLE.c **** 
 432:.\Generated_Source\PSoC4/BLE.c **** ******************************************************************************/
ARM GAS  C:\Users\ELECTR~1\AppData\Local\Temp\ccgiaJs0.s 			page 9


 433:.\Generated_Source\PSoC4/BLE.c **** void CyBle_Stop(void)
 434:.\Generated_Source\PSoC4/BLE.c **** {
 435:.\Generated_Source\PSoC4/BLE.c ****     CyBle_Shutdown();                         /* Stop all ongoing activities */
 436:.\Generated_Source\PSoC4/BLE.c ****     CyBle_SetState(CYBLE_STATE_STOPPED);
 437:.\Generated_Source\PSoC4/BLE.c **** }
 438:.\Generated_Source\PSoC4/BLE.c **** 
 439:.\Generated_Source\PSoC4/BLE.c **** 
 440:.\Generated_Source\PSoC4/BLE.c **** #if((CYBLE_GAP_ROLE_PERIPHERAL || CYBLE_GAP_ROLE_CENTRAL) && (CYBLE_BONDING_REQUIREMENT == CYBLE_BO
 441:.\Generated_Source\PSoC4/BLE.c **** 
 442:.\Generated_Source\PSoC4/BLE.c ****     
 443:.\Generated_Source\PSoC4/BLE.c **** /******************************************************************************
 444:.\Generated_Source\PSoC4/BLE.c **** ##Function Name: CyBle_StoreBondingData
 445:.\Generated_Source\PSoC4/BLE.c **** *******************************************************************************
 446:.\Generated_Source\PSoC4/BLE.c **** 
 447:.\Generated_Source\PSoC4/BLE.c **** Summary:
 448:.\Generated_Source\PSoC4/BLE.c ****  This function writes the new bonding data from RAM to the dedicated Flash 
 449:.\Generated_Source\PSoC4/BLE.c ****  location as defined by the component. It performs data comparing between RAM
 450:.\Generated_Source\PSoC4/BLE.c ****  and Flash before writing to Flash. If there is no change between RAM and Flash
 451:.\Generated_Source\PSoC4/BLE.c ****  data, then no write is performed. It writes only one flash row in one call.
 452:.\Generated_Source\PSoC4/BLE.c ****  Application should keep calling this function till API return CYBLE_ERROR_OK. 
 453:.\Generated_Source\PSoC4/BLE.c ****  This function is available only when Bonding requirement is selected in
 454:.\Generated_Source\PSoC4/BLE.c ****  Security settings.    
 455:.\Generated_Source\PSoC4/BLE.c ****     
 456:.\Generated_Source\PSoC4/BLE.c **** Parameters:
 457:.\Generated_Source\PSoC4/BLE.c ****  isForceWrite:  If value is set to 0, then stack will check if flash write 
 458:.\Generated_Source\PSoC4/BLE.c ****                 is permissible. 
 459:.\Generated_Source\PSoC4/BLE.c ****  
 460:.\Generated_Source\PSoC4/BLE.c **** Return:
 461:.\Generated_Source\PSoC4/BLE.c ****  Return value is of type CYBLE_API_RESULT_T.
 462:.\Generated_Source\PSoC4/BLE.c ****  * CYBLE_ERROR_OK - On successful operation
 463:.\Generated_Source\PSoC4/BLE.c ****  * CYBLE_ERROR_FLASH_WRITE_NOT_PERMITED - Flash Write is not complete
 464:.\Generated_Source\PSoC4/BLE.c ****    
 465:.\Generated_Source\PSoC4/BLE.c ****  Side Effects:
 466:.\Generated_Source\PSoC4/BLE.c ****   For BLE devices with 128K of Flash memory this API will automatically 
 467:.\Generated_Source\PSoC4/BLE.c ****   modify the clock settings for the device.
 468:.\Generated_Source\PSoC4/BLE.c ****   Writing to flash requires changes to be done to the IMO (set to 48 MHz)
 469:.\Generated_Source\PSoC4/BLE.c ****   and HFCLK (source set to IMO) settings. The configuration is restored before
 470:.\Generated_Source\PSoC4/BLE.c ****   returning. This will impact the operation of most of the hardware in the
 471:.\Generated_Source\PSoC4/BLE.c ****   device.
 472:.\Generated_Source\PSoC4/BLE.c **** 
 473:.\Generated_Source\PSoC4/BLE.c ****  Global variables:
 474:.\Generated_Source\PSoC4/BLE.c ****   The BLE_pendingFlashWrite variable is used to detect status
 475:.\Generated_Source\PSoC4/BLE.c ****   of pending write to flash operation for stack data and CCCD.
 476:.\Generated_Source\PSoC4/BLE.c ****   This API automatically clears pending bits after write operation complete.
 477:.\Generated_Source\PSoC4/BLE.c ****     
 478:.\Generated_Source\PSoC4/BLE.c **** ******************************************************************************/
 479:.\Generated_Source\PSoC4/BLE.c **** CYBLE_API_RESULT_T CyBle_StoreBondingData(uint8 isForceWrite)
 480:.\Generated_Source\PSoC4/BLE.c **** {
 481:.\Generated_Source\PSoC4/BLE.c ****     CYBLE_API_RESULT_T apiResult = CYBLE_ERROR_OK;
 482:.\Generated_Source\PSoC4/BLE.c ****     
 483:.\Generated_Source\PSoC4/BLE.c ****     /* Store Stack data */
 484:.\Generated_Source\PSoC4/BLE.c ****     if((cyBle_pendingFlashWrite & CYBLE_PENDING_STACK_FLASH_WRITE_BIT) != 0u)
 485:.\Generated_Source\PSoC4/BLE.c ****     {
 486:.\Generated_Source\PSoC4/BLE.c ****         apiResult = CyBle_StoreStackData(isForceWrite);
 487:.\Generated_Source\PSoC4/BLE.c ****         if(apiResult == CYBLE_ERROR_OK)
 488:.\Generated_Source\PSoC4/BLE.c ****         {
 489:.\Generated_Source\PSoC4/BLE.c ****             cyBle_pendingFlashWrite &= (uint8)~CYBLE_PENDING_STACK_FLASH_WRITE_BIT;
ARM GAS  C:\Users\ELECTR~1\AppData\Local\Temp\ccgiaJs0.s 			page 10


 490:.\Generated_Source\PSoC4/BLE.c ****             /* Change apiResult if there are more pending data to store */
 491:.\Generated_Source\PSoC4/BLE.c ****             if((cyBle_pendingFlashWrite & CYBLE_PENDING_CCCD_FLASH_WRITE_BIT) != 0u)
 492:.\Generated_Source\PSoC4/BLE.c ****             {
 493:.\Generated_Source\PSoC4/BLE.c ****                 apiResult = CYBLE_ERROR_FLASH_WRITE_NOT_PERMITED;
 494:.\Generated_Source\PSoC4/BLE.c ****             }
 495:.\Generated_Source\PSoC4/BLE.c ****         }
 496:.\Generated_Source\PSoC4/BLE.c ****     }
 497:.\Generated_Source\PSoC4/BLE.c **** #if(CYBLE_GATT_DB_CCCD_COUNT != 0u)
 498:.\Generated_Source\PSoC4/BLE.c ****     /* Store CCCD values */
 499:.\Generated_Source\PSoC4/BLE.c ****     if( ((apiResult == CYBLE_ERROR_OK) || (isForceWrite != 0u)) && 
 500:.\Generated_Source\PSoC4/BLE.c ****         ((cyBle_pendingFlashWrite & CYBLE_PENDING_CCCD_FLASH_WRITE_BIT) != 0u) &&
 501:.\Generated_Source\PSoC4/BLE.c ****         (cyBle_connHandle.bdHandle <= CYBLE_GAP_MAX_BONDED_DEVICE))
 502:.\Generated_Source\PSoC4/BLE.c ****     {
 503:.\Generated_Source\PSoC4/BLE.c ****         apiResult = CyBle_StoreAppData(cyBle_attValuesCCCD, cyBle_attValuesCCCDFlashMemory[cyBle_co
 504:.\Generated_Source\PSoC4/BLE.c ****                                        CYBLE_GATT_DB_CCCD_COUNT, isForceWrite);
 505:.\Generated_Source\PSoC4/BLE.c ****         if(apiResult == CYBLE_ERROR_OK)
 506:.\Generated_Source\PSoC4/BLE.c ****         {
 507:.\Generated_Source\PSoC4/BLE.c ****             cyBle_pendingFlashWrite &= (uint8)~CYBLE_PENDING_CCCD_FLASH_WRITE_BIT;
 508:.\Generated_Source\PSoC4/BLE.c ****         }
 509:.\Generated_Source\PSoC4/BLE.c ****     }
 510:.\Generated_Source\PSoC4/BLE.c **** #endif /* CYBLE_GATT_DB_CCCD_COUNT != 0u */
 511:.\Generated_Source\PSoC4/BLE.c ****     return(apiResult);
 512:.\Generated_Source\PSoC4/BLE.c **** }
 513:.\Generated_Source\PSoC4/BLE.c **** 
 514:.\Generated_Source\PSoC4/BLE.c **** 
 515:.\Generated_Source\PSoC4/BLE.c **** #endif /* (CYBLE_GAP_ROLE_PERIPHERAL || CYBLE_GAP_ROLE_CENTRAL) && (CYBLE_BONDING_REQUIREMENT == CY
 516:.\Generated_Source\PSoC4/BLE.c **** 
 517:.\Generated_Source\PSoC4/BLE.c **** 
 518:.\Generated_Source\PSoC4/BLE.c **** #if(CYBLE_GAP_ROLE_PERIPHERAL || CYBLE_GAP_ROLE_BROADCASTER)
 519:.\Generated_Source\PSoC4/BLE.c **** 
 520:.\Generated_Source\PSoC4/BLE.c ****     /******************************************************************************
 521:.\Generated_Source\PSoC4/BLE.c ****     ##Function Name: CyBle_GappStartAdvertisement
 522:.\Generated_Source\PSoC4/BLE.c ****     *******************************************************************************
 523:.\Generated_Source\PSoC4/BLE.c ****     
 524:.\Generated_Source\PSoC4/BLE.c ****     Summary:
 525:.\Generated_Source\PSoC4/BLE.c ****      This function is used to start the advertisement using the advertisement data 
 526:.\Generated_Source\PSoC4/BLE.c ****      set in the component customizer's GUI. After invoking this API, the device 
 527:.\Generated_Source\PSoC4/BLE.c ****      will be available for connection by the devices configured for GAP central 
 528:.\Generated_Source\PSoC4/BLE.c ****      role. It is only included if the device is configured for GAP Peripheral or 
 529:.\Generated_Source\PSoC4/BLE.c ****      GAP Peripheral + Central role.
 530:.\Generated_Source\PSoC4/BLE.c ****      
 531:.\Generated_Source\PSoC4/BLE.c ****      On start of advertisement, GAP Peripheral receives the
 532:.\Generated_Source\PSoC4/BLE.c ****      CYBLE_EVT_GAPP_ADVERTISEMENT_START_STOP event. The following events are 
 533:.\Generated_Source\PSoC4/BLE.c ****      possible on invoking this function:
 534:.\Generated_Source\PSoC4/BLE.c ****      
 535:.\Generated_Source\PSoC4/BLE.c ****      * CYBLE_EVT_GAP_DEVICE_CONNECTED: If the device connects to remote GAP 
 536:.\Generated_Source\PSoC4/BLE.c ****                                          Central device
 537:.\Generated_Source\PSoC4/BLE.c ****      * CYBLE_EVT_TIMEOUT: If no device in GAP Central mode connects to this 
 538:.\Generated_Source\PSoC4/BLE.c ****                           device within the specified timeout limit. Stack 
 539:.\Generated_Source\PSoC4/BLE.c ****                           automatically initiate stop advertising when Slow 
 540:.\Generated_Source\PSoC4/BLE.c ****                           advertising was initiated, or starts Slow advertising
 541:.\Generated_Source\PSoC4/BLE.c ****                           after Fast advertising timeout occur.
 542:.\Generated_Source\PSoC4/BLE.c ****      * CYBLE_EVT_GAPP_ADVERTISEMENT_START_STOP: If device started or stopped
 543:.\Generated_Source\PSoC4/BLE.c ****                                                   advertising. Use CyBle_GetState()
 544:.\Generated_Source\PSoC4/BLE.c ****                                                   to determine the state. Sequential 
 545:.\Generated_Source\PSoC4/BLE.c ****                                                   advertising could be started when
 546:.\Generated_Source\PSoC4/BLE.c ****                                                   CYBLE_STATE_DISCONNECTED state is
ARM GAS  C:\Users\ELECTR~1\AppData\Local\Temp\ccgiaJs0.s 			page 11


 547:.\Generated_Source\PSoC4/BLE.c ****                                                   returned.
 548:.\Generated_Source\PSoC4/BLE.c **** 
 549:.\Generated_Source\PSoC4/BLE.c ****     Parameters:
 550:.\Generated_Source\PSoC4/BLE.c ****      uint8 advertisingIntervalType: Fast or slow advertising interval with timings
 551:.\Generated_Source\PSoC4/BLE.c ****                                     entered in Advertising settings section of the
 552:.\Generated_Source\PSoC4/BLE.c ****                                     customizer.
 553:.\Generated_Source\PSoC4/BLE.c ****      * CYBLE_ADVERTISING_FAST   0x00u
 554:.\Generated_Source\PSoC4/BLE.c ****      * CYBLE_ADVERTISING_SLOW   0x01u
 555:.\Generated_Source\PSoC4/BLE.c ****      * CYBLE_ADVERTISING_CUSTOM 0x02u
 556:.\Generated_Source\PSoC4/BLE.c ****     
 557:.\Generated_Source\PSoC4/BLE.c ****     Return:
 558:.\Generated_Source\PSoC4/BLE.c ****      CYBLE_API_RESULT_T : Return value indicates if the function succeeded or
 559:.\Generated_Source\PSoC4/BLE.c ****      failed. Following are the possible error codes.
 560:.\Generated_Source\PSoC4/BLE.c ****      <table>
 561:.\Generated_Source\PSoC4/BLE.c ****       Errors codes                        Description
 562:.\Generated_Source\PSoC4/BLE.c ****       ------------                        -----------
 563:.\Generated_Source\PSoC4/BLE.c ****       CYBLE_ERROR_OK                      On successful operation.
 564:.\Generated_Source\PSoC4/BLE.c ****       CYBLE_ERROR_INVALID_PARAMETER       On passing an invalid parameter.
 565:.\Generated_Source\PSoC4/BLE.c ****       CYBLE_ERROR_INVALID_STATE           On calling this API not in 
 566:.\Generated_Source\PSoC4/BLE.c ****                                           Disconnected state.
 567:.\Generated_Source\PSoC4/BLE.c ****      </table>
 568:.\Generated_Source\PSoC4/BLE.c ****     
 569:.\Generated_Source\PSoC4/BLE.c ****     ******************************************************************************/
 570:.\Generated_Source\PSoC4/BLE.c ****     CYBLE_API_RESULT_T CyBle_GappStartAdvertisement(uint8 advertisingIntervalType)
 571:.\Generated_Source\PSoC4/BLE.c ****     {
 572:.\Generated_Source\PSoC4/BLE.c ****         CYBLE_API_RESULT_T apiResult;
 573:.\Generated_Source\PSoC4/BLE.c ****         
 574:.\Generated_Source\PSoC4/BLE.c ****         if(advertisingIntervalType > CYBLE_ADVERTISING_CUSTOM)
 575:.\Generated_Source\PSoC4/BLE.c ****         {
 576:.\Generated_Source\PSoC4/BLE.c ****             apiResult = CYBLE_ERROR_INVALID_PARAMETER;
 577:.\Generated_Source\PSoC4/BLE.c ****         }
 578:.\Generated_Source\PSoC4/BLE.c ****         else if((CYBLE_STATE_DISCONNECTED == CyBle_GetState()) && ((cyBle_eventHandlerFlag & CYBLE_
 579:.\Generated_Source\PSoC4/BLE.c ****         {   
 580:.\Generated_Source\PSoC4/BLE.c ****             if(advertisingIntervalType == CYBLE_ADVERTISING_FAST)
 581:.\Generated_Source\PSoC4/BLE.c ****             {
 582:.\Generated_Source\PSoC4/BLE.c ****                 cyBle_discoveryModeInfo.advTo = CYBLE_FAST_ADV_TIMEOUT;
 583:.\Generated_Source\PSoC4/BLE.c ****                 cyBle_discoveryModeInfo.advParam->advIntvMin = CYBLE_FAST_ADV_INT_MIN;
 584:.\Generated_Source\PSoC4/BLE.c ****                 cyBle_discoveryModeInfo.advParam->advIntvMax = CYBLE_FAST_ADV_INT_MAX;
 585:.\Generated_Source\PSoC4/BLE.c ****             }
 586:.\Generated_Source\PSoC4/BLE.c ****             else if(advertisingIntervalType == CYBLE_ADVERTISING_SLOW)
 587:.\Generated_Source\PSoC4/BLE.c ****             {
 588:.\Generated_Source\PSoC4/BLE.c ****                 cyBle_discoveryModeInfo.advTo = CYBLE_SLOW_ADV_TIMEOUT;
 589:.\Generated_Source\PSoC4/BLE.c ****                 cyBle_discoveryModeInfo.advParam->advIntvMin = CYBLE_SLOW_ADV_INT_MIN;
 590:.\Generated_Source\PSoC4/BLE.c ****                 cyBle_discoveryModeInfo.advParam->advIntvMax = CYBLE_SLOW_ADV_INT_MAX;
 591:.\Generated_Source\PSoC4/BLE.c ****             }       
 592:.\Generated_Source\PSoC4/BLE.c ****             else /* Do not update advertising intervals */
 593:.\Generated_Source\PSoC4/BLE.c ****             {
 594:.\Generated_Source\PSoC4/BLE.c ****             }
 595:.\Generated_Source\PSoC4/BLE.c ****             cyBle_advertisingIntervalType = advertisingIntervalType;
 596:.\Generated_Source\PSoC4/BLE.c ****             apiResult = CyBle_GappEnterDiscoveryMode(&cyBle_discoveryModeInfo);
 597:.\Generated_Source\PSoC4/BLE.c ****         
 598:.\Generated_Source\PSoC4/BLE.c ****             if(CYBLE_ERROR_OK == apiResult)
 599:.\Generated_Source\PSoC4/BLE.c ****             {
 600:.\Generated_Source\PSoC4/BLE.c ****                 cyBle_eventHandlerFlag |= CYBLE_START_FLAG;
 601:.\Generated_Source\PSoC4/BLE.c ****             }
 602:.\Generated_Source\PSoC4/BLE.c ****         }
 603:.\Generated_Source\PSoC4/BLE.c ****         else
ARM GAS  C:\Users\ELECTR~1\AppData\Local\Temp\ccgiaJs0.s 			page 12


 604:.\Generated_Source\PSoC4/BLE.c ****         {
 605:.\Generated_Source\PSoC4/BLE.c ****             apiResult = CYBLE_ERROR_INVALID_STATE;
 606:.\Generated_Source\PSoC4/BLE.c ****         }
 607:.\Generated_Source\PSoC4/BLE.c **** 
 608:.\Generated_Source\PSoC4/BLE.c ****         return (apiResult);
 609:.\Generated_Source\PSoC4/BLE.c ****     }
 610:.\Generated_Source\PSoC4/BLE.c **** 
 611:.\Generated_Source\PSoC4/BLE.c ****     
 612:.\Generated_Source\PSoC4/BLE.c ****     /******************************************************************************
 613:.\Generated_Source\PSoC4/BLE.c ****     ##Function Name: CyBle_GappStopAdvertisement
 614:.\Generated_Source\PSoC4/BLE.c ****     *******************************************************************************
 615:.\Generated_Source\PSoC4/BLE.c ****     
 616:.\Generated_Source\PSoC4/BLE.c ****      Summary:
 617:.\Generated_Source\PSoC4/BLE.c ****       This function can be used to exit from discovery mode. After the execution 
 618:.\Generated_Source\PSoC4/BLE.c ****       of this function, there will no longer be any advertisements. On stopping 
 619:.\Generated_Source\PSoC4/BLE.c ****       advertising, GAP Peripheral receives CYBLE_EVT_GAPP_ADVERTISEMENT_START_STOP
 620:.\Generated_Source\PSoC4/BLE.c ****       event. It is expected that the application layer tracks the function call 
 621:.\Generated_Source\PSoC4/BLE.c ****       performed before occurrence of this event as this event can occur on making 
 622:.\Generated_Source\PSoC4/BLE.c ****       a call to Cy_BleGappStartAdvertisement(), CyBle_GappEnterDiscoveryMode(), 
 623:.\Generated_Source\PSoC4/BLE.c ****       or CyBle_GappStartAdvertisement() functions as well.
 624:.\Generated_Source\PSoC4/BLE.c ****       
 625:.\Generated_Source\PSoC4/BLE.c ****       The following event occurs on invoking this function:
 626:.\Generated_Source\PSoC4/BLE.c ****       * CYBLE_EVT_GAPP_ADVERTISEMENT_START_STOP
 627:.\Generated_Source\PSoC4/BLE.c ****     
 628:.\Generated_Source\PSoC4/BLE.c ****      Parameters:
 629:.\Generated_Source\PSoC4/BLE.c ****       None
 630:.\Generated_Source\PSoC4/BLE.c ****     
 631:.\Generated_Source\PSoC4/BLE.c ****      Return:
 632:.\Generated_Source\PSoC4/BLE.c ****       None
 633:.\Generated_Source\PSoC4/BLE.c ****     
 634:.\Generated_Source\PSoC4/BLE.c ****     ******************************************************************************/
 635:.\Generated_Source\PSoC4/BLE.c ****     void CyBle_GappStopAdvertisement(void)
 636:.\Generated_Source\PSoC4/BLE.c ****     {
 637:.\Generated_Source\PSoC4/BLE.c ****         CyBle_GappExitDiscoveryMode();
 638:.\Generated_Source\PSoC4/BLE.c ****         cyBle_eventHandlerFlag |= CYBLE_STOP_FLAG;
 639:.\Generated_Source\PSoC4/BLE.c ****     }
 640:.\Generated_Source\PSoC4/BLE.c ****     
 641:.\Generated_Source\PSoC4/BLE.c ****     
 642:.\Generated_Source\PSoC4/BLE.c ****     /******************************************************************************
 643:.\Generated_Source\PSoC4/BLE.c ****     ##Function Name: CyBle_ChangeAdDeviceAddress
 644:.\Generated_Source\PSoC4/BLE.c ****     *******************************************************************************
 645:.\Generated_Source\PSoC4/BLE.c **** 
 646:.\Generated_Source\PSoC4/BLE.c ****     Summary:
 647:.\Generated_Source\PSoC4/BLE.c ****      This API is used to set the Bluetooth device address into the advertisement 
 648:.\Generated_Source\PSoC4/BLE.c ****      or scan response data structure.
 649:.\Generated_Source\PSoC4/BLE.c **** 
 650:.\Generated_Source\PSoC4/BLE.c ****     Parameters:
 651:.\Generated_Source\PSoC4/BLE.c ****      bdAddr: Bluetooth Device address. The variable is of type CYBLE_GAP_BD_ADDR_T
 652:.\Generated_Source\PSoC4/BLE.c ****      uint8 dest: 0 - selects advertisement structure, not zero value selects scan 
 653:.\Generated_Source\PSoC4/BLE.c ****                  response structure.
 654:.\Generated_Source\PSoC4/BLE.c **** 
 655:.\Generated_Source\PSoC4/BLE.c ****     Return:
 656:.\Generated_Source\PSoC4/BLE.c ****      None
 657:.\Generated_Source\PSoC4/BLE.c ****  
 658:.\Generated_Source\PSoC4/BLE.c ****     ******************************************************************************/
 659:.\Generated_Source\PSoC4/BLE.c ****     void CyBle_ChangeAdDeviceAddress(const CYBLE_GAP_BD_ADDR_T* bdAddr, uint8 dest)
 660:.\Generated_Source\PSoC4/BLE.c ****     {
ARM GAS  C:\Users\ELECTR~1\AppData\Local\Temp\ccgiaJs0.s 			page 13


 661:.\Generated_Source\PSoC4/BLE.c ****         uint8 i;
 662:.\Generated_Source\PSoC4/BLE.c ****         uint8 *destBuffer = NULL;
 663:.\Generated_Source\PSoC4/BLE.c ****         
 664:.\Generated_Source\PSoC4/BLE.c ****         if(dest == 0u)      /* Destination - advertising structure */
 665:.\Generated_Source\PSoC4/BLE.c ****         {
 666:.\Generated_Source\PSoC4/BLE.c ****             #ifdef CYBLE_ADV_PKT_INDEX_BLUETOOTH_DEVICE_ADDRESS
 667:.\Generated_Source\PSoC4/BLE.c ****                 destBuffer = &cyBle_discoveryData.advData[CYBLE_ADV_PKT_INDEX_BLUETOOTH_DEVICE_ADDR
 668:.\Generated_Source\PSoC4/BLE.c ****             #endif /* CYBLE_ADV_PKT_INDEX_BLUETOOTH_DEVICE_ADDRESS */
 669:.\Generated_Source\PSoC4/BLE.c ****         }
 670:.\Generated_Source\PSoC4/BLE.c ****         else                /* Destination - scan response structure */
 671:.\Generated_Source\PSoC4/BLE.c ****         {
 672:.\Generated_Source\PSoC4/BLE.c ****             #ifdef CYBLE_SCN_PKT_INDEX_BLUETOOTH_DEVICE_ADDRESS
 673:.\Generated_Source\PSoC4/BLE.c ****                 destBuffer = &cyBle_scanRspData.scanRspData[CYBLE_SCN_PKT_INDEX_BLUETOOTH_DEVICE_AD
 674:.\Generated_Source\PSoC4/BLE.c ****             #endif /* CYBLE_SCN_PKT_INDEX_BLUETOOTH_DEVICE_ADDRESS */    
 675:.\Generated_Source\PSoC4/BLE.c ****         }
 676:.\Generated_Source\PSoC4/BLE.c ****         
 677:.\Generated_Source\PSoC4/BLE.c ****         if(destBuffer != NULL)
 678:.\Generated_Source\PSoC4/BLE.c ****         {
 679:.\Generated_Source\PSoC4/BLE.c ****             /* Update Device Address type */
 680:.\Generated_Source\PSoC4/BLE.c ****             destBuffer[0u] = bdAddr->type;
 681:.\Generated_Source\PSoC4/BLE.c ****             
 682:.\Generated_Source\PSoC4/BLE.c ****             for(i = 0u; i < CYBLE_GAP_BD_ADDR_SIZE; i++)
 683:.\Generated_Source\PSoC4/BLE.c ****             {
 684:.\Generated_Source\PSoC4/BLE.c ****                 destBuffer[i + 1u] = bdAddr->bdAddr[i];
 685:.\Generated_Source\PSoC4/BLE.c ****             }
 686:.\Generated_Source\PSoC4/BLE.c ****         }
 687:.\Generated_Source\PSoC4/BLE.c ****     }
 688:.\Generated_Source\PSoC4/BLE.c ****   
 689:.\Generated_Source\PSoC4/BLE.c **** #endif /* CYBLE_GAP_ROLE_PERIPHERAL || CYBLE_GAP_ROLE_BROADCASTER */
 690:.\Generated_Source\PSoC4/BLE.c **** 
 691:.\Generated_Source\PSoC4/BLE.c **** 
 692:.\Generated_Source\PSoC4/BLE.c **** #if(CYBLE_GAP_ROLE_CENTRAL || CYBLE_GAP_ROLE_OBSERVER)
 693:.\Generated_Source\PSoC4/BLE.c **** 
 694:.\Generated_Source\PSoC4/BLE.c ****     /******************************************************************************
 695:.\Generated_Source\PSoC4/BLE.c ****     ##Function Name: CyBle_GapcStartScan
 696:.\Generated_Source\PSoC4/BLE.c ****     *******************************************************************************
 697:.\Generated_Source\PSoC4/BLE.c ****     
 698:.\Generated_Source\PSoC4/BLE.c ****      Summary:
 699:.\Generated_Source\PSoC4/BLE.c ****       This function is used for discovering GAP peripheral devices that are 
 700:.\Generated_Source\PSoC4/BLE.c ****       available for connection. It performs the scanning routine using the 
 701:.\Generated_Source\PSoC4/BLE.c ****       parameters entered in the component's customizer.
 702:.\Generated_Source\PSoC4/BLE.c ****       
 703:.\Generated_Source\PSoC4/BLE.c ****       As soon as the discovery operation starts, CYBLE_EVT_GAPC_SCAN_START_STOP 
 704:.\Generated_Source\PSoC4/BLE.c ****       event is generated. The CYBLE_EVT_GAPC_SCAN_PROGRESS_RESULT event is 
 705:.\Generated_Source\PSoC4/BLE.c ****       generated when a GAP peripheral device is located. There are three discovery
 706:.\Generated_Source\PSoC4/BLE.c ****       procedures can be selected in the customizer's GUI:
 707:.\Generated_Source\PSoC4/BLE.c ****       
 708:.\Generated_Source\PSoC4/BLE.c ****       * Observation procedure: A device performing the observer role receives only
 709:.\Generated_Source\PSoC4/BLE.c ****                                advertisement data from devices irrespective of 
 710:.\Generated_Source\PSoC4/BLE.c ****                                their discoverable mode settings. Advertisement 
 711:.\Generated_Source\PSoC4/BLE.c ****                                data received is provided by the event,      
 712:.\Generated_Source\PSoC4/BLE.c ****                                CYBLE_EVT_GAPC_SCAN_PROGRESS_RESULT. This procedure
 713:.\Generated_Source\PSoC4/BLE.c ****                                requires the scanType sub parameter to be passive
 714:.\Generated_Source\PSoC4/BLE.c ****                                scanning. 
 715:.\Generated_Source\PSoC4/BLE.c ****       
 716:.\Generated_Source\PSoC4/BLE.c ****       * Limited Discovery procedure: A device performing the limited discovery
 717:.\Generated_Source\PSoC4/BLE.c ****                                      procedure receives advertisement data and 
ARM GAS  C:\Users\ELECTR~1\AppData\Local\Temp\ccgiaJs0.s 			page 14


 718:.\Generated_Source\PSoC4/BLE.c ****                                      scan# response data from devices in the 
 719:.\Generated_Source\PSoC4/BLE.c ****                                      limited discoverable mode only. Received data
 720:.\Generated_Source\PSoC4/BLE.c ****                                      is provided by the event, 
 721:.\Generated_Source\PSoC4/BLE.c ****                                      CYBLE_EVT_GAPC_SCAN_PROGRESS_RESULT. This 
 722:.\Generated_Source\PSoC4/BLE.c ****                                      procedure requires the scanType sub-parameter 
 723:.\Generated_Source\PSoC4/BLE.c ****                                      to be active scanning.
 724:.\Generated_Source\PSoC4/BLE.c ****       
 725:.\Generated_Source\PSoC4/BLE.c ****       * General Discovery procedure: A device performing the general discovery 
 726:.\Generated_Source\PSoC4/BLE.c ****                                      procedure receives the advertisement data and
 727:.\Generated_Source\PSoC4/BLE.c ****                                      scan response data from devices in both 
 728:.\Generated_Source\PSoC4/BLE.c ****                                      limited discoverable mode and the general 
 729:.\Generated_Source\PSoC4/BLE.c ****                                      discoverable mode. Received data is provided
 730:.\Generated_Source\PSoC4/BLE.c ****                                      by the event,
 731:.\Generated_Source\PSoC4/BLE.c ****                                      CYBLE_EVT_GAPC_SCAN_PROGRESS_RESULT. This 
 732:.\Generated_Source\PSoC4/BLE.c ****                                      procedure requires the scanType sub-parameter
 733:.\Generated_Source\PSoC4/BLE.c ****                                      to be active scanning.
 734:.\Generated_Source\PSoC4/BLE.c ****       
 735:.\Generated_Source\PSoC4/BLE.c ****       Every Advertisement / Scan response packet received results in a new event, 
 736:.\Generated_Source\PSoC4/BLE.c ****       CYBLE_EVT_GAPC_SCAN_PROGRESS_RESULT.
 737:.\Generated_Source\PSoC4/BLE.c ****       If 'scanTo' sub-parameter is a non-zero value, then upon commencement of 
 738:.\Generated_Source\PSoC4/BLE.c ****       discovery procedure and elapsed time = 'scanTo', CYBLE_EVT_TIMEOUT event
 739:.\Generated_Source\PSoC4/BLE.c ****       is generated with the event parameter indicating CYBLE_GAP_SCAN_TO.
 740:.\Generated_Source\PSoC4/BLE.c ****       Possible generated events are:
 741:.\Generated_Source\PSoC4/BLE.c ****       * CYBLE_EVT_GAPC_SCAN_START_STOP: If a device started or stopped scanning. 
 742:.\Generated_Source\PSoC4/BLE.c ****                                         Use CyBle_GetState() to determine the 
 743:.\Generated_Source\PSoC4/BLE.c ****                                         state. Sequential scanning could be 
 744:.\Generated_Source\PSoC4/BLE.c ****                                         started when CYBLE_STATE_DISCONNECTED 
 745:.\Generated_Source\PSoC4/BLE.c ****                                         state is returned. 
 746:.\Generated_Source\PSoC4/BLE.c ****       * CYBLE_EVT_GAPC_SCAN_PROGRESS_RESULT 
 747:.\Generated_Source\PSoC4/BLE.c ****       * CYBLE_EVT_TIMEOUT (CYBLE_GAP_SCAN_TO)
 748:.\Generated_Source\PSoC4/BLE.c ****     
 749:.\Generated_Source\PSoC4/BLE.c ****      Parameters:
 750:.\Generated_Source\PSoC4/BLE.c ****       uint8 scanningIntervalType:  Fast or slow scanning interval with
 751:.\Generated_Source\PSoC4/BLE.c ****           timings entered in Scan settings section of the customizer.
 752:.\Generated_Source\PSoC4/BLE.c ****     	  * CYBLE_SCANNING_FAST   0x00u
 753:.\Generated_Source\PSoC4/BLE.c ****     	  * CYBLE_SCANNING_SLOW   0x01u
 754:.\Generated_Source\PSoC4/BLE.c ****     	  * CYBLE_SCANNING_CUSTOM 0x02u
 755:.\Generated_Source\PSoC4/BLE.c ****     
 756:.\Generated_Source\PSoC4/BLE.c ****     Return:
 757:.\Generated_Source\PSoC4/BLE.c ****      CYBLE_API_RESULT_T : Return value indicates if the function succeeded or
 758:.\Generated_Source\PSoC4/BLE.c ****      failed. Following are the possible error codes.
 759:.\Generated_Source\PSoC4/BLE.c ****      <table>
 760:.\Generated_Source\PSoC4/BLE.c ****       Errors codes                        Description
 761:.\Generated_Source\PSoC4/BLE.c ****       ------------                        -----------
 762:.\Generated_Source\PSoC4/BLE.c ****       CYBLE_ERROR_OK                      On successful operation.
 763:.\Generated_Source\PSoC4/BLE.c ****       CYBLE_ERROR_STACK_INTERNAL          An error occurred in the BLE stack.
 764:.\Generated_Source\PSoC4/BLE.c ****       CYBLE_ERROR_INVALID_PARAMETER       On passing an invalid parameter.
 765:.\Generated_Source\PSoC4/BLE.c ****      </table>
 766:.\Generated_Source\PSoC4/BLE.c ****      
 767:.\Generated_Source\PSoC4/BLE.c ****     ******************************************************************************/
 768:.\Generated_Source\PSoC4/BLE.c ****     CYBLE_API_RESULT_T CyBle_GapcStartScan(uint8 scanningIntervalType)
 769:.\Generated_Source\PSoC4/BLE.c ****     {
 770:.\Generated_Source\PSoC4/BLE.c ****         CYBLE_API_RESULT_T apiResult;
 771:.\Generated_Source\PSoC4/BLE.c **** 
 772:.\Generated_Source\PSoC4/BLE.c ****         if(scanningIntervalType > CYBLE_SCANNING_CUSTOM)
 773:.\Generated_Source\PSoC4/BLE.c ****         {
 774:.\Generated_Source\PSoC4/BLE.c ****             apiResult = CYBLE_ERROR_INVALID_PARAMETER;
ARM GAS  C:\Users\ELECTR~1\AppData\Local\Temp\ccgiaJs0.s 			page 15


 775:.\Generated_Source\PSoC4/BLE.c ****         }
 776:.\Generated_Source\PSoC4/BLE.c ****         else
 777:.\Generated_Source\PSoC4/BLE.c ****         {
 778:.\Generated_Source\PSoC4/BLE.c ****             if(scanningIntervalType == CYBLE_SCANNING_FAST)
 779:.\Generated_Source\PSoC4/BLE.c ****             {
 780:.\Generated_Source\PSoC4/BLE.c ****                 cyBle_discoveryInfo.scanTo = CYBLE_FAST_SCAN_TIMEOUT;
 781:.\Generated_Source\PSoC4/BLE.c ****                 cyBle_discoveryInfo.scanIntv = CYBLE_FAST_SCAN_INTERVAL;
 782:.\Generated_Source\PSoC4/BLE.c ****                 cyBle_discoveryInfo.scanWindow = CYBLE_FAST_SCAN_WINDOW;
 783:.\Generated_Source\PSoC4/BLE.c ****             }
 784:.\Generated_Source\PSoC4/BLE.c ****             else if(scanningIntervalType == CYBLE_SCANNING_SLOW)
 785:.\Generated_Source\PSoC4/BLE.c ****             {
 786:.\Generated_Source\PSoC4/BLE.c ****                 cyBle_discoveryInfo.scanTo = CYBLE_SLOW_SCAN_TIMEOUT;
 787:.\Generated_Source\PSoC4/BLE.c ****                 cyBle_discoveryInfo.scanIntv = CYBLE_SLOW_SCAN_INTERVAL;
 788:.\Generated_Source\PSoC4/BLE.c ****                 cyBle_discoveryInfo.scanWindow = CYBLE_SLOW_SCAN_WINDOW;
 789:.\Generated_Source\PSoC4/BLE.c ****             }       
 790:.\Generated_Source\PSoC4/BLE.c ****             else /* Do not update scanning intervals */
 791:.\Generated_Source\PSoC4/BLE.c ****             {
 792:.\Generated_Source\PSoC4/BLE.c ****             }
 793:.\Generated_Source\PSoC4/BLE.c ****             
 794:.\Generated_Source\PSoC4/BLE.c ****             cyBle_scanningIntervalType = scanningIntervalType;
 795:.\Generated_Source\PSoC4/BLE.c ****             apiResult = CyBle_GapcStartDiscovery(&cyBle_discoveryInfo);
 796:.\Generated_Source\PSoC4/BLE.c ****         
 797:.\Generated_Source\PSoC4/BLE.c ****             if(CYBLE_ERROR_OK == apiResult)
 798:.\Generated_Source\PSoC4/BLE.c ****             {
 799:.\Generated_Source\PSoC4/BLE.c ****                 cyBle_eventHandlerFlag |= CYBLE_START_FLAG;
 800:.\Generated_Source\PSoC4/BLE.c ****             }
 801:.\Generated_Source\PSoC4/BLE.c ****         }
 802:.\Generated_Source\PSoC4/BLE.c ****        
 803:.\Generated_Source\PSoC4/BLE.c ****         return (apiResult);
 804:.\Generated_Source\PSoC4/BLE.c ****     }
 805:.\Generated_Source\PSoC4/BLE.c ****     
 806:.\Generated_Source\PSoC4/BLE.c ****     
 807:.\Generated_Source\PSoC4/BLE.c ****     /******************************************************************************
 808:.\Generated_Source\PSoC4/BLE.c ****     ##Function Name: CyBle_GapcStopScan
 809:.\Generated_Source\PSoC4/BLE.c ****     *******************************************************************************
 810:.\Generated_Source\PSoC4/BLE.c ****     
 811:.\Generated_Source\PSoC4/BLE.c ****      Summary:
 812:.\Generated_Source\PSoC4/BLE.c ****       This function used to stop the discovery of devices. On stopping discovery
 813:.\Generated_Source\PSoC4/BLE.c ****       operation, CYBLE_EVT_GAPC_SCAN_START_STOP event is generated. Application
 814:.\Generated_Source\PSoC4/BLE.c ****       layer needs to keep track of the function call made before receiving this
 815:.\Generated_Source\PSoC4/BLE.c ****       event to associate this event with either the start or stop discovery
 816:.\Generated_Source\PSoC4/BLE.c ****       function.
 817:.\Generated_Source\PSoC4/BLE.c ****     
 818:.\Generated_Source\PSoC4/BLE.c ****       Possible events generated are:
 819:.\Generated_Source\PSoC4/BLE.c ****        * CYBLE_EVT_GAPC_SCAN_START_STOP
 820:.\Generated_Source\PSoC4/BLE.c ****     
 821:.\Generated_Source\PSoC4/BLE.c ****      Parameters:
 822:.\Generated_Source\PSoC4/BLE.c ****       None
 823:.\Generated_Source\PSoC4/BLE.c ****     
 824:.\Generated_Source\PSoC4/BLE.c ****      Return:
 825:.\Generated_Source\PSoC4/BLE.c ****       None
 826:.\Generated_Source\PSoC4/BLE.c ****     
 827:.\Generated_Source\PSoC4/BLE.c ****     ******************************************************************************/
 828:.\Generated_Source\PSoC4/BLE.c ****     void CyBle_GapcStopScan(void)
 829:.\Generated_Source\PSoC4/BLE.c ****     {
 830:.\Generated_Source\PSoC4/BLE.c ****         CyBle_GapcStopDiscovery();
 831:.\Generated_Source\PSoC4/BLE.c ****         
ARM GAS  C:\Users\ELECTR~1\AppData\Local\Temp\ccgiaJs0.s 			page 16


 832:.\Generated_Source\PSoC4/BLE.c ****         cyBle_eventHandlerFlag |= CYBLE_STOP_FLAG;
 833:.\Generated_Source\PSoC4/BLE.c ****     }
 834:.\Generated_Source\PSoC4/BLE.c **** 
 835:.\Generated_Source\PSoC4/BLE.c ****     
 836:.\Generated_Source\PSoC4/BLE.c **** #endif /* CYBLE_GAP_ROLE_CENTRAL || CYBLE_GAP_ROLE_OBSERVER */
 837:.\Generated_Source\PSoC4/BLE.c **** 
 838:.\Generated_Source\PSoC4/BLE.c **** 
 839:.\Generated_Source\PSoC4/BLE.c **** #if(CYBLE_GAP_ROLE_CENTRAL)
 840:.\Generated_Source\PSoC4/BLE.c **** 
 841:.\Generated_Source\PSoC4/BLE.c ****     /******************************************************************************
 842:.\Generated_Source\PSoC4/BLE.c ****     ##Function Name: CyBle_GapcConnectDevice
 843:.\Generated_Source\PSoC4/BLE.c ****     *******************************************************************************
 844:.\Generated_Source\PSoC4/BLE.c ****     
 845:.\Generated_Source\PSoC4/BLE.c ****     Summary:
 846:.\Generated_Source\PSoC4/BLE.c ****      This function is used to send a connection request to the remote device with
 847:.\Generated_Source\PSoC4/BLE.c ****      the connection parameters set in the component customizer. This function needs
 848:.\Generated_Source\PSoC4/BLE.c ****      to be called only once after the target device is discovered by 
 849:.\Generated_Source\PSoC4/BLE.c ****      CyBle_GapcStartScan() and further scanning has stopped. Scanning is 
 850:.\Generated_Source\PSoC4/BLE.c ****      successfully stopped on invoking CyBle_GapcStopScan() and then receiving the
 851:.\Generated_Source\PSoC4/BLE.c ****      event CYBLE_EVT_GAPC_SCAN_START_STOP with sub-parameter 'success' = 0x01u.
 852:.\Generated_Source\PSoC4/BLE.c ****      
 853:.\Generated_Source\PSoC4/BLE.c ****      On successful connection, the following events are generated at the GAP 
 854:.\Generated_Source\PSoC4/BLE.c ****      Central device (as well as the GAP Peripheral device), in the following order.
 855:.\Generated_Source\PSoC4/BLE.c ****      * CYBLE_EVT_GATT_CONNECT_IND
 856:.\Generated_Source\PSoC4/BLE.c ****      * CYBLE_EVT_GAP_DEVICE_CONNECTED
 857:.\Generated_Source\PSoC4/BLE.c ****  
 858:.\Generated_Source\PSoC4/BLE.c ****      A procedure is considered to have timed out if a connection response packet is 
 859:.\Generated_Source\PSoC4/BLE.c ****      not received within time set by cyBle_connectingTimeout global variable
 860:.\Generated_Source\PSoC4/BLE.c ****      (30 seconds by default). CYBLE_EVT_TIMEOUT event with CYBLE_GENERIC_TO parameter
 861:.\Generated_Source\PSoC4/BLE.c ****      will indicate about connection procedure timeout. Connection will automatically
 862:.\Generated_Source\PSoC4/BLE.c ****      be canceled and state will be changed to CYBLE_STATE_DISCONNECTED.
 863:.\Generated_Source\PSoC4/BLE.c ****     
 864:.\Generated_Source\PSoC4/BLE.c ****     Parameters:
 865:.\Generated_Source\PSoC4/BLE.c ****      const CYBLE_GAP_BD_ADDR_T address: The device address of the remote device to 
 866:.\Generated_Source\PSoC4/BLE.c ****                                         connect to. 
 867:.\Generated_Source\PSoC4/BLE.c ****      timeout: Timeout for which timer to be started in seconds.
 868:.\Generated_Source\PSoC4/BLE.c ****  
 869:.\Generated_Source\PSoC4/BLE.c ****     Return:
 870:.\Generated_Source\PSoC4/BLE.c ****      CYBLE_API_RESULT_T : Return value indicates if the function succeeded or 
 871:.\Generated_Source\PSoC4/BLE.c ****      failed. Following are the possible error codes.
 872:.\Generated_Source\PSoC4/BLE.c ****      <table>
 873:.\Generated_Source\PSoC4/BLE.c ****       Errors codes                        Description
 874:.\Generated_Source\PSoC4/BLE.c ****       ------------                        -----------
 875:.\Generated_Source\PSoC4/BLE.c ****       CYBLE_ERROR_OK                      On successful operation.
 876:.\Generated_Source\PSoC4/BLE.c ****       CYBLE_ERROR_STACK_INTERNAL          On error occurred in the BLE stack.
 877:.\Generated_Source\PSoC4/BLE.c ****       CYBLE_ERROR_INVALID_PARAMETER       On passing an invalid parameter.
 878:.\Generated_Source\PSoC4/BLE.c ****       CYBLE_ERROR_INVALID_STATE           On calling this API not in 
 879:.\Generated_Source\PSoC4/BLE.c ****                                           Disconnected state.
 880:.\Generated_Source\PSoC4/BLE.c ****      </table>
 881:.\Generated_Source\PSoC4/BLE.c ****  
 882:.\Generated_Source\PSoC4/BLE.c ****     ******************************************************************************/
 883:.\Generated_Source\PSoC4/BLE.c ****     CYBLE_API_RESULT_T CyBle_GapcConnectDevice(const CYBLE_GAP_BD_ADDR_T * address)
 884:.\Generated_Source\PSoC4/BLE.c ****     {
 885:.\Generated_Source\PSoC4/BLE.c ****         CYBLE_API_RESULT_T apiResult;
 886:.\Generated_Source\PSoC4/BLE.c ****         uint8 i;
 887:.\Generated_Source\PSoC4/BLE.c **** 
 888:.\Generated_Source\PSoC4/BLE.c ****         if(CYBLE_STATE_DISCONNECTED != CyBle_GetState())
ARM GAS  C:\Users\ELECTR~1\AppData\Local\Temp\ccgiaJs0.s 			page 17


 889:.\Generated_Source\PSoC4/BLE.c ****         {
 890:.\Generated_Source\PSoC4/BLE.c ****             apiResult = CYBLE_ERROR_INVALID_STATE;
 891:.\Generated_Source\PSoC4/BLE.c ****         }
 892:.\Generated_Source\PSoC4/BLE.c ****         else if(address == NULL)
 893:.\Generated_Source\PSoC4/BLE.c ****         {
 894:.\Generated_Source\PSoC4/BLE.c ****             apiResult = CYBLE_ERROR_INVALID_PARAMETER;
 895:.\Generated_Source\PSoC4/BLE.c ****         }
 896:.\Generated_Source\PSoC4/BLE.c ****         else
 897:.\Generated_Source\PSoC4/BLE.c ****         {
 898:.\Generated_Source\PSoC4/BLE.c ****             for(i = 0u; i < CYBLE_GAP_BD_ADDR_SIZE; i++)
 899:.\Generated_Source\PSoC4/BLE.c ****             {
 900:.\Generated_Source\PSoC4/BLE.c ****                 cyBle_connectionParameters.peerBdAddr[i] = address->bdAddr[i];
 901:.\Generated_Source\PSoC4/BLE.c ****             }
 902:.\Generated_Source\PSoC4/BLE.c ****             cyBle_connectionParameters.peerAddrType = address -> type;
 903:.\Generated_Source\PSoC4/BLE.c ****             apiResult = CyBle_GapcInitConnection(&cyBle_connectionParameters);
 904:.\Generated_Source\PSoC4/BLE.c ****             
 905:.\Generated_Source\PSoC4/BLE.c ****             if(CYBLE_ERROR_OK == apiResult)
 906:.\Generated_Source\PSoC4/BLE.c ****             {
 907:.\Generated_Source\PSoC4/BLE.c ****                 CyBle_SetState(CYBLE_STATE_CONNECTING);
 908:.\Generated_Source\PSoC4/BLE.c ****                 if(cyBle_connectingTimeout != 0u)
 909:.\Generated_Source\PSoC4/BLE.c ****                 {
 910:.\Generated_Source\PSoC4/BLE.c ****                     (void)CyBle_StartTimer(cyBle_connectingTimeout);
 911:.\Generated_Source\PSoC4/BLE.c ****                 }
 912:.\Generated_Source\PSoC4/BLE.c ****             }
 913:.\Generated_Source\PSoC4/BLE.c ****         }
 914:.\Generated_Source\PSoC4/BLE.c ****         return (apiResult);
 915:.\Generated_Source\PSoC4/BLE.c ****     }
 916:.\Generated_Source\PSoC4/BLE.c ****     
 917:.\Generated_Source\PSoC4/BLE.c **** 
 918:.\Generated_Source\PSoC4/BLE.c ****     /******************************************************************************
 919:.\Generated_Source\PSoC4/BLE.c ****     ##Function Name: CyBle_GapcCancelDeviceConnection
 920:.\Generated_Source\PSoC4/BLE.c ****     *******************************************************************************
 921:.\Generated_Source\PSoC4/BLE.c ****     
 922:.\Generated_Source\PSoC4/BLE.c ****     Summary:
 923:.\Generated_Source\PSoC4/BLE.c ****      This function cancels a previously initiated connection with the remote 
 924:.\Generated_Source\PSoC4/BLE.c ****      device. It is a blocking function. No event is generated on calling this 
 925:.\Generated_Source\PSoC4/BLE.c ****      function. If the devices are already connected then this function should not
 926:.\Generated_Source\PSoC4/BLE.c ****      be used. If you intend to disconnect from an existing connection, the function
 927:.\Generated_Source\PSoC4/BLE.c ****      CyBle_GapDisconnect() should be used.
 928:.\Generated_Source\PSoC4/BLE.c **** 
 929:.\Generated_Source\PSoC4/BLE.c ****     Parameters:
 930:.\Generated_Source\PSoC4/BLE.c ****      None
 931:.\Generated_Source\PSoC4/BLE.c **** 
 932:.\Generated_Source\PSoC4/BLE.c ****     Return:
 933:.\Generated_Source\PSoC4/BLE.c ****      CYBLE_API_RESULT_T : Return value indicates if the function succeeded or 
 934:.\Generated_Source\PSoC4/BLE.c ****      failed. Following are the possible error codes.
 935:.\Generated_Source\PSoC4/BLE.c ****      <table>
 936:.\Generated_Source\PSoC4/BLE.c ****       Errors codes                        Description
 937:.\Generated_Source\PSoC4/BLE.c ****       ------------                        -----------
 938:.\Generated_Source\PSoC4/BLE.c ****       CYBLE_ERROR_OK                      On successful operation.
 939:.\Generated_Source\PSoC4/BLE.c ****       CYBLE_ERROR_STACK_INTERNAL          An error occurred in the 
 940:.\Generated_Source\PSoC4/BLE.c ****                                            BLE stack.
 941:.\Generated_Source\PSoC4/BLE.c ****       CYBLE_ERROR_INVALID_OPERATION       Device is already connected.
 942:.\Generated_Source\PSoC4/BLE.c ****      </table>
 943:.\Generated_Source\PSoC4/BLE.c ****  
 944:.\Generated_Source\PSoC4/BLE.c ****     ******************************************************************************/
 945:.\Generated_Source\PSoC4/BLE.c ****     CYBLE_API_RESULT_T CyBle_GapcCancelDeviceConnection(void)
ARM GAS  C:\Users\ELECTR~1\AppData\Local\Temp\ccgiaJs0.s 			page 18


 946:.\Generated_Source\PSoC4/BLE.c ****     {
 947:.\Generated_Source\PSoC4/BLE.c ****         CYBLE_API_RESULT_T apiResult;
 948:.\Generated_Source\PSoC4/BLE.c ****         
 949:.\Generated_Source\PSoC4/BLE.c ****         apiResult = CyBle_GapcCancelConnection();
 950:.\Generated_Source\PSoC4/BLE.c ****             
 951:.\Generated_Source\PSoC4/BLE.c ****         if(cyBle_connectingTimeout != 0u)
 952:.\Generated_Source\PSoC4/BLE.c ****         {
 953:.\Generated_Source\PSoC4/BLE.c ****             (void)CyBle_StopTimer();
 954:.\Generated_Source\PSoC4/BLE.c ****         }
 955:.\Generated_Source\PSoC4/BLE.c **** 
 956:.\Generated_Source\PSoC4/BLE.c ****         if(CYBLE_ERROR_OK == apiResult)
 957:.\Generated_Source\PSoC4/BLE.c ****         {
 958:.\Generated_Source\PSoC4/BLE.c ****             CyBle_SetState(CYBLE_STATE_DISCONNECTED);
 959:.\Generated_Source\PSoC4/BLE.c ****         }
 960:.\Generated_Source\PSoC4/BLE.c ****         return (apiResult);
 961:.\Generated_Source\PSoC4/BLE.c ****     }    
 962:.\Generated_Source\PSoC4/BLE.c **** 
 963:.\Generated_Source\PSoC4/BLE.c ****     
 964:.\Generated_Source\PSoC4/BLE.c **** #endif /* CYBLE_GAP_ROLE_CENTRAL */
 965:.\Generated_Source\PSoC4/BLE.c **** 
 966:.\Generated_Source\PSoC4/BLE.c **** 
 967:.\Generated_Source\PSoC4/BLE.c **** #if(CYBLE_GATT_ROLE_SERVER)
 968:.\Generated_Source\PSoC4/BLE.c **** 
 969:.\Generated_Source\PSoC4/BLE.c **** #if(CYBLE_GAP_ROLE_PERIPHERAL)
 970:.\Generated_Source\PSoC4/BLE.c **** 
 971:.\Generated_Source\PSoC4/BLE.c ****         /******************************************************************************
 972:.\Generated_Source\PSoC4/BLE.c ****         ##Function Name: CyBle_ChangeAdLocalName
 973:.\Generated_Source\PSoC4/BLE.c ****         *******************************************************************************
 974:.\Generated_Source\PSoC4/BLE.c ****         Summary:
 975:.\Generated_Source\PSoC4/BLE.c ****          This API is used to set the local device name in the advertisement or scan 
 976:.\Generated_Source\PSoC4/BLE.c ****          response data structure.
 977:.\Generated_Source\PSoC4/BLE.c **** 
 978:.\Generated_Source\PSoC4/BLE.c ****         Parameters:
 979:.\Generated_Source\PSoC4/BLE.c ****          char8 name: The local device name string to be set in advertisement data 
 980:.\Generated_Source\PSoC4/BLE.c ****                    structure.
 981:.\Generated_Source\PSoC4/BLE.c ****          uint8 dest: 0 - advertisement structure, not zero value selects scan response
 982:.\Generated_Source\PSoC4/BLE.c ****                      structure.
 983:.\Generated_Source\PSoC4/BLE.c **** 
 984:.\Generated_Source\PSoC4/BLE.c ****         Return:
 985:.\Generated_Source\PSoC4/BLE.c ****          None
 986:.\Generated_Source\PSoC4/BLE.c ****      
 987:.\Generated_Source\PSoC4/BLE.c ****         ******************************************************************************/
 988:.\Generated_Source\PSoC4/BLE.c ****         static void CyBle_ChangeAdLocalName(const char8 name[], uint8 dest)
 989:.\Generated_Source\PSoC4/BLE.c ****         {
  25              		.loc 1 989 0
  26              		.cfi_startproc
  27              	.LVL0:
  28 0000 70B5     		push	{r4, r5, r6, lr}
  29              		.cfi_def_cfa_offset 16
  30              		.cfi_offset 4, -16
  31              		.cfi_offset 5, -12
  32              		.cfi_offset 6, -8
  33              		.cfi_offset 14, -4
  34              	.LVL1:
 990:.\Generated_Source\PSoC4/BLE.c ****             uint8 i;
 991:.\Generated_Source\PSoC4/BLE.c ****             uint8 flag = 0u;
 992:.\Generated_Source\PSoC4/BLE.c ****             uint8 adLength = 0u;
ARM GAS  C:\Users\ELECTR~1\AppData\Local\Temp\ccgiaJs0.s 			page 19


 993:.\Generated_Source\PSoC4/BLE.c ****             uint8 byteCounter = 0u;
 994:.\Generated_Source\PSoC4/BLE.c ****             uint8 *destBuffer;
 995:.\Generated_Source\PSoC4/BLE.c ****             uint8 maxLength;
 996:.\Generated_Source\PSoC4/BLE.c ****             
 997:.\Generated_Source\PSoC4/BLE.c ****             if(dest == 0u)      /* Destination - advertising structure */
  35              		.loc 1 997 0
  36 0002 0029     		cmp	r1, #0
  37 0004 05D1     		bne	.L2
  38              	.LVL2:
 998:.\Generated_Source\PSoC4/BLE.c ****             {
 999:.\Generated_Source\PSoC4/BLE.c ****                 destBuffer = cyBle_discoveryData.advData;
1000:.\Generated_Source\PSoC4/BLE.c ****                 maxLength = cyBle_discoveryData.advDataLen;
  39              		.loc 1 1000 0
  40 0006 1A4C     		ldr	r4, .L15
  41 0008 E67F     		ldrb	r6, [r4, #31]
  42              	.LVL3:
  43              	.L4:
1001:.\Generated_Source\PSoC4/BLE.c ****             }
1002:.\Generated_Source\PSoC4/BLE.c ****             else                /* Destination - scan response structure */
1003:.\Generated_Source\PSoC4/BLE.c ****             {
1004:.\Generated_Source\PSoC4/BLE.c ****                 destBuffer = cyBle_scanRspData.scanRspData;
1005:.\Generated_Source\PSoC4/BLE.c ****                 maxLength = cyBle_scanRspData.scanRspDataLen;
1006:.\Generated_Source\PSoC4/BLE.c ****             }
1007:.\Generated_Source\PSoC4/BLE.c ****             
1008:.\Generated_Source\PSoC4/BLE.c ****             while((byteCounter < maxLength) && (0u == flag))
1009:.\Generated_Source\PSoC4/BLE.c ****             {
1010:.\Generated_Source\PSoC4/BLE.c ****                 adLength = destBuffer[byteCounter];
1011:.\Generated_Source\PSoC4/BLE.c ****                 
1012:.\Generated_Source\PSoC4/BLE.c ****                 if(0u != adLength)
1013:.\Generated_Source\PSoC4/BLE.c ****                 {
1014:.\Generated_Source\PSoC4/BLE.c ****                     /* Increment byte counter so it can point to AD type */
1015:.\Generated_Source\PSoC4/BLE.c ****                     byteCounter++;
1016:.\Generated_Source\PSoC4/BLE.c ****                     
1017:.\Generated_Source\PSoC4/BLE.c ****                     if((CYBLE_SHORT_LOCAL_NAME == destBuffer[byteCounter]) || 
1018:.\Generated_Source\PSoC4/BLE.c ****                        (CYBLE_COMPLETE_LOCAL_NAME == destBuffer[byteCounter]))
1019:.\Generated_Source\PSoC4/BLE.c ****                     {
1020:.\Generated_Source\PSoC4/BLE.c ****                         /* Start of the Local Name AD type was fount. Set flag and exit the loop. *
1021:.\Generated_Source\PSoC4/BLE.c ****                         flag = 1u;
  44              		.loc 1 1021 0
  45 000a 0023     		mov	r3, #0
  46 000c 0022     		mov	r2, #0
  47 000e 0025     		mov	r5, #0
  48 0010 10E0     		b	.L3
  49              	.LVL4:
  50              	.L2:
1005:.\Generated_Source\PSoC4/BLE.c ****             }
  51              		.loc 1 1005 0
  52 0012 174C     		ldr	r4, .L15
  53 0014 2034     		add	r4, r4, #32
  54 0016 E67F     		ldrb	r6, [r4, #31]
  55              	.LVL5:
  56 0018 F7E7     		b	.L4
  57              	.LVL6:
  58              	.L7:
1010:.\Generated_Source\PSoC4/BLE.c ****                 
  59              		.loc 1 1010 0
  60 001a E25C     		ldrb	r2, [r4, r3]
ARM GAS  C:\Users\ELECTR~1\AppData\Local\Temp\ccgiaJs0.s 			page 20


  61              	.LVL7:
1012:.\Generated_Source\PSoC4/BLE.c ****                 {
  62              		.loc 1 1012 0
  63 001c 002A     		cmp	r2, #0
  64 001e 0DD0     		beq	.L5
1015:.\Generated_Source\PSoC4/BLE.c ****                     
  65              		.loc 1 1015 0
  66 0020 0133     		add	r3, r3, #1
  67              	.LVL8:
  68 0022 DBB2     		uxtb	r3, r3
  69              	.LVL9:
1017:.\Generated_Source\PSoC4/BLE.c ****                        (CYBLE_COMPLETE_LOCAL_NAME == destBuffer[byteCounter]))
  70              		.loc 1 1017 0
  71 0024 E15C     		ldrb	r1, [r4, r3]
  72 0026 0839     		sub	r1, r1, #8
  73 0028 0129     		cmp	r1, #1
  74 002a 02D9     		bls	.L14
1022:.\Generated_Source\PSoC4/BLE.c ****                     }
1023:.\Generated_Source\PSoC4/BLE.c ****                     else
1024:.\Generated_Source\PSoC4/BLE.c ****                     {
1025:.\Generated_Source\PSoC4/BLE.c ****                         byteCounter += adLength;
  75              		.loc 1 1025 0
  76 002c 9B18     		add	r3, r3, r2
  77              	.LVL10:
  78 002e DBB2     		uxtb	r3, r3
  79              	.LVL11:
  80 0030 00E0     		b	.L3
  81              	.L14:
1021:.\Generated_Source\PSoC4/BLE.c ****                     }
  82              		.loc 1 1021 0
  83 0032 0125     		mov	r5, #1
  84              	.LVL12:
  85              	.L3:
1008:.\Generated_Source\PSoC4/BLE.c ****             {
  86              		.loc 1 1008 0
  87 0034 B342     		cmp	r3, r6
  88 0036 01D2     		bcs	.L5
1008:.\Generated_Source\PSoC4/BLE.c ****             {
  89              		.loc 1 1008 0 is_stmt 0 discriminator 1
  90 0038 002D     		cmp	r5, #0
  91 003a EED0     		beq	.L7
  92              	.L5:
1026:.\Generated_Source\PSoC4/BLE.c ****                     }
1027:.\Generated_Source\PSoC4/BLE.c ****                 }
1028:.\Generated_Source\PSoC4/BLE.c ****                 else
1029:.\Generated_Source\PSoC4/BLE.c ****                 {
1030:.\Generated_Source\PSoC4/BLE.c ****                     /* The end of advertisement data structure was encountered though exit the loop
1031:.\Generated_Source\PSoC4/BLE.c ****                     break;
1032:.\Generated_Source\PSoC4/BLE.c ****                 }
1033:.\Generated_Source\PSoC4/BLE.c ****             }
1034:.\Generated_Source\PSoC4/BLE.c ****             
1035:.\Generated_Source\PSoC4/BLE.c ****             if(0u != flag)
  93              		.loc 1 1035 0 is_stmt 1
  94 003c 002D     		cmp	r5, #0
  95 003e 16D0     		beq	.L1
1036:.\Generated_Source\PSoC4/BLE.c ****             {
1037:.\Generated_Source\PSoC4/BLE.c ****                 /* Reuse "adLength" to hold location of the last character of local name in 
ARM GAS  C:\Users\ELECTR~1\AppData\Local\Temp\ccgiaJs0.s 			page 21


1038:.\Generated_Source\PSoC4/BLE.c ****                    AD structure. */
1039:.\Generated_Source\PSoC4/BLE.c ****                 adLength += byteCounter;
  96              		.loc 1 1039 0
  97 0040 D218     		add	r2, r2, r3
  98              	.LVL13:
  99 0042 D1B2     		uxtb	r1, r2
 100              	.LVL14:
1040:.\Generated_Source\PSoC4/BLE.c ****                 
1041:.\Generated_Source\PSoC4/BLE.c ****                 /* Increment byte counter to point to start of the local Name string */
1042:.\Generated_Source\PSoC4/BLE.c ****                 byteCounter++;
 101              		.loc 1 1042 0
 102 0044 0133     		add	r3, r3, #1
 103              	.LVL15:
 104 0046 DBB2     		uxtb	r3, r3
 105              	.LVL16:
1043:.\Generated_Source\PSoC4/BLE.c ****                 
1044:.\Generated_Source\PSoC4/BLE.c ****                 for(i = byteCounter; ((i < (adLength)) && (CYBLE_NULL_CHARCTER != name[i - byteCoun
 106              		.loc 1 1044 0
 107 0048 1A1C     		mov	r2, r3
 108 004a 02E0     		b	.L9
 109              	.LVL17:
 110              	.L11:
1045:.\Generated_Source\PSoC4/BLE.c ****                 {
1046:.\Generated_Source\PSoC4/BLE.c ****                     destBuffer[i] = (uint8)name[i - byteCounter];
 111              		.loc 1 1046 0 discriminator 4
 112 004c A554     		strb	r5, [r4, r2]
1044:.\Generated_Source\PSoC4/BLE.c ****                 {
 113              		.loc 1 1044 0 discriminator 4
 114 004e 0132     		add	r2, r2, #1
 115              	.LVL18:
 116 0050 D2B2     		uxtb	r2, r2
 117              	.LVL19:
 118              	.L9:
1044:.\Generated_Source\PSoC4/BLE.c ****                 {
 119              		.loc 1 1044 0 is_stmt 0 discriminator 1
 120 0052 8A42     		cmp	r2, r1
 121 0054 09D2     		bcs	.L12
1044:.\Generated_Source\PSoC4/BLE.c ****                 {
 122              		.loc 1 1044 0 discriminator 3
 123 0056 D51A     		sub	r5, r2, r3
 124 0058 455D     		ldrb	r5, [r0, r5]
 125 005a 002D     		cmp	r5, #0
 126 005c F6D1     		bne	.L11
 127 005e 04E0     		b	.L12
 128              	.LVL20:
 129              	.L13:
1047:.\Generated_Source\PSoC4/BLE.c ****                 }
1048:.\Generated_Source\PSoC4/BLE.c ****                 
1049:.\Generated_Source\PSoC4/BLE.c ****                 /* This loop handles the case when new local name is shorted than old one.
1050:.\Generated_Source\PSoC4/BLE.c ****                    In this case all remaining characters should be null characters. */
1051:.\Generated_Source\PSoC4/BLE.c ****                 while(adLength > i)
1052:.\Generated_Source\PSoC4/BLE.c ****                 {
1053:.\Generated_Source\PSoC4/BLE.c ****                     /* Terminate string */
1054:.\Generated_Source\PSoC4/BLE.c ****                     destBuffer[i] = (uint8)CYBLE_NULL_CHARCTER;
 130              		.loc 1 1054 0 is_stmt 1
 131 0060 A318     		add	r3, r4, r2
 132 0062 0020     		mov	r0, #0
ARM GAS  C:\Users\ELECTR~1\AppData\Local\Temp\ccgiaJs0.s 			page 22


 133 0064 1870     		strb	r0, [r3]
1055:.\Generated_Source\PSoC4/BLE.c ****                     i++;
 134              		.loc 1 1055 0
 135 0066 0132     		add	r2, r2, #1
 136              	.LVL21:
 137 0068 D2B2     		uxtb	r2, r2
 138              	.LVL22:
 139              	.L12:
1051:.\Generated_Source\PSoC4/BLE.c ****                 {
 140              		.loc 1 1051 0
 141 006a 9142     		cmp	r1, r2
 142 006c F8D8     		bhi	.L13
 143              	.LVL23:
 144              	.L1:
1056:.\Generated_Source\PSoC4/BLE.c ****                 }
1057:.\Generated_Source\PSoC4/BLE.c ****             }
1058:.\Generated_Source\PSoC4/BLE.c ****         }
 145              		.loc 1 1058 0
 146              		@ sp needed
 147              	.LVL24:
 148              	.LVL25:
 149 006e 70BD     		pop	{r4, r5, r6, pc}
 150              	.L16:
 151              		.align	2
 152              	.L15:
 153 0070 00000000 		.word	.LANCHOR0
 154              		.cfi_endproc
 155              	.LFE10:
 156              		.size	CyBle_ChangeAdLocalName, .-CyBle_ChangeAdLocalName
 157              		.section	.text.CyBle_ServiceInit,"ax",%progbits
 158              		.align	2
 159              		.global	CyBle_ServiceInit
 160              		.code	16
 161              		.thumb_func
 162              		.type	CyBle_ServiceInit, %function
 163              	CyBle_ServiceInit:
 164              	.LFB3:
 204:.\Generated_Source\PSoC4/BLE.c ****     #if(CYBLE_GATT_ROLE_CLIENT)
 165              		.loc 1 204 0
 166              		.cfi_startproc
 167 0000 08B5     		push	{r3, lr}
 168              		.cfi_def_cfa_offset 8
 169              		.cfi_offset 3, -8
 170              		.cfi_offset 14, -4
 255:.\Generated_Source\PSoC4/BLE.c ****     #endif /* CYBLE_CUSTOM */
 171              		.loc 1 255 0
 172 0002 FFF7FEFF 		bl	CyBle_CustomInit
 173              	.LVL26:
 313:.\Generated_Source\PSoC4/BLE.c **** 
 174              		.loc 1 313 0
 175              		@ sp needed
 176 0006 08BD     		pop	{r3, pc}
 177              		.cfi_endproc
 178              	.LFE3:
 179              		.size	CyBle_ServiceInit, .-CyBle_ServiceInit
 180              		.section	.text.CyBle_Init,"ax",%progbits
 181              		.align	2
ARM GAS  C:\Users\ELECTR~1\AppData\Local\Temp\ccgiaJs0.s 			page 23


 182              		.global	CyBle_Init
 183              		.code	16
 184              		.thumb_func
 185              		.type	CyBle_Init, %function
 186              	CyBle_Init:
 187              	.LFB2:
 152:.\Generated_Source\PSoC4/BLE.c ****     cyBle_eventHandlerFlag = 0u;
 188              		.loc 1 152 0
 189              		.cfi_startproc
 190 0000 10B5     		push	{r4, lr}
 191              		.cfi_def_cfa_offset 8
 192              		.cfi_offset 4, -8
 193              		.cfi_offset 14, -4
 153:.\Generated_Source\PSoC4/BLE.c ****     cyBle_busyStatus = CYBLE_STACK_STATE_FREE;
 194              		.loc 1 153 0
 195 0002 0024     		mov	r4, #0
 196 0004 054B     		ldr	r3, .L19
 197 0006 1C70     		strb	r4, [r3]
 154:.\Generated_Source\PSoC4/BLE.c ****     
 198              		.loc 1 154 0
 199 0008 054B     		ldr	r3, .L19+4
 200 000a 1C70     		strb	r4, [r3]
 157:.\Generated_Source\PSoC4/BLE.c ****     #endif /* (CYBLE_GAP_ROLE_PERIPHERAL || CYBLE_GAP_ROLE_BROADCASTER)  */
 201              		.loc 1 157 0
 202 000c 054B     		ldr	r3, .L19+8
 203 000e 1C70     		strb	r4, [r3]
 180:.\Generated_Source\PSoC4/BLE.c **** 
 204              		.loc 1 180 0
 205 0010 FFF7FEFF 		bl	CyBle_ServiceInit
 206              	.LVL27:
 183:.\Generated_Source\PSoC4/BLE.c **** #endif  /* (CYBLE_BONDING_REQUIREMENT == CYBLE_BONDING_YES) */
 207              		.loc 1 183 0
 208 0014 044B     		ldr	r3, .L19+12
 209 0016 1C70     		strb	r4, [r3]
 186:.\Generated_Source\PSoC4/BLE.c **** 
 210              		.loc 1 186 0
 211              		@ sp needed
 212 0018 10BD     		pop	{r4, pc}
 213              	.L20:
 214 001a C046     		.align	2
 215              	.L19:
 216 001c 00000000 		.word	cyBle_eventHandlerFlag
 217 0020 00000000 		.word	cyBle_busyStatus
 218 0024 00000000 		.word	cyBle_advertisingIntervalType
 219 0028 00000000 		.word	cyBle_pendingFlashWrite
 220              		.cfi_endproc
 221              	.LFE2:
 222              		.size	CyBle_Init, .-CyBle_Init
 223              		.section	.text.CyBle_Start,"ax",%progbits
 224              		.align	2
 225              		.global	CyBle_Start
 226              		.code	16
 227              		.thumb_func
 228              		.type	CyBle_Start, %function
 229              	CyBle_Start:
 230              	.LFB4:
 366:.\Generated_Source\PSoC4/BLE.c ****     CYBLE_API_RESULT_T apiResult = CYBLE_ERROR_INVALID_PARAMETER;
ARM GAS  C:\Users\ELECTR~1\AppData\Local\Temp\ccgiaJs0.s 			page 24


 231              		.loc 1 366 0
 232              		.cfi_startproc
 233              	.LVL28:
 234 0000 10B5     		push	{r4, lr}
 235              		.cfi_def_cfa_offset 8
 236              		.cfi_offset 4, -8
 237              		.cfi_offset 14, -4
 238 0002 8AB0     		sub	sp, sp, #40
 239              		.cfi_def_cfa_offset 48
 240 0004 041C     		mov	r4, r0
 241              	.LVL29:
 370:.\Generated_Source\PSoC4/BLE.c ****     {
 242              		.loc 1 370 0
 243 0006 164B     		ldr	r3, .L26
 244 0008 1B78     		ldrb	r3, [r3]
 245 000a 002B     		cmp	r3, #0
 246 000c 04D1     		bne	.L22
 372:.\Generated_Source\PSoC4/BLE.c ****         cyBle_initVar = 1u;
 247              		.loc 1 372 0
 248 000e FFF7FEFF 		bl	CyBle_Init
 249              	.LVL30:
 373:.\Generated_Source\PSoC4/BLE.c ****     }
 250              		.loc 1 373 0
 251 0012 0122     		mov	r2, #1
 252 0014 124B     		ldr	r3, .L26
 253 0016 1A70     		strb	r2, [r3]
 254              	.L22:
 376:.\Generated_Source\PSoC4/BLE.c ****     {
 255              		.loc 1 376 0
 256 0018 002C     		cmp	r4, #0
 257 001a 1ED0     		beq	.L25
 258              	.LBB2:
 379:.\Generated_Source\PSoC4/BLE.c ****         {
 259              		.loc 1 379 0
 260 001c 04A8     		add	r0, sp, #16
 261 001e 1149     		ldr	r1, .L26+4
 262 0020 1822     		mov	r2, #24
 263 0022 FFF7FEFF 		bl	memcpy
 264              	.LVL31:
 389:.\Generated_Source\PSoC4/BLE.c ****             dataBuff, CYBLE_STACK_BUF_COUNT, cyBle_StackFlashptr,CYBLE_STACK_FLASH_SIZE);
 265              		.loc 1 389 0
 266 0026 0623     		mov	r3, #6
 267 0028 0093     		str	r3, [sp]
 268 002a 0F4B     		ldr	r3, .L26+8
 269 002c 0193     		str	r3, [sp, #4]
 270 002e 6E23     		mov	r3, #110
 271 0030 FF33     		add	r3, r3, #255
 272 0032 0293     		str	r3, [sp, #8]
 273 0034 0D48     		ldr	r0, .L26+12
 274 0036 0E49     		ldr	r1, .L26+16
 275 0038 0E4A     		ldr	r2, .L26+20
 276 003a 04AB     		add	r3, sp, #16
 277 003c FFF7FEFF 		bl	CyBle_StackInit
 278              	.LVL32:
 396:.\Generated_Source\PSoC4/BLE.c ****         
 279              		.loc 1 396 0
 280 0040 0D4B     		ldr	r3, .L26+24
ARM GAS  C:\Users\ELECTR~1\AppData\Local\Temp\ccgiaJs0.s 			page 25


 281 0042 1C60     		str	r4, [r3]
 399:.\Generated_Source\PSoC4/BLE.c ****         {
 282              		.loc 1 399 0
 283 0044 0028     		cmp	r0, #0
 284 0046 09D1     		bne	.L23
 401:.\Generated_Source\PSoC4/BLE.c ****             
 285              		.loc 1 401 0
 286 0048 0122     		mov	r2, #1
 287 004a 0C4B     		ldr	r3, .L26+28
 288 004c 1A70     		strb	r2, [r3]
 408:.\Generated_Source\PSoC4/BLE.c ****         #endif /* CYBLE_GATT_ROLE_SERVER */
 289              		.loc 1 408 0
 290 004e 0C48     		ldr	r0, .L26+32
 291              	.LVL33:
 292 0050 1521     		mov	r1, #21
 293 0052 0E32     		add	r2, r2, #14
 294 0054 FFF7FEFF 		bl	CyBle_GattsDbRegister
 295              	.LVL34:
 296 0058 00E0     		b	.L23
 297              	.LVL35:
 298              	.L25:
 299              	.LBE2:
 367:.\Generated_Source\PSoC4/BLE.c ****     
 300              		.loc 1 367 0
 301 005a 0120     		mov	r0, #1
 302              	.LVL36:
 303              	.L23:
 414:.\Generated_Source\PSoC4/BLE.c **** 
 304              		.loc 1 414 0
 305 005c 0AB0     		add	sp, sp, #40
 306              		@ sp needed
 307              	.LVL37:
 308 005e 10BD     		pop	{r4, pc}
 309              	.L27:
 310              		.align	2
 311              	.L26:
 312 0060 00000000 		.word	.LANCHOR1
 313 0064 00000000 		.word	.LANCHOR2
 314 0068 80000000 		.word	.LANCHOR3
 315 006c 00000000 		.word	CyBle_EventHandler
 316 0070 00000000 		.word	cyBle_stackMemoryRam
 317 0074 C80A0000 		.word	2760
 318 0078 00000000 		.word	CyBle_ApplCallback
 319 007c 00000000 		.word	cyBle_state
 320 0080 00000000 		.word	cyBle_gattDB
 321              		.cfi_endproc
 322              	.LFE4:
 323              		.size	CyBle_Start, .-CyBle_Start
 324              		.section	.text.CyBle_Stop,"ax",%progbits
 325              		.align	2
 326              		.global	CyBle_Stop
 327              		.code	16
 328              		.thumb_func
 329              		.type	CyBle_Stop, %function
 330              	CyBle_Stop:
 331              	.LFB5:
 434:.\Generated_Source\PSoC4/BLE.c ****     CyBle_Shutdown();                         /* Stop all ongoing activities */
ARM GAS  C:\Users\ELECTR~1\AppData\Local\Temp\ccgiaJs0.s 			page 26


 332              		.loc 1 434 0
 333              		.cfi_startproc
 334 0000 08B5     		push	{r3, lr}
 335              		.cfi_def_cfa_offset 8
 336              		.cfi_offset 3, -8
 337              		.cfi_offset 14, -4
 435:.\Generated_Source\PSoC4/BLE.c ****     CyBle_SetState(CYBLE_STATE_STOPPED);
 338              		.loc 1 435 0
 339 0002 FFF7FEFF 		bl	CyBle_Shutdown
 340              	.LVL38:
 436:.\Generated_Source\PSoC4/BLE.c **** }
 341              		.loc 1 436 0
 342 0006 0022     		mov	r2, #0
 343 0008 014B     		ldr	r3, .L29
 344 000a 1A70     		strb	r2, [r3]
 437:.\Generated_Source\PSoC4/BLE.c **** 
 345              		.loc 1 437 0
 346              		@ sp needed
 347 000c 08BD     		pop	{r3, pc}
 348              	.L30:
 349 000e C046     		.align	2
 350              	.L29:
 351 0010 00000000 		.word	cyBle_state
 352              		.cfi_endproc
 353              	.LFE5:
 354              		.size	CyBle_Stop, .-CyBle_Stop
 355              		.section	.text.CyBle_StoreBondingData,"ax",%progbits
 356              		.align	2
 357              		.global	CyBle_StoreBondingData
 358              		.code	16
 359              		.thumb_func
 360              		.type	CyBle_StoreBondingData, %function
 361              	CyBle_StoreBondingData:
 362              	.LFB6:
 480:.\Generated_Source\PSoC4/BLE.c ****     CYBLE_API_RESULT_T apiResult = CYBLE_ERROR_OK;
 363              		.loc 1 480 0
 364              		.cfi_startproc
 365              	.LVL39:
 366 0000 10B5     		push	{r4, lr}
 367              		.cfi_def_cfa_offset 8
 368              		.cfi_offset 4, -8
 369              		.cfi_offset 14, -4
 370 0002 041C     		mov	r4, r0
 371              	.LVL40:
 484:.\Generated_Source\PSoC4/BLE.c ****     {
 372              		.loc 1 484 0
 373 0004 174B     		ldr	r3, .L37
 374 0006 1B78     		ldrb	r3, [r3]
 375 0008 DB07     		lsl	r3, r3, #31
 376 000a 0BD5     		bpl	.L35
 486:.\Generated_Source\PSoC4/BLE.c ****         if(apiResult == CYBLE_ERROR_OK)
 377              		.loc 1 486 0
 378 000c FFF7FEFF 		bl	CyBle_StoreStackData
 379              	.LVL41:
 487:.\Generated_Source\PSoC4/BLE.c ****         {
 380              		.loc 1 487 0
 381 0010 0028     		cmp	r0, #0
ARM GAS  C:\Users\ELECTR~1\AppData\Local\Temp\ccgiaJs0.s 			page 27


 382 0012 0AD1     		bne	.L32
 489:.\Generated_Source\PSoC4/BLE.c ****             /* Change apiResult if there are more pending data to store */
 383              		.loc 1 489 0
 384 0014 134A     		ldr	r2, .L37
 385 0016 1378     		ldrb	r3, [r2]
 386 0018 0121     		mov	r1, #1
 387 001a 8B43     		bic	r3, r1
 388 001c 1370     		strb	r3, [r2]
 491:.\Generated_Source\PSoC4/BLE.c ****             {
 389              		.loc 1 491 0
 390 001e 9B07     		lsl	r3, r3, #30
 391 0020 02D4     		bmi	.L36
 392 0022 02E0     		b	.L32
 393              	.LVL42:
 394              	.L35:
 481:.\Generated_Source\PSoC4/BLE.c ****     
 395              		.loc 1 481 0
 396 0024 0020     		mov	r0, #0
 397              	.LVL43:
 398 0026 00E0     		b	.L32
 399              	.LVL44:
 400              	.L36:
 493:.\Generated_Source\PSoC4/BLE.c ****             }
 401              		.loc 1 493 0
 402 0028 2820     		mov	r0, #40
 403              	.LVL45:
 404              	.L32:
 499:.\Generated_Source\PSoC4/BLE.c ****         ((cyBle_pendingFlashWrite & CYBLE_PENDING_CCCD_FLASH_WRITE_BIT) != 0u) &&
 405              		.loc 1 499 0
 406 002a 0028     		cmp	r0, #0
 407 002c 01D0     		beq	.L33
 499:.\Generated_Source\PSoC4/BLE.c ****         ((cyBle_pendingFlashWrite & CYBLE_PENDING_CCCD_FLASH_WRITE_BIT) != 0u) &&
 408              		.loc 1 499 0 is_stmt 0 discriminator 2
 409 002e 002C     		cmp	r4, #0
 410 0030 16D0     		beq	.L34
 411              	.L33:
 500:.\Generated_Source\PSoC4/BLE.c ****         (cyBle_connHandle.bdHandle <= CYBLE_GAP_MAX_BONDED_DEVICE))
 412              		.loc 1 500 0 is_stmt 1 discriminator 3
 413 0032 0C4B     		ldr	r3, .L37
 414 0034 1B78     		ldrb	r3, [r3]
 499:.\Generated_Source\PSoC4/BLE.c ****         ((cyBle_pendingFlashWrite & CYBLE_PENDING_CCCD_FLASH_WRITE_BIT) != 0u) &&
 415              		.loc 1 499 0 discriminator 3
 416 0036 9B07     		lsl	r3, r3, #30
 417 0038 12D5     		bpl	.L34
 501:.\Generated_Source\PSoC4/BLE.c ****     {
 418              		.loc 1 501 0
 419 003a 0B4B     		ldr	r3, .L37+4
 420 003c 1978     		ldrb	r1, [r3]
 500:.\Generated_Source\PSoC4/BLE.c ****         (cyBle_connHandle.bdHandle <= CYBLE_GAP_MAX_BONDED_DEVICE))
 421              		.loc 1 500 0
 422 003e 0429     		cmp	r1, #4
 423 0040 0ED8     		bhi	.L34
 503:.\Generated_Source\PSoC4/BLE.c ****                                        CYBLE_GATT_DB_CCCD_COUNT, isForceWrite);
 424              		.loc 1 503 0
 425 0042 8900     		lsl	r1, r1, #2
 426 0044 094B     		ldr	r3, .L37+8
 427 0046 C918     		add	r1, r1, r3
ARM GAS  C:\Users\ELECTR~1\AppData\Local\Temp\ccgiaJs0.s 			page 28


 428 0048 0948     		ldr	r0, .L37+12
 429              	.LVL46:
 430 004a 0422     		mov	r2, #4
 431 004c 231C     		mov	r3, r4
 432 004e FFF7FEFF 		bl	CyBle_StoreAppData
 433              	.LVL47:
 505:.\Generated_Source\PSoC4/BLE.c ****         {
 434              		.loc 1 505 0
 435 0052 0028     		cmp	r0, #0
 436 0054 04D1     		bne	.L34
 507:.\Generated_Source\PSoC4/BLE.c ****         }
 437              		.loc 1 507 0
 438 0056 034A     		ldr	r2, .L37
 439 0058 1378     		ldrb	r3, [r2]
 440 005a 0221     		mov	r1, #2
 441 005c 8B43     		bic	r3, r1
 442 005e 1370     		strb	r3, [r2]
 443              	.LVL48:
 444              	.L34:
 512:.\Generated_Source\PSoC4/BLE.c **** 
 445              		.loc 1 512 0
 446              		@ sp needed
 447 0060 10BD     		pop	{r4, pc}
 448              	.L38:
 449 0062 C046     		.align	2
 450              	.L37:
 451 0064 00000000 		.word	cyBle_pendingFlashWrite
 452 0068 00000000 		.word	cyBle_connHandle
 453 006c 00000000 		.word	cyBle_attValuesCCCDFlashMemory
 454 0070 00000000 		.word	cyBle_attValuesCCCD
 455              		.cfi_endproc
 456              	.LFE6:
 457              		.size	CyBle_StoreBondingData, .-CyBle_StoreBondingData
 458              		.section	.text.CyBle_GappStartAdvertisement,"ax",%progbits
 459              		.align	2
 460              		.global	CyBle_GappStartAdvertisement
 461              		.code	16
 462              		.thumb_func
 463              		.type	CyBle_GappStartAdvertisement, %function
 464              	CyBle_GappStartAdvertisement:
 465              	.LFB7:
 571:.\Generated_Source\PSoC4/BLE.c ****         CYBLE_API_RESULT_T apiResult;
 466              		.loc 1 571 0
 467              		.cfi_startproc
 468              	.LVL49:
 469 0000 08B5     		push	{r3, lr}
 470              		.cfi_def_cfa_offset 8
 471              		.cfi_offset 3, -8
 472              		.cfi_offset 14, -4
 574:.\Generated_Source\PSoC4/BLE.c ****         {
 473              		.loc 1 574 0
 474 0002 0228     		cmp	r0, #2
 475 0004 33D8     		bhi	.L43
 578:.\Generated_Source\PSoC4/BLE.c ****         {   
 476              		.loc 1 578 0
 477 0006 1E4B     		ldr	r3, .L46
 478 0008 1B78     		ldrb	r3, [r3]
ARM GAS  C:\Users\ELECTR~1\AppData\Local\Temp\ccgiaJs0.s 			page 29


 479 000a 042B     		cmp	r3, #4
 480 000c 31D1     		bne	.L44
 578:.\Generated_Source\PSoC4/BLE.c ****         {   
 481              		.loc 1 578 0 is_stmt 0 discriminator 1
 482 000e 1D4B     		ldr	r3, .L46+4
 483 0010 1B78     		ldrb	r3, [r3]
 484 0012 5B07     		lsl	r3, r3, #29
 485 0014 30D4     		bmi	.L45
 580:.\Generated_Source\PSoC4/BLE.c ****             {
 486              		.loc 1 580 0 is_stmt 1
 487 0016 0028     		cmp	r0, #0
 488 0018 0CD1     		bne	.L41
 582:.\Generated_Source\PSoC4/BLE.c ****                 cyBle_discoveryModeInfo.advParam->advIntvMin = CYBLE_FAST_ADV_INT_MIN;
 489              		.loc 1 582 0
 490 001a 1B4B     		ldr	r3, .L46+8
 491 001c 1A1C     		mov	r2, r3
 492 001e 4032     		add	r2, r2, #64
 493 0020 7821     		mov	r1, #120
 494 0022 1182     		strh	r1, [r2, #16]
 583:.\Generated_Source\PSoC4/BLE.c ****                 cyBle_discoveryModeInfo.advParam->advIntvMax = CYBLE_FAST_ADV_INT_MAX;
 495              		.loc 1 583 0
 496 0024 A022     		mov	r2, #160
 497 0026 5200     		lsl	r2, r2, #1
 498 0028 596C     		ldr	r1, [r3, #68]
 499 002a 0A80     		strh	r2, [r1]
 584:.\Generated_Source\PSoC4/BLE.c ****             }
 500              		.loc 1 584 0
 501 002c 5B6C     		ldr	r3, [r3, #68]
 502 002e A032     		add	r2, r2, #160
 503 0030 5A80     		strh	r2, [r3, #2]
 504 0032 0EE0     		b	.L42
 505              	.L41:
 586:.\Generated_Source\PSoC4/BLE.c ****             {
 506              		.loc 1 586 0
 507 0034 0128     		cmp	r0, #1
 508 0036 0CD1     		bne	.L42
 588:.\Generated_Source\PSoC4/BLE.c ****                 cyBle_discoveryModeInfo.advParam->advIntvMin = CYBLE_SLOW_ADV_INT_MIN;
 509              		.loc 1 588 0
 510 0038 134B     		ldr	r3, .L46+8
 511 003a 1A1C     		mov	r2, r3
 512 003c 4032     		add	r2, r2, #64
 513 003e 0021     		mov	r1, #0
 514 0040 1182     		strh	r1, [r2, #16]
 589:.\Generated_Source\PSoC4/BLE.c ****                 cyBle_discoveryModeInfo.advParam->advIntvMax = CYBLE_SLOW_ADV_INT_MAX;
 515              		.loc 1 589 0
 516 0042 C822     		mov	r2, #200
 517 0044 D200     		lsl	r2, r2, #3
 518 0046 596C     		ldr	r1, [r3, #68]
 519 0048 0A80     		strh	r2, [r1]
 590:.\Generated_Source\PSoC4/BLE.c ****             }       
 520              		.loc 1 590 0
 521 004a 5B6C     		ldr	r3, [r3, #68]
 522 004c 8022     		mov	r2, #128
 523 004e D201     		lsl	r2, r2, #7
 524 0050 5A80     		strh	r2, [r3, #2]
 525              	.L42:
 595:.\Generated_Source\PSoC4/BLE.c ****             apiResult = CyBle_GappEnterDiscoveryMode(&cyBle_discoveryModeInfo);
ARM GAS  C:\Users\ELECTR~1\AppData\Local\Temp\ccgiaJs0.s 			page 30


 526              		.loc 1 595 0
 527 0052 0E4B     		ldr	r3, .L46+12
 528 0054 1870     		strb	r0, [r3]
 596:.\Generated_Source\PSoC4/BLE.c ****         
 529              		.loc 1 596 0
 530 0056 0C48     		ldr	r0, .L46+8
 531              	.LVL50:
 532 0058 4030     		add	r0, r0, #64
 533 005a FFF7FEFF 		bl	CyBle_GappEnterDiscoveryMode
 534              	.LVL51:
 598:.\Generated_Source\PSoC4/BLE.c ****             {
 535              		.loc 1 598 0
 536 005e 0028     		cmp	r0, #0
 537 0060 0CD1     		bne	.L40
 600:.\Generated_Source\PSoC4/BLE.c ****             }
 538              		.loc 1 600 0
 539 0062 084A     		ldr	r2, .L46+4
 540 0064 1178     		ldrb	r1, [r2]
 541 0066 0423     		mov	r3, #4
 542 0068 0B43     		orr	r3, r1
 543 006a 1370     		strb	r3, [r2]
 544 006c 06E0     		b	.L40
 545              	.LVL52:
 546              	.L43:
 576:.\Generated_Source\PSoC4/BLE.c ****         }
 547              		.loc 1 576 0
 548 006e 0120     		mov	r0, #1
 549              	.LVL53:
 550 0070 04E0     		b	.L40
 551              	.LVL54:
 552              	.L44:
 605:.\Generated_Source\PSoC4/BLE.c ****         }
 553              		.loc 1 605 0
 554 0072 0420     		mov	r0, #4
 555              	.LVL55:
 556 0074 FF30     		add	r0, r0, #255
 557 0076 01E0     		b	.L40
 558              	.LVL56:
 559              	.L45:
 560 0078 0420     		mov	r0, #4
 561              	.LVL57:
 562 007a FF30     		add	r0, r0, #255
 563              	.L40:
 564              	.LVL58:
 609:.\Generated_Source\PSoC4/BLE.c **** 
 565              		.loc 1 609 0
 566              		@ sp needed
 567 007c 08BD     		pop	{r3, pc}
 568              	.L47:
 569 007e C046     		.align	2
 570              	.L46:
 571 0080 00000000 		.word	cyBle_state
 572 0084 00000000 		.word	cyBle_eventHandlerFlag
 573 0088 00000000 		.word	.LANCHOR0
 574 008c 00000000 		.word	cyBle_advertisingIntervalType
 575              		.cfi_endproc
 576              	.LFE7:
ARM GAS  C:\Users\ELECTR~1\AppData\Local\Temp\ccgiaJs0.s 			page 31


 577              		.size	CyBle_GappStartAdvertisement, .-CyBle_GappStartAdvertisement
 578              		.section	.text.CyBle_GappStopAdvertisement,"ax",%progbits
 579              		.align	2
 580              		.global	CyBle_GappStopAdvertisement
 581              		.code	16
 582              		.thumb_func
 583              		.type	CyBle_GappStopAdvertisement, %function
 584              	CyBle_GappStopAdvertisement:
 585              	.LFB8:
 636:.\Generated_Source\PSoC4/BLE.c ****         CyBle_GappExitDiscoveryMode();
 586              		.loc 1 636 0
 587              		.cfi_startproc
 588 0000 08B5     		push	{r3, lr}
 589              		.cfi_def_cfa_offset 8
 590              		.cfi_offset 3, -8
 591              		.cfi_offset 14, -4
 637:.\Generated_Source\PSoC4/BLE.c ****         cyBle_eventHandlerFlag |= CYBLE_STOP_FLAG;
 592              		.loc 1 637 0
 593 0002 FFF7FEFF 		bl	CyBle_GappExitDiscoveryMode
 594              	.LVL59:
 638:.\Generated_Source\PSoC4/BLE.c ****     }
 595              		.loc 1 638 0
 596 0006 034A     		ldr	r2, .L49
 597 0008 1178     		ldrb	r1, [r2]
 598 000a 0823     		mov	r3, #8
 599 000c 0B43     		orr	r3, r1
 600 000e 1370     		strb	r3, [r2]
 639:.\Generated_Source\PSoC4/BLE.c ****     
 601              		.loc 1 639 0
 602              		@ sp needed
 603 0010 08BD     		pop	{r3, pc}
 604              	.L50:
 605 0012 C046     		.align	2
 606              	.L49:
 607 0014 00000000 		.word	cyBle_eventHandlerFlag
 608              		.cfi_endproc
 609              	.LFE8:
 610              		.size	CyBle_GappStopAdvertisement, .-CyBle_GappStopAdvertisement
 611              		.section	.text.CyBle_ChangeAdDeviceAddress,"ax",%progbits
 612              		.align	2
 613              		.global	CyBle_ChangeAdDeviceAddress
 614              		.code	16
 615              		.thumb_func
 616              		.type	CyBle_ChangeAdDeviceAddress, %function
 617              	CyBle_ChangeAdDeviceAddress:
 618              	.LFB9:
 660:.\Generated_Source\PSoC4/BLE.c ****         uint8 i;
 619              		.loc 1 660 0
 620              		.cfi_startproc
 621              	.LVL60:
 687:.\Generated_Source\PSoC4/BLE.c ****   
 622              		.loc 1 687 0
 623              		@ sp needed
 624 0000 7047     		bx	lr
 625              		.cfi_endproc
 626              	.LFE9:
 627              		.size	CyBle_ChangeAdDeviceAddress, .-CyBle_ChangeAdDeviceAddress
ARM GAS  C:\Users\ELECTR~1\AppData\Local\Temp\ccgiaJs0.s 			page 32


 628 0002 C046     		.section	.text.CyBle_GapSetLocalName,"ax",%progbits
 629              		.align	2
 630              		.global	CyBle_GapSetLocalName
 631              		.code	16
 632              		.thumb_func
 633              		.type	CyBle_GapSetLocalName, %function
 634              	CyBle_GapSetLocalName:
 635              	.LFB11:
1059:.\Generated_Source\PSoC4/BLE.c ****         
1060:.\Generated_Source\PSoC4/BLE.c **** #endif /* (CYBLE_GAP_ROLE_PERIPHERAL) */  
1061:.\Generated_Source\PSoC4/BLE.c ****     
1062:.\Generated_Source\PSoC4/BLE.c ****     
1063:.\Generated_Source\PSoC4/BLE.c ****     /******************************************************************************
1064:.\Generated_Source\PSoC4/BLE.c ****     ##Function Name: CyBle_GapSetLocalName
1065:.\Generated_Source\PSoC4/BLE.c ****     *******************************************************************************
1066:.\Generated_Source\PSoC4/BLE.c ****     Summary:
1067:.\Generated_Source\PSoC4/BLE.c ****      This API is used to set the local device name - a Characteristic of the 
1068:.\Generated_Source\PSoC4/BLE.c ****      GAP Service. If the characteristic length entered in the component customizer
1069:.\Generated_Source\PSoC4/BLE.c ****      is shorter than the string specified by the "name" parameter, the local device
1070:.\Generated_Source\PSoC4/BLE.c ****      name will be cut to the length specified in the customizer.
1071:.\Generated_Source\PSoC4/BLE.c **** 
1072:.\Generated_Source\PSoC4/BLE.c ****     Parameters:
1073:.\Generated_Source\PSoC4/BLE.c ****      char8 name: The local device name string. The name string to be written as
1074:.\Generated_Source\PSoC4/BLE.c ****                  the local device name. It represents a UTF-8 encoded User
1075:.\Generated_Source\PSoC4/BLE.c ****                  Friendly Descriptive Name for the device. The length of the local
1076:.\Generated_Source\PSoC4/BLE.c ****                  device string is entered into the component customizer and it can
1077:.\Generated_Source\PSoC4/BLE.c ****                  be set to a value from 0 to 248 bytes. If the name contained in
1078:.\Generated_Source\PSoC4/BLE.c ****                  the parameter is shorter than the length from the customizer, the
1079:.\Generated_Source\PSoC4/BLE.c ****                  end of the name is indicated by a NULL octet (0x00).
1080:.\Generated_Source\PSoC4/BLE.c **** 
1081:.\Generated_Source\PSoC4/BLE.c ****     Return:
1082:.\Generated_Source\PSoC4/BLE.c ****      CYBLE_API_RESULT_T : Return value indicates if the function succeeded or 
1083:.\Generated_Source\PSoC4/BLE.c ****      failed. Following are the possible error codes.
1084:.\Generated_Source\PSoC4/BLE.c ****      <table>
1085:.\Generated_Source\PSoC4/BLE.c ****       Errors codes                        Description
1086:.\Generated_Source\PSoC4/BLE.c ****       ------------                        -----------
1087:.\Generated_Source\PSoC4/BLE.c ****       CYBLE_ERROR_OK                      Function completed successfully.
1088:.\Generated_Source\PSoC4/BLE.c ****       CYBLE_ERROR_INVALID_PARAMETER       On specifying NULL as input parameter
1089:.\Generated_Source\PSoC4/BLE.c ****      </table>
1090:.\Generated_Source\PSoC4/BLE.c ****  
1091:.\Generated_Source\PSoC4/BLE.c ****     ******************************************************************************/
1092:.\Generated_Source\PSoC4/BLE.c ****     CYBLE_API_RESULT_T CyBle_GapSetLocalName(const char8 name[])
1093:.\Generated_Source\PSoC4/BLE.c ****     {
 636              		.loc 1 1093 0
 637              		.cfi_startproc
 638              	.LVL61:
 639 0000 10B5     		push	{r4, lr}
 640              		.cfi_def_cfa_offset 8
 641              		.cfi_offset 4, -8
 642              		.cfi_offset 14, -4
 643              	.LVL62:
1094:.\Generated_Source\PSoC4/BLE.c ****         CYBLE_API_RESULT_T apiResult = CYBLE_ERROR_OK;
1095:.\Generated_Source\PSoC4/BLE.c ****         uint8 i;
1096:.\Generated_Source\PSoC4/BLE.c ****         char8 *ptr;
1097:.\Generated_Source\PSoC4/BLE.c ****         uint8 charLen;
1098:.\Generated_Source\PSoC4/BLE.c **** 
1099:.\Generated_Source\PSoC4/BLE.c ****         if(NULL != name)
ARM GAS  C:\Users\ELECTR~1\AppData\Local\Temp\ccgiaJs0.s 			page 33


 644              		.loc 1 1099 0
 645 0002 0028     		cmp	r0, #0
 646 0004 1DD0     		beq	.L58
1100:.\Generated_Source\PSoC4/BLE.c ****         {
1101:.\Generated_Source\PSoC4/BLE.c ****             /* Get the pointer to the Device Name characteristic  */
1102:.\Generated_Source\PSoC4/BLE.c ****             ptr = (char8 *) CYBLE_GATT_DB_ATTR_GET_ATTR_GEN_PTR(CYBLE_GAP_DEVICE_NAME_INDEX + 1u);
 647              		.loc 1 1102 0
 648 0006 104B     		ldr	r3, .L59
 649 0008 9A6B     		ldr	r2, [r3, #56]
 650 000a 5468     		ldr	r4, [r2, #4]
 651              	.LVL63:
1103:.\Generated_Source\PSoC4/BLE.c **** 
1104:.\Generated_Source\PSoC4/BLE.c ****             /* First need to get the maximum length of the characteristic data in the GATT
1105:.\Generated_Source\PSoC4/BLE.c ****                 database to make sure there is enough place for the data. The length
1106:.\Generated_Source\PSoC4/BLE.c ****                 can't be longer than 248, so only the LSB of 16 bit of length is to
1107:.\Generated_Source\PSoC4/BLE.c ****                 be used. */
1108:.\Generated_Source\PSoC4/BLE.c ****             charLen = (uint8)CYBLE_GATT_DB_ATTR_GET_ATTR_GEN_MAX_LEN(CYBLE_GAP_DEVICE_NAME_INDEX + 
 652              		.loc 1 1108 0
 653 000c 998E     		ldrh	r1, [r3, #52]
 654 000e C9B2     		uxtb	r1, r1
 655              	.LVL64:
1109:.\Generated_Source\PSoC4/BLE.c **** 
1110:.\Generated_Source\PSoC4/BLE.c ****             /* Copy name into characteristic */
1111:.\Generated_Source\PSoC4/BLE.c ****             for(i = 0u; ((i < charLen) && (CYBLE_NULL_CHARCTER != name[i])); i++)
 656              		.loc 1 1111 0
 657 0010 0023     		mov	r3, #0
 658 0012 02E0     		b	.L54
 659              	.LVL65:
 660              	.L56:
1112:.\Generated_Source\PSoC4/BLE.c ****             {
1113:.\Generated_Source\PSoC4/BLE.c ****                 ptr[i] = name[i];
 661              		.loc 1 1113 0 discriminator 4
 662 0014 E254     		strb	r2, [r4, r3]
1111:.\Generated_Source\PSoC4/BLE.c ****             {
 663              		.loc 1 1111 0 discriminator 4
 664 0016 0133     		add	r3, r3, #1
 665              	.LVL66:
 666 0018 DBB2     		uxtb	r3, r3
 667              	.LVL67:
 668              	.L54:
1111:.\Generated_Source\PSoC4/BLE.c ****             {
 669              		.loc 1 1111 0 is_stmt 0 discriminator 1
 670 001a 8B42     		cmp	r3, r1
 671 001c 02D2     		bcs	.L55
1111:.\Generated_Source\PSoC4/BLE.c ****             {
 672              		.loc 1 1111 0 discriminator 3
 673 001e C25C     		ldrb	r2, [r0, r3]
 674 0020 002A     		cmp	r2, #0
 675 0022 F7D1     		bne	.L56
 676              	.L55:
1114:.\Generated_Source\PSoC4/BLE.c ****             }
1115:.\Generated_Source\PSoC4/BLE.c **** 
1116:.\Generated_Source\PSoC4/BLE.c ****             if(i < charLen)
 677              		.loc 1 1116 0 is_stmt 1
 678 0024 8B42     		cmp	r3, r1
 679 0026 02D2     		bcs	.L57
1117:.\Generated_Source\PSoC4/BLE.c ****             {
ARM GAS  C:\Users\ELECTR~1\AppData\Local\Temp\ccgiaJs0.s 			page 34


1118:.\Generated_Source\PSoC4/BLE.c ****                 /* Terminate string */
1119:.\Generated_Source\PSoC4/BLE.c ****                 ptr[i] = CYBLE_NULL_CHARCTER;
 680              		.loc 1 1119 0
 681 0028 E318     		add	r3, r4, r3
 682              	.LVL68:
 683 002a 0022     		mov	r2, #0
 684 002c 1A70     		strb	r2, [r3]
 685              	.L57:
 686 002e 041C     		mov	r4, r0
 687              	.LVL69:
1120:.\Generated_Source\PSoC4/BLE.c ****             }
1121:.\Generated_Source\PSoC4/BLE.c ****             
1122:.\Generated_Source\PSoC4/BLE.c ****             /* Set new actual length */
1123:.\Generated_Source\PSoC4/BLE.c ****             
1124:.\Generated_Source\PSoC4/BLE.c ****             /* Update device name in advertising and scan response structure */
1125:.\Generated_Source\PSoC4/BLE.c ****             #if(CYBLE_GAP_ROLE_PERIPHERAL)
1126:.\Generated_Source\PSoC4/BLE.c ****                 CyBle_ChangeAdLocalName(name, 0u);
 688              		.loc 1 1126 0
 689 0030 0021     		mov	r1, #0
 690              	.LVL70:
 691 0032 FFF7FEFF 		bl	CyBle_ChangeAdLocalName
 692              	.LVL71:
1127:.\Generated_Source\PSoC4/BLE.c ****                 CyBle_ChangeAdLocalName(name, 1u);
 693              		.loc 1 1127 0
 694 0036 201C     		mov	r0, r4
 695 0038 0121     		mov	r1, #1
 696 003a FFF7FEFF 		bl	CyBle_ChangeAdLocalName
 697              	.LVL72:
1094:.\Generated_Source\PSoC4/BLE.c ****         uint8 i;
 698              		.loc 1 1094 0
 699 003e 0020     		mov	r0, #0
 700 0040 00E0     		b	.L53
 701              	.LVL73:
 702              	.L58:
1128:.\Generated_Source\PSoC4/BLE.c ****             #endif /* (CYBLE_GAP_ROLE_PERIPHERAL) */
1129:.\Generated_Source\PSoC4/BLE.c ****         }
1130:.\Generated_Source\PSoC4/BLE.c ****         else
1131:.\Generated_Source\PSoC4/BLE.c ****         {
1132:.\Generated_Source\PSoC4/BLE.c ****             apiResult = CYBLE_ERROR_INVALID_PARAMETER;
 703              		.loc 1 1132 0
 704 0042 0120     		mov	r0, #1
 705              	.LVL74:
 706              	.L53:
1133:.\Generated_Source\PSoC4/BLE.c ****         }
1134:.\Generated_Source\PSoC4/BLE.c ****         
1135:.\Generated_Source\PSoC4/BLE.c ****         return(apiResult);
1136:.\Generated_Source\PSoC4/BLE.c ****     }
 707              		.loc 1 1136 0
 708              		@ sp needed
 709 0044 10BD     		pop	{r4, pc}
 710              	.L60:
 711 0046 C046     		.align	2
 712              	.L59:
 713 0048 00000000 		.word	cyBle_gattDB
 714              		.cfi_endproc
 715              	.LFE11:
 716              		.size	CyBle_GapSetLocalName, .-CyBle_GapSetLocalName
ARM GAS  C:\Users\ELECTR~1\AppData\Local\Temp\ccgiaJs0.s 			page 35


 717              		.section	.text.CyBle_GapGetLocalName,"ax",%progbits
 718              		.align	2
 719              		.global	CyBle_GapGetLocalName
 720              		.code	16
 721              		.thumb_func
 722              		.type	CyBle_GapGetLocalName, %function
 723              	CyBle_GapGetLocalName:
 724              	.LFB12:
1137:.\Generated_Source\PSoC4/BLE.c **** 
1138:.\Generated_Source\PSoC4/BLE.c **** 
1139:.\Generated_Source\PSoC4/BLE.c ****     /******************************************************************************
1140:.\Generated_Source\PSoC4/BLE.c ****     ##Function Name: CyBle_GapGetLocalName
1141:.\Generated_Source\PSoC4/BLE.c ****     *******************************************************************************
1142:.\Generated_Source\PSoC4/BLE.c ****  
1143:.\Generated_Source\PSoC4/BLE.c ****     Summary:
1144:.\Generated_Source\PSoC4/BLE.c ****      This API is used to read the local device name - a Characteristic of the 
1145:.\Generated_Source\PSoC4/BLE.c ****      GAP Service.
1146:.\Generated_Source\PSoC4/BLE.c **** 
1147:.\Generated_Source\PSoC4/BLE.c ****     Parameters:
1148:.\Generated_Source\PSoC4/BLE.c ****     char8 name: The local device name string. Used to read the local name to the
1149:.\Generated_Source\PSoC4/BLE.c ****                 given string array. It represents a UTF-8 encoded User Friendly 
1150:.\Generated_Source\PSoC4/BLE.c ****                 Descriptive Name for the device. The length of the local device
1151:.\Generated_Source\PSoC4/BLE.c ****                 string is entered into the component customizer and it can be set
1152:.\Generated_Source\PSoC4/BLE.c ****                 to a value from 0 to 248 bytes. If the name contained in the
1153:.\Generated_Source\PSoC4/BLE.c ****                 parameter is shorter than the length from the customizer, the end
1154:.\Generated_Source\PSoC4/BLE.c ****                 of the name is indicated by a NULL octet (0x00).
1155:.\Generated_Source\PSoC4/BLE.c **** 
1156:.\Generated_Source\PSoC4/BLE.c ****     Return:
1157:.\Generated_Source\PSoC4/BLE.c ****      CYBLE_API_RESULT_T : Return value indicates if the function succeeded or 
1158:.\Generated_Source\PSoC4/BLE.c ****      failed. Following are the possible error codes.
1159:.\Generated_Source\PSoC4/BLE.c ****      <table>
1160:.\Generated_Source\PSoC4/BLE.c ****       Errors codes                        Description
1161:.\Generated_Source\PSoC4/BLE.c ****       ------------                        -----------
1162:.\Generated_Source\PSoC4/BLE.c ****       CYBLE_ERROR_OK                      Function completed successfully.
1163:.\Generated_Source\PSoC4/BLE.c ****       CYBLE_ERROR_INVALID_PARAMETER       On specifying NULL as input parameter
1164:.\Generated_Source\PSoC4/BLE.c ****      </table>
1165:.\Generated_Source\PSoC4/BLE.c **** 
1166:.\Generated_Source\PSoC4/BLE.c ****     ******************************************************************************/
1167:.\Generated_Source\PSoC4/BLE.c ****     CYBLE_API_RESULT_T CyBle_GapGetLocalName(char8 name[])
1168:.\Generated_Source\PSoC4/BLE.c ****     {
 725              		.loc 1 1168 0
 726              		.cfi_startproc
 727              	.LVL75:
 728 0000 10B5     		push	{r4, lr}
 729              		.cfi_def_cfa_offset 8
 730              		.cfi_offset 4, -8
 731              		.cfi_offset 14, -4
 732              	.LVL76:
1169:.\Generated_Source\PSoC4/BLE.c ****         CYBLE_API_RESULT_T apiResult = CYBLE_ERROR_OK;
1170:.\Generated_Source\PSoC4/BLE.c ****         uint8 charLen;
1171:.\Generated_Source\PSoC4/BLE.c ****         uint8 i;
1172:.\Generated_Source\PSoC4/BLE.c ****         char8 *ptr;
1173:.\Generated_Source\PSoC4/BLE.c **** 
1174:.\Generated_Source\PSoC4/BLE.c ****         if(NULL != name)
 733              		.loc 1 1174 0
 734 0002 0028     		cmp	r0, #0
 735 0004 12D0     		beq	.L66
ARM GAS  C:\Users\ELECTR~1\AppData\Local\Temp\ccgiaJs0.s 			page 36


1175:.\Generated_Source\PSoC4/BLE.c ****         {
1176:.\Generated_Source\PSoC4/BLE.c ****             /* Get the pointer to the Device Name characteristic  */
1177:.\Generated_Source\PSoC4/BLE.c ****             ptr = (char8 *) CYBLE_GATT_DB_ATTR_GET_ATTR_GEN_PTR(CYBLE_GAP_DEVICE_NAME_INDEX + 1u);
 736              		.loc 1 1177 0
 737 0006 0A4B     		ldr	r3, .L67
 738 0008 9B6B     		ldr	r3, [r3, #56]
 739 000a 5C68     		ldr	r4, [r3, #4]
 740              	.LVL77:
1178:.\Generated_Source\PSoC4/BLE.c **** 
1179:.\Generated_Source\PSoC4/BLE.c ****             /* First need to get the length of the characteristic data in the GATT
1180:.\Generated_Source\PSoC4/BLE.c ****                 database to make sure there is enough place for the data. The length
1181:.\Generated_Source\PSoC4/BLE.c ****                 can't be longer than 248, so only the LSB of 16 bit of length is to
1182:.\Generated_Source\PSoC4/BLE.c ****                 be used. */
1183:.\Generated_Source\PSoC4/BLE.c ****             charLen = (uint8)CYBLE_GATT_DB_ATTR_GET_ATTR_GEN_LEN(CYBLE_GAP_DEVICE_NAME_INDEX + 1u);
 741              		.loc 1 1183 0
 742 000c 1978     		ldrb	r1, [r3]
 743              	.LVL78:
1184:.\Generated_Source\PSoC4/BLE.c **** 
1185:.\Generated_Source\PSoC4/BLE.c ****             /* Copy name from characteristic */
1186:.\Generated_Source\PSoC4/BLE.c ****             for(i = 0u; ((i < charLen) && (CYBLE_NULL_CHARCTER != ptr[i])); i++)
 744              		.loc 1 1186 0
 745 000e 0023     		mov	r3, #0
 746 0010 02E0     		b	.L63
 747              	.LVL79:
 748              	.L65:
1187:.\Generated_Source\PSoC4/BLE.c ****             {
1188:.\Generated_Source\PSoC4/BLE.c ****                 name[i] = ptr[i];
 749              		.loc 1 1188 0 discriminator 4
 750 0012 C254     		strb	r2, [r0, r3]
1186:.\Generated_Source\PSoC4/BLE.c ****             {
 751              		.loc 1 1186 0 discriminator 4
 752 0014 0133     		add	r3, r3, #1
 753              	.LVL80:
 754 0016 DBB2     		uxtb	r3, r3
 755              	.LVL81:
 756              	.L63:
1186:.\Generated_Source\PSoC4/BLE.c ****             {
 757              		.loc 1 1186 0 is_stmt 0 discriminator 1
 758 0018 8B42     		cmp	r3, r1
 759 001a 02D2     		bcs	.L64
1186:.\Generated_Source\PSoC4/BLE.c ****             {
 760              		.loc 1 1186 0 discriminator 3
 761 001c E25C     		ldrb	r2, [r4, r3]
 762 001e 002A     		cmp	r2, #0
 763 0020 F7D1     		bne	.L65
 764              	.L64:
1189:.\Generated_Source\PSoC4/BLE.c ****             }
1190:.\Generated_Source\PSoC4/BLE.c **** 
1191:.\Generated_Source\PSoC4/BLE.c ****             /* Terminate string */
1192:.\Generated_Source\PSoC4/BLE.c ****             name[i] = CYBLE_NULL_CHARCTER;
 765              		.loc 1 1192 0 is_stmt 1
 766 0022 C318     		add	r3, r0, r3
 767              	.LVL82:
 768 0024 0022     		mov	r2, #0
 769 0026 1A70     		strb	r2, [r3]
1169:.\Generated_Source\PSoC4/BLE.c ****         uint8 charLen;
 770              		.loc 1 1169 0
ARM GAS  C:\Users\ELECTR~1\AppData\Local\Temp\ccgiaJs0.s 			page 37


 771 0028 0020     		mov	r0, #0
 772              	.LVL83:
 773 002a 00E0     		b	.L62
 774              	.LVL84:
 775              	.L66:
1193:.\Generated_Source\PSoC4/BLE.c ****         }
1194:.\Generated_Source\PSoC4/BLE.c ****         else
1195:.\Generated_Source\PSoC4/BLE.c ****         {
1196:.\Generated_Source\PSoC4/BLE.c ****             apiResult = CYBLE_ERROR_INVALID_PARAMETER;
 776              		.loc 1 1196 0
 777 002c 0120     		mov	r0, #1
 778              	.LVL85:
 779              	.L62:
1197:.\Generated_Source\PSoC4/BLE.c ****         }
1198:.\Generated_Source\PSoC4/BLE.c ****         
1199:.\Generated_Source\PSoC4/BLE.c ****         return(apiResult);
1200:.\Generated_Source\PSoC4/BLE.c ****     }
 780              		.loc 1 1200 0
 781              		@ sp needed
 782 002e 10BD     		pop	{r4, pc}
 783              	.L68:
 784              		.align	2
 785              	.L67:
 786 0030 00000000 		.word	cyBle_gattDB
 787              		.cfi_endproc
 788              	.LFE12:
 789              		.size	CyBle_GapGetLocalName, .-CyBle_GapGetLocalName
 790              		.section	.text.CyBle_Get16ByPtr,"ax",%progbits
 791              		.align	2
 792              		.global	CyBle_Get16ByPtr
 793              		.code	16
 794              		.thumb_func
 795              		.type	CyBle_Get16ByPtr, %function
 796              	CyBle_Get16ByPtr:
 797              	.LFB13:
1201:.\Generated_Source\PSoC4/BLE.c **** 
1202:.\Generated_Source\PSoC4/BLE.c **** #endif /* (CYBLE_GATT_ROLE_SERVER) */
1203:.\Generated_Source\PSoC4/BLE.c **** 
1204:.\Generated_Source\PSoC4/BLE.c **** 
1205:.\Generated_Source\PSoC4/BLE.c **** /******************************************************************************
1206:.\Generated_Source\PSoC4/BLE.c **** ##Function Name: CyBle_Get16ByPtr
1207:.\Generated_Source\PSoC4/BLE.c **** *******************************************************************************
1208:.\Generated_Source\PSoC4/BLE.c **** 
1209:.\Generated_Source\PSoC4/BLE.c **** Summary:
1210:.\Generated_Source\PSoC4/BLE.c ****  Returns the two-bytes value by using a pointer to the LSB.
1211:.\Generated_Source\PSoC4/BLE.c **** 
1212:.\Generated_Source\PSoC4/BLE.c **** Parameters:
1213:.\Generated_Source\PSoC4/BLE.c ****  uint8 * ptr: Pointer to the LSB of two-bytes data (little endian).
1214:.\Generated_Source\PSoC4/BLE.c **** 
1215:.\Generated_Source\PSoC4/BLE.c **** Return:
1216:.\Generated_Source\PSoC4/BLE.c ****  uint16 value: Two-bytes data.
1217:.\Generated_Source\PSoC4/BLE.c **** 
1218:.\Generated_Source\PSoC4/BLE.c **** ******************************************************************************/
1219:.\Generated_Source\PSoC4/BLE.c **** uint16 CyBle_Get16ByPtr(const uint8 ptr[])
1220:.\Generated_Source\PSoC4/BLE.c **** {
 798              		.loc 1 1220 0
 799              		.cfi_startproc
ARM GAS  C:\Users\ELECTR~1\AppData\Local\Temp\ccgiaJs0.s 			page 38


 800              	.LVL86:
1221:.\Generated_Source\PSoC4/BLE.c ****     return ((uint16) ptr[0u] | ((uint16) (((uint16) ptr[1u]) << 8u)));
 801              		.loc 1 1221 0
 802 0000 0378     		ldrb	r3, [r0]
 803 0002 4078     		ldrb	r0, [r0, #1]
 804              	.LVL87:
 805 0004 0002     		lsl	r0, r0, #8
 806 0006 1843     		orr	r0, r3
1222:.\Generated_Source\PSoC4/BLE.c **** }
 807              		.loc 1 1222 0
 808              		@ sp needed
 809 0008 7047     		bx	lr
 810              		.cfi_endproc
 811              	.LFE13:
 812              		.size	CyBle_Get16ByPtr, .-CyBle_Get16ByPtr
 813 000a C046     		.section	.text.CyBle_Set16ByPtr,"ax",%progbits
 814              		.align	2
 815              		.global	CyBle_Set16ByPtr
 816              		.code	16
 817              		.thumb_func
 818              		.type	CyBle_Set16ByPtr, %function
 819              	CyBle_Set16ByPtr:
 820              	.LFB14:
1223:.\Generated_Source\PSoC4/BLE.c **** 
1224:.\Generated_Source\PSoC4/BLE.c **** 
1225:.\Generated_Source\PSoC4/BLE.c **** /******************************************************************************
1226:.\Generated_Source\PSoC4/BLE.c **** ##Function Name: CyBle_Set16ByPtr
1227:.\Generated_Source\PSoC4/BLE.c **** *******************************************************************************
1228:.\Generated_Source\PSoC4/BLE.c **** 
1229:.\Generated_Source\PSoC4/BLE.c **** Summary:
1230:.\Generated_Source\PSoC4/BLE.c ****  Sets the two-bytes value by using a pointer to the LSB.
1231:.\Generated_Source\PSoC4/BLE.c **** 
1232:.\Generated_Source\PSoC4/BLE.c **** Parameters:
1233:.\Generated_Source\PSoC4/BLE.c ****  uint8 * ptr:   Pointer to the LSB of two-bytes data (little endian).
1234:.\Generated_Source\PSoC4/BLE.c ****  uint16 value:  Two-bytes data to be written.
1235:.\Generated_Source\PSoC4/BLE.c **** 
1236:.\Generated_Source\PSoC4/BLE.c **** Return:
1237:.\Generated_Source\PSoC4/BLE.c ****  None
1238:.\Generated_Source\PSoC4/BLE.c **** 
1239:.\Generated_Source\PSoC4/BLE.c **** ******************************************************************************/
1240:.\Generated_Source\PSoC4/BLE.c **** void CyBle_Set16ByPtr(uint8 ptr[], uint16 value)
1241:.\Generated_Source\PSoC4/BLE.c **** {
 821              		.loc 1 1241 0
 822              		.cfi_startproc
 823              	.LVL88:
1242:.\Generated_Source\PSoC4/BLE.c ****     ptr[0u] = (uint8) value;
 824              		.loc 1 1242 0
 825 0000 0170     		strb	r1, [r0]
1243:.\Generated_Source\PSoC4/BLE.c ****     ptr[1u] = (uint8) (value >> 8u);
 826              		.loc 1 1243 0
 827 0002 090A     		lsr	r1, r1, #8
 828              	.LVL89:
 829 0004 4170     		strb	r1, [r0, #1]
1244:.\Generated_Source\PSoC4/BLE.c **** }
 830              		.loc 1 1244 0
 831              		@ sp needed
 832 0006 7047     		bx	lr
ARM GAS  C:\Users\ELECTR~1\AppData\Local\Temp\ccgiaJs0.s 			page 39


 833              		.cfi_endproc
 834              	.LFE14:
 835              		.size	CyBle_Set16ByPtr, .-CyBle_Set16ByPtr
 836              		.global	cyBle_StackFlashptr
 837              		.global	cyBle_sflashDeviceAddress
 838              		.global	cyBle_deviceAddress
 839              		.comm	CyBle_ApplCallback,4,4
 840              		.comm	cyBle_pendingFlashWrite,1,1
 841              		.global	cyBle_discoveryModeInfo
 842              		.global	cyBle_scanRspData
 843              		.global	cyBle_discoveryData
 844              		.global	cyBle_discoveryParam
 845              		.comm	cyBle_stackMemoryRam,2760,8
 846              		.global	cyBle_initVar
 847              		.section	.rodata
 848              		.align	7
 849              		.set	.LANCHOR2,. + 0
 850              		.set	.LANCHOR3,. + 128
 851              	.LC0:
 852 0000 2400     		.short	36
 853 0002 03       		.byte	3
 854 0003 00       		.space	1
 855 0004 1C00     		.short	28
 856 0006 01       		.byte	1
 857 0007 00       		.space	1
 858 0008 3000     		.short	48
 859 000a 01       		.byte	1
 860 000b 00       		.space	1
 861 000c 4800     		.short	72
 862 000e 01       		.byte	1
 863 000f 00       		.space	1
 864 0010 2400     		.short	36
 865 0012 01       		.byte	1
 866 0013 00       		.space	1
 867 0014 2400     		.short	36
 868 0016 01       		.byte	1
 869 0017 00       		.space	1
 870 0018 00000000 		.space	104
 870      00000000 
 870      00000000 
 870      00000000 
 870      00000000 
 871              		.type	cyBle_StackFlashptr, %object
 872              		.size	cyBle_StackFlashptr, 365
 873              	cyBle_StackFlashptr:
 874 0080 00000000 		.space	365
 874      00000000 
 874      00000000 
 874      00000000 
 874      00000000 
 875 01ed 00000000 		.data
 875      00000000 
 875      00000000 
 875      00000000 
 875      000000
 876              		.align	2
 877              		.set	.LANCHOR0,. + 0
ARM GAS  C:\Users\ELECTR~1\AppData\Local\Temp\ccgiaJs0.s 			page 40


 878              		.type	cyBle_discoveryData, %object
 879              		.size	cyBle_discoveryData, 32
 880              	cyBle_discoveryData:
 881 0000 02       		.byte	2
 882 0001 01       		.byte	1
 883 0002 06       		.byte	6
 884 0003 0D       		.byte	13
 885 0004 09       		.byte	9
 886 0005 50       		.byte	80
 887 0006 53       		.byte	83
 888 0007 6F       		.byte	111
 889 0008 43       		.byte	67
 890 0009 20       		.byte	32
 891 000a 50       		.byte	80
 892 000b 69       		.byte	105
 893 000c 6F       		.byte	111
 894 000d 6E       		.byte	110
 895 000e 65       		.byte	101
 896 000f 65       		.byte	101
 897 0010 72       		.byte	114
 898 0011 05       		.byte	5
 899 0012 03       		.byte	3
 900 0013 B5       		.byte	-75
 901 0014 CA       		.byte	-54
 902 0015 BB       		.byte	-69
 903 0016 CB       		.byte	-53
 904 0017 00       		.byte	0
 905 0018 00       		.byte	0
 906 0019 00       		.byte	0
 907 001a 00       		.byte	0
 908 001b 00       		.byte	0
 909 001c 00       		.byte	0
 910 001d 00       		.byte	0
 911 001e 00       		.byte	0
 912 001f 17       		.byte	23
 913              		.type	cyBle_scanRspData, %object
 914              		.size	cyBle_scanRspData, 32
 915              	cyBle_scanRspData:
 916 0020 07       		.byte	7
 917 0021 16       		.byte	22
 918 0022 BB       		.byte	-69
 919 0023 CB       		.byte	-53
 920 0024 FF       		.byte	-1
 921 0025 FF       		.byte	-1
 922 0026 FF       		.byte	-1
 923 0027 FF       		.byte	-1
 924 0028 00       		.byte	0
 925 0029 00       		.byte	0
 926 002a 00       		.byte	0
 927 002b 00       		.byte	0
 928 002c 00       		.byte	0
 929 002d 00       		.byte	0
 930 002e 00       		.byte	0
 931 002f 00       		.byte	0
 932 0030 00       		.byte	0
 933 0031 00       		.byte	0
 934 0032 00       		.byte	0
ARM GAS  C:\Users\ELECTR~1\AppData\Local\Temp\ccgiaJs0.s 			page 41


 935 0033 00       		.byte	0
 936 0034 00       		.byte	0
 937 0035 00       		.byte	0
 938 0036 00       		.byte	0
 939 0037 00       		.byte	0
 940 0038 00       		.byte	0
 941 0039 00       		.byte	0
 942 003a 00       		.byte	0
 943 003b 00       		.byte	0
 944 003c 00       		.byte	0
 945 003d 00       		.byte	0
 946 003e 00       		.byte	0
 947 003f 08       		.byte	8
 948              		.type	cyBle_discoveryModeInfo, %object
 949              		.size	cyBle_discoveryModeInfo, 20
 950              	cyBle_discoveryModeInfo:
 951 0040 02       		.byte	2
 952 0041 000000   		.space	3
 953 0044 00000000 		.word	cyBle_discoveryParam
 954 0048 00000000 		.word	cyBle_discoveryData
 955 004c 00000000 		.word	cyBle_scanRspData
 956 0050 7800     		.short	120
 957 0052 0000     		.space	2
 958              		.type	cyBle_sflashDeviceAddress, %object
 959              		.size	cyBle_sflashDeviceAddress, 4
 960              	cyBle_sflashDeviceAddress:
 961 0054 00F2FF0F 		.word	268431872
 962              		.type	cyBle_deviceAddress, %object
 963              		.size	cyBle_deviceAddress, 7
 964              	cyBle_deviceAddress:
 965 0058 00       		.byte	0
 966 0059 00       		.byte	0
 967 005a 00       		.byte	0
 968 005b 50       		.byte	80
 969 005c A0       		.byte	-96
 970 005d 00       		.byte	0
 971 005e 00       		.byte	0
 972 005f 00       		.space	1
 973              		.type	cyBle_discoveryParam, %object
 974              		.size	cyBle_discoveryParam, 16
 975              	cyBle_discoveryParam:
 976 0060 4001     		.short	320
 977 0062 E001     		.short	480
 978 0064 00       		.byte	0
 979 0065 00       		.byte	0
 980 0066 00       		.byte	0
 981 0067 00       		.byte	0
 982 0068 00       		.byte	0
 983 0069 00       		.byte	0
 984 006a 50       		.byte	80
 985 006b A0       		.byte	-96
 986 006c 00       		.byte	0
 987 006d 07       		.byte	7
 988 006e 00       		.byte	0
 989 006f 00       		.space	1
 990              		.bss
 991              		.set	.LANCHOR1,. + 0
ARM GAS  C:\Users\ELECTR~1\AppData\Local\Temp\ccgiaJs0.s 			page 42


 992              		.type	cyBle_initVar, %object
 993              		.size	cyBle_initVar, 1
 994              	cyBle_initVar:
 995 0000 00       		.space	1
 996              		.text
 997              	.Letext0:
 998              		.file 2 ".\\Generated_Source\\PSoC4\\cytypes.h"
 999              		.file 3 ".\\Generated_Source\\PSoC4\\BLE_Stack.h"
 1000              		.file 4 ".\\Generated_Source\\PSoC4\\BLE_StackGap.h"
 1001              		.file 5 ".\\Generated_Source\\PSoC4\\BLE_StackGatt.h"
 1002              		.file 6 ".\\Generated_Source\\PSoC4\\BLE_StackGattDb.h"
 1003              		.file 7 ".\\Generated_Source\\PSoC4\\BLE.h"
 1004              		.file 8 ".\\Generated_Source\\PSoC4\\BLE_eventHandler.h"
 1005              		.file 9 ".\\Generated_Source\\PSoC4\\BLE_gatt.h"
 1006              		.file 10 ".\\Generated_Source\\PSoC4\\BLE_custom.h"
 1007              		.file 11 ".\\Generated_Source\\PSoC4\\BLE_StackHostMain.h"