ARM GAS  C:\Users\ELECTR~1\AppData\Local\Temp\ccJM91Ce.s 			page 1


   1              		.cpu cortex-m0
   2              		.fpu softvfp
   3              		.eabi_attribute 20, 1
   4              		.eabi_attribute 21, 1
   5              		.eabi_attribute 23, 3
   6              		.eabi_attribute 24, 1
   7              		.eabi_attribute 25, 1
   8              		.eabi_attribute 26, 1
   9              		.eabi_attribute 30, 1
  10              		.eabi_attribute 34, 0
  11              		.eabi_attribute 18, 4
  12              		.code	16
  13              		.file	"BLE_eventHandler.c"
  14              		.text
  15              	.Ltext0:
  16              		.cfi_sections	.debug_frame
  17              		.section	.text.CyBle_GattDisconnectEventHandler,"ax",%progbits
  18              		.align	2
  19              		.code	16
  20              		.thumb_func
  21              		.type	CyBle_GattDisconnectEventHandler, %function
  22              	CyBle_GattDisconnectEventHandler:
  23              	.LFB4:
  24              		.file 1 ".\\Generated_Source\\PSoC4\\BLE_eventHandler.c"
   1:.\Generated_Source\PSoC4/BLE_eventHandler.c **** /*******************************************************************************
   2:.\Generated_Source\PSoC4/BLE_eventHandler.c **** File Name: CYBLE_eventHandler.c
   3:.\Generated_Source\PSoC4/BLE_eventHandler.c **** Version 2.10
   4:.\Generated_Source\PSoC4/BLE_eventHandler.c **** 
   5:.\Generated_Source\PSoC4/BLE_eventHandler.c **** Description:
   6:.\Generated_Source\PSoC4/BLE_eventHandler.c ****  This file contains the source code for the Event Handler State Machine
   7:.\Generated_Source\PSoC4/BLE_eventHandler.c ****  of the BLE Component.
   8:.\Generated_Source\PSoC4/BLE_eventHandler.c **** 
   9:.\Generated_Source\PSoC4/BLE_eventHandler.c **** ********************************************************************************
  10:.\Generated_Source\PSoC4/BLE_eventHandler.c **** Copyright 2014-2015, Cypress Semiconductor Corporation.  All rights reserved.
  11:.\Generated_Source\PSoC4/BLE_eventHandler.c **** You may use this file only in accordance with the license, terms, conditions,
  12:.\Generated_Source\PSoC4/BLE_eventHandler.c **** disclaimers, and limitations in the end user license agreement accompanying
  13:.\Generated_Source\PSoC4/BLE_eventHandler.c **** the software package with which this file was provided.
  14:.\Generated_Source\PSoC4/BLE_eventHandler.c **** *******************************************************************************/
  15:.\Generated_Source\PSoC4/BLE_eventHandler.c **** 
  16:.\Generated_Source\PSoC4/BLE_eventHandler.c **** #include "BLE_eventHandler.h"
  17:.\Generated_Source\PSoC4/BLE_eventHandler.c **** 
  18:.\Generated_Source\PSoC4/BLE_eventHandler.c **** 
  19:.\Generated_Source\PSoC4/BLE_eventHandler.c **** /***************************************
  20:.\Generated_Source\PSoC4/BLE_eventHandler.c **** ##Private Function Prototypes
  21:.\Generated_Source\PSoC4/BLE_eventHandler.c **** ***************************************/
  22:.\Generated_Source\PSoC4/BLE_eventHandler.c **** 
  23:.\Generated_Source\PSoC4/BLE_eventHandler.c **** #if (CYBLE_GATT_ROLE_SERVER || CYBLE_GATT_ROLE_CLIENT)
  24:.\Generated_Source\PSoC4/BLE_eventHandler.c **** 
  25:.\Generated_Source\PSoC4/BLE_eventHandler.c **** static uint8 CyBle_IsDeviceAddressValid(const CYBLE_GAP_BD_ADDR_T *sflashDeviceAddress);
  26:.\Generated_Source\PSoC4/BLE_eventHandler.c **** 
  27:.\Generated_Source\PSoC4/BLE_eventHandler.c **** #endif /* CYBLE_GATT_ROLE_SERVER || CYBLE_GATT_ROLE_CLIENT */
  28:.\Generated_Source\PSoC4/BLE_eventHandler.c **** 
  29:.\Generated_Source\PSoC4/BLE_eventHandler.c **** static void CyBle_GattDisconnectEventHandler(void);
  30:.\Generated_Source\PSoC4/BLE_eventHandler.c **** static void CyBle_TimeOutEventHandler(const CYBLE_TO_REASON_CODE_T *eventParam);
  31:.\Generated_Source\PSoC4/BLE_eventHandler.c **** static void CyBle_GattConnectReqHandler(void);
  32:.\Generated_Source\PSoC4/BLE_eventHandler.c **** static void CyBle_L2Cap_ConnParamUpdateRspEventHandler(uint16 response);
  33:.\Generated_Source\PSoC4/BLE_eventHandler.c **** static void CyBle_GapConnUpdateCompleteEventHandler(const CYBLE_GAP_CONN_PARAM_UPDATED_IN_CONTROLLE
ARM GAS  C:\Users\ELECTR~1\AppData\Local\Temp\ccJM91Ce.s 			page 2


  34:.\Generated_Source\PSoC4/BLE_eventHandler.c **** 
  35:.\Generated_Source\PSoC4/BLE_eventHandler.c **** 
  36:.\Generated_Source\PSoC4/BLE_eventHandler.c **** #if (CYBLE_GATT_ROLE_SERVER)
  37:.\Generated_Source\PSoC4/BLE_eventHandler.c **** 
  38:.\Generated_Source\PSoC4/BLE_eventHandler.c **** static void CyBle_WriteReqHandler(CYBLE_GATTS_WRITE_REQ_PARAM_T *eventParam);
  39:.\Generated_Source\PSoC4/BLE_eventHandler.c **** static void CyBle_ValueConfirmation(const CYBLE_CONN_HANDLE_T *eventParam);
  40:.\Generated_Source\PSoC4/BLE_eventHandler.c **** 
  41:.\Generated_Source\PSoC4/BLE_eventHandler.c **** #endif /* CYBLE_GATT_ROLE_SERVER */
  42:.\Generated_Source\PSoC4/BLE_eventHandler.c **** 
  43:.\Generated_Source\PSoC4/BLE_eventHandler.c **** #if (CYBLE_GATT_ROLE_CLIENT)
  44:.\Generated_Source\PSoC4/BLE_eventHandler.c **** 
  45:.\Generated_Source\PSoC4/BLE_eventHandler.c **** static void CyBle_GapcDiscoverCharacteristicsEventHandler(CYBLE_DISC_CHAR_INFO_T *discCharInfo);
  46:.\Generated_Source\PSoC4/BLE_eventHandler.c **** static CYBLE_GATT_ATTR_HANDLE_RANGE_T CyBle_GetCharRange(void);
  47:.\Generated_Source\PSoC4/BLE_eventHandler.c **** static void CyBle_GattcWriteResponseEventHandler(const CYBLE_CONN_HANDLE_T *eventParam);
  48:.\Generated_Source\PSoC4/BLE_eventHandler.c **** static void CyBle_NotificationEventHandler(CYBLE_GATTC_HANDLE_VALUE_NTF_PARAM_T *eventParam);
  49:.\Generated_Source\PSoC4/BLE_eventHandler.c **** static void CyBle_IndicationEventHandler(CYBLE_GATTC_HANDLE_VALUE_IND_PARAM_T *eventParam);
  50:.\Generated_Source\PSoC4/BLE_eventHandler.c **** static void CyBle_ReadResponseEventHandler(CYBLE_GATTC_READ_RSP_PARAM_T *eventParam);
  51:.\Generated_Source\PSoC4/BLE_eventHandler.c **** 
  52:.\Generated_Source\PSoC4/BLE_eventHandler.c **** #endif /* CYBLE_GATT_ROLE_CLIENT */
  53:.\Generated_Source\PSoC4/BLE_eventHandler.c **** 
  54:.\Generated_Source\PSoC4/BLE_eventHandler.c **** 
  55:.\Generated_Source\PSoC4/BLE_eventHandler.c **** /***************************************
  56:.\Generated_Source\PSoC4/BLE_eventHandler.c **** ##Global Variables
  57:.\Generated_Source\PSoC4/BLE_eventHandler.c **** ***************************************/
  58:.\Generated_Source\PSoC4/BLE_eventHandler.c **** 
  59:.\Generated_Source\PSoC4/BLE_eventHandler.c **** /* This global variable is initialized after connection with peer device, 
  60:.\Generated_Source\PSoC4/BLE_eventHandler.c ****    after CYBLE_EVT_GATT_CONNECT_IND event, and could be used by application code
  61:.\Generated_Source\PSoC4/BLE_eventHandler.c ****    to send data to peer device. 
  62:.\Generated_Source\PSoC4/BLE_eventHandler.c **** */
  63:.\Generated_Source\PSoC4/BLE_eventHandler.c **** CYBLE_CONN_HANDLE_T cyBle_connHandle;
  64:.\Generated_Source\PSoC4/BLE_eventHandler.c **** 
  65:.\Generated_Source\PSoC4/BLE_eventHandler.c **** volatile uint8 cyBle_eventHandlerFlag;
  66:.\Generated_Source\PSoC4/BLE_eventHandler.c **** volatile uint8 cyBle_busyStatus;
  67:.\Generated_Source\PSoC4/BLE_eventHandler.c **** 
  68:.\Generated_Source\PSoC4/BLE_eventHandler.c **** #if(CYBLE_GAP_ROLE_PERIPHERAL || CYBLE_GAP_ROLE_BROADCASTER) 
  69:.\Generated_Source\PSoC4/BLE_eventHandler.c ****     uint8 cyBle_advertisingIntervalType;
  70:.\Generated_Source\PSoC4/BLE_eventHandler.c **** #endif /* CYBLE_GAP_ROLE_PERIPHERAL || CYBLE_GAP_ROLE_BROADCASTER) */
  71:.\Generated_Source\PSoC4/BLE_eventHandler.c **** 
  72:.\Generated_Source\PSoC4/BLE_eventHandler.c **** #if(CYBLE_GAP_ROLE_CENTRAL || CYBLE_GAP_ROLE_OBSERVER) 
  73:.\Generated_Source\PSoC4/BLE_eventHandler.c ****     uint8 cyBle_scanningIntervalType;
  74:.\Generated_Source\PSoC4/BLE_eventHandler.c **** #endif /* CYBLE_GAP_ROLE_CENTRAL || CYBLE_GAP_ROLE_OBSERVER */
  75:.\Generated_Source\PSoC4/BLE_eventHandler.c **** 
  76:.\Generated_Source\PSoC4/BLE_eventHandler.c **** #if(CYBLE_GATT_ROLE_SERVER)
  77:.\Generated_Source\PSoC4/BLE_eventHandler.c **** #if defined CYBLE_CTS_SERVER || defined CYBLE_ESS_SERVER
  78:.\Generated_Source\PSoC4/BLE_eventHandler.c **** CYBLE_GATT_ERR_CODE_T cyBle_gattError;
  79:.\Generated_Source\PSoC4/BLE_eventHandler.c **** #endif /* defined CYBLE_CTS_SERVER || defined CYBLE_ESS_SERVER */
  80:.\Generated_Source\PSoC4/BLE_eventHandler.c **** #endif /* CYBLE_GATT_ROLE_SERVER */
  81:.\Generated_Source\PSoC4/BLE_eventHandler.c **** 
  82:.\Generated_Source\PSoC4/BLE_eventHandler.c **** #if(CYBLE_GATT_ROLE_CLIENT)
  83:.\Generated_Source\PSoC4/BLE_eventHandler.c **** uint8 cyBle_disCount; /* Counter for discovery procedures */
  84:.\Generated_Source\PSoC4/BLE_eventHandler.c **** static CYBLE_GATT_DB_ATTR_HANDLE_T cyBle_charEndHandle;
  85:.\Generated_Source\PSoC4/BLE_eventHandler.c **** /* Discovery included service information, used for 128-bit UUID read response handle 
  86:.\Generated_Source\PSoC4/BLE_eventHandler.c ****    and for continue discovery. 
  87:.\Generated_Source\PSoC4/BLE_eventHandler.c **** */
  88:.\Generated_Source\PSoC4/BLE_eventHandler.c **** static CYBLE_DISC_INCL_INFO_T cyBle_discInclInfo;
  89:.\Generated_Source\PSoC4/BLE_eventHandler.c **** #ifdef CYBLE_HIDS_CLIENT
  90:.\Generated_Source\PSoC4/BLE_eventHandler.c ****     static uint8 disServiceIndex;      /* To discovery descriptors for multiple HID service instanc
ARM GAS  C:\Users\ELECTR~1\AppData\Local\Temp\ccJM91Ce.s 			page 3


  91:.\Generated_Source\PSoC4/BLE_eventHandler.c **** #endif /* CYBLE_HIDS_CLIENT */
  92:.\Generated_Source\PSoC4/BLE_eventHandler.c **** 
  93:.\Generated_Source\PSoC4/BLE_eventHandler.c **** CYBLE_DISC_SRVC_INFO_T cyBle_serverInfo[CYBLE_SRVI_COUNT] = /*4*/
  94:.\Generated_Source\PSoC4/BLE_eventHandler.c **** {
  95:.\Generated_Source\PSoC4/BLE_eventHandler.c ****     {{CYBLE_GATT_INVALID_ATTR_HANDLE_VALUE, CYBLE_GATT_INVALID_ATTR_HANDLE_VALUE}, CYBLE_UUID_GAP_S
  96:.\Generated_Source\PSoC4/BLE_eventHandler.c ****     {{CYBLE_GATT_INVALID_ATTR_HANDLE_VALUE, CYBLE_GATT_INVALID_ATTR_HANDLE_VALUE}, CYBLE_UUID_GATT_
  97:.\Generated_Source\PSoC4/BLE_eventHandler.c **** #ifdef CYBLE_ANCS_CLIENT
  98:.\Generated_Source\PSoC4/BLE_eventHandler.c ****     {{CYBLE_GATT_INVALID_ATTR_HANDLE_VALUE, CYBLE_GATT_INVALID_ATTR_HANDLE_VALUE}, 0x0000u},
  99:.\Generated_Source\PSoC4/BLE_eventHandler.c **** #endif /* CYBLE_ANCS_CLIENT */
 100:.\Generated_Source\PSoC4/BLE_eventHandler.c **** #ifdef CYBLE_ANS_CLIENT
 101:.\Generated_Source\PSoC4/BLE_eventHandler.c ****     {{CYBLE_GATT_INVALID_ATTR_HANDLE_VALUE, CYBLE_GATT_INVALID_ATTR_HANDLE_VALUE}, 
 102:.\Generated_Source\PSoC4/BLE_eventHandler.c ****         CYBLE_UUID_ALERT_NOTIFICATION_SERVICE},
 103:.\Generated_Source\PSoC4/BLE_eventHandler.c **** #endif /* CYBLE_ANS_CLIENT */
 104:.\Generated_Source\PSoC4/BLE_eventHandler.c **** #ifdef CYBLE_BAS_CLIENT
 105:.\Generated_Source\PSoC4/BLE_eventHandler.c ****     {{CYBLE_GATT_INVALID_ATTR_HANDLE_VALUE, CYBLE_GATT_INVALID_ATTR_HANDLE_VALUE}, CYBLE_UUID_BAS_S
 106:.\Generated_Source\PSoC4/BLE_eventHandler.c ****     #if(CYBLE_BASC_SERVICE_COUNT > 1u) /* Generate it by GUI */
 107:.\Generated_Source\PSoC4/BLE_eventHandler.c ****         
 108:.\Generated_Source\PSoC4/BLE_eventHandler.c ****     #endif /* CYBLE_BASC_SERVICE_COUNT > 1u */
 109:.\Generated_Source\PSoC4/BLE_eventHandler.c **** #endif /* CYBLE_BAS_CLIENT */
 110:.\Generated_Source\PSoC4/BLE_eventHandler.c **** #ifdef CYBLE_BLS_CLIENT
 111:.\Generated_Source\PSoC4/BLE_eventHandler.c ****     {{CYBLE_GATT_INVALID_ATTR_HANDLE_VALUE, CYBLE_GATT_INVALID_ATTR_HANDLE_VALUE}, CYBLE_UUID_BLOOD
 112:.\Generated_Source\PSoC4/BLE_eventHandler.c **** #endif /* CYBLE_BLS_CLIENT */
 113:.\Generated_Source\PSoC4/BLE_eventHandler.c **** #ifdef CYBLE_BMS_CLIENT
 114:.\Generated_Source\PSoC4/BLE_eventHandler.c ****     {{CYBLE_GATT_INVALID_ATTR_HANDLE_VALUE, CYBLE_GATT_INVALID_ATTR_HANDLE_VALUE}, CYBLE_UUID_BOND_
 115:.\Generated_Source\PSoC4/BLE_eventHandler.c **** #endif /* CYBLE_BMS_CLIENT */
 116:.\Generated_Source\PSoC4/BLE_eventHandler.c **** #ifdef CYBLE_CGMS_CLIENT
 117:.\Generated_Source\PSoC4/BLE_eventHandler.c ****     {{CYBLE_GATT_INVALID_ATTR_HANDLE_VALUE, CYBLE_GATT_INVALID_ATTR_HANDLE_VALUE}, CYBLE_UUID_CGM_S
 118:.\Generated_Source\PSoC4/BLE_eventHandler.c **** #endif /* CYBLE_CGMS_CLIENT */
 119:.\Generated_Source\PSoC4/BLE_eventHandler.c **** #ifdef CYBLE_CPS_CLIENT
 120:.\Generated_Source\PSoC4/BLE_eventHandler.c ****     {{CYBLE_GATT_INVALID_ATTR_HANDLE_VALUE, CYBLE_GATT_INVALID_ATTR_HANDLE_VALUE}, CYBLE_UUID_CPS_S
 121:.\Generated_Source\PSoC4/BLE_eventHandler.c **** #endif /* CYBLE_CPS_CLIENT */
 122:.\Generated_Source\PSoC4/BLE_eventHandler.c **** #ifdef CYBLE_CSCS_CLIENT
 123:.\Generated_Source\PSoC4/BLE_eventHandler.c ****     {{CYBLE_GATT_INVALID_ATTR_HANDLE_VALUE, CYBLE_GATT_INVALID_ATTR_HANDLE_VALUE}, 
 124:.\Generated_Source\PSoC4/BLE_eventHandler.c ****         CYBLE_UUID_CYCLING_SPEED_AND_CADENCE_SERVICE},
 125:.\Generated_Source\PSoC4/BLE_eventHandler.c **** #endif /* CYBLE_CSCS_CLIENT */
 126:.\Generated_Source\PSoC4/BLE_eventHandler.c **** #ifdef CYBLE_CTS_CLIENT
 127:.\Generated_Source\PSoC4/BLE_eventHandler.c ****     {{CYBLE_GATT_INVALID_ATTR_HANDLE_VALUE, CYBLE_GATT_INVALID_ATTR_HANDLE_VALUE}, CYBLE_UUID_CURRE
 128:.\Generated_Source\PSoC4/BLE_eventHandler.c **** #endif /* CYBLE_CTS_CLIENT */
 129:.\Generated_Source\PSoC4/BLE_eventHandler.c **** #ifdef CYBLE_CUSTOM_CLIENT
 130:.\Generated_Source\PSoC4/BLE_eventHandler.c ****     
 131:.\Generated_Source\PSoC4/BLE_eventHandler.c **** #endif /* CYBLE_CUSTOM_CLIENT */
 132:.\Generated_Source\PSoC4/BLE_eventHandler.c **** #ifdef CYBLE_DIS_CLIENT
 133:.\Generated_Source\PSoC4/BLE_eventHandler.c ****     {{CYBLE_GATT_INVALID_ATTR_HANDLE_VALUE, CYBLE_GATT_INVALID_ATTR_HANDLE_VALUE}, CYBLE_UUID_DEVIC
 134:.\Generated_Source\PSoC4/BLE_eventHandler.c **** #endif /* CYBLE_DIS_CLIENT */
 135:.\Generated_Source\PSoC4/BLE_eventHandler.c **** #ifdef CYBLE_ESS_CLIENT
 136:.\Generated_Source\PSoC4/BLE_eventHandler.c ****     {{CYBLE_GATT_INVALID_ATTR_HANDLE_VALUE, CYBLE_GATT_INVALID_ATTR_HANDLE_VALUE}, 
 137:.\Generated_Source\PSoC4/BLE_eventHandler.c ****         CYBLE_UUID_ENVIRONMENTAL_SENSING_SERVICE},
 138:.\Generated_Source\PSoC4/BLE_eventHandler.c **** #endif /* CYBLE_ESS_CLIENT */
 139:.\Generated_Source\PSoC4/BLE_eventHandler.c **** #ifdef CYBLE_GLS_CLIENT
 140:.\Generated_Source\PSoC4/BLE_eventHandler.c ****     {{CYBLE_GATT_INVALID_ATTR_HANDLE_VALUE, CYBLE_GATT_INVALID_ATTR_HANDLE_VALUE}, CYBLE_UUID_GLUCO
 141:.\Generated_Source\PSoC4/BLE_eventHandler.c **** #endif /* CYBLE_GLS_CLIENT */
 142:.\Generated_Source\PSoC4/BLE_eventHandler.c **** #ifdef CYBLE_HIDS_CLIENT
 143:.\Generated_Source\PSoC4/BLE_eventHandler.c ****     {{CYBLE_GATT_INVALID_ATTR_HANDLE_VALUE, CYBLE_GATT_INVALID_ATTR_HANDLE_VALUE}, CYBLE_UUID_HIDS_
 144:.\Generated_Source\PSoC4/BLE_eventHandler.c ****     #if(CYBLE_HIDSC_SERVICE_COUNT > 1u) /* Generate it by GUI */
 145:.\Generated_Source\PSoC4/BLE_eventHandler.c ****         
 146:.\Generated_Source\PSoC4/BLE_eventHandler.c ****     #endif /* CYBLE_HIDSC_SERVICE_COUNT > 1u */
 147:.\Generated_Source\PSoC4/BLE_eventHandler.c **** #endif /* CYBLE_HIDS_CLIENT */
ARM GAS  C:\Users\ELECTR~1\AppData\Local\Temp\ccJM91Ce.s 			page 4


 148:.\Generated_Source\PSoC4/BLE_eventHandler.c **** #ifdef CYBLE_HRS_CLIENT
 149:.\Generated_Source\PSoC4/BLE_eventHandler.c ****     {{CYBLE_GATT_INVALID_ATTR_HANDLE_VALUE, CYBLE_GATT_INVALID_ATTR_HANDLE_VALUE}, CYBLE_UUID_HEART
 150:.\Generated_Source\PSoC4/BLE_eventHandler.c **** #endif /* CYBLE_HRS_CLIENT */
 151:.\Generated_Source\PSoC4/BLE_eventHandler.c **** #ifdef CYBLE_HTS_CLIENT
 152:.\Generated_Source\PSoC4/BLE_eventHandler.c ****     {{CYBLE_GATT_INVALID_ATTR_HANDLE_VALUE, CYBLE_GATT_INVALID_ATTR_HANDLE_VALUE}, CYBLE_UUID_HEALT
 153:.\Generated_Source\PSoC4/BLE_eventHandler.c **** #endif /* CYBLE_HTS_CLIENT */
 154:.\Generated_Source\PSoC4/BLE_eventHandler.c **** #ifdef CYBLE_IAS_CLIENT
 155:.\Generated_Source\PSoC4/BLE_eventHandler.c ****     {{CYBLE_GATT_INVALID_ATTR_HANDLE_VALUE, CYBLE_GATT_INVALID_ATTR_HANDLE_VALUE}, CYBLE_UUID_IMMED
 156:.\Generated_Source\PSoC4/BLE_eventHandler.c **** #endif /* CYBLE_IAS_CLIENT */
 157:.\Generated_Source\PSoC4/BLE_eventHandler.c **** #ifdef CYBLE_LLS_CLIENT
 158:.\Generated_Source\PSoC4/BLE_eventHandler.c ****     {{CYBLE_GATT_INVALID_ATTR_HANDLE_VALUE, CYBLE_GATT_INVALID_ATTR_HANDLE_VALUE}, CYBLE_UUID_LINK_
 159:.\Generated_Source\PSoC4/BLE_eventHandler.c **** #endif /* CYBLE_LLS_CLIENT */
 160:.\Generated_Source\PSoC4/BLE_eventHandler.c **** #ifdef CYBLE_LNS_CLIENT
 161:.\Generated_Source\PSoC4/BLE_eventHandler.c ****     {{CYBLE_GATT_INVALID_ATTR_HANDLE_VALUE, CYBLE_GATT_INVALID_ATTR_HANDLE_VALUE}, CYBLE_UUID_LOCAT
 162:.\Generated_Source\PSoC4/BLE_eventHandler.c **** #endif /* CYBLE_LNS_CLIENT */
 163:.\Generated_Source\PSoC4/BLE_eventHandler.c **** #ifdef CYBLE_NDCS_CLIENT
 164:.\Generated_Source\PSoC4/BLE_eventHandler.c ****     {{CYBLE_GATT_INVALID_ATTR_HANDLE_VALUE, CYBLE_GATT_INVALID_ATTR_HANDLE_VALUE}, CYBLE_UUID_NEXT_
 165:.\Generated_Source\PSoC4/BLE_eventHandler.c **** #endif /* CYBLE_NDCS_CLIENT */
 166:.\Generated_Source\PSoC4/BLE_eventHandler.c **** #ifdef CYBLE_IPSS_CLIENT
 167:.\Generated_Source\PSoC4/BLE_eventHandler.c ****     {{CYBLE_GATT_INVALID_ATTR_HANDLE_VALUE, CYBLE_GATT_INVALID_ATTR_HANDLE_VALUE}, CYBLE_UUID_INTER
 168:.\Generated_Source\PSoC4/BLE_eventHandler.c **** #endif /* CYBLE_IPSS_CLIENT */
 169:.\Generated_Source\PSoC4/BLE_eventHandler.c **** #ifdef CYBLE_PASS_CLIENT
 170:.\Generated_Source\PSoC4/BLE_eventHandler.c ****     {{CYBLE_GATT_INVALID_ATTR_HANDLE_VALUE, CYBLE_GATT_INVALID_ATTR_HANDLE_VALUE}, CYBLE_UUID_PHONE
 171:.\Generated_Source\PSoC4/BLE_eventHandler.c **** #endif /* CYBLE_PASS_CLIENT */
 172:.\Generated_Source\PSoC4/BLE_eventHandler.c **** #ifdef CYBLE_RSCS_CLIENT
 173:.\Generated_Source\PSoC4/BLE_eventHandler.c ****     {{CYBLE_GATT_INVALID_ATTR_HANDLE_VALUE, CYBLE_GATT_INVALID_ATTR_HANDLE_VALUE}, CYBLE_UUID_RUNNI
 174:.\Generated_Source\PSoC4/BLE_eventHandler.c **** #endif /* CYBLE_RSCS_CLIENT */
 175:.\Generated_Source\PSoC4/BLE_eventHandler.c **** #ifdef CYBLE_RTUS_CLIENT
 176:.\Generated_Source\PSoC4/BLE_eventHandler.c ****     {{CYBLE_GATT_INVALID_ATTR_HANDLE_VALUE, CYBLE_GATT_INVALID_ATTR_HANDLE_VALUE}, CYBLE_UUID_REF_T
 177:.\Generated_Source\PSoC4/BLE_eventHandler.c **** #endif /* CYBLE_RTUS_CLIENT */
 178:.\Generated_Source\PSoC4/BLE_eventHandler.c **** #ifdef CYBLE_SCPS_CLIENT
 179:.\Generated_Source\PSoC4/BLE_eventHandler.c ****     {{CYBLE_GATT_INVALID_ATTR_HANDLE_VALUE, CYBLE_GATT_INVALID_ATTR_HANDLE_VALUE}, CYBLE_UUID_SCAN_
 180:.\Generated_Source\PSoC4/BLE_eventHandler.c **** #endif /* CYBLE_SCPS_CLIENT */
 181:.\Generated_Source\PSoC4/BLE_eventHandler.c **** #ifdef CYBLE_TPS_CLIENT
 182:.\Generated_Source\PSoC4/BLE_eventHandler.c ****     {{CYBLE_GATT_INVALID_ATTR_HANDLE_VALUE, CYBLE_GATT_INVALID_ATTR_HANDLE_VALUE}, CYBLE_UUID_TX_PO
 183:.\Generated_Source\PSoC4/BLE_eventHandler.c **** #endif /* CYBLE_TPS_CLIENT */
 184:.\Generated_Source\PSoC4/BLE_eventHandler.c **** #ifdef CYBLE_UDS_CLIENT
 185:.\Generated_Source\PSoC4/BLE_eventHandler.c ****     {{CYBLE_GATT_INVALID_ATTR_HANDLE_VALUE, CYBLE_GATT_INVALID_ATTR_HANDLE_VALUE}, CYBLE_UUID_USER_
 186:.\Generated_Source\PSoC4/BLE_eventHandler.c **** #endif /* CYBLE_UDS_CLIENT */
 187:.\Generated_Source\PSoC4/BLE_eventHandler.c **** #ifdef CYBLE_WPTS_CLIENT
 188:.\Generated_Source\PSoC4/BLE_eventHandler.c ****     {{CYBLE_GATT_INVALID_ATTR_HANDLE_VALUE, CYBLE_GATT_INVALID_ATTR_HANDLE_VALUE}, CYBLE_UUID_WIREL
 189:.\Generated_Source\PSoC4/BLE_eventHandler.c **** #endif /* CYBLE_WPTS_CLIENT */
 190:.\Generated_Source\PSoC4/BLE_eventHandler.c **** };
 191:.\Generated_Source\PSoC4/BLE_eventHandler.c **** 
 192:.\Generated_Source\PSoC4/BLE_eventHandler.c **** CYBLE_GAPC_T cyBle_gapc;
 193:.\Generated_Source\PSoC4/BLE_eventHandler.c **** 
 194:.\Generated_Source\PSoC4/BLE_eventHandler.c **** #endif /* CYBLE_GATT_ROLE_CLIENT */
 195:.\Generated_Source\PSoC4/BLE_eventHandler.c **** 
 196:.\Generated_Source\PSoC4/BLE_eventHandler.c **** /* Default device security */
 197:.\Generated_Source\PSoC4/BLE_eventHandler.c **** CYBLE_GAP_AUTH_INFO_T cyBle_authInfo =
 198:.\Generated_Source\PSoC4/BLE_eventHandler.c **** {
 199:.\Generated_Source\PSoC4/BLE_eventHandler.c ****     (CYBLE_GAP_SEC_MODE_1 | CYBLE_GAP_SEC_LEVEL_1 ), /* uint8 security */
 200:.\Generated_Source\PSoC4/BLE_eventHandler.c ****     CYBLE_GAP_BONDING, /* uint8 bonding */
 201:.\Generated_Source\PSoC4/BLE_eventHandler.c ****     0x10u,      /* uint8 ekeySize */
 202:.\Generated_Source\PSoC4/BLE_eventHandler.c ****     CYBLE_GAP_AUTH_ERROR_NONE, /* CYBLE_AUTH_FAILED_REASON_T authErr */
 203:.\Generated_Source\PSoC4/BLE_eventHandler.c **** };
 204:.\Generated_Source\PSoC4/BLE_eventHandler.c **** 
ARM GAS  C:\Users\ELECTR~1\AppData\Local\Temp\ccJM91Ce.s 			page 5


 205:.\Generated_Source\PSoC4/BLE_eventHandler.c **** #if(CYBLE_GATT_ROLE_SERVER)
 206:.\Generated_Source\PSoC4/BLE_eventHandler.c **** 
 207:.\Generated_Source\PSoC4/BLE_eventHandler.c **** 
 208:.\Generated_Source\PSoC4/BLE_eventHandler.c **** /******************************************************************************    
 209:.\Generated_Source\PSoC4/BLE_eventHandler.c **** ##Function Name: CyBle_WriteReqHandler
 210:.\Generated_Source\PSoC4/BLE_eventHandler.c **** *******************************************************************************
 211:.\Generated_Source\PSoC4/BLE_eventHandler.c **** 
 212:.\Generated_Source\PSoC4/BLE_eventHandler.c **** Summary:
 213:.\Generated_Source\PSoC4/BLE_eventHandler.c ****  Handles the Write Request event from BLE stack.
 214:.\Generated_Source\PSoC4/BLE_eventHandler.c **** 
 215:.\Generated_Source\PSoC4/BLE_eventHandler.c **** Parameters:
 216:.\Generated_Source\PSoC4/BLE_eventHandler.c ****  CYBLE_GATTS_WRITE_REQ_PARAM_T * eventParam - event parameter
 217:.\Generated_Source\PSoC4/BLE_eventHandler.c **** 
 218:.\Generated_Source\PSoC4/BLE_eventHandler.c **** Return:
 219:.\Generated_Source\PSoC4/BLE_eventHandler.c ****  None
 220:.\Generated_Source\PSoC4/BLE_eventHandler.c **** 
 221:.\Generated_Source\PSoC4/BLE_eventHandler.c **** ******************************************************************************/
 222:.\Generated_Source\PSoC4/BLE_eventHandler.c **** static void CyBle_WriteReqHandler(CYBLE_GATTS_WRITE_REQ_PARAM_T *eventParam)
 223:.\Generated_Source\PSoC4/BLE_eventHandler.c **** {
 224:.\Generated_Source\PSoC4/BLE_eventHandler.c ****     CYBLE_GATT_ERR_CODE_T gattErr;
 225:.\Generated_Source\PSoC4/BLE_eventHandler.c **** #if defined CYBLE_CTS_SERVER || defined CYBLE_ESS_SERVER
 226:.\Generated_Source\PSoC4/BLE_eventHandler.c ****     cyBle_gattError = CYBLE_GATT_ERR_NONE;
 227:.\Generated_Source\PSoC4/BLE_eventHandler.c **** #endif /* defined CYBLE_CTS_SERVER || defined CYBLE_ESS_SERVER */
 228:.\Generated_Source\PSoC4/BLE_eventHandler.c ****     
 229:.\Generated_Source\PSoC4/BLE_eventHandler.c ****     gattErr = CyBle_GattsWriteEventHandler(eventParam);
 230:.\Generated_Source\PSoC4/BLE_eventHandler.c **** #ifdef CYBLE_ANCS_SERVER
 231:.\Generated_Source\PSoC4/BLE_eventHandler.c ****     if(((cyBle_eventHandlerFlag & CYBLE_CALLBACK) != 0u) && (gattErr == CYBLE_GATT_ERR_NONE))
 232:.\Generated_Source\PSoC4/BLE_eventHandler.c ****     {
 233:.\Generated_Source\PSoC4/BLE_eventHandler.c ****         gattErr = CyBle_AncssWriteEventHandler(eventParam);
 234:.\Generated_Source\PSoC4/BLE_eventHandler.c ****     }
 235:.\Generated_Source\PSoC4/BLE_eventHandler.c **** #endif /* CYBLE_ANCS_SERVER */
 236:.\Generated_Source\PSoC4/BLE_eventHandler.c **** #ifdef CYBLE_ANS_SERVER
 237:.\Generated_Source\PSoC4/BLE_eventHandler.c ****     if(((cyBle_eventHandlerFlag & CYBLE_CALLBACK) != 0u) && (gattErr == CYBLE_GATT_ERR_NONE))
 238:.\Generated_Source\PSoC4/BLE_eventHandler.c ****     {
 239:.\Generated_Source\PSoC4/BLE_eventHandler.c ****         gattErr = CyBle_AnssWriteEventHandler(eventParam);
 240:.\Generated_Source\PSoC4/BLE_eventHandler.c ****     }
 241:.\Generated_Source\PSoC4/BLE_eventHandler.c **** #endif /* CYBLE_ANS_SERVER */
 242:.\Generated_Source\PSoC4/BLE_eventHandler.c **** #ifdef CYBLE_BAS_SERVER
 243:.\Generated_Source\PSoC4/BLE_eventHandler.c ****     if(((cyBle_eventHandlerFlag & CYBLE_CALLBACK) != 0u) && (gattErr == CYBLE_GATT_ERR_NONE))
 244:.\Generated_Source\PSoC4/BLE_eventHandler.c ****     {
 245:.\Generated_Source\PSoC4/BLE_eventHandler.c ****         gattErr = CyBle_BassWriteEventHandler(eventParam);
 246:.\Generated_Source\PSoC4/BLE_eventHandler.c ****     }
 247:.\Generated_Source\PSoC4/BLE_eventHandler.c **** #endif /* CYBLE_BAS_SERVER */
 248:.\Generated_Source\PSoC4/BLE_eventHandler.c **** #ifdef CYBLE_BCS_SERVER
 249:.\Generated_Source\PSoC4/BLE_eventHandler.c ****     if(((cyBle_eventHandlerFlag & CYBLE_CALLBACK) != 0u) && (gattErr == CYBLE_GATT_ERR_NONE))
 250:.\Generated_Source\PSoC4/BLE_eventHandler.c ****     {
 251:.\Generated_Source\PSoC4/BLE_eventHandler.c ****         gattErr = CyBle_BcssWriteEventHandler(eventParam);
 252:.\Generated_Source\PSoC4/BLE_eventHandler.c ****     }
 253:.\Generated_Source\PSoC4/BLE_eventHandler.c **** #endif /* CYBLE_BCS_SERVER */
 254:.\Generated_Source\PSoC4/BLE_eventHandler.c **** #ifdef CYBLE_BLS_SERVER
 255:.\Generated_Source\PSoC4/BLE_eventHandler.c ****     if(((cyBle_eventHandlerFlag & CYBLE_CALLBACK) != 0u) && (gattErr == CYBLE_GATT_ERR_NONE))
 256:.\Generated_Source\PSoC4/BLE_eventHandler.c ****     {
 257:.\Generated_Source\PSoC4/BLE_eventHandler.c ****         gattErr = CyBle_BlssWriteEventHandler(eventParam);
 258:.\Generated_Source\PSoC4/BLE_eventHandler.c ****     }
 259:.\Generated_Source\PSoC4/BLE_eventHandler.c **** #endif /* CYBLE_BLS_SERVER */
 260:.\Generated_Source\PSoC4/BLE_eventHandler.c **** #ifdef CYBLE_BMS_SERVER
 261:.\Generated_Source\PSoC4/BLE_eventHandler.c ****     if(((cyBle_eventHandlerFlag & CYBLE_CALLBACK) != 0u) && (gattErr == CYBLE_GATT_ERR_NONE))
ARM GAS  C:\Users\ELECTR~1\AppData\Local\Temp\ccJM91Ce.s 			page 6


 262:.\Generated_Source\PSoC4/BLE_eventHandler.c ****     {
 263:.\Generated_Source\PSoC4/BLE_eventHandler.c ****         gattErr = CyBle_BmssWriteEventHandler(eventParam);
 264:.\Generated_Source\PSoC4/BLE_eventHandler.c ****     }
 265:.\Generated_Source\PSoC4/BLE_eventHandler.c **** #endif /* CYBLE_BMS_SERVER */
 266:.\Generated_Source\PSoC4/BLE_eventHandler.c **** #ifdef CYBLE_BTS_SERVER
 267:.\Generated_Source\PSoC4/BLE_eventHandler.c ****     if((cyBle_eventHandlerFlag & CYBLE_CALLBACK) != 0u)
 268:.\Generated_Source\PSoC4/BLE_eventHandler.c ****     {
 269:.\Generated_Source\PSoC4/BLE_eventHandler.c ****         gattErr = CyBle_BtsWriteEventHandler(eventParam);
 270:.\Generated_Source\PSoC4/BLE_eventHandler.c ****     }
 271:.\Generated_Source\PSoC4/BLE_eventHandler.c **** #endif /* CYBLE_BTS_SERVER */
 272:.\Generated_Source\PSoC4/BLE_eventHandler.c **** #ifdef CYBLE_CGMS_SERVER
 273:.\Generated_Source\PSoC4/BLE_eventHandler.c ****     if(((cyBle_eventHandlerFlag & CYBLE_CALLBACK) != 0u) && (gattErr == CYBLE_GATT_ERR_NONE))
 274:.\Generated_Source\PSoC4/BLE_eventHandler.c ****     {
 275:.\Generated_Source\PSoC4/BLE_eventHandler.c ****         gattErr = CyBle_CgmssWriteEventHandler(eventParam);
 276:.\Generated_Source\PSoC4/BLE_eventHandler.c ****     }
 277:.\Generated_Source\PSoC4/BLE_eventHandler.c **** #endif /* CYBLE_CGMS_SERVER */
 278:.\Generated_Source\PSoC4/BLE_eventHandler.c **** #ifdef CYBLE_CPS_SERVER
 279:.\Generated_Source\PSoC4/BLE_eventHandler.c ****     if(((cyBle_eventHandlerFlag & CYBLE_CALLBACK) != 0u) && (gattErr == CYBLE_GATT_ERR_NONE))
 280:.\Generated_Source\PSoC4/BLE_eventHandler.c ****     {
 281:.\Generated_Source\PSoC4/BLE_eventHandler.c ****         gattErr = CyBle_CpssWriteEventHandler(eventParam);
 282:.\Generated_Source\PSoC4/BLE_eventHandler.c ****     }
 283:.\Generated_Source\PSoC4/BLE_eventHandler.c **** #endif /* CYBLE_CPS_SERVER */
 284:.\Generated_Source\PSoC4/BLE_eventHandler.c **** #ifdef CYBLE_CSCS_SERVER
 285:.\Generated_Source\PSoC4/BLE_eventHandler.c ****     if(((cyBle_eventHandlerFlag & CYBLE_CALLBACK) != 0u) && (gattErr == CYBLE_GATT_ERR_NONE))
 286:.\Generated_Source\PSoC4/BLE_eventHandler.c ****     {
 287:.\Generated_Source\PSoC4/BLE_eventHandler.c ****         gattErr = CyBle_CscssWriteEventHandler(eventParam);
 288:.\Generated_Source\PSoC4/BLE_eventHandler.c ****     }
 289:.\Generated_Source\PSoC4/BLE_eventHandler.c **** #endif /* CYBLE_CSCS_SERVER */
 290:.\Generated_Source\PSoC4/BLE_eventHandler.c **** #ifdef CYBLE_CTS_SERVER
 291:.\Generated_Source\PSoC4/BLE_eventHandler.c ****     if(((cyBle_eventHandlerFlag & CYBLE_CALLBACK) != 0u) && (gattErr == CYBLE_GATT_ERR_NONE))
 292:.\Generated_Source\PSoC4/BLE_eventHandler.c ****     {
 293:.\Generated_Source\PSoC4/BLE_eventHandler.c ****         gattErr = CyBle_CtssWriteEventHandler(eventParam);
 294:.\Generated_Source\PSoC4/BLE_eventHandler.c ****     }
 295:.\Generated_Source\PSoC4/BLE_eventHandler.c **** #endif /* CYBLE_CTS_SERVER */
 296:.\Generated_Source\PSoC4/BLE_eventHandler.c **** #ifdef CYBLE_ESS_SERVER
 297:.\Generated_Source\PSoC4/BLE_eventHandler.c ****     if(((cyBle_eventHandlerFlag & CYBLE_CALLBACK) != 0u) && (gattErr == CYBLE_GATT_ERR_NONE))
 298:.\Generated_Source\PSoC4/BLE_eventHandler.c ****     {
 299:.\Generated_Source\PSoC4/BLE_eventHandler.c ****         gattErr = CyBle_EsssWriteEventHandler(eventParam);
 300:.\Generated_Source\PSoC4/BLE_eventHandler.c ****     }
 301:.\Generated_Source\PSoC4/BLE_eventHandler.c **** #endif /* CYBLE_ESS_SERVER */
 302:.\Generated_Source\PSoC4/BLE_eventHandler.c **** #ifdef CYBLE_GLS_SERVER
 303:.\Generated_Source\PSoC4/BLE_eventHandler.c ****     if(((cyBle_eventHandlerFlag & CYBLE_CALLBACK) != 0u) && (gattErr == CYBLE_GATT_ERR_NONE))
 304:.\Generated_Source\PSoC4/BLE_eventHandler.c ****     {
 305:.\Generated_Source\PSoC4/BLE_eventHandler.c ****         gattErr = CyBle_GlssWriteEventHandler(eventParam);
 306:.\Generated_Source\PSoC4/BLE_eventHandler.c ****     }
 307:.\Generated_Source\PSoC4/BLE_eventHandler.c **** #endif /* CYBLE_GLS_SERVER */
 308:.\Generated_Source\PSoC4/BLE_eventHandler.c **** #ifdef CYBLE_HIDS_SERVER
 309:.\Generated_Source\PSoC4/BLE_eventHandler.c ****     if(((cyBle_eventHandlerFlag & CYBLE_CALLBACK) != 0u) && (gattErr == CYBLE_GATT_ERR_NONE))
 310:.\Generated_Source\PSoC4/BLE_eventHandler.c ****     {
 311:.\Generated_Source\PSoC4/BLE_eventHandler.c ****         gattErr = CyBle_HidssWriteEventHandler(eventParam);
 312:.\Generated_Source\PSoC4/BLE_eventHandler.c ****     }
 313:.\Generated_Source\PSoC4/BLE_eventHandler.c **** #endif /* CYBLE_HIDS_SERVER */
 314:.\Generated_Source\PSoC4/BLE_eventHandler.c **** #ifdef CYBLE_HRS_SERVER
 315:.\Generated_Source\PSoC4/BLE_eventHandler.c ****     if(((cyBle_eventHandlerFlag & CYBLE_CALLBACK) != 0u) && (gattErr == CYBLE_GATT_ERR_NONE))
 316:.\Generated_Source\PSoC4/BLE_eventHandler.c ****     {
 317:.\Generated_Source\PSoC4/BLE_eventHandler.c ****         gattErr = CyBle_HrssWriteEventHandler(eventParam);
 318:.\Generated_Source\PSoC4/BLE_eventHandler.c ****     }
ARM GAS  C:\Users\ELECTR~1\AppData\Local\Temp\ccJM91Ce.s 			page 7


 319:.\Generated_Source\PSoC4/BLE_eventHandler.c **** #endif /* CYBLE_HRS_SERVER */
 320:.\Generated_Source\PSoC4/BLE_eventHandler.c **** #ifdef CYBLE_HTS_SERVER
 321:.\Generated_Source\PSoC4/BLE_eventHandler.c ****     if(((cyBle_eventHandlerFlag & CYBLE_CALLBACK) != 0u) && (gattErr == CYBLE_GATT_ERR_NONE))
 322:.\Generated_Source\PSoC4/BLE_eventHandler.c ****     {
 323:.\Generated_Source\PSoC4/BLE_eventHandler.c ****         gattErr = CyBle_HtssWriteEventHandler(eventParam);
 324:.\Generated_Source\PSoC4/BLE_eventHandler.c ****     }
 325:.\Generated_Source\PSoC4/BLE_eventHandler.c **** #endif /* CYBLE_HTS_SERVER */
 326:.\Generated_Source\PSoC4/BLE_eventHandler.c **** #ifdef CYBLE_LLS_SERVER
 327:.\Generated_Source\PSoC4/BLE_eventHandler.c ****     if(((cyBle_eventHandlerFlag & CYBLE_CALLBACK) != 0u) && (gattErr == CYBLE_GATT_ERR_NONE))
 328:.\Generated_Source\PSoC4/BLE_eventHandler.c ****     {
 329:.\Generated_Source\PSoC4/BLE_eventHandler.c ****         gattErr = CyBle_LlssWriteEventHandler(eventParam);
 330:.\Generated_Source\PSoC4/BLE_eventHandler.c ****     }
 331:.\Generated_Source\PSoC4/BLE_eventHandler.c **** #endif /* CYBLE_LLS_SERVER */
 332:.\Generated_Source\PSoC4/BLE_eventHandler.c **** #ifdef CYBLE_LNS_SERVER
 333:.\Generated_Source\PSoC4/BLE_eventHandler.c ****     if(((cyBle_eventHandlerFlag & CYBLE_CALLBACK) != 0u) && (gattErr == CYBLE_GATT_ERR_NONE))
 334:.\Generated_Source\PSoC4/BLE_eventHandler.c ****     {
 335:.\Generated_Source\PSoC4/BLE_eventHandler.c ****         gattErr = CyBle_LnssWriteEventHandler(eventParam);
 336:.\Generated_Source\PSoC4/BLE_eventHandler.c ****     }
 337:.\Generated_Source\PSoC4/BLE_eventHandler.c **** #endif /* CYBLE_LNS_SERVER */
 338:.\Generated_Source\PSoC4/BLE_eventHandler.c **** #ifdef CYBLE_PASS_SERVER
 339:.\Generated_Source\PSoC4/BLE_eventHandler.c ****     if(((cyBle_eventHandlerFlag & CYBLE_CALLBACK) != 0u) && (gattErr == CYBLE_GATT_ERR_NONE))
 340:.\Generated_Source\PSoC4/BLE_eventHandler.c ****     {
 341:.\Generated_Source\PSoC4/BLE_eventHandler.c ****         gattErr = CyBle_PasssWriteEventHandler(eventParam);
 342:.\Generated_Source\PSoC4/BLE_eventHandler.c ****     }
 343:.\Generated_Source\PSoC4/BLE_eventHandler.c **** #endif /* CYBLE_PASS_SERVER */
 344:.\Generated_Source\PSoC4/BLE_eventHandler.c **** #ifdef CYBLE_RSCS_SERVER
 345:.\Generated_Source\PSoC4/BLE_eventHandler.c ****     if(((cyBle_eventHandlerFlag & CYBLE_CALLBACK) != 0u) && (gattErr == CYBLE_GATT_ERR_NONE))
 346:.\Generated_Source\PSoC4/BLE_eventHandler.c ****     {
 347:.\Generated_Source\PSoC4/BLE_eventHandler.c ****         gattErr = CyBle_RscssWriteEventHandler(eventParam);
 348:.\Generated_Source\PSoC4/BLE_eventHandler.c ****     }
 349:.\Generated_Source\PSoC4/BLE_eventHandler.c **** #endif /* CYBLE_RSCS_SERVER */
 350:.\Generated_Source\PSoC4/BLE_eventHandler.c **** #ifdef CYBLE_SCPS_SERVER
 351:.\Generated_Source\PSoC4/BLE_eventHandler.c ****     if(((cyBle_eventHandlerFlag & CYBLE_CALLBACK) != 0u) && (gattErr == CYBLE_GATT_ERR_NONE))
 352:.\Generated_Source\PSoC4/BLE_eventHandler.c ****     {
 353:.\Generated_Source\PSoC4/BLE_eventHandler.c ****         gattErr = CyBle_ScpssWriteEventHandler(eventParam);
 354:.\Generated_Source\PSoC4/BLE_eventHandler.c ****     }
 355:.\Generated_Source\PSoC4/BLE_eventHandler.c **** #endif /* CYBLE_SCPS_SERVER */
 356:.\Generated_Source\PSoC4/BLE_eventHandler.c **** #ifdef CYBLE_TPS_SERVER
 357:.\Generated_Source\PSoC4/BLE_eventHandler.c ****     if(((cyBle_eventHandlerFlag & CYBLE_CALLBACK) != 0u) && (gattErr == CYBLE_GATT_ERR_NONE))
 358:.\Generated_Source\PSoC4/BLE_eventHandler.c ****     {
 359:.\Generated_Source\PSoC4/BLE_eventHandler.c ****         gattErr = CyBle_TpssWriteEventHandler(eventParam);
 360:.\Generated_Source\PSoC4/BLE_eventHandler.c ****     }
 361:.\Generated_Source\PSoC4/BLE_eventHandler.c **** #endif /* CYBLE_TPS_SERVER */
 362:.\Generated_Source\PSoC4/BLE_eventHandler.c **** #ifdef CYBLE_UDS_SERVER
 363:.\Generated_Source\PSoC4/BLE_eventHandler.c ****     if(((cyBle_eventHandlerFlag & CYBLE_CALLBACK) != 0u) && (gattErr == CYBLE_GATT_ERR_NONE))
 364:.\Generated_Source\PSoC4/BLE_eventHandler.c ****     {
 365:.\Generated_Source\PSoC4/BLE_eventHandler.c ****         gattErr = CyBle_UdssWriteEventHandler(eventParam);
 366:.\Generated_Source\PSoC4/BLE_eventHandler.c ****     }
 367:.\Generated_Source\PSoC4/BLE_eventHandler.c **** #endif /* CYBLE_UDS_SERVER */
 368:.\Generated_Source\PSoC4/BLE_eventHandler.c **** #ifdef CYBLE_WPTS_SERVER
 369:.\Generated_Source\PSoC4/BLE_eventHandler.c ****     if(((cyBle_eventHandlerFlag & CYBLE_CALLBACK) != 0u) && (gattErr == CYBLE_GATT_ERR_NONE))
 370:.\Generated_Source\PSoC4/BLE_eventHandler.c ****     {
 371:.\Generated_Source\PSoC4/BLE_eventHandler.c ****         gattErr = CyBle_WptssWriteEventHandler(eventParam);
 372:.\Generated_Source\PSoC4/BLE_eventHandler.c ****     }
 373:.\Generated_Source\PSoC4/BLE_eventHandler.c **** #endif /* CYBLE_WPTS_SERVER */
 374:.\Generated_Source\PSoC4/BLE_eventHandler.c **** #ifdef CYBLE_WSS_SERVER
 375:.\Generated_Source\PSoC4/BLE_eventHandler.c ****     if(((cyBle_eventHandlerFlag & CYBLE_CALLBACK) != 0u) && (gattErr == CYBLE_GATT_ERR_NONE))
ARM GAS  C:\Users\ELECTR~1\AppData\Local\Temp\ccJM91Ce.s 			page 8


 376:.\Generated_Source\PSoC4/BLE_eventHandler.c ****     {
 377:.\Generated_Source\PSoC4/BLE_eventHandler.c ****         gattErr = CyBle_WsssWriteEventHandler(eventParam);
 378:.\Generated_Source\PSoC4/BLE_eventHandler.c ****     }
 379:.\Generated_Source\PSoC4/BLE_eventHandler.c **** #endif /* CYBLE_WSS_SERVER */
 380:.\Generated_Source\PSoC4/BLE_eventHandler.c **** 
 381:.\Generated_Source\PSoC4/BLE_eventHandler.c ****     /* Send response when event was handled by service */
 382:.\Generated_Source\PSoC4/BLE_eventHandler.c ****     if((cyBle_eventHandlerFlag & CYBLE_CALLBACK) == 0u)
 383:.\Generated_Source\PSoC4/BLE_eventHandler.c ****     {
 384:.\Generated_Source\PSoC4/BLE_eventHandler.c ****         if(gattErr != CYBLE_GATT_ERR_NONE)
 385:.\Generated_Source\PSoC4/BLE_eventHandler.c ****         {
 386:.\Generated_Source\PSoC4/BLE_eventHandler.c ****             CYBLE_GATTS_ERR_PARAM_T err_param;
 387:.\Generated_Source\PSoC4/BLE_eventHandler.c ****             
 388:.\Generated_Source\PSoC4/BLE_eventHandler.c ****             err_param.opcode = (uint8) CYBLE_GATT_WRITE_REQ;
 389:.\Generated_Source\PSoC4/BLE_eventHandler.c ****             err_param.attrHandle = eventParam->handleValPair.attrHandle;
 390:.\Generated_Source\PSoC4/BLE_eventHandler.c ****             err_param.errorCode = gattErr;
 391:.\Generated_Source\PSoC4/BLE_eventHandler.c **** 
 392:.\Generated_Source\PSoC4/BLE_eventHandler.c ****             /* Send Error Response */
 393:.\Generated_Source\PSoC4/BLE_eventHandler.c ****             (void)CyBle_GattsErrorRsp(eventParam->connHandle, &err_param);
 394:.\Generated_Source\PSoC4/BLE_eventHandler.c ****         }
 395:.\Generated_Source\PSoC4/BLE_eventHandler.c ****         else
 396:.\Generated_Source\PSoC4/BLE_eventHandler.c ****         {
 397:.\Generated_Source\PSoC4/BLE_eventHandler.c ****             (void)CyBle_GattsWriteRsp(eventParam->connHandle);
 398:.\Generated_Source\PSoC4/BLE_eventHandler.c ****         }
 399:.\Generated_Source\PSoC4/BLE_eventHandler.c ****     }
 400:.\Generated_Source\PSoC4/BLE_eventHandler.c **** }
 401:.\Generated_Source\PSoC4/BLE_eventHandler.c **** 
 402:.\Generated_Source\PSoC4/BLE_eventHandler.c **** 
 403:.\Generated_Source\PSoC4/BLE_eventHandler.c **** /****************************************************************************** 
 404:.\Generated_Source\PSoC4/BLE_eventHandler.c **** ##Function Name: CyBle_ValueConfirmation
 405:.\Generated_Source\PSoC4/BLE_eventHandler.c **** *******************************************************************************
 406:.\Generated_Source\PSoC4/BLE_eventHandler.c **** 
 407:.\Generated_Source\PSoC4/BLE_eventHandler.c **** Summary:
 408:.\Generated_Source\PSoC4/BLE_eventHandler.c ****  Handles the Value Confirmation request event from the BLE stack.
 409:.\Generated_Source\PSoC4/BLE_eventHandler.c **** 
 410:.\Generated_Source\PSoC4/BLE_eventHandler.c **** Parameters:
 411:.\Generated_Source\PSoC4/BLE_eventHandler.c ****  CYBLE_CONN_HANDLE_T *eventParam - Pointer to a structure
 412:.\Generated_Source\PSoC4/BLE_eventHandler.c ****     of type 'CYBLE_CONN_HANDLE_T'
 413:.\Generated_Source\PSoC4/BLE_eventHandler.c **** 
 414:.\Generated_Source\PSoC4/BLE_eventHandler.c **** Return:
 415:.\Generated_Source\PSoC4/BLE_eventHandler.c ****  None
 416:.\Generated_Source\PSoC4/BLE_eventHandler.c **** 
 417:.\Generated_Source\PSoC4/BLE_eventHandler.c **** ******************************************************************************/
 418:.\Generated_Source\PSoC4/BLE_eventHandler.c **** static void CyBle_ValueConfirmation(const CYBLE_CONN_HANDLE_T *eventParam)
 419:.\Generated_Source\PSoC4/BLE_eventHandler.c **** {
 420:.\Generated_Source\PSoC4/BLE_eventHandler.c ****     if(eventParam != NULL)
 421:.\Generated_Source\PSoC4/BLE_eventHandler.c ****     {
 422:.\Generated_Source\PSoC4/BLE_eventHandler.c ****     #ifdef CYBLE_BCS_SERVER
 423:.\Generated_Source\PSoC4/BLE_eventHandler.c ****         CyBle_BcssConfirmationEventHandler(eventParam);
 424:.\Generated_Source\PSoC4/BLE_eventHandler.c ****     #endif /* CYBLE_BCS_SERVER */
 425:.\Generated_Source\PSoC4/BLE_eventHandler.c ****     #ifdef CYBLE_BLS_SERVER
 426:.\Generated_Source\PSoC4/BLE_eventHandler.c ****         if((cyBle_eventHandlerFlag & CYBLE_CALLBACK) != 0u)
 427:.\Generated_Source\PSoC4/BLE_eventHandler.c ****         {
 428:.\Generated_Source\PSoC4/BLE_eventHandler.c ****             CyBle_BlssConfirmationEventHandler(eventParam);
 429:.\Generated_Source\PSoC4/BLE_eventHandler.c ****         }
 430:.\Generated_Source\PSoC4/BLE_eventHandler.c ****     #endif /* CYBLE_BLS_SERVER */
 431:.\Generated_Source\PSoC4/BLE_eventHandler.c ****     
 432:.\Generated_Source\PSoC4/BLE_eventHandler.c ****     #ifdef CYBLE_CGMS_SERVER
ARM GAS  C:\Users\ELECTR~1\AppData\Local\Temp\ccJM91Ce.s 			page 9


 433:.\Generated_Source\PSoC4/BLE_eventHandler.c ****         if((cyBle_eventHandlerFlag & CYBLE_CALLBACK) != 0u)
 434:.\Generated_Source\PSoC4/BLE_eventHandler.c ****         {
 435:.\Generated_Source\PSoC4/BLE_eventHandler.c ****             CyBle_CgmssConfirmationEventHandler(eventParam);
 436:.\Generated_Source\PSoC4/BLE_eventHandler.c ****         }
 437:.\Generated_Source\PSoC4/BLE_eventHandler.c ****     #endif /* CYBLE_CGMS_SERVER */
 438:.\Generated_Source\PSoC4/BLE_eventHandler.c ****     
 439:.\Generated_Source\PSoC4/BLE_eventHandler.c ****     #ifdef CYBLE_CPS_SERVER
 440:.\Generated_Source\PSoC4/BLE_eventHandler.c ****         if((cyBle_eventHandlerFlag & CYBLE_CALLBACK) != 0u)
 441:.\Generated_Source\PSoC4/BLE_eventHandler.c ****         {
 442:.\Generated_Source\PSoC4/BLE_eventHandler.c ****             CyBle_CpssConfirmationEventHandler(eventParam);
 443:.\Generated_Source\PSoC4/BLE_eventHandler.c ****         }
 444:.\Generated_Source\PSoC4/BLE_eventHandler.c ****     #endif /* CYBLE_CPS_SERVER */
 445:.\Generated_Source\PSoC4/BLE_eventHandler.c ****     
 446:.\Generated_Source\PSoC4/BLE_eventHandler.c ****     #ifdef CYBLE_CSCS_SERVER
 447:.\Generated_Source\PSoC4/BLE_eventHandler.c ****         if((cyBle_eventHandlerFlag & CYBLE_CALLBACK) != 0u)
 448:.\Generated_Source\PSoC4/BLE_eventHandler.c ****         {
 449:.\Generated_Source\PSoC4/BLE_eventHandler.c ****             CyBle_CscssConfirmationEventHandler(eventParam);
 450:.\Generated_Source\PSoC4/BLE_eventHandler.c ****         }
 451:.\Generated_Source\PSoC4/BLE_eventHandler.c ****     #endif /* CYBLE_CSCS_SERVER */
 452:.\Generated_Source\PSoC4/BLE_eventHandler.c ****     
 453:.\Generated_Source\PSoC4/BLE_eventHandler.c ****     #ifdef CYBLE_ESS_SERVER
 454:.\Generated_Source\PSoC4/BLE_eventHandler.c ****         if((cyBle_eventHandlerFlag & CYBLE_CALLBACK) != 0u)
 455:.\Generated_Source\PSoC4/BLE_eventHandler.c ****         {
 456:.\Generated_Source\PSoC4/BLE_eventHandler.c ****             CyBle_EsssConfirmationEventHandler(eventParam);
 457:.\Generated_Source\PSoC4/BLE_eventHandler.c ****         }
 458:.\Generated_Source\PSoC4/BLE_eventHandler.c ****     #endif /* CYBLE_ESS_SERVER */
 459:.\Generated_Source\PSoC4/BLE_eventHandler.c ****     
 460:.\Generated_Source\PSoC4/BLE_eventHandler.c ****     #ifdef CYBLE_GLS_SERVER
 461:.\Generated_Source\PSoC4/BLE_eventHandler.c ****         if((cyBle_eventHandlerFlag & CYBLE_CALLBACK) != 0u)
 462:.\Generated_Source\PSoC4/BLE_eventHandler.c ****         {
 463:.\Generated_Source\PSoC4/BLE_eventHandler.c ****             CyBle_GlssConfirmationEventHandler(eventParam);
 464:.\Generated_Source\PSoC4/BLE_eventHandler.c ****         }
 465:.\Generated_Source\PSoC4/BLE_eventHandler.c ****     #endif /* CYBLE_GLS_SERVER */
 466:.\Generated_Source\PSoC4/BLE_eventHandler.c ****     
 467:.\Generated_Source\PSoC4/BLE_eventHandler.c ****     #ifdef CYBLE_HTS_SERVER
 468:.\Generated_Source\PSoC4/BLE_eventHandler.c ****         if((cyBle_eventHandlerFlag & CYBLE_CALLBACK) != 0u)
 469:.\Generated_Source\PSoC4/BLE_eventHandler.c ****         {
 470:.\Generated_Source\PSoC4/BLE_eventHandler.c ****             CyBle_HtssConfirmationEventHandler(eventParam);
 471:.\Generated_Source\PSoC4/BLE_eventHandler.c ****         }
 472:.\Generated_Source\PSoC4/BLE_eventHandler.c ****     #endif /* CYBLE_HTS_SERVER */
 473:.\Generated_Source\PSoC4/BLE_eventHandler.c **** 
 474:.\Generated_Source\PSoC4/BLE_eventHandler.c ****     #ifdef CYBLE_LNS_SERVER
 475:.\Generated_Source\PSoC4/BLE_eventHandler.c ****         if((cyBle_eventHandlerFlag & CYBLE_CALLBACK) != 0u)
 476:.\Generated_Source\PSoC4/BLE_eventHandler.c ****         {
 477:.\Generated_Source\PSoC4/BLE_eventHandler.c ****             CyBle_LnssConfirmationEventHandler(eventParam);
 478:.\Generated_Source\PSoC4/BLE_eventHandler.c ****         }
 479:.\Generated_Source\PSoC4/BLE_eventHandler.c ****     #endif /* CYBLE_LNS_SERVER */
 480:.\Generated_Source\PSoC4/BLE_eventHandler.c ****     
 481:.\Generated_Source\PSoC4/BLE_eventHandler.c ****     #ifdef CYBLE_RSCS_SERVER
 482:.\Generated_Source\PSoC4/BLE_eventHandler.c ****         if((cyBle_eventHandlerFlag & CYBLE_CALLBACK) != 0u)
 483:.\Generated_Source\PSoC4/BLE_eventHandler.c ****         {
 484:.\Generated_Source\PSoC4/BLE_eventHandler.c ****             CyBle_RscssConfirmationEventHandler(eventParam);
 485:.\Generated_Source\PSoC4/BLE_eventHandler.c ****         }
 486:.\Generated_Source\PSoC4/BLE_eventHandler.c ****     #endif /* CYBLE_RSCS_SERVER */
 487:.\Generated_Source\PSoC4/BLE_eventHandler.c ****     
 488:.\Generated_Source\PSoC4/BLE_eventHandler.c ****     #ifdef CYBLE_UDS_SERVER
 489:.\Generated_Source\PSoC4/BLE_eventHandler.c ****         if((cyBle_eventHandlerFlag & CYBLE_CALLBACK) != 0u)
ARM GAS  C:\Users\ELECTR~1\AppData\Local\Temp\ccJM91Ce.s 			page 10


 490:.\Generated_Source\PSoC4/BLE_eventHandler.c ****         {
 491:.\Generated_Source\PSoC4/BLE_eventHandler.c ****             CyBle_UdssConfirmationEventHandler(eventParam);
 492:.\Generated_Source\PSoC4/BLE_eventHandler.c ****         }
 493:.\Generated_Source\PSoC4/BLE_eventHandler.c ****     #endif /* CYBLE_UDS_SERVER */
 494:.\Generated_Source\PSoC4/BLE_eventHandler.c ****     
 495:.\Generated_Source\PSoC4/BLE_eventHandler.c ****     #ifdef CYBLE_WPTS_SERVER
 496:.\Generated_Source\PSoC4/BLE_eventHandler.c ****         if((cyBle_eventHandlerFlag & CYBLE_CALLBACK) != 0u)
 497:.\Generated_Source\PSoC4/BLE_eventHandler.c ****         {
 498:.\Generated_Source\PSoC4/BLE_eventHandler.c ****             CyBle_WptssConfirmationEventHandler(eventParam);
 499:.\Generated_Source\PSoC4/BLE_eventHandler.c ****         }
 500:.\Generated_Source\PSoC4/BLE_eventHandler.c ****     #endif /* CYBLE_WPTS_SERVER */
 501:.\Generated_Source\PSoC4/BLE_eventHandler.c ****     
 502:.\Generated_Source\PSoC4/BLE_eventHandler.c ****     #ifdef CYBLE_WSS_SERVER
 503:.\Generated_Source\PSoC4/BLE_eventHandler.c ****         if((cyBle_eventHandlerFlag & CYBLE_CALLBACK) != 0u)
 504:.\Generated_Source\PSoC4/BLE_eventHandler.c ****         {
 505:.\Generated_Source\PSoC4/BLE_eventHandler.c ****             CyBle_WsssConfirmationEventHandler(eventParam);
 506:.\Generated_Source\PSoC4/BLE_eventHandler.c ****         }
 507:.\Generated_Source\PSoC4/BLE_eventHandler.c ****     #endif /* CYBLE_WSS_SERVER */
 508:.\Generated_Source\PSoC4/BLE_eventHandler.c ****     }
 509:.\Generated_Source\PSoC4/BLE_eventHandler.c **** }
 510:.\Generated_Source\PSoC4/BLE_eventHandler.c **** 
 511:.\Generated_Source\PSoC4/BLE_eventHandler.c **** #endif /* CYBLE_GATT_ROLE_SERVER */
 512:.\Generated_Source\PSoC4/BLE_eventHandler.c **** 
 513:.\Generated_Source\PSoC4/BLE_eventHandler.c **** 
 514:.\Generated_Source\PSoC4/BLE_eventHandler.c **** #if (CYBLE_GATT_ROLE_CLIENT)
 515:.\Generated_Source\PSoC4/BLE_eventHandler.c **** 
 516:.\Generated_Source\PSoC4/BLE_eventHandler.c **** /****************************************************************************** 
 517:.\Generated_Source\PSoC4/BLE_eventHandler.c **** ##Function Name: CyBle_GattcWriteResponseEventHandler
 518:.\Generated_Source\PSoC4/BLE_eventHandler.c **** *******************************************************************************
 519:.\Generated_Source\PSoC4/BLE_eventHandler.c **** 
 520:.\Generated_Source\PSoC4/BLE_eventHandler.c **** Summary:
 521:.\Generated_Source\PSoC4/BLE_eventHandler.c ****  Handles the Write response event from the BLE stack.
 522:.\Generated_Source\PSoC4/BLE_eventHandler.c **** 
 523:.\Generated_Source\PSoC4/BLE_eventHandler.c **** Parameters:
 524:.\Generated_Source\PSoC4/BLE_eventHandler.c ****  CYBLE_CONN_HANDLE_T *eventParam - Pointer to a structure
 525:.\Generated_Source\PSoC4/BLE_eventHandler.c ****     of type 'CYBLE_CONN_HANDLE_T'
 526:.\Generated_Source\PSoC4/BLE_eventHandler.c **** 
 527:.\Generated_Source\PSoC4/BLE_eventHandler.c **** Return:
 528:.\Generated_Source\PSoC4/BLE_eventHandler.c ****  None
 529:.\Generated_Source\PSoC4/BLE_eventHandler.c **** 
 530:.\Generated_Source\PSoC4/BLE_eventHandler.c **** ******************************************************************************/
 531:.\Generated_Source\PSoC4/BLE_eventHandler.c **** static void CyBle_GattcWriteResponseEventHandler(const CYBLE_CONN_HANDLE_T *eventParam)
 532:.\Generated_Source\PSoC4/BLE_eventHandler.c **** {
 533:.\Generated_Source\PSoC4/BLE_eventHandler.c **** #ifdef CYBLE_ANCS_CLIENT
 534:.\Generated_Source\PSoC4/BLE_eventHandler.c ****     CyBle_AncscWriteResponseEventHandler(eventParam);
 535:.\Generated_Source\PSoC4/BLE_eventHandler.c **** #endif /* CYBLE_ANCS_CLIENT */
 536:.\Generated_Source\PSoC4/BLE_eventHandler.c **** 
 537:.\Generated_Source\PSoC4/BLE_eventHandler.c **** #ifdef CYBLE_ANS_CLIENT
 538:.\Generated_Source\PSoC4/BLE_eventHandler.c ****     if((cyBle_eventHandlerFlag & CYBLE_CALLBACK) != 0u)
 539:.\Generated_Source\PSoC4/BLE_eventHandler.c ****     {
 540:.\Generated_Source\PSoC4/BLE_eventHandler.c ****         CyBle_AnscWriteResponseEventHandler(eventParam);
 541:.\Generated_Source\PSoC4/BLE_eventHandler.c ****     }
 542:.\Generated_Source\PSoC4/BLE_eventHandler.c **** #endif /* CYBLE_ANS_CLIENT */
 543:.\Generated_Source\PSoC4/BLE_eventHandler.c **** 
 544:.\Generated_Source\PSoC4/BLE_eventHandler.c **** #ifdef CYBLE_BAS_CLIENT
 545:.\Generated_Source\PSoC4/BLE_eventHandler.c ****     if((cyBle_eventHandlerFlag & CYBLE_CALLBACK) != 0u)
 546:.\Generated_Source\PSoC4/BLE_eventHandler.c ****     {
ARM GAS  C:\Users\ELECTR~1\AppData\Local\Temp\ccJM91Ce.s 			page 11


 547:.\Generated_Source\PSoC4/BLE_eventHandler.c ****         CyBle_BascWriteResponseEventHandler(eventParam);
 548:.\Generated_Source\PSoC4/BLE_eventHandler.c ****     }
 549:.\Generated_Source\PSoC4/BLE_eventHandler.c **** #endif /* CYBLE_BAS_CLIENT */
 550:.\Generated_Source\PSoC4/BLE_eventHandler.c **** 
 551:.\Generated_Source\PSoC4/BLE_eventHandler.c **** #ifdef CYBLE_BLS_CLIENT
 552:.\Generated_Source\PSoC4/BLE_eventHandler.c ****     if((cyBle_eventHandlerFlag & CYBLE_CALLBACK) != 0u)
 553:.\Generated_Source\PSoC4/BLE_eventHandler.c ****     {
 554:.\Generated_Source\PSoC4/BLE_eventHandler.c ****         CyBle_BlscWriteResponseEventHandler(eventParam);
 555:.\Generated_Source\PSoC4/BLE_eventHandler.c ****     }
 556:.\Generated_Source\PSoC4/BLE_eventHandler.c **** #endif /* CYBLE_BLS_CLIENT */
 557:.\Generated_Source\PSoC4/BLE_eventHandler.c **** 
 558:.\Generated_Source\PSoC4/BLE_eventHandler.c **** #ifdef CYBLE_BMS_CLIENT
 559:.\Generated_Source\PSoC4/BLE_eventHandler.c ****     if((cyBle_eventHandlerFlag & CYBLE_CALLBACK) != 0u)
 560:.\Generated_Source\PSoC4/BLE_eventHandler.c ****     {
 561:.\Generated_Source\PSoC4/BLE_eventHandler.c ****         CyBle_BmscWriteResponseEventHandler(eventParam);
 562:.\Generated_Source\PSoC4/BLE_eventHandler.c ****     }
 563:.\Generated_Source\PSoC4/BLE_eventHandler.c **** #endif /* CYBLE_BMS_CLIENT */
 564:.\Generated_Source\PSoC4/BLE_eventHandler.c **** 
 565:.\Generated_Source\PSoC4/BLE_eventHandler.c **** #ifdef CYBLE_CGMS_CLIENT
 566:.\Generated_Source\PSoC4/BLE_eventHandler.c ****     if((cyBle_eventHandlerFlag & CYBLE_CALLBACK) != 0u)
 567:.\Generated_Source\PSoC4/BLE_eventHandler.c ****     {
 568:.\Generated_Source\PSoC4/BLE_eventHandler.c ****         CyBle_CgmscWriteResponseEventHandler(eventParam);
 569:.\Generated_Source\PSoC4/BLE_eventHandler.c ****     }
 570:.\Generated_Source\PSoC4/BLE_eventHandler.c **** #endif /* CYBLE_CGMS_CLIENT */
 571:.\Generated_Source\PSoC4/BLE_eventHandler.c **** 
 572:.\Generated_Source\PSoC4/BLE_eventHandler.c **** #ifdef CYBLE_CPS_CLIENT
 573:.\Generated_Source\PSoC4/BLE_eventHandler.c ****     if((cyBle_eventHandlerFlag & CYBLE_CALLBACK) != 0u)
 574:.\Generated_Source\PSoC4/BLE_eventHandler.c ****     {
 575:.\Generated_Source\PSoC4/BLE_eventHandler.c ****         CyBle_CpscWriteResponseEventHandler(eventParam);
 576:.\Generated_Source\PSoC4/BLE_eventHandler.c ****     }
 577:.\Generated_Source\PSoC4/BLE_eventHandler.c **** #endif /* CYBLE_CPS_CLIENT */
 578:.\Generated_Source\PSoC4/BLE_eventHandler.c **** 
 579:.\Generated_Source\PSoC4/BLE_eventHandler.c **** #ifdef CYBLE_CSCS_CLIENT
 580:.\Generated_Source\PSoC4/BLE_eventHandler.c ****     if((cyBle_eventHandlerFlag & CYBLE_CALLBACK) != 0u)
 581:.\Generated_Source\PSoC4/BLE_eventHandler.c ****     {
 582:.\Generated_Source\PSoC4/BLE_eventHandler.c ****         CyBle_CscscWriteResponseEventHandler(eventParam);
 583:.\Generated_Source\PSoC4/BLE_eventHandler.c ****     }
 584:.\Generated_Source\PSoC4/BLE_eventHandler.c **** #endif /* CYBLE_CSCS_CLIENT */
 585:.\Generated_Source\PSoC4/BLE_eventHandler.c **** 
 586:.\Generated_Source\PSoC4/BLE_eventHandler.c **** #ifdef CYBLE_CTS_CLIENT
 587:.\Generated_Source\PSoC4/BLE_eventHandler.c ****     if((cyBle_eventHandlerFlag & CYBLE_CALLBACK) != 0u)
 588:.\Generated_Source\PSoC4/BLE_eventHandler.c ****     {
 589:.\Generated_Source\PSoC4/BLE_eventHandler.c ****         CyBle_CtscWriteResponseEventHandler(eventParam);
 590:.\Generated_Source\PSoC4/BLE_eventHandler.c ****     }
 591:.\Generated_Source\PSoC4/BLE_eventHandler.c **** #endif /* CYBLE_CTS_CLIENT */
 592:.\Generated_Source\PSoC4/BLE_eventHandler.c **** 
 593:.\Generated_Source\PSoC4/BLE_eventHandler.c **** #ifdef CYBLE_ESS_CLIENT
 594:.\Generated_Source\PSoC4/BLE_eventHandler.c ****     if((cyBle_eventHandlerFlag & CYBLE_CALLBACK) != 0u)
 595:.\Generated_Source\PSoC4/BLE_eventHandler.c ****     {
 596:.\Generated_Source\PSoC4/BLE_eventHandler.c ****         CyBle_EsscWriteResponseEventHandler(eventParam);
 597:.\Generated_Source\PSoC4/BLE_eventHandler.c ****     }
 598:.\Generated_Source\PSoC4/BLE_eventHandler.c **** #endif /* CYBLE_ESS_CLIENT */
 599:.\Generated_Source\PSoC4/BLE_eventHandler.c **** 
 600:.\Generated_Source\PSoC4/BLE_eventHandler.c **** #ifdef CYBLE_GLS_CLIENT
 601:.\Generated_Source\PSoC4/BLE_eventHandler.c ****     if((cyBle_eventHandlerFlag & CYBLE_CALLBACK) != 0u)
 602:.\Generated_Source\PSoC4/BLE_eventHandler.c ****     {
 603:.\Generated_Source\PSoC4/BLE_eventHandler.c ****         CyBle_GlscWriteResponseEventHandler(eventParam);
ARM GAS  C:\Users\ELECTR~1\AppData\Local\Temp\ccJM91Ce.s 			page 12


 604:.\Generated_Source\PSoC4/BLE_eventHandler.c ****     }
 605:.\Generated_Source\PSoC4/BLE_eventHandler.c **** #endif /* CYBLE_GLS_CLIENT */
 606:.\Generated_Source\PSoC4/BLE_eventHandler.c **** 
 607:.\Generated_Source\PSoC4/BLE_eventHandler.c **** #ifdef CYBLE_HIDS_CLIENT
 608:.\Generated_Source\PSoC4/BLE_eventHandler.c ****     if((cyBle_eventHandlerFlag & CYBLE_CALLBACK) != 0u)
 609:.\Generated_Source\PSoC4/BLE_eventHandler.c ****     {
 610:.\Generated_Source\PSoC4/BLE_eventHandler.c ****         CyBle_HidscWriteResponseEventHandler(eventParam);
 611:.\Generated_Source\PSoC4/BLE_eventHandler.c ****     }
 612:.\Generated_Source\PSoC4/BLE_eventHandler.c **** #endif /* CYBLE_HIDS_CLIENT */
 613:.\Generated_Source\PSoC4/BLE_eventHandler.c **** 
 614:.\Generated_Source\PSoC4/BLE_eventHandler.c **** #ifdef CYBLE_HRS_CLIENT
 615:.\Generated_Source\PSoC4/BLE_eventHandler.c ****     if((cyBle_eventHandlerFlag & CYBLE_CALLBACK) != 0u)
 616:.\Generated_Source\PSoC4/BLE_eventHandler.c ****     {
 617:.\Generated_Source\PSoC4/BLE_eventHandler.c ****         CyBle_HrscWriteResponseEventHandler(eventParam);
 618:.\Generated_Source\PSoC4/BLE_eventHandler.c ****     }
 619:.\Generated_Source\PSoC4/BLE_eventHandler.c **** #endif /* CYBLE_HRS_CLIENT */
 620:.\Generated_Source\PSoC4/BLE_eventHandler.c **** 
 621:.\Generated_Source\PSoC4/BLE_eventHandler.c **** #ifdef CYBLE_HTS_CLIENT
 622:.\Generated_Source\PSoC4/BLE_eventHandler.c ****     if((cyBle_eventHandlerFlag & CYBLE_CALLBACK) != 0u)
 623:.\Generated_Source\PSoC4/BLE_eventHandler.c ****     {
 624:.\Generated_Source\PSoC4/BLE_eventHandler.c ****         CyBle_HtscWriteResponseEventHandler(eventParam);
 625:.\Generated_Source\PSoC4/BLE_eventHandler.c ****     }
 626:.\Generated_Source\PSoC4/BLE_eventHandler.c **** #endif /* CYBLE_HTS_CLIENT */
 627:.\Generated_Source\PSoC4/BLE_eventHandler.c **** 
 628:.\Generated_Source\PSoC4/BLE_eventHandler.c **** #ifdef CYBLE_LLS_CLIENT
 629:.\Generated_Source\PSoC4/BLE_eventHandler.c ****     if((cyBle_eventHandlerFlag & CYBLE_CALLBACK) != 0u)
 630:.\Generated_Source\PSoC4/BLE_eventHandler.c ****     {
 631:.\Generated_Source\PSoC4/BLE_eventHandler.c ****         CyBle_LlscWriteResponseEventHandler(eventParam);
 632:.\Generated_Source\PSoC4/BLE_eventHandler.c ****     }
 633:.\Generated_Source\PSoC4/BLE_eventHandler.c **** #endif /* CYBLE_LLS_CLIENT */
 634:.\Generated_Source\PSoC4/BLE_eventHandler.c **** 
 635:.\Generated_Source\PSoC4/BLE_eventHandler.c **** #ifdef CYBLE_LNS_CLIENT
 636:.\Generated_Source\PSoC4/BLE_eventHandler.c ****     if((cyBle_eventHandlerFlag & CYBLE_CALLBACK) != 0u)
 637:.\Generated_Source\PSoC4/BLE_eventHandler.c ****     {
 638:.\Generated_Source\PSoC4/BLE_eventHandler.c ****         CyBle_LnscWriteResponseEventHandler(eventParam);
 639:.\Generated_Source\PSoC4/BLE_eventHandler.c ****     }
 640:.\Generated_Source\PSoC4/BLE_eventHandler.c **** #endif /* CYBLE_LNS_CLIENT */
 641:.\Generated_Source\PSoC4/BLE_eventHandler.c **** 
 642:.\Generated_Source\PSoC4/BLE_eventHandler.c **** #ifdef CYBLE_PASS_CLIENT
 643:.\Generated_Source\PSoC4/BLE_eventHandler.c ****     if((cyBle_eventHandlerFlag & CYBLE_CALLBACK) != 0u)
 644:.\Generated_Source\PSoC4/BLE_eventHandler.c ****     {
 645:.\Generated_Source\PSoC4/BLE_eventHandler.c ****         CyBle_PasscWriteResponseEventHandler(eventParam);
 646:.\Generated_Source\PSoC4/BLE_eventHandler.c ****     }
 647:.\Generated_Source\PSoC4/BLE_eventHandler.c **** #endif /* CYBLE_PASS_CLIENT */
 648:.\Generated_Source\PSoC4/BLE_eventHandler.c **** 
 649:.\Generated_Source\PSoC4/BLE_eventHandler.c **** #ifdef CYBLE_RSCS_CLIENT
 650:.\Generated_Source\PSoC4/BLE_eventHandler.c ****     if((cyBle_eventHandlerFlag & CYBLE_CALLBACK) != 0u)
 651:.\Generated_Source\PSoC4/BLE_eventHandler.c ****     {
 652:.\Generated_Source\PSoC4/BLE_eventHandler.c ****         CyBle_RscscWriteResponseEventHandler(eventParam);
 653:.\Generated_Source\PSoC4/BLE_eventHandler.c ****     }
 654:.\Generated_Source\PSoC4/BLE_eventHandler.c **** #endif /* CYBLE_RSCS_CLIENT */
 655:.\Generated_Source\PSoC4/BLE_eventHandler.c **** 
 656:.\Generated_Source\PSoC4/BLE_eventHandler.c **** #ifdef CYBLE_SCPS_CLIENT
 657:.\Generated_Source\PSoC4/BLE_eventHandler.c ****     if((cyBle_eventHandlerFlag & CYBLE_CALLBACK) != 0u)
 658:.\Generated_Source\PSoC4/BLE_eventHandler.c ****     {
 659:.\Generated_Source\PSoC4/BLE_eventHandler.c ****         CyBle_ScpscWriteResponseEventHandler(eventParam);
 660:.\Generated_Source\PSoC4/BLE_eventHandler.c ****     }
ARM GAS  C:\Users\ELECTR~1\AppData\Local\Temp\ccJM91Ce.s 			page 13


 661:.\Generated_Source\PSoC4/BLE_eventHandler.c **** #endif /* CYBLE_SCPS_CLIENT */
 662:.\Generated_Source\PSoC4/BLE_eventHandler.c **** 
 663:.\Generated_Source\PSoC4/BLE_eventHandler.c **** #ifdef CYBLE_TPS_CLIENT
 664:.\Generated_Source\PSoC4/BLE_eventHandler.c ****     if((cyBle_eventHandlerFlag & CYBLE_CALLBACK) != 0u)
 665:.\Generated_Source\PSoC4/BLE_eventHandler.c ****     {
 666:.\Generated_Source\PSoC4/BLE_eventHandler.c ****         CyBle_TpscWriteResponseEventHandler(eventParam);
 667:.\Generated_Source\PSoC4/BLE_eventHandler.c ****     }
 668:.\Generated_Source\PSoC4/BLE_eventHandler.c **** #endif /* CYBLE_TPS_CLIENT */
 669:.\Generated_Source\PSoC4/BLE_eventHandler.c **** 
 670:.\Generated_Source\PSoC4/BLE_eventHandler.c **** #ifdef CYBLE_UDS_CLIENT
 671:.\Generated_Source\PSoC4/BLE_eventHandler.c ****     if((cyBle_eventHandlerFlag & CYBLE_CALLBACK) != 0u)
 672:.\Generated_Source\PSoC4/BLE_eventHandler.c ****     {
 673:.\Generated_Source\PSoC4/BLE_eventHandler.c ****         CyBle_UdscWriteResponseEventHandler(eventParam);
 674:.\Generated_Source\PSoC4/BLE_eventHandler.c ****     }
 675:.\Generated_Source\PSoC4/BLE_eventHandler.c **** #endif /* CYBLE_UDS_CLIENT */
 676:.\Generated_Source\PSoC4/BLE_eventHandler.c **** #ifdef CYBLE_WPTS_CLIENT
 677:.\Generated_Source\PSoC4/BLE_eventHandler.c ****     if((cyBle_eventHandlerFlag & CYBLE_CALLBACK) != 0u)
 678:.\Generated_Source\PSoC4/BLE_eventHandler.c ****     {
 679:.\Generated_Source\PSoC4/BLE_eventHandler.c ****         CyBle_WptscWriteResponseEventHandler(eventParam);
 680:.\Generated_Source\PSoC4/BLE_eventHandler.c ****     }
 681:.\Generated_Source\PSoC4/BLE_eventHandler.c **** #endif /* CYBLE_WPTS_CLIENT */
 682:.\Generated_Source\PSoC4/BLE_eventHandler.c **** #ifdef CYBLE_WSS_CLIENT
 683:.\Generated_Source\PSoC4/BLE_eventHandler.c ****     if((cyBle_eventHandlerFlag & CYBLE_CALLBACK) != 0u)
 684:.\Generated_Source\PSoC4/BLE_eventHandler.c ****     {
 685:.\Generated_Source\PSoC4/BLE_eventHandler.c ****         CyBle_WsscWriteResponseEventHandler(eventParam);
 686:.\Generated_Source\PSoC4/BLE_eventHandler.c ****     }
 687:.\Generated_Source\PSoC4/BLE_eventHandler.c **** #endif /* CYBLE_WSS_CLIENT */
 688:.\Generated_Source\PSoC4/BLE_eventHandler.c **** }
 689:.\Generated_Source\PSoC4/BLE_eventHandler.c **** 
 690:.\Generated_Source\PSoC4/BLE_eventHandler.c **** 
 691:.\Generated_Source\PSoC4/BLE_eventHandler.c **** /******************************************************************************    
 692:.\Generated_Source\PSoC4/BLE_eventHandler.c **** ##Function Name: CyBle_NotificationEventHandler
 693:.\Generated_Source\PSoC4/BLE_eventHandler.c **** *******************************************************************************
 694:.\Generated_Source\PSoC4/BLE_eventHandler.c **** 
 695:.\Generated_Source\PSoC4/BLE_eventHandler.c **** Summary:
 696:.\Generated_Source\PSoC4/BLE_eventHandler.c ****  Handles the Notification event from BLE stack.
 697:.\Generated_Source\PSoC4/BLE_eventHandler.c **** 
 698:.\Generated_Source\PSoC4/BLE_eventHandler.c **** Parameters:
 699:.\Generated_Source\PSoC4/BLE_eventHandler.c ****  CYBLE_GATTC_HANDLE_VALUE_NTF_PARAM_T * eventParam - event parameter
 700:.\Generated_Source\PSoC4/BLE_eventHandler.c **** 
 701:.\Generated_Source\PSoC4/BLE_eventHandler.c **** Return:
 702:.\Generated_Source\PSoC4/BLE_eventHandler.c ****  None
 703:.\Generated_Source\PSoC4/BLE_eventHandler.c **** 
 704:.\Generated_Source\PSoC4/BLE_eventHandler.c **** ******************************************************************************/
 705:.\Generated_Source\PSoC4/BLE_eventHandler.c **** static void CyBle_NotificationEventHandler(CYBLE_GATTC_HANDLE_VALUE_NTF_PARAM_T *eventParam)
 706:.\Generated_Source\PSoC4/BLE_eventHandler.c **** {
 707:.\Generated_Source\PSoC4/BLE_eventHandler.c **** #ifdef CYBLE_ANCS_CLIENT
 708:.\Generated_Source\PSoC4/BLE_eventHandler.c ****     CyBle_AncscNotificationEventHandler(eventParam);
 709:.\Generated_Source\PSoC4/BLE_eventHandler.c **** #endif /* CYBLE_ANCS_CLIENT */
 710:.\Generated_Source\PSoC4/BLE_eventHandler.c **** #ifdef CYBLE_ANS_CLIENT
 711:.\Generated_Source\PSoC4/BLE_eventHandler.c ****     if((cyBle_eventHandlerFlag & CYBLE_CALLBACK) != 0u)
 712:.\Generated_Source\PSoC4/BLE_eventHandler.c ****     {
 713:.\Generated_Source\PSoC4/BLE_eventHandler.c ****         CyBle_AnscNotificationEventHandler(eventParam);
 714:.\Generated_Source\PSoC4/BLE_eventHandler.c ****     }
 715:.\Generated_Source\PSoC4/BLE_eventHandler.c **** #endif /* CYBLE_ANS_CLIENT */
 716:.\Generated_Source\PSoC4/BLE_eventHandler.c **** #ifdef CYBLE_BAS_CLIENT
 717:.\Generated_Source\PSoC4/BLE_eventHandler.c ****     if((cyBle_eventHandlerFlag & CYBLE_CALLBACK) != 0u)
ARM GAS  C:\Users\ELECTR~1\AppData\Local\Temp\ccJM91Ce.s 			page 14


 718:.\Generated_Source\PSoC4/BLE_eventHandler.c ****     {
 719:.\Generated_Source\PSoC4/BLE_eventHandler.c ****         CyBle_BascNotificationEventHandler(eventParam);
 720:.\Generated_Source\PSoC4/BLE_eventHandler.c ****     }
 721:.\Generated_Source\PSoC4/BLE_eventHandler.c **** #endif /* CYBLE_BAS_CLIENT */
 722:.\Generated_Source\PSoC4/BLE_eventHandler.c **** #ifdef CYBLE_BLS_CLIENT
 723:.\Generated_Source\PSoC4/BLE_eventHandler.c ****     if((cyBle_eventHandlerFlag & CYBLE_CALLBACK) != 0u)
 724:.\Generated_Source\PSoC4/BLE_eventHandler.c ****     {
 725:.\Generated_Source\PSoC4/BLE_eventHandler.c ****         CyBle_BlscNotificationEventHandler(eventParam);
 726:.\Generated_Source\PSoC4/BLE_eventHandler.c ****     }
 727:.\Generated_Source\PSoC4/BLE_eventHandler.c **** #endif /* CYBLE_BLS_CLIENT */
 728:.\Generated_Source\PSoC4/BLE_eventHandler.c **** #ifdef CYBLE_CGMS_CLIENT
 729:.\Generated_Source\PSoC4/BLE_eventHandler.c ****     if((cyBle_eventHandlerFlag & CYBLE_CALLBACK) != 0u)
 730:.\Generated_Source\PSoC4/BLE_eventHandler.c ****     {
 731:.\Generated_Source\PSoC4/BLE_eventHandler.c ****         CyBle_CgmscNotificationEventHandler(eventParam);
 732:.\Generated_Source\PSoC4/BLE_eventHandler.c ****     }
 733:.\Generated_Source\PSoC4/BLE_eventHandler.c **** #endif /* CYBLE_CGMS_CLIENT */
 734:.\Generated_Source\PSoC4/BLE_eventHandler.c **** #ifdef CYBLE_CPS_CLIENT
 735:.\Generated_Source\PSoC4/BLE_eventHandler.c ****     if((cyBle_eventHandlerFlag & CYBLE_CALLBACK) != 0u)
 736:.\Generated_Source\PSoC4/BLE_eventHandler.c ****     {
 737:.\Generated_Source\PSoC4/BLE_eventHandler.c ****         CyBle_CpscNotificationEventHandler(eventParam);
 738:.\Generated_Source\PSoC4/BLE_eventHandler.c ****     }
 739:.\Generated_Source\PSoC4/BLE_eventHandler.c **** #endif /* CYBLE_CPS_CLIENT */
 740:.\Generated_Source\PSoC4/BLE_eventHandler.c **** #ifdef CYBLE_CSCS_CLIENT
 741:.\Generated_Source\PSoC4/BLE_eventHandler.c ****     if((cyBle_eventHandlerFlag & CYBLE_CALLBACK) != 0u)
 742:.\Generated_Source\PSoC4/BLE_eventHandler.c ****     {
 743:.\Generated_Source\PSoC4/BLE_eventHandler.c ****         CyBle_CscscNotificationEventHandler(eventParam);
 744:.\Generated_Source\PSoC4/BLE_eventHandler.c ****     }
 745:.\Generated_Source\PSoC4/BLE_eventHandler.c **** #endif /* CYBLE_CSCS_CLIENT */
 746:.\Generated_Source\PSoC4/BLE_eventHandler.c **** #ifdef CYBLE_CTS_CLIENT
 747:.\Generated_Source\PSoC4/BLE_eventHandler.c ****     if((cyBle_eventHandlerFlag & CYBLE_CALLBACK) != 0u)
 748:.\Generated_Source\PSoC4/BLE_eventHandler.c ****     {
 749:.\Generated_Source\PSoC4/BLE_eventHandler.c ****         CyBle_CtscNotificationEventHandler(eventParam);
 750:.\Generated_Source\PSoC4/BLE_eventHandler.c ****     }
 751:.\Generated_Source\PSoC4/BLE_eventHandler.c **** #endif /* CYBLE_CTS_CLIENT */
 752:.\Generated_Source\PSoC4/BLE_eventHandler.c **** #ifdef CYBLE_ESS_CLIENT
 753:.\Generated_Source\PSoC4/BLE_eventHandler.c ****     if((cyBle_eventHandlerFlag & CYBLE_CALLBACK) != 0u)
 754:.\Generated_Source\PSoC4/BLE_eventHandler.c ****     {
 755:.\Generated_Source\PSoC4/BLE_eventHandler.c ****         CyBle_EsscNotificationEventHandler(eventParam);
 756:.\Generated_Source\PSoC4/BLE_eventHandler.c ****     }
 757:.\Generated_Source\PSoC4/BLE_eventHandler.c **** #endif /* CYBLE_ESS_CLIENT */
 758:.\Generated_Source\PSoC4/BLE_eventHandler.c **** #ifdef CYBLE_GLS_CLIENT
 759:.\Generated_Source\PSoC4/BLE_eventHandler.c ****     if((cyBle_eventHandlerFlag & CYBLE_CALLBACK) != 0u)
 760:.\Generated_Source\PSoC4/BLE_eventHandler.c ****     {
 761:.\Generated_Source\PSoC4/BLE_eventHandler.c ****         CyBle_GlscNotificationEventHandler(eventParam);
 762:.\Generated_Source\PSoC4/BLE_eventHandler.c ****     }
 763:.\Generated_Source\PSoC4/BLE_eventHandler.c **** #endif /* CYBLE_GLS_CLIENT */
 764:.\Generated_Source\PSoC4/BLE_eventHandler.c **** #ifdef CYBLE_HIDS_CLIENT
 765:.\Generated_Source\PSoC4/BLE_eventHandler.c ****     if((cyBle_eventHandlerFlag & CYBLE_CALLBACK) != 0u)
 766:.\Generated_Source\PSoC4/BLE_eventHandler.c ****     {
 767:.\Generated_Source\PSoC4/BLE_eventHandler.c ****         CyBle_HidscNotificationEventHandler(eventParam);
 768:.\Generated_Source\PSoC4/BLE_eventHandler.c ****     }
 769:.\Generated_Source\PSoC4/BLE_eventHandler.c **** #endif /* CYBLE_HIDS_CLIENT */
 770:.\Generated_Source\PSoC4/BLE_eventHandler.c **** #ifdef CYBLE_HRS_CLIENT
 771:.\Generated_Source\PSoC4/BLE_eventHandler.c ****     if((cyBle_eventHandlerFlag & CYBLE_CALLBACK) != 0u)
 772:.\Generated_Source\PSoC4/BLE_eventHandler.c ****     {
 773:.\Generated_Source\PSoC4/BLE_eventHandler.c ****         CyBle_HrscNotificationEventHandler(eventParam);
 774:.\Generated_Source\PSoC4/BLE_eventHandler.c ****     }
ARM GAS  C:\Users\ELECTR~1\AppData\Local\Temp\ccJM91Ce.s 			page 15


 775:.\Generated_Source\PSoC4/BLE_eventHandler.c **** #endif /* CYBLE_HRS_CLIENT */
 776:.\Generated_Source\PSoC4/BLE_eventHandler.c **** #ifdef CYBLE_HTS_CLIENT
 777:.\Generated_Source\PSoC4/BLE_eventHandler.c ****     if((cyBle_eventHandlerFlag & CYBLE_CALLBACK) != 0u)
 778:.\Generated_Source\PSoC4/BLE_eventHandler.c ****     {
 779:.\Generated_Source\PSoC4/BLE_eventHandler.c ****         CyBle_HtscNotificationEventHandler(eventParam);
 780:.\Generated_Source\PSoC4/BLE_eventHandler.c ****     }
 781:.\Generated_Source\PSoC4/BLE_eventHandler.c **** #endif /* CYBLE_HTS_CLIENT */
 782:.\Generated_Source\PSoC4/BLE_eventHandler.c **** #ifdef CYBLE_LNS_CLIENT
 783:.\Generated_Source\PSoC4/BLE_eventHandler.c ****     if((cyBle_eventHandlerFlag & CYBLE_CALLBACK) != 0u)
 784:.\Generated_Source\PSoC4/BLE_eventHandler.c ****     {
 785:.\Generated_Source\PSoC4/BLE_eventHandler.c ****         CyBle_LnscNotificationEventHandler(eventParam);
 786:.\Generated_Source\PSoC4/BLE_eventHandler.c ****     }
 787:.\Generated_Source\PSoC4/BLE_eventHandler.c **** #endif /* CYBLE_LNS_CLIENT */
 788:.\Generated_Source\PSoC4/BLE_eventHandler.c **** #ifdef CYBLE_PASS_CLIENT
 789:.\Generated_Source\PSoC4/BLE_eventHandler.c ****     if((cyBle_eventHandlerFlag & CYBLE_CALLBACK) != 0u)
 790:.\Generated_Source\PSoC4/BLE_eventHandler.c ****     {
 791:.\Generated_Source\PSoC4/BLE_eventHandler.c ****         CyBle_PasscNotificationEventHandler(eventParam);
 792:.\Generated_Source\PSoC4/BLE_eventHandler.c ****     }
 793:.\Generated_Source\PSoC4/BLE_eventHandler.c **** #endif /* CYBLE_PASS_CLIENT */
 794:.\Generated_Source\PSoC4/BLE_eventHandler.c **** #ifdef CYBLE_RSCS_CLIENT
 795:.\Generated_Source\PSoC4/BLE_eventHandler.c ****     if((cyBle_eventHandlerFlag & CYBLE_CALLBACK) != 0u)
 796:.\Generated_Source\PSoC4/BLE_eventHandler.c ****     {
 797:.\Generated_Source\PSoC4/BLE_eventHandler.c ****         CyBle_RscscNotificationEventHandler(eventParam);
 798:.\Generated_Source\PSoC4/BLE_eventHandler.c ****     }
 799:.\Generated_Source\PSoC4/BLE_eventHandler.c **** #endif /* CYBLE_RSCS_CLIENT */
 800:.\Generated_Source\PSoC4/BLE_eventHandler.c **** #ifdef CYBLE_SCPS_CLIENT
 801:.\Generated_Source\PSoC4/BLE_eventHandler.c ****     if((cyBle_eventHandlerFlag & CYBLE_CALLBACK) != 0u)
 802:.\Generated_Source\PSoC4/BLE_eventHandler.c ****     {
 803:.\Generated_Source\PSoC4/BLE_eventHandler.c ****         CyBle_ScpscNotificationEventHandler(eventParam);
 804:.\Generated_Source\PSoC4/BLE_eventHandler.c ****     }
 805:.\Generated_Source\PSoC4/BLE_eventHandler.c **** #endif /* CYBLE_SCPS_CLIENT */
 806:.\Generated_Source\PSoC4/BLE_eventHandler.c **** #ifdef CYBLE_TPS_CLIENT
 807:.\Generated_Source\PSoC4/BLE_eventHandler.c ****     if((cyBle_eventHandlerFlag & CYBLE_CALLBACK) != 0u)
 808:.\Generated_Source\PSoC4/BLE_eventHandler.c ****     {
 809:.\Generated_Source\PSoC4/BLE_eventHandler.c ****         CyBle_TpscNotificationEventHandler(eventParam);
 810:.\Generated_Source\PSoC4/BLE_eventHandler.c ****     }
 811:.\Generated_Source\PSoC4/BLE_eventHandler.c **** #endif /* CYBLE_TPS_CLIENT */
 812:.\Generated_Source\PSoC4/BLE_eventHandler.c **** #ifdef CYBLE_UDS_CLIENT
 813:.\Generated_Source\PSoC4/BLE_eventHandler.c ****     if((cyBle_eventHandlerFlag & CYBLE_CALLBACK) != 0u)
 814:.\Generated_Source\PSoC4/BLE_eventHandler.c ****     {
 815:.\Generated_Source\PSoC4/BLE_eventHandler.c ****         CyBle_UdscNotificationEventHandler(eventParam);
 816:.\Generated_Source\PSoC4/BLE_eventHandler.c ****     }
 817:.\Generated_Source\PSoC4/BLE_eventHandler.c **** #endif /* CYBLE_UDS_CLIENT */
 818:.\Generated_Source\PSoC4/BLE_eventHandler.c **** #ifdef CYBLE_WPTS_CLIENT
 819:.\Generated_Source\PSoC4/BLE_eventHandler.c ****     if((cyBle_eventHandlerFlag & CYBLE_CALLBACK) != 0u)
 820:.\Generated_Source\PSoC4/BLE_eventHandler.c ****     {
 821:.\Generated_Source\PSoC4/BLE_eventHandler.c ****         CyBle_WptscNotificationEventHandler(eventParam);
 822:.\Generated_Source\PSoC4/BLE_eventHandler.c ****     }
 823:.\Generated_Source\PSoC4/BLE_eventHandler.c **** #endif /* CYBLE_WPTS_CLIENT */
 824:.\Generated_Source\PSoC4/BLE_eventHandler.c **** }
 825:.\Generated_Source\PSoC4/BLE_eventHandler.c **** 
 826:.\Generated_Source\PSoC4/BLE_eventHandler.c **** 
 827:.\Generated_Source\PSoC4/BLE_eventHandler.c **** /******************************************************************************    
 828:.\Generated_Source\PSoC4/BLE_eventHandler.c **** ##Function Name: CyBle_IndicationEventHandler
 829:.\Generated_Source\PSoC4/BLE_eventHandler.c **** *******************************************************************************
 830:.\Generated_Source\PSoC4/BLE_eventHandler.c **** 
 831:.\Generated_Source\PSoC4/BLE_eventHandler.c **** Summary:
ARM GAS  C:\Users\ELECTR~1\AppData\Local\Temp\ccJM91Ce.s 			page 16


 832:.\Generated_Source\PSoC4/BLE_eventHandler.c ****  Handles the Indication event from BLE stack.
 833:.\Generated_Source\PSoC4/BLE_eventHandler.c **** 
 834:.\Generated_Source\PSoC4/BLE_eventHandler.c **** Parameters:
 835:.\Generated_Source\PSoC4/BLE_eventHandler.c ****  CYBLE_GATTC_HANDLE_VALUE_IND_PARAM_T * eventParam - event parameter
 836:.\Generated_Source\PSoC4/BLE_eventHandler.c **** 
 837:.\Generated_Source\PSoC4/BLE_eventHandler.c **** Return:
 838:.\Generated_Source\PSoC4/BLE_eventHandler.c ****  None
 839:.\Generated_Source\PSoC4/BLE_eventHandler.c **** 
 840:.\Generated_Source\PSoC4/BLE_eventHandler.c **** ******************************************************************************/
 841:.\Generated_Source\PSoC4/BLE_eventHandler.c **** static void CyBle_IndicationEventHandler(CYBLE_GATTC_HANDLE_VALUE_IND_PARAM_T *eventParam)
 842:.\Generated_Source\PSoC4/BLE_eventHandler.c **** {
 843:.\Generated_Source\PSoC4/BLE_eventHandler.c **** #ifdef CYBLE_BLS_CLIENT
 844:.\Generated_Source\PSoC4/BLE_eventHandler.c ****     if((cyBle_eventHandlerFlag & CYBLE_CALLBACK) != 0u)
 845:.\Generated_Source\PSoC4/BLE_eventHandler.c ****     {
 846:.\Generated_Source\PSoC4/BLE_eventHandler.c ****         CyBle_BlscIndicationEventHandler(eventParam);
 847:.\Generated_Source\PSoC4/BLE_eventHandler.c ****     }
 848:.\Generated_Source\PSoC4/BLE_eventHandler.c **** #endif /* CYBLE_BLS_CLIENT */
 849:.\Generated_Source\PSoC4/BLE_eventHandler.c **** #ifdef CYBLE_CGMS_CLIENT
 850:.\Generated_Source\PSoC4/BLE_eventHandler.c ****     if((cyBle_eventHandlerFlag & CYBLE_CALLBACK) != 0u)
 851:.\Generated_Source\PSoC4/BLE_eventHandler.c ****     {
 852:.\Generated_Source\PSoC4/BLE_eventHandler.c ****         CyBle_CgmscIndicationEventHandler(eventParam);
 853:.\Generated_Source\PSoC4/BLE_eventHandler.c ****     }
 854:.\Generated_Source\PSoC4/BLE_eventHandler.c **** #endif /* CYBLE_CGMS_CLIENT */
 855:.\Generated_Source\PSoC4/BLE_eventHandler.c **** #ifdef CYBLE_CPS_CLIENT
 856:.\Generated_Source\PSoC4/BLE_eventHandler.c ****     if((cyBle_eventHandlerFlag & CYBLE_CALLBACK) != 0u)
 857:.\Generated_Source\PSoC4/BLE_eventHandler.c ****     {
 858:.\Generated_Source\PSoC4/BLE_eventHandler.c ****         CyBle_CpscIndicationEventHandler(eventParam);
 859:.\Generated_Source\PSoC4/BLE_eventHandler.c ****     }
 860:.\Generated_Source\PSoC4/BLE_eventHandler.c **** #endif /* CYBLE_CPS_CLIENT */
 861:.\Generated_Source\PSoC4/BLE_eventHandler.c **** #ifdef CYBLE_CSCS_CLIENT
 862:.\Generated_Source\PSoC4/BLE_eventHandler.c ****     if((cyBle_eventHandlerFlag & CYBLE_CALLBACK) != 0u)
 863:.\Generated_Source\PSoC4/BLE_eventHandler.c ****     {
 864:.\Generated_Source\PSoC4/BLE_eventHandler.c ****         CyBle_CscscIndicationEventHandler(eventParam);
 865:.\Generated_Source\PSoC4/BLE_eventHandler.c ****     }
 866:.\Generated_Source\PSoC4/BLE_eventHandler.c **** #endif /* CYBLE_CSCS_CLIENT */
 867:.\Generated_Source\PSoC4/BLE_eventHandler.c **** #ifdef CYBLE_ESS_CLIENT
 868:.\Generated_Source\PSoC4/BLE_eventHandler.c ****     if((cyBle_eventHandlerFlag & CYBLE_CALLBACK) != 0u)
 869:.\Generated_Source\PSoC4/BLE_eventHandler.c ****     {
 870:.\Generated_Source\PSoC4/BLE_eventHandler.c ****         CyBle_EsscIndicationEventHandler(eventParam);
 871:.\Generated_Source\PSoC4/BLE_eventHandler.c ****     }
 872:.\Generated_Source\PSoC4/BLE_eventHandler.c **** #endif /* CYBLE_ESS_CLIENT */
 873:.\Generated_Source\PSoC4/BLE_eventHandler.c **** #ifdef CYBLE_GLS_CLIENT
 874:.\Generated_Source\PSoC4/BLE_eventHandler.c ****     if((cyBle_eventHandlerFlag & CYBLE_CALLBACK) != 0u)
 875:.\Generated_Source\PSoC4/BLE_eventHandler.c ****     {
 876:.\Generated_Source\PSoC4/BLE_eventHandler.c ****         CyBle_GlscIndicationEventHandler(eventParam);
 877:.\Generated_Source\PSoC4/BLE_eventHandler.c ****     }
 878:.\Generated_Source\PSoC4/BLE_eventHandler.c **** #endif /* CYBLE_GLS_CLIENT */
 879:.\Generated_Source\PSoC4/BLE_eventHandler.c **** #ifdef CYBLE_HTS_CLIENT
 880:.\Generated_Source\PSoC4/BLE_eventHandler.c ****     if((cyBle_eventHandlerFlag & CYBLE_CALLBACK) != 0u)
 881:.\Generated_Source\PSoC4/BLE_eventHandler.c ****     {
 882:.\Generated_Source\PSoC4/BLE_eventHandler.c ****         CyBle_HtscIndicationEventHandler(eventParam);
 883:.\Generated_Source\PSoC4/BLE_eventHandler.c ****     }
 884:.\Generated_Source\PSoC4/BLE_eventHandler.c **** #endif /* CYBLE_HTS_CLIENT */
 885:.\Generated_Source\PSoC4/BLE_eventHandler.c **** #ifdef CYBLE_LNS_CLIENT
 886:.\Generated_Source\PSoC4/BLE_eventHandler.c ****     if((cyBle_eventHandlerFlag & CYBLE_CALLBACK) != 0u)
 887:.\Generated_Source\PSoC4/BLE_eventHandler.c ****     {
 888:.\Generated_Source\PSoC4/BLE_eventHandler.c ****         CyBle_LnscIndicationEventHandler(eventParam);
ARM GAS  C:\Users\ELECTR~1\AppData\Local\Temp\ccJM91Ce.s 			page 17


 889:.\Generated_Source\PSoC4/BLE_eventHandler.c ****     }
 890:.\Generated_Source\PSoC4/BLE_eventHandler.c **** #endif /* CYBLE_LNS_CLIENT */
 891:.\Generated_Source\PSoC4/BLE_eventHandler.c **** #ifdef CYBLE_RSCS_CLIENT
 892:.\Generated_Source\PSoC4/BLE_eventHandler.c ****     if((cyBle_eventHandlerFlag & CYBLE_CALLBACK) != 0u)
 893:.\Generated_Source\PSoC4/BLE_eventHandler.c ****     {
 894:.\Generated_Source\PSoC4/BLE_eventHandler.c ****         CyBle_RscscIndicationEventHandler(eventParam);
 895:.\Generated_Source\PSoC4/BLE_eventHandler.c ****     }
 896:.\Generated_Source\PSoC4/BLE_eventHandler.c **** #endif /* CYBLE_RSCS_CLIENT */
 897:.\Generated_Source\PSoC4/BLE_eventHandler.c **** #ifdef CYBLE_UDS_CLIENT
 898:.\Generated_Source\PSoC4/BLE_eventHandler.c ****     if((cyBle_eventHandlerFlag & CYBLE_CALLBACK) != 0u)
 899:.\Generated_Source\PSoC4/BLE_eventHandler.c ****     {
 900:.\Generated_Source\PSoC4/BLE_eventHandler.c ****         CyBle_UdscIndicationEventHandler(eventParam);
 901:.\Generated_Source\PSoC4/BLE_eventHandler.c ****     }
 902:.\Generated_Source\PSoC4/BLE_eventHandler.c **** #endif /* CYBLE_UDS_CLIENT */
 903:.\Generated_Source\PSoC4/BLE_eventHandler.c **** #ifdef CYBLE_WPTS_CLIENT
 904:.\Generated_Source\PSoC4/BLE_eventHandler.c ****     if((cyBle_eventHandlerFlag & CYBLE_CALLBACK) != 0u)
 905:.\Generated_Source\PSoC4/BLE_eventHandler.c ****     {
 906:.\Generated_Source\PSoC4/BLE_eventHandler.c ****         CyBle_WptscIndicationEventHandler(eventParam);
 907:.\Generated_Source\PSoC4/BLE_eventHandler.c ****     }
 908:.\Generated_Source\PSoC4/BLE_eventHandler.c **** #endif /* CYBLE_WPTS_CLIENT */
 909:.\Generated_Source\PSoC4/BLE_eventHandler.c **** #ifdef CYBLE_WSS_CLIENT
 910:.\Generated_Source\PSoC4/BLE_eventHandler.c ****     if((cyBle_eventHandlerFlag & CYBLE_CALLBACK) != 0u)
 911:.\Generated_Source\PSoC4/BLE_eventHandler.c ****     {
 912:.\Generated_Source\PSoC4/BLE_eventHandler.c ****         CyBle_WsscIndicationEventHandler(eventParam);
 913:.\Generated_Source\PSoC4/BLE_eventHandler.c ****     }
 914:.\Generated_Source\PSoC4/BLE_eventHandler.c **** #endif /* CYBLE_WSS_CLIENT */
 915:.\Generated_Source\PSoC4/BLE_eventHandler.c **** }
 916:.\Generated_Source\PSoC4/BLE_eventHandler.c **** 
 917:.\Generated_Source\PSoC4/BLE_eventHandler.c **** 
 918:.\Generated_Source\PSoC4/BLE_eventHandler.c **** 
 919:.\Generated_Source\PSoC4/BLE_eventHandler.c **** /******************************************************************************    
 920:.\Generated_Source\PSoC4/BLE_eventHandler.c **** ##Function Name: CyBle_ReadResponseEventHandler
 921:.\Generated_Source\PSoC4/BLE_eventHandler.c **** *******************************************************************************
 922:.\Generated_Source\PSoC4/BLE_eventHandler.c **** 
 923:.\Generated_Source\PSoC4/BLE_eventHandler.c **** Summary:
 924:.\Generated_Source\PSoC4/BLE_eventHandler.c ****  Handles the Read Response event from BLE stack.
 925:.\Generated_Source\PSoC4/BLE_eventHandler.c **** 
 926:.\Generated_Source\PSoC4/BLE_eventHandler.c **** Parameters:
 927:.\Generated_Source\PSoC4/BLE_eventHandler.c ****  CYBLE_GATTC_READ_RSP_PARAM_T * eventParam - event parameter
 928:.\Generated_Source\PSoC4/BLE_eventHandler.c **** 
 929:.\Generated_Source\PSoC4/BLE_eventHandler.c **** Return:
 930:.\Generated_Source\PSoC4/BLE_eventHandler.c ****  None
 931:.\Generated_Source\PSoC4/BLE_eventHandler.c **** 
 932:.\Generated_Source\PSoC4/BLE_eventHandler.c **** ******************************************************************************/
 933:.\Generated_Source\PSoC4/BLE_eventHandler.c **** static void CyBle_ReadResponseEventHandler(CYBLE_GATTC_READ_RSP_PARAM_T *eventParam)
 934:.\Generated_Source\PSoC4/BLE_eventHandler.c **** {
 935:.\Generated_Source\PSoC4/BLE_eventHandler.c **** #ifdef CYBLE_CUSTOM_CLIENT
 936:.\Generated_Source\PSoC4/BLE_eventHandler.c ****     /* Read response with 128-bit included service uuid */
 937:.\Generated_Source\PSoC4/BLE_eventHandler.c ****     if((CYBLE_CLIENT_STATE_INCL_DISCOVERING == CyBle_GetClientState()) &&
 938:.\Generated_Source\PSoC4/BLE_eventHandler.c ****        (cyBle_discInclInfo.inclDefHandle != 0u))
 939:.\Generated_Source\PSoC4/BLE_eventHandler.c ****     {
 940:.\Generated_Source\PSoC4/BLE_eventHandler.c ****         CYBLE_DISC_SRVC128_INFO_T discServInfo;
 941:.\Generated_Source\PSoC4/BLE_eventHandler.c **** 
 942:.\Generated_Source\PSoC4/BLE_eventHandler.c ****         /* Store service range */
 943:.\Generated_Source\PSoC4/BLE_eventHandler.c ****         discServInfo.range = cyBle_discInclInfo.inclHandleRange;
 944:.\Generated_Source\PSoC4/BLE_eventHandler.c ****         (void)memcpy((void *) discServInfo.uuid.uuid128.value, (void *)eventParam->value.val, event
 945:.\Generated_Source\PSoC4/BLE_eventHandler.c ****         CyBle_CustomcDiscoverServiceEventHandler(&discServInfo);
ARM GAS  C:\Users\ELECTR~1\AppData\Local\Temp\ccJM91Ce.s 			page 18


 946:.\Generated_Source\PSoC4/BLE_eventHandler.c ****         
 947:.\Generated_Source\PSoC4/BLE_eventHandler.c ****         /* Re-initiate CyBle_GattcFindIncludedServices function, setting the start
 948:.\Generated_Source\PSoC4/BLE_eventHandler.c ****            handle to the attribute handle which is placed next to the one used in
 949:.\Generated_Source\PSoC4/BLE_eventHandler.c ****            the above step.
 950:.\Generated_Source\PSoC4/BLE_eventHandler.c ****         */
 951:.\Generated_Source\PSoC4/BLE_eventHandler.c ****         discServInfo.range.startHandle = cyBle_discInclInfo.inclDefHandle + 1;
 952:.\Generated_Source\PSoC4/BLE_eventHandler.c ****         discServInfo.range.endHandle = cyBle_serverInfo[cyBle_disCount].range.endHandle;
 953:.\Generated_Source\PSoC4/BLE_eventHandler.c ****         if(discServInfo.range.startHandle <= discServInfo.range.endHandle)
 954:.\Generated_Source\PSoC4/BLE_eventHandler.c ****         {
 955:.\Generated_Source\PSoC4/BLE_eventHandler.c ****             if(CYBLE_ERROR_OK != CyBle_GattcFindIncludedServices(cyBle_connHandle, &discServInfo.ra
 956:.\Generated_Source\PSoC4/BLE_eventHandler.c ****             {
 957:.\Generated_Source\PSoC4/BLE_eventHandler.c ****                 CyBle_ApplCallback(CYBLE_EVT_GATTC_INCL_DISCOVERY_FAILED, NULL);
 958:.\Generated_Source\PSoC4/BLE_eventHandler.c ****                 cyBle_eventHandlerFlag &= (uint8)~CYBLE_AUTO_DISCOVERY;
 959:.\Generated_Source\PSoC4/BLE_eventHandler.c ****             }
 960:.\Generated_Source\PSoC4/BLE_eventHandler.c ****         }
 961:.\Generated_Source\PSoC4/BLE_eventHandler.c ****         else /* Continue discovery of the following service */
 962:.\Generated_Source\PSoC4/BLE_eventHandler.c ****         {
 963:.\Generated_Source\PSoC4/BLE_eventHandler.c ****             CyBle_NextInclDiscovery(CYBLE_DISCOVERY_CONTINUE);
 964:.\Generated_Source\PSoC4/BLE_eventHandler.c ****         }
 965:.\Generated_Source\PSoC4/BLE_eventHandler.c ****         
 966:.\Generated_Source\PSoC4/BLE_eventHandler.c ****         cyBle_eventHandlerFlag &= (uint8)~CYBLE_CALLBACK;
 967:.\Generated_Source\PSoC4/BLE_eventHandler.c ****         cyBle_discInclInfo.inclDefHandle = 0u;
 968:.\Generated_Source\PSoC4/BLE_eventHandler.c ****         
 969:.\Generated_Source\PSoC4/BLE_eventHandler.c ****     }
 970:.\Generated_Source\PSoC4/BLE_eventHandler.c **** #endif /* CYBLE_CUSTOM_CLIENT */
 971:.\Generated_Source\PSoC4/BLE_eventHandler.c **** #ifdef CYBLE_ANS_CLIENT
 972:.\Generated_Source\PSoC4/BLE_eventHandler.c ****     if((cyBle_eventHandlerFlag & CYBLE_CALLBACK) != 0u)
 973:.\Generated_Source\PSoC4/BLE_eventHandler.c ****     {
 974:.\Generated_Source\PSoC4/BLE_eventHandler.c ****         CyBle_AnscReadResponseEventHandler(eventParam);
 975:.\Generated_Source\PSoC4/BLE_eventHandler.c ****     }
 976:.\Generated_Source\PSoC4/BLE_eventHandler.c **** #endif /* CYBLE_ANS_CLIENT */
 977:.\Generated_Source\PSoC4/BLE_eventHandler.c **** #ifdef CYBLE_BAS_CLIENT
 978:.\Generated_Source\PSoC4/BLE_eventHandler.c ****     if((cyBle_eventHandlerFlag & CYBLE_CALLBACK) != 0u)
 979:.\Generated_Source\PSoC4/BLE_eventHandler.c ****     {
 980:.\Generated_Source\PSoC4/BLE_eventHandler.c ****         CyBle_BascReadResponseEventHandler(eventParam);
 981:.\Generated_Source\PSoC4/BLE_eventHandler.c ****     }
 982:.\Generated_Source\PSoC4/BLE_eventHandler.c **** #endif /* CYBLE_BAS_CLIENT */
 983:.\Generated_Source\PSoC4/BLE_eventHandler.c **** #ifdef CYBLE_BLS_CLIENT
 984:.\Generated_Source\PSoC4/BLE_eventHandler.c ****     if((cyBle_eventHandlerFlag & CYBLE_CALLBACK) != 0u)
 985:.\Generated_Source\PSoC4/BLE_eventHandler.c ****     {
 986:.\Generated_Source\PSoC4/BLE_eventHandler.c ****         CyBle_BlscReadResponseEventHandler(eventParam);
 987:.\Generated_Source\PSoC4/BLE_eventHandler.c ****     }
 988:.\Generated_Source\PSoC4/BLE_eventHandler.c **** #endif /* CYBLE_BLS_CLIENT */
 989:.\Generated_Source\PSoC4/BLE_eventHandler.c **** #ifdef CYBLE_BMS_CLIENT
 990:.\Generated_Source\PSoC4/BLE_eventHandler.c ****     if((cyBle_eventHandlerFlag & CYBLE_CALLBACK) != 0u)
 991:.\Generated_Source\PSoC4/BLE_eventHandler.c ****     {
 992:.\Generated_Source\PSoC4/BLE_eventHandler.c ****         CyBle_BmscReadResponseEventHandler(eventParam);
 993:.\Generated_Source\PSoC4/BLE_eventHandler.c ****     }
 994:.\Generated_Source\PSoC4/BLE_eventHandler.c **** #endif /* CYBLE_BMS_CLIENT */
 995:.\Generated_Source\PSoC4/BLE_eventHandler.c **** #ifdef CYBLE_CGMS_CLIENT
 996:.\Generated_Source\PSoC4/BLE_eventHandler.c ****     if((cyBle_eventHandlerFlag & CYBLE_CALLBACK) != 0u)
 997:.\Generated_Source\PSoC4/BLE_eventHandler.c ****     {
 998:.\Generated_Source\PSoC4/BLE_eventHandler.c ****         CyBle_CgmscReadResponseEventHandler(eventParam);
 999:.\Generated_Source\PSoC4/BLE_eventHandler.c ****     }
1000:.\Generated_Source\PSoC4/BLE_eventHandler.c **** #endif /* CYBLE_CGMS_CLIENT */
1001:.\Generated_Source\PSoC4/BLE_eventHandler.c **** #ifdef CYBLE_CPS_CLIENT
1002:.\Generated_Source\PSoC4/BLE_eventHandler.c ****     if((cyBle_eventHandlerFlag & CYBLE_CALLBACK) != 0u)
ARM GAS  C:\Users\ELECTR~1\AppData\Local\Temp\ccJM91Ce.s 			page 19


1003:.\Generated_Source\PSoC4/BLE_eventHandler.c ****     {
1004:.\Generated_Source\PSoC4/BLE_eventHandler.c ****         CyBle_CpscReadResponseEventHandler(eventParam);
1005:.\Generated_Source\PSoC4/BLE_eventHandler.c ****     }
1006:.\Generated_Source\PSoC4/BLE_eventHandler.c **** #endif /* CYBLE_CPS_CLIENT */
1007:.\Generated_Source\PSoC4/BLE_eventHandler.c **** #ifdef CYBLE_CSCS_CLIENT
1008:.\Generated_Source\PSoC4/BLE_eventHandler.c ****     if((cyBle_eventHandlerFlag & CYBLE_CALLBACK) != 0u)
1009:.\Generated_Source\PSoC4/BLE_eventHandler.c ****     {
1010:.\Generated_Source\PSoC4/BLE_eventHandler.c ****         CyBle_CscscReadResponseEventHandler(eventParam);
1011:.\Generated_Source\PSoC4/BLE_eventHandler.c ****     }
1012:.\Generated_Source\PSoC4/BLE_eventHandler.c **** #endif /* CYBLE_CSCS_CLIENT */
1013:.\Generated_Source\PSoC4/BLE_eventHandler.c **** #ifdef CYBLE_CTS_CLIENT
1014:.\Generated_Source\PSoC4/BLE_eventHandler.c ****     if((cyBle_eventHandlerFlag & CYBLE_CALLBACK) != 0u)
1015:.\Generated_Source\PSoC4/BLE_eventHandler.c ****     {
1016:.\Generated_Source\PSoC4/BLE_eventHandler.c ****         CyBle_CtscReadResponseEventHandler(eventParam);
1017:.\Generated_Source\PSoC4/BLE_eventHandler.c ****     }
1018:.\Generated_Source\PSoC4/BLE_eventHandler.c **** #endif /* CYBLE_BAS_CLIENT */
1019:.\Generated_Source\PSoC4/BLE_eventHandler.c **** #ifdef CYBLE_DIS_CLIENT
1020:.\Generated_Source\PSoC4/BLE_eventHandler.c ****     if((cyBle_eventHandlerFlag & CYBLE_CALLBACK) != 0u)
1021:.\Generated_Source\PSoC4/BLE_eventHandler.c ****     {
1022:.\Generated_Source\PSoC4/BLE_eventHandler.c ****         CyBle_DiscReadResponseEventHandler(eventParam);
1023:.\Generated_Source\PSoC4/BLE_eventHandler.c ****     }
1024:.\Generated_Source\PSoC4/BLE_eventHandler.c **** #endif /* CYBLE_DIS_CLIENT */
1025:.\Generated_Source\PSoC4/BLE_eventHandler.c **** #ifdef CYBLE_ESS_CLIENT
1026:.\Generated_Source\PSoC4/BLE_eventHandler.c ****     if((cyBle_eventHandlerFlag & CYBLE_CALLBACK) != 0u)
1027:.\Generated_Source\PSoC4/BLE_eventHandler.c ****     {
1028:.\Generated_Source\PSoC4/BLE_eventHandler.c ****         CyBle_EsscReadResponseEventHandler(eventParam);
1029:.\Generated_Source\PSoC4/BLE_eventHandler.c ****     }
1030:.\Generated_Source\PSoC4/BLE_eventHandler.c **** #endif /* CYBLE_ESS_CLIENT */
1031:.\Generated_Source\PSoC4/BLE_eventHandler.c **** #ifdef CYBLE_GLS_CLIENT
1032:.\Generated_Source\PSoC4/BLE_eventHandler.c ****     if((cyBle_eventHandlerFlag & CYBLE_CALLBACK) != 0u)
1033:.\Generated_Source\PSoC4/BLE_eventHandler.c ****     {
1034:.\Generated_Source\PSoC4/BLE_eventHandler.c ****         CyBle_GlscReadResponseEventHandler(eventParam);
1035:.\Generated_Source\PSoC4/BLE_eventHandler.c ****     }
1036:.\Generated_Source\PSoC4/BLE_eventHandler.c **** #endif /* CYBLE_GLS_CLIENT */
1037:.\Generated_Source\PSoC4/BLE_eventHandler.c **** #ifdef CYBLE_HIDS_CLIENT
1038:.\Generated_Source\PSoC4/BLE_eventHandler.c ****     if((cyBle_eventHandlerFlag & CYBLE_CALLBACK) != 0u)
1039:.\Generated_Source\PSoC4/BLE_eventHandler.c ****     {
1040:.\Generated_Source\PSoC4/BLE_eventHandler.c ****         CyBle_HidscReadResponseEventHandler(eventParam);
1041:.\Generated_Source\PSoC4/BLE_eventHandler.c ****     }
1042:.\Generated_Source\PSoC4/BLE_eventHandler.c **** #endif /* CYBLE_HIDS_CLIENT */
1043:.\Generated_Source\PSoC4/BLE_eventHandler.c **** #ifdef CYBLE_HRS_CLIENT
1044:.\Generated_Source\PSoC4/BLE_eventHandler.c ****     if((cyBle_eventHandlerFlag & CYBLE_CALLBACK) != 0u)
1045:.\Generated_Source\PSoC4/BLE_eventHandler.c ****     {
1046:.\Generated_Source\PSoC4/BLE_eventHandler.c ****         CyBle_HrscReadResponseEventHandler(eventParam);
1047:.\Generated_Source\PSoC4/BLE_eventHandler.c ****     }
1048:.\Generated_Source\PSoC4/BLE_eventHandler.c **** #endif /* CYBLE_HRS_CLIENT */
1049:.\Generated_Source\PSoC4/BLE_eventHandler.c **** #ifdef CYBLE_HTS_CLIENT
1050:.\Generated_Source\PSoC4/BLE_eventHandler.c ****     if((cyBle_eventHandlerFlag & CYBLE_CALLBACK) != 0u)
1051:.\Generated_Source\PSoC4/BLE_eventHandler.c ****     {
1052:.\Generated_Source\PSoC4/BLE_eventHandler.c ****         CyBle_HtscReadResponseEventHandler(eventParam);
1053:.\Generated_Source\PSoC4/BLE_eventHandler.c ****     }
1054:.\Generated_Source\PSoC4/BLE_eventHandler.c **** #endif /* CYBLE_HTS_CLIENT */
1055:.\Generated_Source\PSoC4/BLE_eventHandler.c **** #ifdef CYBLE_LLS_CLIENT
1056:.\Generated_Source\PSoC4/BLE_eventHandler.c ****     if((cyBle_eventHandlerFlag & CYBLE_CALLBACK) != 0u)
1057:.\Generated_Source\PSoC4/BLE_eventHandler.c ****     {
1058:.\Generated_Source\PSoC4/BLE_eventHandler.c ****         CyBle_LlscReadResponseEventHandler(eventParam);
1059:.\Generated_Source\PSoC4/BLE_eventHandler.c ****     }
ARM GAS  C:\Users\ELECTR~1\AppData\Local\Temp\ccJM91Ce.s 			page 20


1060:.\Generated_Source\PSoC4/BLE_eventHandler.c **** #endif /* CYBLE_LLS_CLIENT */
1061:.\Generated_Source\PSoC4/BLE_eventHandler.c **** #ifdef CYBLE_LNS_CLIENT
1062:.\Generated_Source\PSoC4/BLE_eventHandler.c ****     if((cyBle_eventHandlerFlag & CYBLE_CALLBACK) != 0u)
1063:.\Generated_Source\PSoC4/BLE_eventHandler.c ****     {
1064:.\Generated_Source\PSoC4/BLE_eventHandler.c ****         CyBle_LnscReadResponseEventHandler(eventParam);
1065:.\Generated_Source\PSoC4/BLE_eventHandler.c ****     }
1066:.\Generated_Source\PSoC4/BLE_eventHandler.c **** #endif /* CYBLE_LNS_CLIENT */
1067:.\Generated_Source\PSoC4/BLE_eventHandler.c **** #ifdef CYBLE_NDCS_CLIENT
1068:.\Generated_Source\PSoC4/BLE_eventHandler.c ****     if((cyBle_eventHandlerFlag & CYBLE_CALLBACK) != 0u)
1069:.\Generated_Source\PSoC4/BLE_eventHandler.c ****     {
1070:.\Generated_Source\PSoC4/BLE_eventHandler.c ****         CyBle_NdcscReadResponseEventHandler(eventParam);
1071:.\Generated_Source\PSoC4/BLE_eventHandler.c ****     }
1072:.\Generated_Source\PSoC4/BLE_eventHandler.c **** #endif /* CYBLE_NDCS_CLIENT */
1073:.\Generated_Source\PSoC4/BLE_eventHandler.c **** #ifdef CYBLE_PASS_CLIENT
1074:.\Generated_Source\PSoC4/BLE_eventHandler.c ****     if((cyBle_eventHandlerFlag & CYBLE_CALLBACK) != 0u)
1075:.\Generated_Source\PSoC4/BLE_eventHandler.c ****     {
1076:.\Generated_Source\PSoC4/BLE_eventHandler.c ****         CyBle_PasscReadResponseEventHandler(eventParam);
1077:.\Generated_Source\PSoC4/BLE_eventHandler.c ****     }
1078:.\Generated_Source\PSoC4/BLE_eventHandler.c **** #endif /* CYBLE_PASS_CLIENT */
1079:.\Generated_Source\PSoC4/BLE_eventHandler.c **** #ifdef CYBLE_RSCS_CLIENT
1080:.\Generated_Source\PSoC4/BLE_eventHandler.c ****     if((cyBle_eventHandlerFlag & CYBLE_CALLBACK) != 0u)
1081:.\Generated_Source\PSoC4/BLE_eventHandler.c ****     {
1082:.\Generated_Source\PSoC4/BLE_eventHandler.c ****         CyBle_RscscReadResponseEventHandler(eventParam);
1083:.\Generated_Source\PSoC4/BLE_eventHandler.c ****     }
1084:.\Generated_Source\PSoC4/BLE_eventHandler.c **** #endif /* CYBLE_RSCS_CLIENT */
1085:.\Generated_Source\PSoC4/BLE_eventHandler.c **** #ifdef CYBLE_RTUS_CLIENT
1086:.\Generated_Source\PSoC4/BLE_eventHandler.c ****     if((cyBle_eventHandlerFlag & CYBLE_CALLBACK) != 0u)
1087:.\Generated_Source\PSoC4/BLE_eventHandler.c ****     {
1088:.\Generated_Source\PSoC4/BLE_eventHandler.c ****         CyBle_RtuscReadResponseEventHandler(eventParam);
1089:.\Generated_Source\PSoC4/BLE_eventHandler.c ****     }
1090:.\Generated_Source\PSoC4/BLE_eventHandler.c **** #endif /* CYBLE_RTUS_CLIENT */
1091:.\Generated_Source\PSoC4/BLE_eventHandler.c **** #ifdef CYBLE_SCPS_CLIENT
1092:.\Generated_Source\PSoC4/BLE_eventHandler.c ****     if((cyBle_eventHandlerFlag & CYBLE_CALLBACK) != 0u)
1093:.\Generated_Source\PSoC4/BLE_eventHandler.c ****     {
1094:.\Generated_Source\PSoC4/BLE_eventHandler.c ****         CyBle_ScpscReadResponseEventHandler(eventParam);
1095:.\Generated_Source\PSoC4/BLE_eventHandler.c ****     }
1096:.\Generated_Source\PSoC4/BLE_eventHandler.c **** #endif /* CYBLE_SCPS_CLIENT */
1097:.\Generated_Source\PSoC4/BLE_eventHandler.c **** #ifdef CYBLE_TPS_CLIENT
1098:.\Generated_Source\PSoC4/BLE_eventHandler.c ****     if((cyBle_eventHandlerFlag & CYBLE_CALLBACK) != 0u)
1099:.\Generated_Source\PSoC4/BLE_eventHandler.c ****     {
1100:.\Generated_Source\PSoC4/BLE_eventHandler.c ****         CyBle_TpscReadResponseEventHandler(eventParam);
1101:.\Generated_Source\PSoC4/BLE_eventHandler.c ****     }
1102:.\Generated_Source\PSoC4/BLE_eventHandler.c **** #endif /* CYBLE_TPS_CLIENT */
1103:.\Generated_Source\PSoC4/BLE_eventHandler.c **** #ifdef CYBLE_UDS_CLIENT
1104:.\Generated_Source\PSoC4/BLE_eventHandler.c ****     if((cyBle_eventHandlerFlag & CYBLE_CALLBACK) != 0u)
1105:.\Generated_Source\PSoC4/BLE_eventHandler.c ****     {
1106:.\Generated_Source\PSoC4/BLE_eventHandler.c ****         CyBle_UdscReadResponseEventHandler(eventParam);
1107:.\Generated_Source\PSoC4/BLE_eventHandler.c ****     }
1108:.\Generated_Source\PSoC4/BLE_eventHandler.c **** #endif /* CYBLE_UDS_CLIENT */
1109:.\Generated_Source\PSoC4/BLE_eventHandler.c **** #ifdef CYBLE_WPTS_CLIENT
1110:.\Generated_Source\PSoC4/BLE_eventHandler.c ****     if((cyBle_eventHandlerFlag & CYBLE_CALLBACK) != 0u)
1111:.\Generated_Source\PSoC4/BLE_eventHandler.c ****     {
1112:.\Generated_Source\PSoC4/BLE_eventHandler.c ****         CyBle_WptscReadResponseEventHandler(eventParam);
1113:.\Generated_Source\PSoC4/BLE_eventHandler.c ****     }
1114:.\Generated_Source\PSoC4/BLE_eventHandler.c **** #endif /* CYBLE_WPTS_CLIENT */
1115:.\Generated_Source\PSoC4/BLE_eventHandler.c **** #ifdef CYBLE_WSS_CLIENT
1116:.\Generated_Source\PSoC4/BLE_eventHandler.c ****     if((cyBle_eventHandlerFlag & CYBLE_CALLBACK) != 0u)
ARM GAS  C:\Users\ELECTR~1\AppData\Local\Temp\ccJM91Ce.s 			page 21


1117:.\Generated_Source\PSoC4/BLE_eventHandler.c ****     {
1118:.\Generated_Source\PSoC4/BLE_eventHandler.c ****         CyBle_WsscReadResponseEventHandler(eventParam);
1119:.\Generated_Source\PSoC4/BLE_eventHandler.c ****     }
1120:.\Generated_Source\PSoC4/BLE_eventHandler.c **** #endif /* CYBLE_WSS_CLIENT */
1121:.\Generated_Source\PSoC4/BLE_eventHandler.c **** }
1122:.\Generated_Source\PSoC4/BLE_eventHandler.c **** #endif /* CYBLE_GATT_ROLE_CLIENT */
1123:.\Generated_Source\PSoC4/BLE_eventHandler.c **** 
1124:.\Generated_Source\PSoC4/BLE_eventHandler.c **** 
1125:.\Generated_Source\PSoC4/BLE_eventHandler.c **** /****************************************************************************** 
1126:.\Generated_Source\PSoC4/BLE_eventHandler.c **** ##Function Name: CyBle_DisconnectEventHandler
1127:.\Generated_Source\PSoC4/BLE_eventHandler.c **** *******************************************************************************
1128:.\Generated_Source\PSoC4/BLE_eventHandler.c **** 
1129:.\Generated_Source\PSoC4/BLE_eventHandler.c **** Summary:
1130:.\Generated_Source\PSoC4/BLE_eventHandler.c ****  Handles the GATT Disconnection event from the BLE stack.
1131:.\Generated_Source\PSoC4/BLE_eventHandler.c **** 
1132:.\Generated_Source\PSoC4/BLE_eventHandler.c **** Parameters:
1133:.\Generated_Source\PSoC4/BLE_eventHandler.c ****  None
1134:.\Generated_Source\PSoC4/BLE_eventHandler.c **** 
1135:.\Generated_Source\PSoC4/BLE_eventHandler.c **** Return:
1136:.\Generated_Source\PSoC4/BLE_eventHandler.c ****  None
1137:.\Generated_Source\PSoC4/BLE_eventHandler.c **** 
1138:.\Generated_Source\PSoC4/BLE_eventHandler.c **** ******************************************************************************/
1139:.\Generated_Source\PSoC4/BLE_eventHandler.c **** static void CyBle_GattDisconnectEventHandler(void)
1140:.\Generated_Source\PSoC4/BLE_eventHandler.c **** {
  25              		.loc 1 1140 0
  26              		.cfi_startproc
1141:.\Generated_Source\PSoC4/BLE_eventHandler.c ****     cyBle_connHandle.attId = 0u;
  27              		.loc 1 1141 0
  28 0000 024B     		ldr	r3, .L2
  29 0002 0022     		mov	r2, #0
  30 0004 5A70     		strb	r2, [r3, #1]
1142:.\Generated_Source\PSoC4/BLE_eventHandler.c ****     cyBle_connHandle.bdHandle = 0u;
  31              		.loc 1 1142 0
  32 0006 1A70     		strb	r2, [r3]
1143:.\Generated_Source\PSoC4/BLE_eventHandler.c ****     
1144:.\Generated_Source\PSoC4/BLE_eventHandler.c ****     #if (CYBLE_GATT_ROLE_CLIENT)
1145:.\Generated_Source\PSoC4/BLE_eventHandler.c ****         if(CYBLE_CLIENT_STATE_DISCOVERED == CyBle_GetClientState())
1146:.\Generated_Source\PSoC4/BLE_eventHandler.c ****         {
1147:.\Generated_Source\PSoC4/BLE_eventHandler.c ****             CyBle_SetClientState(CYBLE_CLIENT_STATE_DISCONNECTED_DISCOVERED);
1148:.\Generated_Source\PSoC4/BLE_eventHandler.c ****         }
1149:.\Generated_Source\PSoC4/BLE_eventHandler.c ****         else
1150:.\Generated_Source\PSoC4/BLE_eventHandler.c ****         {
1151:.\Generated_Source\PSoC4/BLE_eventHandler.c ****             CyBle_SetClientState(CYBLE_CLIENT_STATE_DISCONNECTED);
1152:.\Generated_Source\PSoC4/BLE_eventHandler.c ****         }
1153:.\Generated_Source\PSoC4/BLE_eventHandler.c ****     #endif /* CYBLE_GATT_ROLE_CLIENT */
1154:.\Generated_Source\PSoC4/BLE_eventHandler.c ****         
1155:.\Generated_Source\PSoC4/BLE_eventHandler.c ****     #ifdef CYBLE_CPS_SERVER
1156:.\Generated_Source\PSoC4/BLE_eventHandler.c ****         #if CYBLE_GAP_ROLE_BROADCASTER
1157:.\Generated_Source\PSoC4/BLE_eventHandler.c ****             CyBle_CpssDisconnectEventHandler();
1158:.\Generated_Source\PSoC4/BLE_eventHandler.c ****         #endif /* CYBLE_GAP_ROLE_BROADCASTER */
1159:.\Generated_Source\PSoC4/BLE_eventHandler.c ****     #endif /* CYBLE_CPS_SERVER */
1160:.\Generated_Source\PSoC4/BLE_eventHandler.c **** 
1161:.\Generated_Source\PSoC4/BLE_eventHandler.c ****     #ifdef CYBLE_CPS_CLIENT
1162:.\Generated_Source\PSoC4/BLE_eventHandler.c ****         CyBle_CpscDisconnectEventHandler();
1163:.\Generated_Source\PSoC4/BLE_eventHandler.c ****     #endif /* CYBLE_CPS_CLIENT */
1164:.\Generated_Source\PSoC4/BLE_eventHandler.c **** 
1165:.\Generated_Source\PSoC4/BLE_eventHandler.c ****     #ifdef CYBLE_IAS_SERVER
ARM GAS  C:\Users\ELECTR~1\AppData\Local\Temp\ccJM91Ce.s 			page 22


1166:.\Generated_Source\PSoC4/BLE_eventHandler.c ****         CyBle_IassDisconnectEventHandler();
1167:.\Generated_Source\PSoC4/BLE_eventHandler.c ****     #endif /* CYBLE_IAS_SERVER */
1168:.\Generated_Source\PSoC4/BLE_eventHandler.c ****     
1169:.\Generated_Source\PSoC4/BLE_eventHandler.c ****     #ifdef CYBLE_GLS_SERVER
1170:.\Generated_Source\PSoC4/BLE_eventHandler.c ****         CyBle_GlsInit();
1171:.\Generated_Source\PSoC4/BLE_eventHandler.c ****     #endif /* CYBLE_GLS_SERVER */
1172:.\Generated_Source\PSoC4/BLE_eventHandler.c ****     
1173:.\Generated_Source\PSoC4/BLE_eventHandler.c ****     #ifdef CYBLE_LNS_SERVER
1174:.\Generated_Source\PSoC4/BLE_eventHandler.c ****         CyBle_LnsInit();
1175:.\Generated_Source\PSoC4/BLE_eventHandler.c ****     #endif /* CYBLE_LNS_SERVER */
1176:.\Generated_Source\PSoC4/BLE_eventHandler.c ****     
1177:.\Generated_Source\PSoC4/BLE_eventHandler.c ****     #ifdef CYBLE_UDS_SERVER
1178:.\Generated_Source\PSoC4/BLE_eventHandler.c ****         CyBle_UdsInit();
1179:.\Generated_Source\PSoC4/BLE_eventHandler.c ****     #endif /* CYBLE_UDS_SERVER */
1180:.\Generated_Source\PSoC4/BLE_eventHandler.c **** }
  33              		.loc 1 1180 0
  34              		@ sp needed
  35 0008 7047     		bx	lr
  36              	.L3:
  37 000a C046     		.align	2
  38              	.L2:
  39 000c 00000000 		.word	cyBle_connHandle
  40              		.cfi_endproc
  41              	.LFE4:
  42              		.size	CyBle_GattDisconnectEventHandler, .-CyBle_GattDisconnectEventHandler
  43              		.section	.text.CyBle_IsDeviceAddressValid,"ax",%progbits
  44              		.align	2
  45              		.code	16
  46              		.thumb_func
  47              		.type	CyBle_IsDeviceAddressValid, %function
  48              	CyBle_IsDeviceAddressValid:
  49              	.LFB7:
1181:.\Generated_Source\PSoC4/BLE_eventHandler.c **** 
1182:.\Generated_Source\PSoC4/BLE_eventHandler.c **** 
1183:.\Generated_Source\PSoC4/BLE_eventHandler.c **** /****************************************************************************** 
1184:.\Generated_Source\PSoC4/BLE_eventHandler.c **** ##Function Name: CyBle_TimeOutEventHandler
1185:.\Generated_Source\PSoC4/BLE_eventHandler.c **** *******************************************************************************
1186:.\Generated_Source\PSoC4/BLE_eventHandler.c **** 
1187:.\Generated_Source\PSoC4/BLE_eventHandler.c **** Summary:
1188:.\Generated_Source\PSoC4/BLE_eventHandler.c ****  Handles the CYBLE_EVT_TIMEOUT event from the BLE stack.
1189:.\Generated_Source\PSoC4/BLE_eventHandler.c **** 
1190:.\Generated_Source\PSoC4/BLE_eventHandler.c **** Parameters:
1191:.\Generated_Source\PSoC4/BLE_eventHandler.c ****  *eventParam - The pointer to a structure of type CYBLE_TO_REASON_CODE_T.
1192:.\Generated_Source\PSoC4/BLE_eventHandler.c **** 
1193:.\Generated_Source\PSoC4/BLE_eventHandler.c **** Return:
1194:.\Generated_Source\PSoC4/BLE_eventHandler.c ****  None
1195:.\Generated_Source\PSoC4/BLE_eventHandler.c **** 
1196:.\Generated_Source\PSoC4/BLE_eventHandler.c **** ******************************************************************************/
1197:.\Generated_Source\PSoC4/BLE_eventHandler.c **** static void CyBle_TimeOutEventHandler(const CYBLE_TO_REASON_CODE_T *eventParam)
1198:.\Generated_Source\PSoC4/BLE_eventHandler.c **** {
1199:.\Generated_Source\PSoC4/BLE_eventHandler.c ****     if(*eventParam == CYBLE_GATT_RSP_TO)
1200:.\Generated_Source\PSoC4/BLE_eventHandler.c ****     {
1201:.\Generated_Source\PSoC4/BLE_eventHandler.c ****     #if (CYBLE_GATT_ROLE_CLIENT)
1202:.\Generated_Source\PSoC4/BLE_eventHandler.c ****         if(0u != (cyBle_eventHandlerFlag & CYBLE_AUTO_DISCOVERY))
1203:.\Generated_Source\PSoC4/BLE_eventHandler.c ****         {
1204:.\Generated_Source\PSoC4/BLE_eventHandler.c ****             switch(CyBle_GetClientState())
1205:.\Generated_Source\PSoC4/BLE_eventHandler.c ****             {
ARM GAS  C:\Users\ELECTR~1\AppData\Local\Temp\ccJM91Ce.s 			page 23


1206:.\Generated_Source\PSoC4/BLE_eventHandler.c ****                 case CYBLE_CLIENT_STATE_SRVC_DISCOVERING:
1207:.\Generated_Source\PSoC4/BLE_eventHandler.c ****                     CyBle_ApplCallback(CYBLE_EVT_GATTC_SRVC_DISCOVERY_FAILED, NULL);
1208:.\Generated_Source\PSoC4/BLE_eventHandler.c ****                     break;
1209:.\Generated_Source\PSoC4/BLE_eventHandler.c ****                 case CYBLE_CLIENT_STATE_INCL_DISCOVERING:
1210:.\Generated_Source\PSoC4/BLE_eventHandler.c ****                     CyBle_ApplCallback(CYBLE_EVT_GATTC_INCL_DISCOVERY_FAILED, NULL);
1211:.\Generated_Source\PSoC4/BLE_eventHandler.c ****                     break;
1212:.\Generated_Source\PSoC4/BLE_eventHandler.c ****                 case CYBLE_CLIENT_STATE_CHAR_DISCOVERING:
1213:.\Generated_Source\PSoC4/BLE_eventHandler.c ****                     CyBle_ApplCallback(CYBLE_EVT_GATTC_CHAR_DISCOVERY_FAILED, NULL);
1214:.\Generated_Source\PSoC4/BLE_eventHandler.c ****                     break;
1215:.\Generated_Source\PSoC4/BLE_eventHandler.c ****                 case CYBLE_CLIENT_STATE_DESCR_DISCOVERING:
1216:.\Generated_Source\PSoC4/BLE_eventHandler.c ****                     CyBle_ApplCallback(CYBLE_EVT_GATTC_DESCR_DISCOVERY_FAILED, NULL);
1217:.\Generated_Source\PSoC4/BLE_eventHandler.c ****                     break;
1218:.\Generated_Source\PSoC4/BLE_eventHandler.c ****                 default:        /* Other states should not be set in Auto discovery mode */
1219:.\Generated_Source\PSoC4/BLE_eventHandler.c ****                     break;
1220:.\Generated_Source\PSoC4/BLE_eventHandler.c ****             }
1221:.\Generated_Source\PSoC4/BLE_eventHandler.c ****             cyBle_eventHandlerFlag &= (uint8)~CYBLE_AUTO_DISCOVERY;
1222:.\Generated_Source\PSoC4/BLE_eventHandler.c ****             CyBle_SetClientState(CYBLE_CLIENT_STATE_CONNECTED);
1223:.\Generated_Source\PSoC4/BLE_eventHandler.c ****         }
1224:.\Generated_Source\PSoC4/BLE_eventHandler.c ****     #endif /* CYBLE_GATT_ROLE_CLIENT */
1225:.\Generated_Source\PSoC4/BLE_eventHandler.c ****     #ifdef CYBLE_CPS_SERVER
1226:.\Generated_Source\PSoC4/BLE_eventHandler.c ****         CyBle_CpssTimeOutEventHandler();
1227:.\Generated_Source\PSoC4/BLE_eventHandler.c ****     #endif /* CYBLE_CPS_SERVER */
1228:.\Generated_Source\PSoC4/BLE_eventHandler.c ****     }
1229:.\Generated_Source\PSoC4/BLE_eventHandler.c ****     
1230:.\Generated_Source\PSoC4/BLE_eventHandler.c ****     /* Connection procedure timeout */
1231:.\Generated_Source\PSoC4/BLE_eventHandler.c ****     if(*eventParam == CYBLE_GENERIC_TO)
1232:.\Generated_Source\PSoC4/BLE_eventHandler.c ****     {
1233:.\Generated_Source\PSoC4/BLE_eventHandler.c ****     #if(CYBLE_GAP_ROLE_CENTRAL)
1234:.\Generated_Source\PSoC4/BLE_eventHandler.c ****         if(CYBLE_STATE_CONNECTING == CyBle_GetState())
1235:.\Generated_Source\PSoC4/BLE_eventHandler.c ****         {
1236:.\Generated_Source\PSoC4/BLE_eventHandler.c ****             (void)CyBle_GapcCancelDeviceConnection();
1237:.\Generated_Source\PSoC4/BLE_eventHandler.c ****         }
1238:.\Generated_Source\PSoC4/BLE_eventHandler.c ****     #endif /* CYBLE_GAP_ROLE_CENTRAL */
1239:.\Generated_Source\PSoC4/BLE_eventHandler.c ****     }
1240:.\Generated_Source\PSoC4/BLE_eventHandler.c **** }
1241:.\Generated_Source\PSoC4/BLE_eventHandler.c **** 
1242:.\Generated_Source\PSoC4/BLE_eventHandler.c **** 
1243:.\Generated_Source\PSoC4/BLE_eventHandler.c **** /****************************************************************************** 
1244:.\Generated_Source\PSoC4/BLE_eventHandler.c **** ##Function Name: CyBle_GattConnectReqHandler
1245:.\Generated_Source\PSoC4/BLE_eventHandler.c **** *******************************************************************************
1246:.\Generated_Source\PSoC4/BLE_eventHandler.c **** 
1247:.\Generated_Source\PSoC4/BLE_eventHandler.c **** Summary:
1248:.\Generated_Source\PSoC4/BLE_eventHandler.c ****  Handles the GATT connect event from the BLE stack.
1249:.\Generated_Source\PSoC4/BLE_eventHandler.c **** 
1250:.\Generated_Source\PSoC4/BLE_eventHandler.c **** Parameters:
1251:.\Generated_Source\PSoC4/BLE_eventHandler.c ****  None
1252:.\Generated_Source\PSoC4/BLE_eventHandler.c **** 
1253:.\Generated_Source\PSoC4/BLE_eventHandler.c **** Return:
1254:.\Generated_Source\PSoC4/BLE_eventHandler.c ****  None
1255:.\Generated_Source\PSoC4/BLE_eventHandler.c **** 
1256:.\Generated_Source\PSoC4/BLE_eventHandler.c **** ******************************************************************************/
1257:.\Generated_Source\PSoC4/BLE_eventHandler.c **** static void CyBle_GattConnectReqHandler(void)
1258:.\Generated_Source\PSoC4/BLE_eventHandler.c **** {
1259:.\Generated_Source\PSoC4/BLE_eventHandler.c ****     #ifdef CYBLE_CGMS_SERVER
1260:.\Generated_Source\PSoC4/BLE_eventHandler.c ****         CyBle_CgmsInit();
1261:.\Generated_Source\PSoC4/BLE_eventHandler.c ****     #endif /* CYBLE_CGMS_SERVER */
1262:.\Generated_Source\PSoC4/BLE_eventHandler.c ****     
ARM GAS  C:\Users\ELECTR~1\AppData\Local\Temp\ccJM91Ce.s 			page 24


1263:.\Generated_Source\PSoC4/BLE_eventHandler.c ****     #ifdef CYBLE_CPS_SERVER
1264:.\Generated_Source\PSoC4/BLE_eventHandler.c ****         CyBle_CpssConnectEventHandler();
1265:.\Generated_Source\PSoC4/BLE_eventHandler.c ****     #endif /* CYBLE_CPS_SERVER */
1266:.\Generated_Source\PSoC4/BLE_eventHandler.c ****     
1267:.\Generated_Source\PSoC4/BLE_eventHandler.c ****     #ifdef CYBLE_CSCS_SERVER
1268:.\Generated_Source\PSoC4/BLE_eventHandler.c ****             CyBle_CscsInit();
1269:.\Generated_Source\PSoC4/BLE_eventHandler.c ****     #endif /* CYBLE_CSCS_SERVER */
1270:.\Generated_Source\PSoC4/BLE_eventHandler.c ****     
1271:.\Generated_Source\PSoC4/BLE_eventHandler.c ****     #ifdef CYBLE_LLS_SERVER
1272:.\Generated_Source\PSoC4/BLE_eventHandler.c ****         CyBle_LlssConnectEventHandler();
1273:.\Generated_Source\PSoC4/BLE_eventHandler.c ****     #endif /* CYBLE_LLS_SERVER */
1274:.\Generated_Source\PSoC4/BLE_eventHandler.c ****     
1275:.\Generated_Source\PSoC4/BLE_eventHandler.c ****     #ifdef CYBLE_HIDS_SERVER
1276:.\Generated_Source\PSoC4/BLE_eventHandler.c ****         CyBle_HidssOnDeviceConnected();
1277:.\Generated_Source\PSoC4/BLE_eventHandler.c ****     #endif /* CYBLE_HIDS_SERVER */
1278:.\Generated_Source\PSoC4/BLE_eventHandler.c **** 
1279:.\Generated_Source\PSoC4/BLE_eventHandler.c ****     #ifdef CYBLE_RSCS_SERVER
1280:.\Generated_Source\PSoC4/BLE_eventHandler.c ****         CyBle_RscsInit();
1281:.\Generated_Source\PSoC4/BLE_eventHandler.c ****     #endif /* CYBLE_RSCS_SERVER */
1282:.\Generated_Source\PSoC4/BLE_eventHandler.c **** }
1283:.\Generated_Source\PSoC4/BLE_eventHandler.c **** 
1284:.\Generated_Source\PSoC4/BLE_eventHandler.c **** 
1285:.\Generated_Source\PSoC4/BLE_eventHandler.c **** #if (CYBLE_GATT_ROLE_SERVER || CYBLE_GATT_ROLE_CLIENT)
1286:.\Generated_Source\PSoC4/BLE_eventHandler.c **** 
1287:.\Generated_Source\PSoC4/BLE_eventHandler.c **** /****************************************************************************** 
1288:.\Generated_Source\PSoC4/BLE_eventHandler.c **** ##Function Name: CyBle_IsDeviceAddressValid
1289:.\Generated_Source\PSoC4/BLE_eventHandler.c **** *******************************************************************************
1290:.\Generated_Source\PSoC4/BLE_eventHandler.c **** 
1291:.\Generated_Source\PSoC4/BLE_eventHandler.c **** Summary:
1292:.\Generated_Source\PSoC4/BLE_eventHandler.c ****  This function verifies that BLE public address has been programmed to SFLASH 
1293:.\Generated_Source\PSoC4/BLE_eventHandler.c ****  during manufacture.
1294:.\Generated_Source\PSoC4/BLE_eventHandler.c **** 
1295:.\Generated_Source\PSoC4/BLE_eventHandler.c **** Parameters:
1296:.\Generated_Source\PSoC4/BLE_eventHandler.c ****  CYBLE_GAP_BD_ADDR_T *sflashDeviceAddress: the pointer to the BD address of 
1297:.\Generated_Source\PSoC4/BLE_eventHandler.c ****                                            type CYBLE_GAP_BD_ADDR_T. 
1298:.\Generated_Source\PSoC4/BLE_eventHandler.c **** 
1299:.\Generated_Source\PSoC4/BLE_eventHandler.c **** Return:
1300:.\Generated_Source\PSoC4/BLE_eventHandler.c ****  Non zero value when a device address differs from the default SFLASH content.
1301:.\Generated_Source\PSoC4/BLE_eventHandler.c **** 
1302:.\Generated_Source\PSoC4/BLE_eventHandler.c **** ******************************************************************************/
1303:.\Generated_Source\PSoC4/BLE_eventHandler.c **** static uint8 CyBle_IsDeviceAddressValid(const CYBLE_GAP_BD_ADDR_T *sflashDeviceAddress)
1304:.\Generated_Source\PSoC4/BLE_eventHandler.c **** {
  50              		.loc 1 1304 0
  51              		.cfi_startproc
  52              	.LVL0:
1305:.\Generated_Source\PSoC4/BLE_eventHandler.c ****     uint8 i;
1306:.\Generated_Source\PSoC4/BLE_eventHandler.c ****     uint8 sflashAddressValid = 0u;
1307:.\Generated_Source\PSoC4/BLE_eventHandler.c ****     
1308:.\Generated_Source\PSoC4/BLE_eventHandler.c ****     if(sflashDeviceAddress -> type == CYBLE_GAP_ADDR_TYPE_PUBLIC)  
  53              		.loc 1 1308 0
  54 0000 8379     		ldrb	r3, [r0, #6]
  55 0002 002B     		cmp	r3, #0
  56 0004 07D0     		beq	.L8
1306:.\Generated_Source\PSoC4/BLE_eventHandler.c ****     
  57              		.loc 1 1306 0
  58 0006 0020     		mov	r0, #0
  59              	.LVL1:
ARM GAS  C:\Users\ELECTR~1\AppData\Local\Temp\ccJM91Ce.s 			page 25


  60 0008 0BE0     		b	.L6
  61              	.LVL2:
  62              	.L7:
1309:.\Generated_Source\PSoC4/BLE_eventHandler.c ****     {
1310:.\Generated_Source\PSoC4/BLE_eventHandler.c ****         for(i = 0u; i < CYBLE_GAP_BD_ADDR_SIZE; i++)
1311:.\Generated_Source\PSoC4/BLE_eventHandler.c ****         {
1312:.\Generated_Source\PSoC4/BLE_eventHandler.c ****             if(sflashDeviceAddress->bdAddr[i] != 0u)
  63              		.loc 1 1312 0
  64 000a C25C     		ldrb	r2, [r0, r3]
  65 000c 002A     		cmp	r2, #0
  66 000e 07D1     		bne	.L9
1310:.\Generated_Source\PSoC4/BLE_eventHandler.c ****         {
  67              		.loc 1 1310 0 discriminator 2
  68 0010 0133     		add	r3, r3, #1
  69              	.LVL3:
  70 0012 DBB2     		uxtb	r3, r3
  71              	.LVL4:
  72 0014 00E0     		b	.L5
  73              	.LVL5:
  74              	.L8:
  75 0016 0023     		mov	r3, #0
  76              	.L5:
  77              	.LVL6:
1310:.\Generated_Source\PSoC4/BLE_eventHandler.c ****         {
  78              		.loc 1 1310 0 is_stmt 0 discriminator 1
  79 0018 052B     		cmp	r3, #5
  80 001a F6D9     		bls	.L7
1306:.\Generated_Source\PSoC4/BLE_eventHandler.c ****     
  81              		.loc 1 1306 0 is_stmt 1
  82 001c 0020     		mov	r0, #0
  83              	.LVL7:
  84 001e 00E0     		b	.L6
  85              	.LVL8:
  86              	.L9:
1313:.\Generated_Source\PSoC4/BLE_eventHandler.c ****             {
1314:.\Generated_Source\PSoC4/BLE_eventHandler.c ****                 sflashAddressValid = 1u;
  87              		.loc 1 1314 0
  88 0020 0120     		mov	r0, #1
  89              	.LVL9:
  90              	.L6:
1315:.\Generated_Source\PSoC4/BLE_eventHandler.c ****                 break;
1316:.\Generated_Source\PSoC4/BLE_eventHandler.c ****             }
1317:.\Generated_Source\PSoC4/BLE_eventHandler.c ****         }
1318:.\Generated_Source\PSoC4/BLE_eventHandler.c ****     }
1319:.\Generated_Source\PSoC4/BLE_eventHandler.c ****     return (sflashAddressValid);
1320:.\Generated_Source\PSoC4/BLE_eventHandler.c **** }
  91              		.loc 1 1320 0
  92              		@ sp needed
  93 0022 7047     		bx	lr
  94              		.cfi_endproc
  95              	.LFE7:
  96              		.size	CyBle_IsDeviceAddressValid, .-CyBle_IsDeviceAddressValid
  97              		.section	.text.CyBle_WriteReqHandler,"ax",%progbits
  98              		.align	2
  99              		.code	16
 100              		.thumb_func
 101              		.type	CyBle_WriteReqHandler, %function
ARM GAS  C:\Users\ELECTR~1\AppData\Local\Temp\ccJM91Ce.s 			page 26


 102              	CyBle_WriteReqHandler:
 103              	.LFB2:
 223:.\Generated_Source\PSoC4/BLE_eventHandler.c ****     CYBLE_GATT_ERR_CODE_T gattErr;
 104              		.loc 1 223 0
 105              		.cfi_startproc
 106              	.LVL10:
 107 0000 10B5     		push	{r4, lr}
 108              		.cfi_def_cfa_offset 8
 109              		.cfi_offset 4, -8
 110              		.cfi_offset 14, -4
 111 0002 82B0     		sub	sp, sp, #8
 112              		.cfi_def_cfa_offset 16
 113 0004 041C     		mov	r4, r0
 229:.\Generated_Source\PSoC4/BLE_eventHandler.c **** #ifdef CYBLE_ANCS_SERVER
 114              		.loc 1 229 0
 115 0006 FFF7FEFF 		bl	CyBle_GattsWriteEventHandler
 116              	.LVL11:
 382:.\Generated_Source\PSoC4/BLE_eventHandler.c ****     {
 117              		.loc 1 382 0
 118 000a 0A4B     		ldr	r3, .L13
 119 000c 1B78     		ldrb	r3, [r3]
 120 000e DB07     		lsl	r3, r3, #31
 121 0010 0ED4     		bmi	.L10
 384:.\Generated_Source\PSoC4/BLE_eventHandler.c ****         {
 122              		.loc 1 384 0
 123 0012 0028     		cmp	r0, #0
 124 0014 09D0     		beq	.L12
 125              	.LBB2:
 388:.\Generated_Source\PSoC4/BLE_eventHandler.c ****             err_param.attrHandle = eventParam->handleValPair.attrHandle;
 126              		.loc 1 388 0
 127 0016 01A9     		add	r1, sp, #4
 128 0018 1223     		mov	r3, #18
 129 001a 8B70     		strb	r3, [r1, #2]
 389:.\Generated_Source\PSoC4/BLE_eventHandler.c ****             err_param.errorCode = gattErr;
 130              		.loc 1 389 0
 131 001c A389     		ldrh	r3, [r4, #12]
 132 001e 0B80     		strh	r3, [r1]
 390:.\Generated_Source\PSoC4/BLE_eventHandler.c **** 
 133              		.loc 1 390 0
 134 0020 C870     		strb	r0, [r1, #3]
 393:.\Generated_Source\PSoC4/BLE_eventHandler.c ****         }
 135              		.loc 1 393 0
 136 0022 2068     		ldr	r0, [r4]
 137              	.LVL12:
 138 0024 FFF7FEFF 		bl	CyBle_GattsErrorRsp
 139              	.LVL13:
 140              	.LBE2:
 141 0028 02E0     		b	.L10
 142              	.LVL14:
 143              	.L12:
 397:.\Generated_Source\PSoC4/BLE_eventHandler.c ****         }
 144              		.loc 1 397 0
 145 002a 2068     		ldr	r0, [r4]
 146              	.LVL15:
 147 002c FFF7FEFF 		bl	CyBle_GattsWriteRsp
 148              	.LVL16:
 149              	.L10:
ARM GAS  C:\Users\ELECTR~1\AppData\Local\Temp\ccJM91Ce.s 			page 27


 400:.\Generated_Source\PSoC4/BLE_eventHandler.c **** 
 150              		.loc 1 400 0
 151 0030 02B0     		add	sp, sp, #8
 152              		@ sp needed
 153              	.LVL17:
 154 0032 10BD     		pop	{r4, pc}
 155              	.L14:
 156              		.align	2
 157              	.L13:
 158 0034 00000000 		.word	cyBle_eventHandlerFlag
 159              		.cfi_endproc
 160              	.LFE2:
 161              		.size	CyBle_WriteReqHandler, .-CyBle_WriteReqHandler
 162              		.section	.text.CyBle_EventHandler,"ax",%progbits
 163              		.align	2
 164              		.global	CyBle_EventHandler
 165              		.code	16
 166              		.thumb_func
 167              		.type	CyBle_EventHandler, %function
 168              	CyBle_EventHandler:
 169              	.LFB10:
1321:.\Generated_Source\PSoC4/BLE_eventHandler.c **** #endif /* CYBLE_GATT_ROLE_SERVER || CYBLE_GATT_ROLE_CLIENT */
1322:.\Generated_Source\PSoC4/BLE_eventHandler.c **** 
1323:.\Generated_Source\PSoC4/BLE_eventHandler.c **** 
1324:.\Generated_Source\PSoC4/BLE_eventHandler.c **** /****************************************************************************** 
1325:.\Generated_Source\PSoC4/BLE_eventHandler.c **** ##Function Name: CyBle_L2Cap_ConnParamUpdateRspHandler
1326:.\Generated_Source\PSoC4/BLE_eventHandler.c **** *******************************************************************************
1327:.\Generated_Source\PSoC4/BLE_eventHandler.c **** 
1328:.\Generated_Source\PSoC4/BLE_eventHandler.c **** Summary:
1329:.\Generated_Source\PSoC4/BLE_eventHandler.c ****  Handles the L2CAP connection parameter response event from
1330:.\Generated_Source\PSoC4/BLE_eventHandler.c ****  the BLE stack.
1331:.\Generated_Source\PSoC4/BLE_eventHandler.c **** 
1332:.\Generated_Source\PSoC4/BLE_eventHandler.c **** Parameters:
1333:.\Generated_Source\PSoC4/BLE_eventHandler.c ****  uint16 response:
1334:.\Generated_Source\PSoC4/BLE_eventHandler.c ****      * Accepted = 0x0000
1335:.\Generated_Source\PSoC4/BLE_eventHandler.c ****      * Rejected = 0x0001
1336:.\Generated_Source\PSoC4/BLE_eventHandler.c **** 
1337:.\Generated_Source\PSoC4/BLE_eventHandler.c **** Return:
1338:.\Generated_Source\PSoC4/BLE_eventHandler.c ****  None
1339:.\Generated_Source\PSoC4/BLE_eventHandler.c **** 
1340:.\Generated_Source\PSoC4/BLE_eventHandler.c **** ******************************************************************************/
1341:.\Generated_Source\PSoC4/BLE_eventHandler.c **** static void CyBle_L2Cap_ConnParamUpdateRspEventHandler(uint16 response)
1342:.\Generated_Source\PSoC4/BLE_eventHandler.c **** {
1343:.\Generated_Source\PSoC4/BLE_eventHandler.c ****     #ifdef CYBLE_CPS_SERVER
1344:.\Generated_Source\PSoC4/BLE_eventHandler.c ****         CyBle_CpssConnParamUpdateRspEventHandler(response);
1345:.\Generated_Source\PSoC4/BLE_eventHandler.c ****     #endif /* CYBLE_CPS_SERVER */
1346:.\Generated_Source\PSoC4/BLE_eventHandler.c ****     
1347:.\Generated_Source\PSoC4/BLE_eventHandler.c ****     /* Unreferenced variable warning workaround */
1348:.\Generated_Source\PSoC4/BLE_eventHandler.c ****     if(response != 0u)
1349:.\Generated_Source\PSoC4/BLE_eventHandler.c ****     {
1350:.\Generated_Source\PSoC4/BLE_eventHandler.c ****     }
1351:.\Generated_Source\PSoC4/BLE_eventHandler.c **** }
1352:.\Generated_Source\PSoC4/BLE_eventHandler.c **** 
1353:.\Generated_Source\PSoC4/BLE_eventHandler.c **** 
1354:.\Generated_Source\PSoC4/BLE_eventHandler.c **** /****************************************************************************** 
1355:.\Generated_Source\PSoC4/BLE_eventHandler.c **** ##Function Name: CyBle_GapConnUpdateCompleteEventHandler
1356:.\Generated_Source\PSoC4/BLE_eventHandler.c **** *******************************************************************************
ARM GAS  C:\Users\ELECTR~1\AppData\Local\Temp\ccJM91Ce.s 			page 28


1357:.\Generated_Source\PSoC4/BLE_eventHandler.c **** 
1358:.\Generated_Source\PSoC4/BLE_eventHandler.c **** Summary:
1359:.\Generated_Source\PSoC4/BLE_eventHandler.c ****  Handles the CYBLE_EVT_GAP_CONNECTION_UPDATE_COMPLETE event from
1360:.\Generated_Source\PSoC4/BLE_eventHandler.c ****  the BLE stack.
1361:.\Generated_Source\PSoC4/BLE_eventHandler.c **** 
1362:.\Generated_Source\PSoC4/BLE_eventHandler.c **** Parameters:
1363:.\Generated_Source\PSoC4/BLE_eventHandler.c ****  *eventParam: The pointer to the data structure specified by the event.
1364:.\Generated_Source\PSoC4/BLE_eventHandler.c **** 
1365:.\Generated_Source\PSoC4/BLE_eventHandler.c **** Return:
1366:.\Generated_Source\PSoC4/BLE_eventHandler.c ****  None
1367:.\Generated_Source\PSoC4/BLE_eventHandler.c **** 
1368:.\Generated_Source\PSoC4/BLE_eventHandler.c **** ******************************************************************************/
1369:.\Generated_Source\PSoC4/BLE_eventHandler.c **** static void CyBle_GapConnUpdateCompleteEventHandler(const CYBLE_GAP_CONN_PARAM_UPDATED_IN_CONTROLLE
1370:.\Generated_Source\PSoC4/BLE_eventHandler.c **** {
1371:.\Generated_Source\PSoC4/BLE_eventHandler.c ****     #ifdef CYBLE_CPS_SERVER
1372:.\Generated_Source\PSoC4/BLE_eventHandler.c ****         CyBle_CpssConnUpdateCompleteEventHandler(eventParam);
1373:.\Generated_Source\PSoC4/BLE_eventHandler.c ****     #endif /* CYBLE_CPS_SERVER */
1374:.\Generated_Source\PSoC4/BLE_eventHandler.c ****     
1375:.\Generated_Source\PSoC4/BLE_eventHandler.c ****     /* Unreferenced variable warning workaround */
1376:.\Generated_Source\PSoC4/BLE_eventHandler.c ****     if(eventParam != 0u)
1377:.\Generated_Source\PSoC4/BLE_eventHandler.c ****     {
1378:.\Generated_Source\PSoC4/BLE_eventHandler.c ****     }
1379:.\Generated_Source\PSoC4/BLE_eventHandler.c **** }
1380:.\Generated_Source\PSoC4/BLE_eventHandler.c **** 
1381:.\Generated_Source\PSoC4/BLE_eventHandler.c **** 
1382:.\Generated_Source\PSoC4/BLE_eventHandler.c **** /****************************************************************************** 
1383:.\Generated_Source\PSoC4/BLE_eventHandler.c **** ##Function Name: CyBle_EventHandler
1384:.\Generated_Source\PSoC4/BLE_eventHandler.c **** *******************************************************************************
1385:.\Generated_Source\PSoC4/BLE_eventHandler.c **** 
1386:.\Generated_Source\PSoC4/BLE_eventHandler.c **** Summary:
1387:.\Generated_Source\PSoC4/BLE_eventHandler.c ****  Handles the events from the BLE stack
1388:.\Generated_Source\PSoC4/BLE_eventHandler.c **** 
1389:.\Generated_Source\PSoC4/BLE_eventHandler.c **** Parameters:
1390:.\Generated_Source\PSoC4/BLE_eventHandler.c ****  eventCode:    the event code
1391:.\Generated_Source\PSoC4/BLE_eventHandler.c ****  *eventParam:  the event parameters
1392:.\Generated_Source\PSoC4/BLE_eventHandler.c **** 
1393:.\Generated_Source\PSoC4/BLE_eventHandler.c **** Return:
1394:.\Generated_Source\PSoC4/BLE_eventHandler.c ****  None.
1395:.\Generated_Source\PSoC4/BLE_eventHandler.c **** 
1396:.\Generated_Source\PSoC4/BLE_eventHandler.c **** ******************************************************************************/
1397:.\Generated_Source\PSoC4/BLE_eventHandler.c **** void CyBle_EventHandler(uint8 eventCode, void *eventParam)
1398:.\Generated_Source\PSoC4/BLE_eventHandler.c **** {
 170              		.loc 1 1398 0
 171              		.cfi_startproc
 172              	.LVL18:
 173 0000 F0B5     		push	{r4, r5, r6, r7, lr}
 174              		.cfi_def_cfa_offset 20
 175              		.cfi_offset 4, -20
 176              		.cfi_offset 5, -16
 177              		.cfi_offset 6, -12
 178              		.cfi_offset 7, -8
 179              		.cfi_offset 14, -4
 180 0002 83B0     		sub	sp, sp, #12
 181              		.cfi_def_cfa_offset 32
 182 0004 041C     		mov	r4, r0
 183 0006 0D1C     		mov	r5, r1
1399:.\Generated_Source\PSoC4/BLE_eventHandler.c ****     cyBle_eventHandlerFlag |= CYBLE_CALLBACK;
ARM GAS  C:\Users\ELECTR~1\AppData\Local\Temp\ccJM91Ce.s 			page 29


 184              		.loc 1 1399 0
 185 0008 744A     		ldr	r2, .L38
 186 000a 1178     		ldrb	r1, [r2]
 187              	.LVL19:
 188 000c 0123     		mov	r3, #1
 189 000e 0B43     		orr	r3, r1
 190 0010 1370     		strb	r3, [r2]
1400:.\Generated_Source\PSoC4/BLE_eventHandler.c **** 
1401:.\Generated_Source\PSoC4/BLE_eventHandler.c ****     /* Common Profile event handling */
1402:.\Generated_Source\PSoC4/BLE_eventHandler.c ****     switch(eventCode)
 191              		.loc 1 1402 0
 192 0012 2828     		cmp	r0, #40
 193 0014 76D0     		beq	.L17
 194 0016 0CD8     		bhi	.L18
 195 0018 2128     		cmp	r0, #33
 196 001a 5ED0     		beq	.L19
 197 001c 04D8     		bhi	.L20
 198 001e 0128     		cmp	r0, #1
 199 0020 19D0     		beq	.L21
 200 0022 0528     		cmp	r0, #5
 201 0024 55D0     		beq	.L22
 202 0026 C8E0     		b	.L16
 203              	.L20:
 204 0028 2628     		cmp	r0, #38
 205 002a 6FD0     		beq	.L23
 206 002c 2728     		cmp	r0, #39
 207 002e 65D0     		beq	.L24
 208 0030 C3E0     		b	.L16
 209              	.L18:
 210 0032 4328     		cmp	r0, #67
 211 0034 00D1     		bne	.LCB193
 212 0036 AFE0     		b	.L25	@long jump
 213              	.LCB193:
 214 0038 06D8     		bhi	.L26
 215 003a 4128     		cmp	r0, #65
 216 003c 00D1     		bne	.LCB197
 217 003e 99E0     		b	.L27	@long jump
 218              	.LCB197:
 219 0040 4228     		cmp	r0, #66
 220 0042 00D1     		bne	.LCB199
 221 0044 A5E0     		b	.L28	@long jump
 222              	.LCB199:
 223 0046 B8E0     		b	.L16
 224              	.L26:
 225 0048 4C28     		cmp	r0, #76
 226 004a 00D1     		bne	.LCB205
 227 004c ACE0     		b	.L29	@long jump
 228              	.LCB205:
 229 004e FA28     		cmp	r0, #250
 230 0050 00D1     		bne	.LCB207
 231 0052 ADE0     		b	.L30	@long jump
 232              	.LCB207:
 233 0054 B1E0     		b	.L16
 234              	.L21:
 235              	.LBB3:
1403:.\Generated_Source\PSoC4/BLE_eventHandler.c ****     {
1404:.\Generated_Source\PSoC4/BLE_eventHandler.c ****         /**********************************************************
ARM GAS  C:\Users\ELECTR~1\AppData\Local\Temp\ccJM91Ce.s 			page 30


1405:.\Generated_Source\PSoC4/BLE_eventHandler.c ****         ##General events
1406:.\Generated_Source\PSoC4/BLE_eventHandler.c ****         ***********************************************************/
1407:.\Generated_Source\PSoC4/BLE_eventHandler.c ****         case CYBLE_EVT_STACK_ON:
1408:.\Generated_Source\PSoC4/BLE_eventHandler.c ****         #if(CYBLE_MODE_PROFILE)
1409:.\Generated_Source\PSoC4/BLE_eventHandler.c ****         {
1410:.\Generated_Source\PSoC4/BLE_eventHandler.c ****             CYBLE_BLESS_PWR_IN_DB_T bleSsPowerLevel;
1411:.\Generated_Source\PSoC4/BLE_eventHandler.c ****             
1412:.\Generated_Source\PSoC4/BLE_eventHandler.c ****             /* Set Tx Power Level for advertising and connection channels */
1413:.\Generated_Source\PSoC4/BLE_eventHandler.c ****             bleSsPowerLevel.blePwrLevelInDbm = CYBLE_TX_POWER_LEVEL_ADV;
 236              		.loc 1 1413 0
 237 0056 01AE     		add	r6, sp, #4
 238 0058 0727     		mov	r7, #7
 239 005a 3770     		strb	r7, [r6]
1414:.\Generated_Source\PSoC4/BLE_eventHandler.c ****             bleSsPowerLevel.bleSsChId = CYBLE_LL_ADV_CH_TYPE;
 240              		.loc 1 1414 0
 241 005c 0023     		mov	r3, #0
 242 005e 7370     		strb	r3, [r6, #1]
1415:.\Generated_Source\PSoC4/BLE_eventHandler.c ****             (void) CyBle_SetTxPowerLevel (&bleSsPowerLevel);
 243              		.loc 1 1415 0
 244 0060 301C     		mov	r0, r6
 245              	.LVL20:
 246 0062 FFF7FEFF 		bl	CyBle_SetTxPowerLevel
 247              	.LVL21:
1416:.\Generated_Source\PSoC4/BLE_eventHandler.c ****             bleSsPowerLevel.blePwrLevelInDbm = CYBLE_TX_POWER_LEVEL_CONN;
 248              		.loc 1 1416 0
 249 0066 3770     		strb	r7, [r6]
1417:.\Generated_Source\PSoC4/BLE_eventHandler.c ****             bleSsPowerLevel.bleSsChId = CYBLE_LL_CONN_CH_TYPE;
 250              		.loc 1 1417 0
 251 0068 0123     		mov	r3, #1
 252 006a 7370     		strb	r3, [r6, #1]
1418:.\Generated_Source\PSoC4/BLE_eventHandler.c ****             (void) CyBle_SetTxPowerLevel (&bleSsPowerLevel);
 253              		.loc 1 1418 0
 254 006c 301C     		mov	r0, r6
 255 006e FFF7FEFF 		bl	CyBle_SetTxPowerLevel
 256              	.LVL22:
 257              	.LBE3:
1419:.\Generated_Source\PSoC4/BLE_eventHandler.c ****         }
1420:.\Generated_Source\PSoC4/BLE_eventHandler.c ****         #endif /* CYBLE_MODE_PROFILE */
1421:.\Generated_Source\PSoC4/BLE_eventHandler.c ****         #if (CYBLE_GATT_ROLE_SERVER || CYBLE_GATT_ROLE_CLIENT)
1422:.\Generated_Source\PSoC4/BLE_eventHandler.c ****             /* Set device Address  */
1423:.\Generated_Source\PSoC4/BLE_eventHandler.c ****             if(CyBle_IsDeviceAddressValid(cyBle_sflashDeviceAddress) != 0u)
 258              		.loc 1 1423 0
 259 0072 5B4B     		ldr	r3, .L38+4
 260 0074 1E68     		ldr	r6, [r3]
 261 0076 301C     		mov	r0, r6
 262 0078 FFF7FEFF 		bl	CyBle_IsDeviceAddressValid
 263              	.LVL23:
 264 007c 0028     		cmp	r0, #0
 265 007e 0CD0     		beq	.L31
1424:.\Generated_Source\PSoC4/BLE_eventHandler.c ****             {
1425:.\Generated_Source\PSoC4/BLE_eventHandler.c ****                 (void) CyBle_SetDeviceAddress(cyBle_sflashDeviceAddress);
 266              		.loc 1 1425 0
 267 0080 301C     		mov	r0, r6
 268 0082 FFF7FEFF 		bl	CyBle_SetDeviceAddress
 269              	.LVL24:
1426:.\Generated_Source\PSoC4/BLE_eventHandler.c ****                 #if(CYBLE_GAP_ROLE_PERIPHERAL || CYBLE_GAP_ROLE_BROADCASTER)
1427:.\Generated_Source\PSoC4/BLE_eventHandler.c ****                     CyBle_ChangeAdDeviceAddress(cyBle_sflashDeviceAddress, 0u);
ARM GAS  C:\Users\ELECTR~1\AppData\Local\Temp\ccJM91Ce.s 			page 31


 270              		.loc 1 1427 0
 271 0086 564E     		ldr	r6, .L38+4
 272 0088 3068     		ldr	r0, [r6]
 273 008a 0021     		mov	r1, #0
 274 008c FFF7FEFF 		bl	CyBle_ChangeAdDeviceAddress
 275              	.LVL25:
1428:.\Generated_Source\PSoC4/BLE_eventHandler.c ****                     CyBle_ChangeAdDeviceAddress(cyBle_sflashDeviceAddress, 1u);
 276              		.loc 1 1428 0
 277 0090 3068     		ldr	r0, [r6]
 278 0092 0121     		mov	r1, #1
 279 0094 FFF7FEFF 		bl	CyBle_ChangeAdDeviceAddress
 280              	.LVL26:
 281 0098 14E0     		b	.L32
 282              	.L31:
1429:.\Generated_Source\PSoC4/BLE_eventHandler.c ****                 #endif /* CYBLE_GAP_ROLE_PERIPHERAL || CYBLE_GAP_ROLE_BROADCASTER */    
1430:.\Generated_Source\PSoC4/BLE_eventHandler.c ****             }
1431:.\Generated_Source\PSoC4/BLE_eventHandler.c ****             else
1432:.\Generated_Source\PSoC4/BLE_eventHandler.c ****             {
1433:.\Generated_Source\PSoC4/BLE_eventHandler.c ****             #if (SILICON_GENERATED_DEVICE_ADDRESS != 0u)
1434:.\Generated_Source\PSoC4/BLE_eventHandler.c ****                 cyBle_deviceAddress.bdAddr[0] = CYBLE_SFLASH_DIE_X_REG;
 283              		.loc 1 1434 0
 284 009a 524B     		ldr	r3, .L38+8
 285 009c 1B78     		ldrb	r3, [r3]
 286 009e 524E     		ldr	r6, .L38+12
 287 00a0 3370     		strb	r3, [r6]
1435:.\Generated_Source\PSoC4/BLE_eventHandler.c ****                 cyBle_deviceAddress.bdAddr[1] = CYBLE_SFLASH_DIE_Y_REG;
 288              		.loc 1 1435 0
 289 00a2 524B     		ldr	r3, .L38+16
 290 00a4 1B78     		ldrb	r3, [r3]
 291 00a6 7370     		strb	r3, [r6, #1]
1436:.\Generated_Source\PSoC4/BLE_eventHandler.c ****                 cyBle_deviceAddress.bdAddr[2] = CYBLE_SFLASH_DIE_WAFER_REG;
 292              		.loc 1 1436 0
 293 00a8 514B     		ldr	r3, .L38+20
 294 00aa 1B78     		ldrb	r3, [r3]
 295 00ac B370     		strb	r3, [r6, #2]
1437:.\Generated_Source\PSoC4/BLE_eventHandler.c ****             #endif /* SILICON_GENERATED_DEVICE_ADDRESS != 0u */
1438:.\Generated_Source\PSoC4/BLE_eventHandler.c ****                 (void) CyBle_SetDeviceAddress(&cyBle_deviceAddress);
 296              		.loc 1 1438 0
 297 00ae 301C     		mov	r0, r6
 298 00b0 FFF7FEFF 		bl	CyBle_SetDeviceAddress
 299              	.LVL27:
1439:.\Generated_Source\PSoC4/BLE_eventHandler.c ****                 #if(CYBLE_GAP_ROLE_PERIPHERAL || CYBLE_GAP_ROLE_BROADCASTER)
1440:.\Generated_Source\PSoC4/BLE_eventHandler.c ****                     CyBle_ChangeAdDeviceAddress(&cyBle_deviceAddress, 0u);
 300              		.loc 1 1440 0
 301 00b4 301C     		mov	r0, r6
 302 00b6 0021     		mov	r1, #0
 303 00b8 FFF7FEFF 		bl	CyBle_ChangeAdDeviceAddress
 304              	.LVL28:
1441:.\Generated_Source\PSoC4/BLE_eventHandler.c ****                     CyBle_ChangeAdDeviceAddress(&cyBle_deviceAddress, 1u);
 305              		.loc 1 1441 0
 306 00bc 301C     		mov	r0, r6
 307 00be 0121     		mov	r1, #1
 308 00c0 FFF7FEFF 		bl	CyBle_ChangeAdDeviceAddress
 309              	.LVL29:
 310              	.L32:
1442:.\Generated_Source\PSoC4/BLE_eventHandler.c ****                 #endif /* CYBLE_GAP_ROLE_PERIPHERAL || CYBLE_GAP_ROLE_BROADCASTER */    
1443:.\Generated_Source\PSoC4/BLE_eventHandler.c ****             }
ARM GAS  C:\Users\ELECTR~1\AppData\Local\Temp\ccJM91Ce.s 			page 32


1444:.\Generated_Source\PSoC4/BLE_eventHandler.c ****             /* Set device IO Capability  */
1445:.\Generated_Source\PSoC4/BLE_eventHandler.c ****             (void) CyBle_GapSetIoCap(CYBLE_IO_CAPABILITY);    
 311              		.loc 1 1445 0
 312 00c4 0020     		mov	r0, #0
 313 00c6 FFF7FEFF 		bl	CyBle_GapSetIoCap
 314              	.LVL30:
1446:.\Generated_Source\PSoC4/BLE_eventHandler.c ****         #endif /* CYBLE_GATT_ROLE_SERVER || CYBLE_GATT_ROLE_CLIENT */
1447:.\Generated_Source\PSoC4/BLE_eventHandler.c ****             CyBle_SetState(CYBLE_STATE_DISCONNECTED);
 315              		.loc 1 1447 0
 316 00ca 0422     		mov	r2, #4
 317 00cc 494B     		ldr	r3, .L38+24
 318 00ce 1A70     		strb	r2, [r3]
1448:.\Generated_Source\PSoC4/BLE_eventHandler.c ****             break;
 319              		.loc 1 1448 0
 320 00d0 73E0     		b	.L16
 321              	.LVL31:
 322              	.L22:
1449:.\Generated_Source\PSoC4/BLE_eventHandler.c ****         case CYBLE_EVT_TIMEOUT:
1450:.\Generated_Source\PSoC4/BLE_eventHandler.c ****             CyBle_TimeOutEventHandler((CYBLE_TO_REASON_CODE_T *)eventParam);
1451:.\Generated_Source\PSoC4/BLE_eventHandler.c ****             break;
1452:.\Generated_Source\PSoC4/BLE_eventHandler.c ****     	case CYBLE_EVT_STACK_BUSY_STATUS:
1453:.\Generated_Source\PSoC4/BLE_eventHandler.c ****             cyBle_busyStatus = *(uint8 *)eventParam;
 323              		.loc 1 1453 0
 324 00d2 2A78     		ldrb	r2, [r5]
 325 00d4 484B     		ldr	r3, .L38+28
 326 00d6 1A70     		strb	r2, [r3]
1454:.\Generated_Source\PSoC4/BLE_eventHandler.c ****             break;
 327              		.loc 1 1454 0
 328 00d8 6FE0     		b	.L16
 329              	.L19:
1455:.\Generated_Source\PSoC4/BLE_eventHandler.c **** 
1456:.\Generated_Source\PSoC4/BLE_eventHandler.c ****         /**********************************************************
1457:.\Generated_Source\PSoC4/BLE_eventHandler.c ****         ##GAP events
1458:.\Generated_Source\PSoC4/BLE_eventHandler.c ****         ***********************************************************/
1459:.\Generated_Source\PSoC4/BLE_eventHandler.c ****         case CYBLE_EVT_GAP_AUTH_REQ:
1460:.\Generated_Source\PSoC4/BLE_eventHandler.c ****         #if(CYBLE_MODE_PROFILE)
1461:.\Generated_Source\PSoC4/BLE_eventHandler.c ****             if(0u == (cyBle_eventHandlerFlag & CYBLE_DISABLE_AUTOMATIC_AUTH))
 330              		.loc 1 1461 0
 331 00da 404B     		ldr	r3, .L38
 332 00dc 1B78     		ldrb	r3, [r3]
 333 00de 9B06     		lsl	r3, r3, #26
 334 00e0 6BD4     		bmi	.L16
1462:.\Generated_Source\PSoC4/BLE_eventHandler.c ****             {
1463:.\Generated_Source\PSoC4/BLE_eventHandler.c ****                 /* If the responding device does not support pairing then the responding 
1464:.\Generated_Source\PSoC4/BLE_eventHandler.c ****                    device shall respond using the Pairing Failed message with the error 
1465:.\Generated_Source\PSoC4/BLE_eventHandler.c ****                    code "Pairing Not Supported" otherwise it responds with a Pairing 
1466:.\Generated_Source\PSoC4/BLE_eventHandler.c ****                    Response message.
1467:.\Generated_Source\PSoC4/BLE_eventHandler.c ****                 */
1468:.\Generated_Source\PSoC4/BLE_eventHandler.c ****                 if(cyBle_authInfo.security == (CYBLE_GAP_SEC_MODE_1 | CYBLE_GAP_SEC_LEVEL_1))
 335              		.loc 1 1468 0
 336 00e2 464B     		ldr	r3, .L38+32
 337 00e4 1B78     		ldrb	r3, [r3]
 338 00e6 102B     		cmp	r3, #16
 339 00e8 02D1     		bne	.L33
1469:.\Generated_Source\PSoC4/BLE_eventHandler.c ****                 {
1470:.\Generated_Source\PSoC4/BLE_eventHandler.c ****                     cyBle_authInfo.authErr = CYBLE_GAP_AUTH_ERROR_PAIRING_NOT_SUPPORTED;
 340              		.loc 1 1470 0
ARM GAS  C:\Users\ELECTR~1\AppData\Local\Temp\ccJM91Ce.s 			page 33


 341 00ea 0522     		mov	r2, #5
 342 00ec 434B     		ldr	r3, .L38+32
 343 00ee DA70     		strb	r2, [r3, #3]
 344              	.L33:
1471:.\Generated_Source\PSoC4/BLE_eventHandler.c ****                 }    
1472:.\Generated_Source\PSoC4/BLE_eventHandler.c ****             #if(CYBLE_GAP_ROLE_PERIPHERAL)
1473:.\Generated_Source\PSoC4/BLE_eventHandler.c ****                 (void)CyBle_GappAuthReqReply(cyBle_connHandle.bdHandle, &cyBle_authInfo);
 345              		.loc 1 1473 0
 346 00f0 434B     		ldr	r3, .L38+36
 347 00f2 1878     		ldrb	r0, [r3]
 348              	.LVL32:
 349 00f4 4149     		ldr	r1, .L38+32
 350 00f6 FFF7FEFF 		bl	CyBle_GappAuthReqReply
 351              	.LVL33:
 352 00fa 5EE0     		b	.L16
 353              	.LVL34:
 354              	.L24:
1474:.\Generated_Source\PSoC4/BLE_eventHandler.c ****             #endif /* CYBLE_GAP_ROLE_PERIPHERAL */
1475:.\Generated_Source\PSoC4/BLE_eventHandler.c ****             #if (CYBLE_GAP_ROLE_CENTRAL)
1476:.\Generated_Source\PSoC4/BLE_eventHandler.c ****                 (void)CyBle_GapAuthReq(cyBle_connHandle.bdHandle, &cyBle_authInfo);
1477:.\Generated_Source\PSoC4/BLE_eventHandler.c ****             #endif /* CYBLE_GAP_ROLE_CENTRAL */
1478:.\Generated_Source\PSoC4/BLE_eventHandler.c ****             }
1479:.\Generated_Source\PSoC4/BLE_eventHandler.c ****         #endif /* CYBLE_MODE_PROFILE */
1480:.\Generated_Source\PSoC4/BLE_eventHandler.c ****             break;
1481:.\Generated_Source\PSoC4/BLE_eventHandler.c **** 
1482:.\Generated_Source\PSoC4/BLE_eventHandler.c ****         case CYBLE_EVT_GAP_CONNECTION_UPDATE_COMPLETE:
1483:.\Generated_Source\PSoC4/BLE_eventHandler.c ****             CyBle_GapConnUpdateCompleteEventHandler((const CYBLE_GAP_CONN_PARAM_UPDATED_IN_CONTROLL
1484:.\Generated_Source\PSoC4/BLE_eventHandler.c ****             break;
1485:.\Generated_Source\PSoC4/BLE_eventHandler.c ****             
1486:.\Generated_Source\PSoC4/BLE_eventHandler.c ****         case CYBLE_EVT_GAP_DEVICE_CONNECTED:
1487:.\Generated_Source\PSoC4/BLE_eventHandler.c ****             CyBle_GapConnUpdateCompleteEventHandler((const CYBLE_GAP_CONN_PARAM_UPDATED_IN_CONTROLL
1488:.\Generated_Source\PSoC4/BLE_eventHandler.c ****             #if(CYBLE_GAP_ROLE_CENTRAL)
1489:.\Generated_Source\PSoC4/BLE_eventHandler.c ****                 if(cyBle_connectingTimeout != 0u)
1490:.\Generated_Source\PSoC4/BLE_eventHandler.c ****                 {
1491:.\Generated_Source\PSoC4/BLE_eventHandler.c ****                    (void)CyBle_StopTimer();
1492:.\Generated_Source\PSoC4/BLE_eventHandler.c ****                 }
1493:.\Generated_Source\PSoC4/BLE_eventHandler.c ****             #endif /* CYBLE_GAP_ROLE_CENTRAL */
1494:.\Generated_Source\PSoC4/BLE_eventHandler.c ****             CyBle_SetState(CYBLE_STATE_CONNECTED);
 355              		.loc 1 1494 0
 356 00fc 0222     		mov	r2, #2
 357 00fe 3D4B     		ldr	r3, .L38+24
 358 0100 1A70     		strb	r2, [r3]
1495:.\Generated_Source\PSoC4/BLE_eventHandler.c ****             break;
 359              		.loc 1 1495 0
 360 0102 5AE0     		b	.L16
 361              	.L17:
1496:.\Generated_Source\PSoC4/BLE_eventHandler.c **** 
1497:.\Generated_Source\PSoC4/BLE_eventHandler.c ****         case CYBLE_EVT_GAP_DEVICE_DISCONNECTED:
1498:.\Generated_Source\PSoC4/BLE_eventHandler.c ****             CyBle_SetState(CYBLE_STATE_DISCONNECTED);
 362              		.loc 1 1498 0
 363 0104 0422     		mov	r2, #4
 364 0106 3B4B     		ldr	r3, .L38+24
 365 0108 1A70     		strb	r2, [r3]
1499:.\Generated_Source\PSoC4/BLE_eventHandler.c ****             break;
 366              		.loc 1 1499 0
 367 010a 56E0     		b	.L16
 368              	.L23:
ARM GAS  C:\Users\ELECTR~1\AppData\Local\Temp\ccJM91Ce.s 			page 34


1500:.\Generated_Source\PSoC4/BLE_eventHandler.c ****         #if(CYBLE_GAP_ROLE_PERIPHERAL || CYBLE_GAP_ROLE_BROADCASTER)
1501:.\Generated_Source\PSoC4/BLE_eventHandler.c ****             
1502:.\Generated_Source\PSoC4/BLE_eventHandler.c ****         case CYBLE_EVT_GAPP_ADVERTISEMENT_START_STOP:
1503:.\Generated_Source\PSoC4/BLE_eventHandler.c ****             #ifdef CYBLE_CPS_SERVER
1504:.\Generated_Source\PSoC4/BLE_eventHandler.c ****                 #if(CYBLE_GAP_ROLE_BROADCASTER)
1505:.\Generated_Source\PSoC4/BLE_eventHandler.c ****                     CyBle_CpssAdvertisementStartStopEventHandler();
1506:.\Generated_Source\PSoC4/BLE_eventHandler.c ****                 #endif /* CYBLE_GAP_ROLE_BROADCASTER */
1507:.\Generated_Source\PSoC4/BLE_eventHandler.c ****             #endif /* CYBLE_CPS_SERVER */
1508:.\Generated_Source\PSoC4/BLE_eventHandler.c ****             
1509:.\Generated_Source\PSoC4/BLE_eventHandler.c ****             if((CYBLE_STATE_CONNECTED != CyBle_GetState()) && ((cyBle_eventHandlerFlag & CYBLE_CALL
 369              		.loc 1 1509 0
 370 010c 394B     		ldr	r3, .L38+24
 371 010e 1B78     		ldrb	r3, [r3]
 372 0110 022B     		cmp	r3, #2
 373 0112 52D0     		beq	.L16
 374              		.loc 1 1509 0 is_stmt 0 discriminator 1
 375 0114 314A     		ldr	r2, .L38
 376 0116 1278     		ldrb	r2, [r2]
 377 0118 D207     		lsl	r2, r2, #31
 378 011a 4ED5     		bpl	.L16
1510:.\Generated_Source\PSoC4/BLE_eventHandler.c ****             {
1511:.\Generated_Source\PSoC4/BLE_eventHandler.c ****                 /* After CyBle_GappStartAdvertisement first event indicates that advertising has be
1512:.\Generated_Source\PSoC4/BLE_eventHandler.c ****                 if(0u != (cyBle_eventHandlerFlag & CYBLE_START_FLAG))
 379              		.loc 1 1512 0 is_stmt 1
 380 011c 2F4A     		ldr	r2, .L38
 381 011e 1278     		ldrb	r2, [r2]
 382 0120 5207     		lsl	r2, r2, #29
 383 0122 08D5     		bpl	.L34
1513:.\Generated_Source\PSoC4/BLE_eventHandler.c ****                 {
1514:.\Generated_Source\PSoC4/BLE_eventHandler.c ****                     CyBle_SetState(CYBLE_STATE_ADVERTISING);
 384              		.loc 1 1514 0
 385 0124 0322     		mov	r2, #3
 386 0126 334B     		ldr	r3, .L38+24
 387 0128 1A70     		strb	r2, [r3]
1515:.\Generated_Source\PSoC4/BLE_eventHandler.c ****                     cyBle_eventHandlerFlag &= (uint8)~CYBLE_START_FLAG;
 388              		.loc 1 1515 0
 389 012a 2C4A     		ldr	r2, .L38
 390 012c 1378     		ldrb	r3, [r2]
 391 012e 0421     		mov	r1, #4
 392 0130 8B43     		bic	r3, r1
 393 0132 1370     		strb	r3, [r2]
 394 0134 41E0     		b	.L16
 395              	.L34:
1516:.\Generated_Source\PSoC4/BLE_eventHandler.c ****                 }
1517:.\Generated_Source\PSoC4/BLE_eventHandler.c ****                 /* When application initiated stop advertisement */
1518:.\Generated_Source\PSoC4/BLE_eventHandler.c ****                 else if(0u != (cyBle_eventHandlerFlag & CYBLE_STOP_FLAG))
 396              		.loc 1 1518 0
 397 0136 294A     		ldr	r2, .L38
 398 0138 1278     		ldrb	r2, [r2]
 399 013a 1207     		lsl	r2, r2, #28
 400 013c 08D5     		bpl	.L35
1519:.\Generated_Source\PSoC4/BLE_eventHandler.c ****                 {
1520:.\Generated_Source\PSoC4/BLE_eventHandler.c ****                     CyBle_SetState(CYBLE_STATE_DISCONNECTED);  
 401              		.loc 1 1520 0
 402 013e 0422     		mov	r2, #4
 403 0140 2C4B     		ldr	r3, .L38+24
 404 0142 1A70     		strb	r2, [r3]
ARM GAS  C:\Users\ELECTR~1\AppData\Local\Temp\ccJM91Ce.s 			page 35


1521:.\Generated_Source\PSoC4/BLE_eventHandler.c ****                     cyBle_eventHandlerFlag &= (uint8)~CYBLE_STOP_FLAG;
 405              		.loc 1 1521 0
 406 0144 254A     		ldr	r2, .L38
 407 0146 1378     		ldrb	r3, [r2]
 408 0148 0821     		mov	r1, #8
 409 014a 8B43     		bic	r3, r1
 410 014c 1370     		strb	r3, [r2]
 411 014e 34E0     		b	.L16
 412              	.L35:
1522:.\Generated_Source\PSoC4/BLE_eventHandler.c ****                 }
1523:.\Generated_Source\PSoC4/BLE_eventHandler.c ****                 else /* Following event indicates that advertising has been stopped */
1524:.\Generated_Source\PSoC4/BLE_eventHandler.c ****                 {
1525:.\Generated_Source\PSoC4/BLE_eventHandler.c ****                     if(CYBLE_STATE_ADVERTISING == CyBle_GetState())
 413              		.loc 1 1525 0
 414 0150 032B     		cmp	r3, #3
 415 0152 32D1     		bne	.L16
1526:.\Generated_Source\PSoC4/BLE_eventHandler.c ****                     {
1527:.\Generated_Source\PSoC4/BLE_eventHandler.c ****                         CyBle_SetState(CYBLE_STATE_DISCONNECTED);
 416              		.loc 1 1527 0
 417 0154 0422     		mov	r2, #4
 418 0156 274B     		ldr	r3, .L38+24
 419 0158 1A70     		strb	r2, [r3]
1528:.\Generated_Source\PSoC4/BLE_eventHandler.c ****                     #if ((CYBLE_SLOW_ADV_ENABLED != 0u) && (CYBLE_FAST_ADV_TIMEOUT != 0u))
1529:.\Generated_Source\PSoC4/BLE_eventHandler.c ****                         if(cyBle_advertisingIntervalType == CYBLE_ADVERTISING_FAST)
 420              		.loc 1 1529 0
 421 015a 2A4B     		ldr	r3, .L38+40
 422 015c 1B78     		ldrb	r3, [r3]
 423 015e 002B     		cmp	r3, #0
 424 0160 2BD1     		bne	.L16
1530:.\Generated_Source\PSoC4/BLE_eventHandler.c ****                         {
1531:.\Generated_Source\PSoC4/BLE_eventHandler.c ****                             /* When fast advertising time out occur: Start slow advertising */
1532:.\Generated_Source\PSoC4/BLE_eventHandler.c ****                             if(CYBLE_ERROR_OK == CyBle_GappStartAdvertisement(CYBLE_ADVERTISING_SLO
 425              		.loc 1 1532 0
 426 0162 0120     		mov	r0, #1
 427              	.LVL35:
 428 0164 FFF7FEFF 		bl	CyBle_GappStartAdvertisement
 429              	.LVL36:
 430 0168 0028     		cmp	r0, #0
 431 016a 26D1     		bne	.L16
1533:.\Generated_Source\PSoC4/BLE_eventHandler.c ****                             {
1534:.\Generated_Source\PSoC4/BLE_eventHandler.c ****                                 CyBle_SetState(CYBLE_STATE_ADVERTISING);
 432              		.loc 1 1534 0
 433 016c 0322     		mov	r2, #3
 434 016e 214B     		ldr	r3, .L38+24
 435 0170 1A70     		strb	r2, [r3]
 436 0172 22E0     		b	.L16
 437              	.LVL37:
 438              	.L27:
1535:.\Generated_Source\PSoC4/BLE_eventHandler.c ****                             }
1536:.\Generated_Source\PSoC4/BLE_eventHandler.c ****                         }
1537:.\Generated_Source\PSoC4/BLE_eventHandler.c ****                     #endif /* CYBLE_SLOW_ADV_ENABLED */
1538:.\Generated_Source\PSoC4/BLE_eventHandler.c ****                     }
1539:.\Generated_Source\PSoC4/BLE_eventHandler.c ****                 }
1540:.\Generated_Source\PSoC4/BLE_eventHandler.c ****             }
1541:.\Generated_Source\PSoC4/BLE_eventHandler.c ****             break;
1542:.\Generated_Source\PSoC4/BLE_eventHandler.c ****         #endif /* CYBLE_GAP_ROLE_PERIPHERAL || CYBLE_GAP_ROLE_BROADCASTER */
1543:.\Generated_Source\PSoC4/BLE_eventHandler.c ****         
ARM GAS  C:\Users\ELECTR~1\AppData\Local\Temp\ccJM91Ce.s 			page 36


1544:.\Generated_Source\PSoC4/BLE_eventHandler.c ****         #if(CYBLE_GAP_ROLE_CENTRAL || CYBLE_GAP_ROLE_OBSERVER)    
1545:.\Generated_Source\PSoC4/BLE_eventHandler.c ****         case CYBLE_EVT_GAPC_SCAN_START_STOP:
1546:.\Generated_Source\PSoC4/BLE_eventHandler.c ****             #ifdef CYBLE_CPS_CLIENT
1547:.\Generated_Source\PSoC4/BLE_eventHandler.c ****                 CyBle_CpscScanStartStopEventHandler();
1548:.\Generated_Source\PSoC4/BLE_eventHandler.c ****             #endif /* CYBLE_CPS_CLIENT */
1549:.\Generated_Source\PSoC4/BLE_eventHandler.c ****             
1550:.\Generated_Source\PSoC4/BLE_eventHandler.c ****             if((CYBLE_STATE_CONNECTED != CyBle_GetState()) && ((cyBle_eventHandlerFlag & CYBLE_CALL
1551:.\Generated_Source\PSoC4/BLE_eventHandler.c ****             {
1552:.\Generated_Source\PSoC4/BLE_eventHandler.c ****                 /* After CyBle_GapcStartScan first event indicates that scanning has been started *
1553:.\Generated_Source\PSoC4/BLE_eventHandler.c ****                 if(0u != (cyBle_eventHandlerFlag & CYBLE_START_FLAG))
1554:.\Generated_Source\PSoC4/BLE_eventHandler.c ****                 {
1555:.\Generated_Source\PSoC4/BLE_eventHandler.c ****                     CyBle_SetState(CYBLE_STATE_SCANNING);
1556:.\Generated_Source\PSoC4/BLE_eventHandler.c ****                     cyBle_eventHandlerFlag &= (uint8)~CYBLE_START_FLAG;
1557:.\Generated_Source\PSoC4/BLE_eventHandler.c ****                 }
1558:.\Generated_Source\PSoC4/BLE_eventHandler.c ****                 /* When application initiated stop scanning */
1559:.\Generated_Source\PSoC4/BLE_eventHandler.c ****                 else if(0u != (cyBle_eventHandlerFlag & CYBLE_STOP_FLAG))
1560:.\Generated_Source\PSoC4/BLE_eventHandler.c ****                 {
1561:.\Generated_Source\PSoC4/BLE_eventHandler.c ****                     CyBle_SetState(CYBLE_STATE_DISCONNECTED);  
1562:.\Generated_Source\PSoC4/BLE_eventHandler.c ****                     cyBle_eventHandlerFlag &= (uint8)~CYBLE_STOP_FLAG;
1563:.\Generated_Source\PSoC4/BLE_eventHandler.c ****                 }
1564:.\Generated_Source\PSoC4/BLE_eventHandler.c ****                 else /* Following event indicates that scanning has been stopped by stack */
1565:.\Generated_Source\PSoC4/BLE_eventHandler.c ****                 {
1566:.\Generated_Source\PSoC4/BLE_eventHandler.c ****                     if(CYBLE_STATE_SCANNING == CyBle_GetState())
1567:.\Generated_Source\PSoC4/BLE_eventHandler.c ****                     {
1568:.\Generated_Source\PSoC4/BLE_eventHandler.c ****                         CyBle_SetState(CYBLE_STATE_DISCONNECTED);  
1569:.\Generated_Source\PSoC4/BLE_eventHandler.c ****                     #if ((CYBLE_SLOW_SCAN_ENABLED != 0u) && (CYBLE_FAST_SCAN_TIMEOUT != 0u))
1570:.\Generated_Source\PSoC4/BLE_eventHandler.c ****                         if(cyBle_scanningIntervalType == CYBLE_SCANNING_FAST)
1571:.\Generated_Source\PSoC4/BLE_eventHandler.c ****                         {
1572:.\Generated_Source\PSoC4/BLE_eventHandler.c ****                             /* When fast scanning time out occur: Start slow scanning */
1573:.\Generated_Source\PSoC4/BLE_eventHandler.c ****                             if(CYBLE_ERROR_OK == CyBle_GapcStartScan(CYBLE_SCANNING_SLOW))
1574:.\Generated_Source\PSoC4/BLE_eventHandler.c ****                             {
1575:.\Generated_Source\PSoC4/BLE_eventHandler.c ****                                 CyBle_SetState(CYBLE_STATE_SCANNING);
1576:.\Generated_Source\PSoC4/BLE_eventHandler.c ****                             }
1577:.\Generated_Source\PSoC4/BLE_eventHandler.c ****                         }
1578:.\Generated_Source\PSoC4/BLE_eventHandler.c ****                     #endif /* CYBLE_SLOW_SCAN_ENABLED */
1579:.\Generated_Source\PSoC4/BLE_eventHandler.c ****                     }
1580:.\Generated_Source\PSoC4/BLE_eventHandler.c ****                 }
1581:.\Generated_Source\PSoC4/BLE_eventHandler.c ****             }
1582:.\Generated_Source\PSoC4/BLE_eventHandler.c ****             break;
1583:.\Generated_Source\PSoC4/BLE_eventHandler.c ****         #endif /* CYBLE_GAP_ROLE_CENTRAL || CYBLE_GAP_ROLE_OBSERVER */
1584:.\Generated_Source\PSoC4/BLE_eventHandler.c **** 
1585:.\Generated_Source\PSoC4/BLE_eventHandler.c ****         /**********************************************************
1586:.\Generated_Source\PSoC4/BLE_eventHandler.c ****         ##L2AP events 
1587:.\Generated_Source\PSoC4/BLE_eventHandler.c ****         ***********************************************************/
1588:.\Generated_Source\PSoC4/BLE_eventHandler.c ****         case CYBLE_EVT_L2CAP_CONN_PARAM_UPDATE_RSP:
1589:.\Generated_Source\PSoC4/BLE_eventHandler.c ****             CyBle_L2Cap_ConnParamUpdateRspEventHandler(*(uint16 *)eventParam);
1590:.\Generated_Source\PSoC4/BLE_eventHandler.c ****             break;
1591:.\Generated_Source\PSoC4/BLE_eventHandler.c ****         
1592:.\Generated_Source\PSoC4/BLE_eventHandler.c ****         /**********************************************************
1593:.\Generated_Source\PSoC4/BLE_eventHandler.c ****         ##GATT events
1594:.\Generated_Source\PSoC4/BLE_eventHandler.c ****         ***********************************************************/        
1595:.\Generated_Source\PSoC4/BLE_eventHandler.c ****         case CYBLE_EVT_GATT_CONNECT_IND:
1596:.\Generated_Source\PSoC4/BLE_eventHandler.c ****             cyBle_connHandle = *(CYBLE_CONN_HANDLE_T *)eventParam;
 439              		.loc 1 1596 0
 440 0174 224E     		ldr	r6, .L38+36
 441 0176 301C     		mov	r0, r6
 442              	.LVL38:
ARM GAS  C:\Users\ELECTR~1\AppData\Local\Temp\ccJM91Ce.s 			page 37


 443 0178 291C     		mov	r1, r5
 444 017a 0222     		mov	r2, #2
 445 017c FFF7FEFF 		bl	memcpy
 446              	.LVL39:
1597:.\Generated_Source\PSoC4/BLE_eventHandler.c ****             
1598:.\Generated_Source\PSoC4/BLE_eventHandler.c ****         #if((CYBLE_GATT_ROLE_SERVER) && (CYBLE_GATT_DB_CCCD_COUNT != 0u))
1599:.\Generated_Source\PSoC4/BLE_eventHandler.c ****             /* Init CCCD values in RAM */
1600:.\Generated_Source\PSoC4/BLE_eventHandler.c ****         	(void) memcpy (cyBle_attValuesCCCD, cyBle_attValuesCCCDFlashMemory[cyBle_connHandle.bdHand
 447              		.loc 1 1600 0
 448 0180 3178     		ldrb	r1, [r6]
 449 0182 8900     		lsl	r1, r1, #2
 450 0184 204B     		ldr	r3, .L38+44
 451 0186 5918     		add	r1, r3, r1
 452 0188 2048     		ldr	r0, .L38+48
 453 018a 0422     		mov	r2, #4
 454 018c FFF7FEFF 		bl	memcpy
 455              	.LVL40:
1601:.\Generated_Source\PSoC4/BLE_eventHandler.c ****                             CYBLE_GATT_DB_CCCD_COUNT);
1602:.\Generated_Source\PSoC4/BLE_eventHandler.c ****         #endif /* CYBLE_GATT_ROLE_SERVER */
1603:.\Generated_Source\PSoC4/BLE_eventHandler.c ****         
1604:.\Generated_Source\PSoC4/BLE_eventHandler.c ****         #if (CYBLE_GATT_ROLE_CLIENT)
1605:.\Generated_Source\PSoC4/BLE_eventHandler.c ****             CyBle_SetClientState(CYBLE_CLIENT_STATE_CONNECTED);
1606:.\Generated_Source\PSoC4/BLE_eventHandler.c ****         #endif /* CYBLE_GATT_ROLE_CLIENT */
1607:.\Generated_Source\PSoC4/BLE_eventHandler.c ****         
1608:.\Generated_Source\PSoC4/BLE_eventHandler.c ****             CyBle_GattConnectReqHandler();
1609:.\Generated_Source\PSoC4/BLE_eventHandler.c ****             break;
 456              		.loc 1 1609 0
 457 0190 13E0     		b	.L16
 458              	.LVL41:
 459              	.L28:
1610:.\Generated_Source\PSoC4/BLE_eventHandler.c **** 
1611:.\Generated_Source\PSoC4/BLE_eventHandler.c ****         case CYBLE_EVT_GATT_DISCONNECT_IND:
1612:.\Generated_Source\PSoC4/BLE_eventHandler.c ****             CyBle_GattDisconnectEventHandler();
 460              		.loc 1 1612 0
 461 0192 FFF7FEFF 		bl	CyBle_GattDisconnectEventHandler
 462              	.LVL42:
1613:.\Generated_Source\PSoC4/BLE_eventHandler.c ****             break;
 463              		.loc 1 1613 0
 464 0196 10E0     		b	.L16
 465              	.LVL43:
 466              	.L25:
 467              	.LBB4:
1614:.\Generated_Source\PSoC4/BLE_eventHandler.c **** 
1615:.\Generated_Source\PSoC4/BLE_eventHandler.c ****     #if((CYBLE_GATT_ROLE_SERVER) || (CYBLE_GATT_ROLE_CLIENT))
1616:.\Generated_Source\PSoC4/BLE_eventHandler.c ****         case CYBLE_EVT_GATTS_XCNHG_MTU_REQ:
1617:.\Generated_Source\PSoC4/BLE_eventHandler.c ****             {
1618:.\Generated_Source\PSoC4/BLE_eventHandler.c ****                 uint16 cyBle_mtuSize;
1619:.\Generated_Source\PSoC4/BLE_eventHandler.c ****                 if(CYBLE_GATT_MTU > ((CYBLE_GATT_XCHG_MTU_PARAM_T *)eventParam)->mtu)
 468              		.loc 1 1619 0
 469 0198 6988     		ldrh	r1, [r5, #2]
 470 019a 1629     		cmp	r1, #22
 471 019c 00D9     		bls	.L36
1620:.\Generated_Source\PSoC4/BLE_eventHandler.c ****                 {
1621:.\Generated_Source\PSoC4/BLE_eventHandler.c ****                     cyBle_mtuSize = ((CYBLE_GATT_XCHG_MTU_PARAM_T *)eventParam)->mtu;
1622:.\Generated_Source\PSoC4/BLE_eventHandler.c ****                 }
1623:.\Generated_Source\PSoC4/BLE_eventHandler.c ****                 else
1624:.\Generated_Source\PSoC4/BLE_eventHandler.c ****                 {
ARM GAS  C:\Users\ELECTR~1\AppData\Local\Temp\ccJM91Ce.s 			page 38


1625:.\Generated_Source\PSoC4/BLE_eventHandler.c ****                     cyBle_mtuSize = CYBLE_GATT_MTU;
 472              		.loc 1 1625 0
 473 019e 1721     		mov	r1, #23
 474              	.L36:
 475              	.LVL44:
1626:.\Generated_Source\PSoC4/BLE_eventHandler.c ****                 }
1627:.\Generated_Source\PSoC4/BLE_eventHandler.c ****                 (void)CyBle_GattsExchangeMtuRsp(((CYBLE_GATT_XCHG_MTU_PARAM_T *)eventParam)->connHa
 476              		.loc 1 1627 0
 477 01a0 2888     		ldrh	r0, [r5]
 478              	.LVL45:
 479 01a2 FFF7FEFF 		bl	CyBle_GattsExchangeMtuRsp
 480              	.LVL46:
 481              	.LBE4:
1628:.\Generated_Source\PSoC4/BLE_eventHandler.c ****             }
1629:.\Generated_Source\PSoC4/BLE_eventHandler.c ****             break;
 482              		.loc 1 1629 0
 483 01a6 08E0     		b	.L16
 484              	.LVL47:
 485              	.L29:
1630:.\Generated_Source\PSoC4/BLE_eventHandler.c ****     #endif /* CYBLE_GATT_ROLE_SERVER || CYBLE_GATT_ROLE_CLIENT */
1631:.\Generated_Source\PSoC4/BLE_eventHandler.c ****     
1632:.\Generated_Source\PSoC4/BLE_eventHandler.c ****     #if (CYBLE_GATT_ROLE_CLIENT)
1633:.\Generated_Source\PSoC4/BLE_eventHandler.c ****         case CYBLE_EVT_GAPC_SCAN_PROGRESS_RESULT:
1634:.\Generated_Source\PSoC4/BLE_eventHandler.c ****         #ifdef CYBLE_CPS_CLIENT
1635:.\Generated_Source\PSoC4/BLE_eventHandler.c ****                 CyBle_CpscScanProcessEventHandler((CYBLE_GAPC_ADV_REPORT_T *)eventParam);
1636:.\Generated_Source\PSoC4/BLE_eventHandler.c ****         #endif /* CYBLE_CPS_CLIENT */
1637:.\Generated_Source\PSoC4/BLE_eventHandler.c ****             break;
1638:.\Generated_Source\PSoC4/BLE_eventHandler.c ****     #endif /* CYBLE_GATT_ROLE_CLIENT */
1639:.\Generated_Source\PSoC4/BLE_eventHandler.c **** 
1640:.\Generated_Source\PSoC4/BLE_eventHandler.c ****     #if(CYBLE_GATT_ROLE_SERVER)
1641:.\Generated_Source\PSoC4/BLE_eventHandler.c ****         case CYBLE_EVT_GATTS_WRITE_REQ:
1642:.\Generated_Source\PSoC4/BLE_eventHandler.c ****             CyBle_WriteReqHandler((CYBLE_GATTS_WRITE_REQ_PARAM_T *)eventParam);
 486              		.loc 1 1642 0
 487 01a8 281C     		mov	r0, r5
 488              	.LVL48:
 489 01aa FFF7FEFF 		bl	CyBle_WriteReqHandler
 490              	.LVL49:
1643:.\Generated_Source\PSoC4/BLE_eventHandler.c ****             break;
 491              		.loc 1 1643 0
 492 01ae 04E0     		b	.L16
 493              	.LVL50:
 494              	.L30:
1644:.\Generated_Source\PSoC4/BLE_eventHandler.c **** 
1645:.\Generated_Source\PSoC4/BLE_eventHandler.c ****         case CYBLE_EVT_GATTS_WRITE_CMD_REQ:
1646:.\Generated_Source\PSoC4/BLE_eventHandler.c ****         #ifdef CYBLE_IAS_SERVER
1647:.\Generated_Source\PSoC4/BLE_eventHandler.c ****             if((cyBle_eventHandlerFlag & CYBLE_CALLBACK) != 0u)
1648:.\Generated_Source\PSoC4/BLE_eventHandler.c ****             {
1649:.\Generated_Source\PSoC4/BLE_eventHandler.c ****                 (void)CyBle_IassWriteCmdEventHandler((CYBLE_GATTS_WRITE_REQ_PARAM_T *)eventParam);
1650:.\Generated_Source\PSoC4/BLE_eventHandler.c ****             }
1651:.\Generated_Source\PSoC4/BLE_eventHandler.c ****         #endif /* CYBLE_IAS_SERVER */
1652:.\Generated_Source\PSoC4/BLE_eventHandler.c ****         #ifdef CYBLE_HIDS_SERVER
1653:.\Generated_Source\PSoC4/BLE_eventHandler.c ****             if((cyBle_eventHandlerFlag & CYBLE_CALLBACK) != 0u)
1654:.\Generated_Source\PSoC4/BLE_eventHandler.c ****             {
1655:.\Generated_Source\PSoC4/BLE_eventHandler.c ****                 (void)CyBle_HidssWriteEventHandler((CYBLE_GATTS_WRITE_REQ_PARAM_T *)eventParam);
1656:.\Generated_Source\PSoC4/BLE_eventHandler.c ****             }
1657:.\Generated_Source\PSoC4/BLE_eventHandler.c ****         #endif /* CYBLE_HIDS_SERVER */
1658:.\Generated_Source\PSoC4/BLE_eventHandler.c ****         #ifdef CYBLE_PASS_SERVER
ARM GAS  C:\Users\ELECTR~1\AppData\Local\Temp\ccJM91Ce.s 			page 39


1659:.\Generated_Source\PSoC4/BLE_eventHandler.c ****             if((cyBle_eventHandlerFlag & CYBLE_CALLBACK) != 0u)
1660:.\Generated_Source\PSoC4/BLE_eventHandler.c ****             {
1661:.\Generated_Source\PSoC4/BLE_eventHandler.c ****                 (void)CyBle_PasssWriteCmdEventHandler((CYBLE_GATTS_WRITE_REQ_PARAM_T *)eventParam);
1662:.\Generated_Source\PSoC4/BLE_eventHandler.c ****             }
1663:.\Generated_Source\PSoC4/BLE_eventHandler.c ****         #endif /* CYBLE_PASS_SERVER */
1664:.\Generated_Source\PSoC4/BLE_eventHandler.c ****         #ifdef CYBLE_RTUS_SERVER
1665:.\Generated_Source\PSoC4/BLE_eventHandler.c ****             if((cyBle_eventHandlerFlag & CYBLE_CALLBACK) != 0u)
1666:.\Generated_Source\PSoC4/BLE_eventHandler.c ****             {
1667:.\Generated_Source\PSoC4/BLE_eventHandler.c ****                 (void)CyBle_RtussWriteCmdEventHandler((CYBLE_GATTS_WRITE_REQ_PARAM_T *)eventParam);
1668:.\Generated_Source\PSoC4/BLE_eventHandler.c ****             }
1669:.\Generated_Source\PSoC4/BLE_eventHandler.c ****         #endif /* CYBLE_RTUS_SERVER */
1670:.\Generated_Source\PSoC4/BLE_eventHandler.c ****         #ifdef CYBLE_SCPS_SERVER
1671:.\Generated_Source\PSoC4/BLE_eventHandler.c ****             if((cyBle_eventHandlerFlag & CYBLE_CALLBACK) != 0u)
1672:.\Generated_Source\PSoC4/BLE_eventHandler.c ****             {
1673:.\Generated_Source\PSoC4/BLE_eventHandler.c ****                 (void)CyBle_ScpssWriteEventHandler((CYBLE_GATTS_WRITE_REQ_PARAM_T *)eventParam);
1674:.\Generated_Source\PSoC4/BLE_eventHandler.c ****             }
1675:.\Generated_Source\PSoC4/BLE_eventHandler.c ****         #endif /* CYBLE_SCPS_SERVER */
1676:.\Generated_Source\PSoC4/BLE_eventHandler.c ****             break;
1677:.\Generated_Source\PSoC4/BLE_eventHandler.c ****         
1678:.\Generated_Source\PSoC4/BLE_eventHandler.c ****         case CYBLE_EVT_GATTS_PREP_WRITE_REQ:
1679:.\Generated_Source\PSoC4/BLE_eventHandler.c ****         #ifdef CYBLE_BMS_SERVER
1680:.\Generated_Source\PSoC4/BLE_eventHandler.c ****             CyBle_BmssPrepareWriteRequestEventHandler((CYBLE_GATTS_PREP_WRITE_REQ_PARAM_T *)eventPa
1681:.\Generated_Source\PSoC4/BLE_eventHandler.c ****         #endif /* CYBLE_BMS_SERVER */
1682:.\Generated_Source\PSoC4/BLE_eventHandler.c ****         #ifdef CYBLE_BTS_SERVER
1683:.\Generated_Source\PSoC4/BLE_eventHandler.c ****             if((cyBle_eventHandlerFlag & CYBLE_CALLBACK) != 0u)
1684:.\Generated_Source\PSoC4/BLE_eventHandler.c ****             {
1685:.\Generated_Source\PSoC4/BLE_eventHandler.c ****                 CyBle_BtssPrepareWriteRequestEventHandler((CYBLE_GATTS_PREP_WRITE_REQ_PARAM_T *)eve
1686:.\Generated_Source\PSoC4/BLE_eventHandler.c ****             }
1687:.\Generated_Source\PSoC4/BLE_eventHandler.c ****         #endif /* CYBLE_BTS_SERVER */
1688:.\Generated_Source\PSoC4/BLE_eventHandler.c ****         #ifdef CYBLE_ESS_SERVER
1689:.\Generated_Source\PSoC4/BLE_eventHandler.c ****             if((cyBle_eventHandlerFlag & CYBLE_CALLBACK) != 0u)
1690:.\Generated_Source\PSoC4/BLE_eventHandler.c ****             {
1691:.\Generated_Source\PSoC4/BLE_eventHandler.c ****                 CyBle_EsssPrepareWriteRequestEventHandler((CYBLE_GATTS_PREP_WRITE_REQ_PARAM_T *)eve
1692:.\Generated_Source\PSoC4/BLE_eventHandler.c ****             }
1693:.\Generated_Source\PSoC4/BLE_eventHandler.c ****         #endif /* CYBLE_ESS_SERVER */
1694:.\Generated_Source\PSoC4/BLE_eventHandler.c **** 		#ifdef CYBLE_UDS_SERVER
1695:.\Generated_Source\PSoC4/BLE_eventHandler.c ****             if((cyBle_eventHandlerFlag & CYBLE_CALLBACK) != 0u)
1696:.\Generated_Source\PSoC4/BLE_eventHandler.c ****             {
1697:.\Generated_Source\PSoC4/BLE_eventHandler.c ****                 CyBle_UdssPrepareWriteRequestEventHandler((CYBLE_GATTS_PREP_WRITE_REQ_PARAM_T *)eve
1698:.\Generated_Source\PSoC4/BLE_eventHandler.c ****             }
1699:.\Generated_Source\PSoC4/BLE_eventHandler.c ****         #endif /* CYBLE_UDS_SERVER */
1700:.\Generated_Source\PSoC4/BLE_eventHandler.c ****             break;
1701:.\Generated_Source\PSoC4/BLE_eventHandler.c **** 
1702:.\Generated_Source\PSoC4/BLE_eventHandler.c ****         case CYBLE_EVT_GATTS_EXEC_WRITE_REQ:
1703:.\Generated_Source\PSoC4/BLE_eventHandler.c ****         #ifdef CYBLE_BMS_SERVER
1704:.\Generated_Source\PSoC4/BLE_eventHandler.c ****             CyBle_BmssExecuteWriteRequestEventHandler((CYBLE_GATTS_EXEC_WRITE_REQ_T *)eventParam);
1705:.\Generated_Source\PSoC4/BLE_eventHandler.c ****         #endif /* CYBLE_BMS_SERVER */
1706:.\Generated_Source\PSoC4/BLE_eventHandler.c ****         #ifdef CYBLE_BTS_SERVER
1707:.\Generated_Source\PSoC4/BLE_eventHandler.c ****             if((cyBle_eventHandlerFlag & CYBLE_CALLBACK) != 0u)
1708:.\Generated_Source\PSoC4/BLE_eventHandler.c ****             {
1709:.\Generated_Source\PSoC4/BLE_eventHandler.c ****                 CyBle_BtssExecuteWriteRequestEventHandler((CYBLE_GATTS_EXEC_WRITE_REQ_T *)eventPara
1710:.\Generated_Source\PSoC4/BLE_eventHandler.c ****             }
1711:.\Generated_Source\PSoC4/BLE_eventHandler.c ****         #endif /* CYBLE_BTS_SERVER */
1712:.\Generated_Source\PSoC4/BLE_eventHandler.c ****         #ifdef CYBLE_ESS_SERVER
1713:.\Generated_Source\PSoC4/BLE_eventHandler.c ****             if((cyBle_eventHandlerFlag & CYBLE_CALLBACK) != 0u)
1714:.\Generated_Source\PSoC4/BLE_eventHandler.c ****             {
1715:.\Generated_Source\PSoC4/BLE_eventHandler.c ****                 CyBle_EsssExecuteWriteRequestEventHandler((CYBLE_GATTS_EXEC_WRITE_REQ_T *)eventPara
ARM GAS  C:\Users\ELECTR~1\AppData\Local\Temp\ccJM91Ce.s 			page 40


1716:.\Generated_Source\PSoC4/BLE_eventHandler.c ****             }
1717:.\Generated_Source\PSoC4/BLE_eventHandler.c ****         #endif /* CYBLE_ESS_SERVER */
1718:.\Generated_Source\PSoC4/BLE_eventHandler.c **** 		#ifdef CYBLE_UDS_SERVER
1719:.\Generated_Source\PSoC4/BLE_eventHandler.c ****             if((cyBle_eventHandlerFlag & CYBLE_CALLBACK) != 0u)
1720:.\Generated_Source\PSoC4/BLE_eventHandler.c ****             {
1721:.\Generated_Source\PSoC4/BLE_eventHandler.c ****                 CyBle_UdssExecuteWriteRequestEventHandler((CYBLE_GATTS_EXEC_WRITE_REQ_T *)eventPara
1722:.\Generated_Source\PSoC4/BLE_eventHandler.c ****             }
1723:.\Generated_Source\PSoC4/BLE_eventHandler.c ****         #endif /* CYBLE_UDS_SERVER */
1724:.\Generated_Source\PSoC4/BLE_eventHandler.c ****             break;
1725:.\Generated_Source\PSoC4/BLE_eventHandler.c ****         
1726:.\Generated_Source\PSoC4/BLE_eventHandler.c ****         case CYBLE_EVT_GATTS_HANDLE_VALUE_CNF:
1727:.\Generated_Source\PSoC4/BLE_eventHandler.c ****             CyBle_ValueConfirmation((CYBLE_CONN_HANDLE_T *)eventParam);
1728:.\Generated_Source\PSoC4/BLE_eventHandler.c ****             break;
1729:.\Generated_Source\PSoC4/BLE_eventHandler.c ****             
1730:.\Generated_Source\PSoC4/BLE_eventHandler.c ****         case CYBLE_EVT_GATTS_READ_CHAR_VAL_ACCESS_REQ:
1731:.\Generated_Source\PSoC4/BLE_eventHandler.c ****         #ifdef CYBLE_UDS_SERVER
1732:.\Generated_Source\PSoC4/BLE_eventHandler.c ****             CyBle_UdssReadRequestEventHandler((CYBLE_GATTS_CHAR_VAL_READ_REQ_T *)eventParam);
1733:.\Generated_Source\PSoC4/BLE_eventHandler.c ****         #endif /* CYBLE_UDS_SERVER */
1734:.\Generated_Source\PSoC4/BLE_eventHandler.c ****             break;
1735:.\Generated_Source\PSoC4/BLE_eventHandler.c ****             
1736:.\Generated_Source\PSoC4/BLE_eventHandler.c ****     #endif /* CYBLE_GATT_ROLE_SERVER */
1737:.\Generated_Source\PSoC4/BLE_eventHandler.c **** 
1738:.\Generated_Source\PSoC4/BLE_eventHandler.c ****     #if (CYBLE_GATT_ROLE_CLIENT)
1739:.\Generated_Source\PSoC4/BLE_eventHandler.c ****         
1740:.\Generated_Source\PSoC4/BLE_eventHandler.c ****         case CYBLE_EVT_GATTC_READ_BY_GROUP_TYPE_RSP:
1741:.\Generated_Source\PSoC4/BLE_eventHandler.c ****             CyBle_ReadByGroupEventHandler((CYBLE_GATTC_READ_BY_GRP_RSP_PARAM_T *)eventParam);
1742:.\Generated_Source\PSoC4/BLE_eventHandler.c ****             break;
1743:.\Generated_Source\PSoC4/BLE_eventHandler.c **** 
1744:.\Generated_Source\PSoC4/BLE_eventHandler.c ****         case CYBLE_EVT_GATTC_READ_BY_TYPE_RSP:
1745:.\Generated_Source\PSoC4/BLE_eventHandler.c ****             CyBle_ReadByTypeEventHandler((CYBLE_GATTC_READ_BY_TYPE_RSP_PARAM_T *)eventParam);
1746:.\Generated_Source\PSoC4/BLE_eventHandler.c ****             break;
1747:.\Generated_Source\PSoC4/BLE_eventHandler.c **** 
1748:.\Generated_Source\PSoC4/BLE_eventHandler.c ****         case CYBLE_EVT_GATTC_READ_BLOB_RSP:
1749:.\Generated_Source\PSoC4/BLE_eventHandler.c ****         #ifdef CYBLE_ESS_CLIENT
1750:.\Generated_Source\PSoC4/BLE_eventHandler.c ****             CyBle_EsscReadLongRespEventHandler((CYBLE_GATTC_READ_RSP_PARAM_T *)eventParam);
1751:.\Generated_Source\PSoC4/BLE_eventHandler.c ****         #endif /* CYBLE_ESS_CLIENT */
1752:.\Generated_Source\PSoC4/BLE_eventHandler.c ****             break;
1753:.\Generated_Source\PSoC4/BLE_eventHandler.c ****         
1754:.\Generated_Source\PSoC4/BLE_eventHandler.c ****         case CYBLE_EVT_GATTC_FIND_INFO_RSP:
1755:.\Generated_Source\PSoC4/BLE_eventHandler.c ****             CyBle_FindInfoEventHandler((CYBLE_GATTC_FIND_INFO_RSP_PARAM_T *)eventParam);
1756:.\Generated_Source\PSoC4/BLE_eventHandler.c ****             break;
1757:.\Generated_Source\PSoC4/BLE_eventHandler.c **** 
1758:.\Generated_Source\PSoC4/BLE_eventHandler.c ****         case CYBLE_EVT_GATTC_ERROR_RSP:
1759:.\Generated_Source\PSoC4/BLE_eventHandler.c ****             CyBle_ErrorResponseEventHandler((CYBLE_GATTC_ERR_RSP_PARAM_T *)eventParam);
1760:.\Generated_Source\PSoC4/BLE_eventHandler.c ****             break;
1761:.\Generated_Source\PSoC4/BLE_eventHandler.c **** 
1762:.\Generated_Source\PSoC4/BLE_eventHandler.c ****         case CYBLE_EVT_GATTC_HANDLE_VALUE_NTF:
1763:.\Generated_Source\PSoC4/BLE_eventHandler.c ****             CyBle_NotificationEventHandler((CYBLE_GATTC_HANDLE_VALUE_NTF_PARAM_T *)eventParam);
1764:.\Generated_Source\PSoC4/BLE_eventHandler.c ****             break;
1765:.\Generated_Source\PSoC4/BLE_eventHandler.c **** 
1766:.\Generated_Source\PSoC4/BLE_eventHandler.c ****         case CYBLE_EVT_GATTC_HANDLE_VALUE_IND:
1767:.\Generated_Source\PSoC4/BLE_eventHandler.c ****             CyBle_GattcIndicationEventHandler((CYBLE_GATTC_HANDLE_VALUE_IND_PARAM_T *)eventParam);
1768:.\Generated_Source\PSoC4/BLE_eventHandler.c ****             CyBle_IndicationEventHandler((CYBLE_GATTC_HANDLE_VALUE_IND_PARAM_T *)eventParam);
1769:.\Generated_Source\PSoC4/BLE_eventHandler.c ****         
1770:.\Generated_Source\PSoC4/BLE_eventHandler.c ****             /* Respond with a Handle Value Confirmation when request handled */
1771:.\Generated_Source\PSoC4/BLE_eventHandler.c ****             if((cyBle_eventHandlerFlag & CYBLE_CALLBACK) == 0u)
1772:.\Generated_Source\PSoC4/BLE_eventHandler.c ****             {
ARM GAS  C:\Users\ELECTR~1\AppData\Local\Temp\ccJM91Ce.s 			page 41


1773:.\Generated_Source\PSoC4/BLE_eventHandler.c ****                 (void)CyBle_GattcConfirmation(((CYBLE_GATTC_HANDLE_VALUE_IND_PARAM_T *)eventParam)-
1774:.\Generated_Source\PSoC4/BLE_eventHandler.c ****             }
1775:.\Generated_Source\PSoC4/BLE_eventHandler.c ****             break;
1776:.\Generated_Source\PSoC4/BLE_eventHandler.c ****         
1777:.\Generated_Source\PSoC4/BLE_eventHandler.c ****         case CYBLE_EVT_GATTC_READ_RSP:
1778:.\Generated_Source\PSoC4/BLE_eventHandler.c ****             CyBle_ReadResponseEventHandler((CYBLE_GATTC_READ_RSP_PARAM_T *)eventParam);
1779:.\Generated_Source\PSoC4/BLE_eventHandler.c ****             break;
1780:.\Generated_Source\PSoC4/BLE_eventHandler.c **** 
1781:.\Generated_Source\PSoC4/BLE_eventHandler.c ****         case CYBLE_EVT_GATTC_WRITE_RSP:
1782:.\Generated_Source\PSoC4/BLE_eventHandler.c ****             CyBle_GattcWriteResponseEventHandler((CYBLE_CONN_HANDLE_T *)eventParam);
1783:.\Generated_Source\PSoC4/BLE_eventHandler.c ****             break;
1784:.\Generated_Source\PSoC4/BLE_eventHandler.c ****             
1785:.\Generated_Source\PSoC4/BLE_eventHandler.c ****         case CYBLE_EVT_GATTC_EXEC_WRITE_RSP:
1786:.\Generated_Source\PSoC4/BLE_eventHandler.c ****         #ifdef CYBLE_BMS_CLIENT
1787:.\Generated_Source\PSoC4/BLE_eventHandler.c ****             CyBle_BmscExecuteWriteResponseEventHandler((CYBLE_GATTC_EXEC_WRITE_RSP_T *)eventParam);
1788:.\Generated_Source\PSoC4/BLE_eventHandler.c ****         #endif /* CYBLE_BMS_CLIENT */
1789:.\Generated_Source\PSoC4/BLE_eventHandler.c ****         #ifdef CYBLE_ESS_CLIENT
1790:.\Generated_Source\PSoC4/BLE_eventHandler.c ****             if((cyBle_eventHandlerFlag & CYBLE_CALLBACK) != 0u)
1791:.\Generated_Source\PSoC4/BLE_eventHandler.c ****             {
1792:.\Generated_Source\PSoC4/BLE_eventHandler.c ****                 CyBle_EsscExecuteWriteResponseEventHandler((CYBLE_GATTC_EXEC_WRITE_RSP_T *)eventPar
1793:.\Generated_Source\PSoC4/BLE_eventHandler.c ****             }
1794:.\Generated_Source\PSoC4/BLE_eventHandler.c ****         #endif /* CYBLE_ESS_CLIENT */
1795:.\Generated_Source\PSoC4/BLE_eventHandler.c ****             break;
1796:.\Generated_Source\PSoC4/BLE_eventHandler.c ****             
1797:.\Generated_Source\PSoC4/BLE_eventHandler.c ****     #endif /* CYBLE_GATT_ROLE_CLIENT */
1798:.\Generated_Source\PSoC4/BLE_eventHandler.c **** 
1799:.\Generated_Source\PSoC4/BLE_eventHandler.c ****     #if((CYBLE_GAP_ROLE_PERIPHERAL || CYBLE_GAP_ROLE_CENTRAL) && (CYBLE_BONDING_REQUIREMENT == CYBL
1800:.\Generated_Source\PSoC4/BLE_eventHandler.c **** 
1801:.\Generated_Source\PSoC4/BLE_eventHandler.c ****         case CYBLE_EVT_PENDING_FLASH_WRITE:
1802:.\Generated_Source\PSoC4/BLE_eventHandler.c ****             cyBle_pendingFlashWrite |= CYBLE_PENDING_STACK_FLASH_WRITE_BIT;
 495              		.loc 1 1802 0
 496 01b0 174A     		ldr	r2, .L38+52
 497 01b2 1178     		ldrb	r1, [r2]
 498 01b4 0123     		mov	r3, #1
 499 01b6 0B43     		orr	r3, r1
 500 01b8 1370     		strb	r3, [r2]
 501              	.LVL51:
 502              	.L16:
1803:.\Generated_Source\PSoC4/BLE_eventHandler.c ****             break;
1804:.\Generated_Source\PSoC4/BLE_eventHandler.c ****         
1805:.\Generated_Source\PSoC4/BLE_eventHandler.c ****     #endif  /* (CYBLE_BONDING_REQUIREMENT == CYBLE_BONDING_YES) */
1806:.\Generated_Source\PSoC4/BLE_eventHandler.c ****     
1807:.\Generated_Source\PSoC4/BLE_eventHandler.c ****         default:
1808:.\Generated_Source\PSoC4/BLE_eventHandler.c ****             break;
1809:.\Generated_Source\PSoC4/BLE_eventHandler.c ****     }
1810:.\Generated_Source\PSoC4/BLE_eventHandler.c **** 
1811:.\Generated_Source\PSoC4/BLE_eventHandler.c ****     if(0u != (cyBle_eventHandlerFlag & (CYBLE_CALLBACK | CYBLE_ENABLE_ALL_EVENTS))) 
 503              		.loc 1 1811 0
 504 01ba 084B     		ldr	r3, .L38
 505 01bc 1A78     		ldrb	r2, [r3]
 506 01be 1123     		mov	r3, #17
 507 01c0 1A42     		tst	r2, r3
 508 01c2 09D0     		beq	.L15
1812:.\Generated_Source\PSoC4/BLE_eventHandler.c ****     {
1813:.\Generated_Source\PSoC4/BLE_eventHandler.c ****         cyBle_eventHandlerFlag &= (uint8)~CYBLE_CALLBACK;
 509              		.loc 1 1813 0
 510 01c4 054A     		ldr	r2, .L38
ARM GAS  C:\Users\ELECTR~1\AppData\Local\Temp\ccJM91Ce.s 			page 42


 511 01c6 1378     		ldrb	r3, [r2]
 512 01c8 0121     		mov	r1, #1
 513 01ca 8B43     		bic	r3, r1
 514 01cc 1370     		strb	r3, [r2]
1814:.\Generated_Source\PSoC4/BLE_eventHandler.c ****         CyBle_ApplCallback((uint32)eventCode, eventParam);
 515              		.loc 1 1814 0
 516 01ce 114B     		ldr	r3, .L38+56
 517 01d0 1B68     		ldr	r3, [r3]
 518 01d2 201C     		mov	r0, r4
 519 01d4 291C     		mov	r1, r5
 520 01d6 9847     		blx	r3
 521              	.LVL52:
 522              	.L15:
1815:.\Generated_Source\PSoC4/BLE_eventHandler.c ****     }
1816:.\Generated_Source\PSoC4/BLE_eventHandler.c **** 
1817:.\Generated_Source\PSoC4/BLE_eventHandler.c **** }
 523              		.loc 1 1817 0
 524 01d8 03B0     		add	sp, sp, #12
 525              		@ sp needed
 526              	.LVL53:
 527 01da F0BD     		pop	{r4, r5, r6, r7, pc}
 528              	.L39:
 529              		.align	2
 530              	.L38:
 531 01dc 00000000 		.word	cyBle_eventHandlerFlag
 532 01e0 00000000 		.word	cyBle_sflashDeviceAddress
 533 01e4 7CF1FF0F 		.word	268431740
 534 01e8 00000000 		.word	cyBle_deviceAddress
 535 01ec 7DF1FF0F 		.word	268431741
 536 01f0 7BF1FF0F 		.word	268431739
 537 01f4 00000000 		.word	cyBle_state
 538 01f8 00000000 		.word	cyBle_busyStatus
 539 01fc 00000000 		.word	.LANCHOR0
 540 0200 00000000 		.word	cyBle_connHandle
 541 0204 00000000 		.word	cyBle_advertisingIntervalType
 542 0208 00000000 		.word	cyBle_attValuesCCCDFlashMemory
 543 020c 00000000 		.word	cyBle_attValuesCCCD
 544 0210 00000000 		.word	cyBle_pendingFlashWrite
 545 0214 00000000 		.word	CyBle_ApplCallback
 546              		.cfi_endproc
 547              	.LFE10:
 548              		.size	CyBle_EventHandler, .-CyBle_EventHandler
 549              		.global	cyBle_authInfo
 550              		.comm	cyBle_advertisingIntervalType,1,1
 551              		.comm	cyBle_busyStatus,1,1
 552              		.comm	cyBle_eventHandlerFlag,1,1
 553              		.comm	cyBle_connHandle,2,4
 554              		.data
 555              		.align	2
 556              		.set	.LANCHOR0,. + 0
 557              		.type	cyBle_authInfo, %object
 558              		.size	cyBle_authInfo, 4
 559              	cyBle_authInfo:
 560 0000 10       		.byte	16
 561 0001 01       		.byte	1
 562 0002 10       		.byte	16
 563 0003 00       		.byte	0
ARM GAS  C:\Users\ELECTR~1\AppData\Local\Temp\ccJM91Ce.s 			page 43


 564              		.text
 565              	.Letext0:
 566              		.file 2 ".\\Generated_Source\\PSoC4\\cytypes.h"
 567              		.file 3 ".\\Generated_Source\\PSoC4\\BLE_Stack.h"
 568              		.file 4 ".\\Generated_Source\\PSoC4\\BLE_StackHostMain.h"
 569              		.file 5 ".\\Generated_Source\\PSoC4\\BLE_StackGap.h"
 570              		.file 6 ".\\Generated_Source\\PSoC4\\BLE_StackGatt.h"
 571              		.file 7 ".\\Generated_Source\\PSoC4\\BLE_StackGattServer.h"
 572              		.file 8 ".\\Generated_Source\\PSoC4\\BLE.h"
 573              		.file 9 ".\\Generated_Source\\PSoC4\\BLE_eventHandler.h"
 574              		.file 10 ".\\Generated_Source\\PSoC4\\BLE_gatt.h"
 575              		.section	.debug_info,"",%progbits
 576              	.Ldebug_info0:
 577 0000 380D0000 		.4byte	0xd38
 578 0004 0400     		.2byte	0x4
 579 0006 00000000 		.4byte	.Ldebug_abbrev0
 580 000a 04       		.byte	0x4
 581 000b 01       		.uleb128 0x1
 582 000c 9E0D0000 		.4byte	.LASF277
 583 0010 01       		.byte	0x1
 584 0011 72050000 		.4byte	.LASF278
 585 0015 AA110000 		.4byte	.LASF279
 586 0019 00000000 		.4byte	.Ldebug_ranges0+0
 587 001d 00000000 		.4byte	0
 588 0021 00000000 		.4byte	.Ldebug_line0
 589 0025 02       		.uleb128 0x2
 590 0026 01       		.byte	0x1
 591 0027 06       		.byte	0x6
 592 0028 6C060000 		.4byte	.LASF0
 593 002c 02       		.uleb128 0x2
 594 002d 01       		.byte	0x1
 595 002e 08       		.byte	0x8
 596 002f 81070000 		.4byte	.LASF1
 597 0033 02       		.uleb128 0x2
 598 0034 02       		.byte	0x2
 599 0035 05       		.byte	0x5
 600 0036 1E190000 		.4byte	.LASF2
 601 003a 02       		.uleb128 0x2
 602 003b 02       		.byte	0x2
 603 003c 07       		.byte	0x7
 604 003d A41C0000 		.4byte	.LASF3
 605 0041 02       		.uleb128 0x2
 606 0042 04       		.byte	0x4
 607 0043 05       		.byte	0x5
 608 0044 A0040000 		.4byte	.LASF4
 609 0048 02       		.uleb128 0x2
 610 0049 04       		.byte	0x4
 611 004a 07       		.byte	0x7
 612 004b B60C0000 		.4byte	.LASF5
 613 004f 02       		.uleb128 0x2
 614 0050 08       		.byte	0x8
 615 0051 05       		.byte	0x5
 616 0052 780F0000 		.4byte	.LASF6
 617 0056 02       		.uleb128 0x2
 618 0057 08       		.byte	0x8
 619 0058 07       		.byte	0x7
 620 0059 25160000 		.4byte	.LASF7
ARM GAS  C:\Users\ELECTR~1\AppData\Local\Temp\ccJM91Ce.s 			page 44


 621 005d 03       		.uleb128 0x3
 622 005e 04       		.byte	0x4
 623 005f 05       		.byte	0x5
 624 0060 696E7400 		.ascii	"int\000"
 625 0064 02       		.uleb128 0x2
 626 0065 04       		.byte	0x4
 627 0066 07       		.byte	0x7
 628 0067 5B120000 		.4byte	.LASF8
 629 006b 04       		.uleb128 0x4
 630 006c EB180000 		.4byte	.LASF9
 631 0070 02       		.byte	0x2
 632 0071 C1       		.byte	0xc1
 633 0072 2C000000 		.4byte	0x2c
 634 0076 04       		.uleb128 0x4
 635 0077 261E0000 		.4byte	.LASF10
 636 007b 02       		.byte	0x2
 637 007c C2       		.byte	0xc2
 638 007d 3A000000 		.4byte	0x3a
 639 0081 04       		.uleb128 0x4
 640 0082 03010000 		.4byte	.LASF11
 641 0086 02       		.byte	0x2
 642 0087 C3       		.byte	0xc3
 643 0088 48000000 		.4byte	0x48
 644 008c 02       		.uleb128 0x2
 645 008d 04       		.byte	0x4
 646 008e 04       		.byte	0x4
 647 008f 1A110000 		.4byte	.LASF12
 648 0093 02       		.uleb128 0x2
 649 0094 08       		.byte	0x8
 650 0095 04       		.byte	0x4
 651 0096 26100000 		.4byte	.LASF13
 652 009a 02       		.uleb128 0x2
 653 009b 01       		.byte	0x1
 654 009c 08       		.byte	0x8
 655 009d 83080000 		.4byte	.LASF14
 656 00a1 05       		.uleb128 0x5
 657 00a2 6B000000 		.4byte	0x6b
 658 00a6 02       		.uleb128 0x2
 659 00a7 04       		.byte	0x4
 660 00a8 07       		.byte	0x7
 661 00a9 1B000000 		.4byte	.LASF15
 662 00ad 06       		.uleb128 0x6
 663 00ae 04       		.byte	0x4
 664 00af 07       		.uleb128 0x7
 665 00b0 01       		.byte	0x1
 666 00b1 03       		.byte	0x3
 667 00b2 96       		.byte	0x96
 668 00b3 34020000 		.4byte	0x234
 669 00b7 08       		.uleb128 0x8
 670 00b8 0B090000 		.4byte	.LASF16
 671 00bc 00       		.sleb128 0
 672 00bd 08       		.uleb128 0x8
 673 00be 0D050000 		.4byte	.LASF17
 674 00c2 01       		.sleb128 1
 675 00c3 08       		.uleb128 0x8
 676 00c4 5A160000 		.4byte	.LASF18
 677 00c8 02       		.sleb128 2
ARM GAS  C:\Users\ELECTR~1\AppData\Local\Temp\ccJM91Ce.s 			page 45


 678 00c9 08       		.uleb128 0x8
 679 00ca AD060000 		.4byte	.LASF19
 680 00ce 03       		.sleb128 3
 681 00cf 08       		.uleb128 0x8
 682 00d0 6C1D0000 		.4byte	.LASF20
 683 00d4 04       		.sleb128 4
 684 00d5 08       		.uleb128 0x8
 685 00d6 961B0000 		.4byte	.LASF21
 686 00da 05       		.sleb128 5
 687 00db 08       		.uleb128 0x8
 688 00dc 121A0000 		.4byte	.LASF22
 689 00e0 20       		.sleb128 32
 690 00e1 08       		.uleb128 0x8
 691 00e2 55030000 		.4byte	.LASF23
 692 00e6 21       		.sleb128 33
 693 00e7 08       		.uleb128 0x8
 694 00e8 F10E0000 		.4byte	.LASF24
 695 00ec 22       		.sleb128 34
 696 00ed 08       		.uleb128 0x8
 697 00ee 1F140000 		.4byte	.LASF25
 698 00f2 23       		.sleb128 35
 699 00f3 08       		.uleb128 0x8
 700 00f4 040C0000 		.4byte	.LASF26
 701 00f8 24       		.sleb128 36
 702 00f9 08       		.uleb128 0x8
 703 00fa 200C0000 		.4byte	.LASF27
 704 00fe 25       		.sleb128 37
 705 00ff 08       		.uleb128 0x8
 706 0100 C3180000 		.4byte	.LASF28
 707 0104 26       		.sleb128 38
 708 0105 08       		.uleb128 0x8
 709 0106 93000000 		.4byte	.LASF29
 710 010a 27       		.sleb128 39
 711 010b 08       		.uleb128 0x8
 712 010c E31D0000 		.4byte	.LASF30
 713 0110 28       		.sleb128 40
 714 0111 08       		.uleb128 0x8
 715 0112 78150000 		.4byte	.LASF31
 716 0116 29       		.sleb128 41
 717 0117 08       		.uleb128 0x8
 718 0118 2C0E0000 		.4byte	.LASF32
 719 011c 2A       		.sleb128 42
 720 011d 08       		.uleb128 0x8
 721 011e AC130000 		.4byte	.LASF33
 722 0122 2B       		.sleb128 43
 723 0123 08       		.uleb128 0x8
 724 0124 DC1B0000 		.4byte	.LASF34
 725 0128 2C       		.sleb128 44
 726 0129 08       		.uleb128 0x8
 727 012a 8C190000 		.4byte	.LASF35
 728 012e C000     		.sleb128 64
 729 0130 08       		.uleb128 0x8
 730 0131 D3000000 		.4byte	.LASF36
 731 0135 C100     		.sleb128 65
 732 0137 08       		.uleb128 0x8
 733 0138 811D0000 		.4byte	.LASF37
 734 013c C200     		.sleb128 66
ARM GAS  C:\Users\ELECTR~1\AppData\Local\Temp\ccJM91Ce.s 			page 46


 735 013e 08       		.uleb128 0x8
 736 013f 95150000 		.4byte	.LASF38
 737 0143 C300     		.sleb128 67
 738 0145 08       		.uleb128 0x8
 739 0146 8F070000 		.4byte	.LASF39
 740 014a C400     		.sleb128 68
 741 014c 08       		.uleb128 0x8
 742 014d 2E070000 		.4byte	.LASF40
 743 0151 C500     		.sleb128 69
 744 0153 08       		.uleb128 0x8
 745 0154 42180000 		.4byte	.LASF41
 746 0158 C600     		.sleb128 70
 747 015a 08       		.uleb128 0x8
 748 015b 24180000 		.4byte	.LASF42
 749 015f C700     		.sleb128 71
 750 0161 08       		.uleb128 0x8
 751 0162 5C080000 		.4byte	.LASF43
 752 0166 C800     		.sleb128 72
 753 0168 08       		.uleb128 0x8
 754 0169 94140000 		.4byte	.LASF44
 755 016d C900     		.sleb128 73
 756 016f 08       		.uleb128 0x8
 757 0170 91090000 		.4byte	.LASF45
 758 0174 CA00     		.sleb128 74
 759 0176 08       		.uleb128 0x8
 760 0177 B8080000 		.4byte	.LASF46
 761 017b CB00     		.sleb128 75
 762 017d 08       		.uleb128 0x8
 763 017e 05140000 		.4byte	.LASF47
 764 0182 CC00     		.sleb128 76
 765 0184 08       		.uleb128 0x8
 766 0185 90180000 		.4byte	.LASF48
 767 0189 CD00     		.sleb128 77
 768 018b 08       		.uleb128 0x8
 769 018c 82040000 		.4byte	.LASF49
 770 0190 CE00     		.sleb128 78
 771 0192 08       		.uleb128 0x8
 772 0193 68120000 		.4byte	.LASF50
 773 0197 CF00     		.sleb128 79
 774 0199 08       		.uleb128 0x8
 775 019a F3190000 		.4byte	.LASF51
 776 019e D000     		.sleb128 80
 777 01a0 08       		.uleb128 0x8
 778 01a1 C6090000 		.4byte	.LASF52
 779 01a5 D100     		.sleb128 81
 780 01a7 08       		.uleb128 0x8
 781 01a8 34030000 		.4byte	.LASF53
 782 01ac D200     		.sleb128 82
 783 01ae 08       		.uleb128 0x8
 784 01af 541B0000 		.4byte	.LASF54
 785 01b3 D300     		.sleb128 83
 786 01b5 08       		.uleb128 0x8
 787 01b6 051E0000 		.4byte	.LASF55
 788 01ba D400     		.sleb128 84
 789 01bc 08       		.uleb128 0x8
 790 01bd 20020000 		.4byte	.LASF56
 791 01c1 D500     		.sleb128 85
ARM GAS  C:\Users\ELECTR~1\AppData\Local\Temp\ccJM91Ce.s 			page 47


 792 01c3 08       		.uleb128 0x8
 793 01c4 560A0000 		.4byte	.LASF57
 794 01c8 D600     		.sleb128 86
 795 01ca 08       		.uleb128 0x8
 796 01cb 45110000 		.4byte	.LASF58
 797 01cf D700     		.sleb128 87
 798 01d1 08       		.uleb128 0x8
 799 01d2 4A1C0000 		.4byte	.LASF59
 800 01d6 F000     		.sleb128 112
 801 01d8 08       		.uleb128 0x8
 802 01d9 890B0000 		.4byte	.LASF60
 803 01dd F100     		.sleb128 113
 804 01df 08       		.uleb128 0x8
 805 01e0 EA050000 		.4byte	.LASF61
 806 01e4 F200     		.sleb128 114
 807 01e6 08       		.uleb128 0x8
 808 01e7 D5190000 		.4byte	.LASF62
 809 01eb F300     		.sleb128 115
 810 01ed 08       		.uleb128 0x8
 811 01ee E7140000 		.4byte	.LASF63
 812 01f2 F400     		.sleb128 116
 813 01f4 08       		.uleb128 0x8
 814 01f5 D00E0000 		.4byte	.LASF64
 815 01f9 F500     		.sleb128 117
 816 01fb 08       		.uleb128 0x8
 817 01fc 3B080000 		.4byte	.LASF65
 818 0200 F600     		.sleb128 118
 819 0202 08       		.uleb128 0x8
 820 0203 E0160000 		.4byte	.LASF66
 821 0207 F700     		.sleb128 119
 822 0209 08       		.uleb128 0x8
 823 020a 44020000 		.4byte	.LASF67
 824 020e F800     		.sleb128 120
 825 0210 08       		.uleb128 0x8
 826 0211 C9070000 		.4byte	.LASF68
 827 0215 F900     		.sleb128 121
 828 0217 08       		.uleb128 0x8
 829 0218 BF1D0000 		.4byte	.LASF69
 830 021c FA00     		.sleb128 122
 831 021e 08       		.uleb128 0x8
 832 021f 4F100000 		.4byte	.LASF70
 833 0223 FA01     		.sleb128 250
 834 0225 08       		.uleb128 0x8
 835 0226 0E1B0000 		.4byte	.LASF71
 836 022a FB01     		.sleb128 251
 837 022c 08       		.uleb128 0x8
 838 022d 9E130000 		.4byte	.LASF72
 839 0231 FF01     		.sleb128 255
 840 0233 00       		.byte	0
 841 0234 09       		.uleb128 0x9
 842 0235 02       		.byte	0x2
 843 0236 03       		.byte	0x3
 844 0237 F401     		.2byte	0x1f4
 845 0239 EB020000 		.4byte	0x2eb
 846 023d 08       		.uleb128 0x8
 847 023e D9060000 		.4byte	.LASF73
 848 0242 00       		.sleb128 0
ARM GAS  C:\Users\ELECTR~1\AppData\Local\Temp\ccJM91Ce.s 			page 48


 849 0243 08       		.uleb128 0x8
 850 0244 9E0A0000 		.4byte	.LASF74
 851 0248 01       		.sleb128 1
 852 0249 08       		.uleb128 0x8
 853 024a 4E1D0000 		.4byte	.LASF75
 854 024e 02       		.sleb128 2
 855 024f 08       		.uleb128 0x8
 856 0250 BC0A0000 		.4byte	.LASF76
 857 0254 03       		.sleb128 3
 858 0255 08       		.uleb128 0x8
 859 0256 570C0000 		.4byte	.LASF77
 860 025a 04       		.sleb128 4
 861 025b 08       		.uleb128 0x8
 862 025c 08100000 		.4byte	.LASF78
 863 0260 05       		.sleb128 5
 864 0261 08       		.uleb128 0x8
 865 0262 C11A0000 		.4byte	.LASF79
 866 0266 06       		.sleb128 6
 867 0267 08       		.uleb128 0x8
 868 0268 74090000 		.4byte	.LASF80
 869 026c 07       		.sleb128 7
 870 026d 08       		.uleb128 0x8
 871 026e FC100000 		.4byte	.LASF81
 872 0272 08       		.sleb128 8
 873 0273 08       		.uleb128 0x8
 874 0274 361A0000 		.4byte	.LASF82
 875 0278 09       		.sleb128 9
 876 0279 08       		.uleb128 0x8
 877 027a 2D1E0000 		.4byte	.LASF83
 878 027e 0A       		.sleb128 10
 879 027f 08       		.uleb128 0x8
 880 0280 80030000 		.4byte	.LASF84
 881 0284 0B       		.sleb128 11
 882 0285 08       		.uleb128 0x8
 883 0286 7F1B0000 		.4byte	.LASF85
 884 028a 0C       		.sleb128 12
 885 028b 08       		.uleb128 0x8
 886 028c 39130000 		.4byte	.LASF86
 887 0290 0D       		.sleb128 13
 888 0291 08       		.uleb128 0x8
 889 0292 750D0000 		.4byte	.LASF87
 890 0296 0E       		.sleb128 14
 891 0297 08       		.uleb128 0x8
 892 0298 E30F0000 		.4byte	.LASF88
 893 029c 0F       		.sleb128 15
 894 029d 08       		.uleb128 0x8
 895 029e D6010000 		.4byte	.LASF89
 896 02a2 10       		.sleb128 16
 897 02a3 08       		.uleb128 0x8
 898 02a4 D8100000 		.4byte	.LASF90
 899 02a8 11       		.sleb128 17
 900 02a9 08       		.uleb128 0x8
 901 02aa 20050000 		.4byte	.LASF91
 902 02ae 12       		.sleb128 18
 903 02af 08       		.uleb128 0x8
 904 02b0 44060000 		.4byte	.LASF92
 905 02b4 13       		.sleb128 19
ARM GAS  C:\Users\ELECTR~1\AppData\Local\Temp\ccJM91Ce.s 			page 49


 906 02b5 08       		.uleb128 0x8
 907 02b6 2D100000 		.4byte	.LASF93
 908 02ba 27       		.sleb128 39
 909 02bb 08       		.uleb128 0x8
 910 02bc 20110000 		.4byte	.LASF94
 911 02c0 28       		.sleb128 40
 912 02c1 08       		.uleb128 0x8
 913 02c2 04020000 		.4byte	.LASF95
 914 02c6 29       		.sleb128 41
 915 02c7 08       		.uleb128 0x8
 916 02c8 790B0000 		.4byte	.LASF96
 917 02cc FF01     		.sleb128 255
 918 02ce 08       		.uleb128 0x8
 919 02cf 5E140000 		.4byte	.LASF97
 920 02d3 8002     		.sleb128 256
 921 02d5 08       		.uleb128 0x8
 922 02d6 45140000 		.4byte	.LASF98
 923 02da 8102     		.sleb128 257
 924 02dc 08       		.uleb128 0x8
 925 02dd 9E050000 		.4byte	.LASF99
 926 02e1 8202     		.sleb128 258
 927 02e3 08       		.uleb128 0x8
 928 02e4 9A160000 		.4byte	.LASF100
 929 02e8 8302     		.sleb128 259
 930 02ea 00       		.byte	0
 931 02eb 0A       		.uleb128 0xa
 932 02ec 2D1B0000 		.4byte	.LASF101
 933 02f0 03       		.byte	0x3
 934 02f1 5102     		.2byte	0x251
 935 02f3 34020000 		.4byte	0x234
 936 02f7 09       		.uleb128 0x9
 937 02f8 01       		.byte	0x1
 938 02f9 03       		.byte	0x3
 939 02fa 8202     		.2byte	0x282
 940 02fc 37030000 		.4byte	0x337
 941 0300 08       		.uleb128 0x8
 942 0301 78060000 		.4byte	.LASF102
 943 0305 01       		.sleb128 1
 944 0306 08       		.uleb128 0x8
 945 0307 4D040000 		.4byte	.LASF103
 946 030b 02       		.sleb128 2
 947 030c 08       		.uleb128 0x8
 948 030d 43150000 		.4byte	.LASF104
 949 0311 03       		.sleb128 3
 950 0312 08       		.uleb128 0x8
 951 0313 BD030000 		.4byte	.LASF105
 952 0317 04       		.sleb128 4
 953 0318 08       		.uleb128 0x8
 954 0319 88080000 		.4byte	.LASF106
 955 031d 05       		.sleb128 5
 956 031e 08       		.uleb128 0x8
 957 031f E30C0000 		.4byte	.LASF107
 958 0323 06       		.sleb128 6
 959 0324 08       		.uleb128 0x8
 960 0325 DB1A0000 		.4byte	.LASF108
 961 0329 07       		.sleb128 7
 962 032a 08       		.uleb128 0x8
ARM GAS  C:\Users\ELECTR~1\AppData\Local\Temp\ccJM91Ce.s 			page 50


 963 032b 9F0C0000 		.4byte	.LASF109
 964 032f 08       		.sleb128 8
 965 0330 08       		.uleb128 0x8
 966 0331 96100000 		.4byte	.LASF110
 967 0335 09       		.sleb128 9
 968 0336 00       		.byte	0
 969 0337 0A       		.uleb128 0xa
 970 0338 150F0000 		.4byte	.LASF111
 971 033c 03       		.byte	0x3
 972 033d 8C02     		.2byte	0x28c
 973 033f F7020000 		.4byte	0x2f7
 974 0343 09       		.uleb128 0x9
 975 0344 01       		.byte	0x1
 976 0345 03       		.byte	0x3
 977 0346 9002     		.2byte	0x290
 978 0348 5F030000 		.4byte	0x35f
 979 034c 08       		.uleb128 0x8
 980 034d F91A0000 		.4byte	.LASF112
 981 0351 00       		.sleb128 0
 982 0352 08       		.uleb128 0x8
 983 0353 CE120000 		.4byte	.LASF113
 984 0357 01       		.sleb128 1
 985 0358 08       		.uleb128 0x8
 986 0359 351C0000 		.4byte	.LASF114
 987 035d 02       		.sleb128 2
 988 035e 00       		.byte	0
 989 035f 0A       		.uleb128 0xa
 990 0360 E8060000 		.4byte	.LASF115
 991 0364 03       		.byte	0x3
 992 0365 9702     		.2byte	0x297
 993 0367 43030000 		.4byte	0x343
 994 036b 0B       		.uleb128 0xb
 995 036c 02       		.byte	0x2
 996 036d 03       		.byte	0x3
 997 036e 9A02     		.2byte	0x29a
 998 0370 8F030000 		.4byte	0x38f
 999 0374 0C       		.uleb128 0xc
 1000 0375 1C010000 		.4byte	.LASF116
 1001 0379 03       		.byte	0x3
 1002 037a 9D02     		.2byte	0x29d
 1003 037c 37030000 		.4byte	0x337
 1004 0380 00       		.byte	0
 1005 0381 0C       		.uleb128 0xc
 1006 0382 E0050000 		.4byte	.LASF117
 1007 0386 03       		.byte	0x3
 1008 0387 9F02     		.2byte	0x29f
 1009 0389 5F030000 		.4byte	0x35f
 1010 038d 01       		.byte	0x1
 1011 038e 00       		.byte	0
 1012 038f 0A       		.uleb128 0xa
 1013 0390 1D1C0000 		.4byte	.LASF118
 1014 0394 03       		.byte	0x3
 1015 0395 A002     		.2byte	0x2a0
 1016 0397 6B030000 		.4byte	0x36b
 1017 039b 0B       		.uleb128 0xb
 1018 039c 07       		.byte	0x7
 1019 039d 03       		.byte	0x3
ARM GAS  C:\Users\ELECTR~1\AppData\Local\Temp\ccJM91Ce.s 			page 51


 1020 039e D202     		.2byte	0x2d2
 1021 03a0 BF030000 		.4byte	0x3bf
 1022 03a4 0C       		.uleb128 0xc
 1023 03a5 691A0000 		.4byte	.LASF119
 1024 03a9 03       		.byte	0x3
 1025 03aa D402     		.2byte	0x2d4
 1026 03ac BF030000 		.4byte	0x3bf
 1027 03b0 00       		.byte	0
 1028 03b1 0C       		.uleb128 0xc
 1029 03b2 97020000 		.4byte	.LASF120
 1030 03b6 03       		.byte	0x3
 1031 03b7 D502     		.2byte	0x2d5
 1032 03b9 6B000000 		.4byte	0x6b
 1033 03bd 06       		.byte	0x6
 1034 03be 00       		.byte	0
 1035 03bf 0D       		.uleb128 0xd
 1036 03c0 6B000000 		.4byte	0x6b
 1037 03c4 CF030000 		.4byte	0x3cf
 1038 03c8 0E       		.uleb128 0xe
 1039 03c9 A6000000 		.4byte	0xa6
 1040 03cd 05       		.byte	0x5
 1041 03ce 00       		.byte	0
 1042 03cf 0A       		.uleb128 0xa
 1043 03d0 74170000 		.4byte	.LASF121
 1044 03d4 03       		.byte	0x3
 1045 03d5 D602     		.2byte	0x2d6
 1046 03d7 9B030000 		.4byte	0x39b
 1047 03db 07       		.uleb128 0x7
 1048 03dc 01       		.byte	0x1
 1049 03dd 04       		.byte	0x4
 1050 03de 45       		.byte	0x45
 1051 03df FC030000 		.4byte	0x3fc
 1052 03e3 08       		.uleb128 0x8
 1053 03e4 A1170000 		.4byte	.LASF122
 1054 03e8 01       		.sleb128 1
 1055 03e9 08       		.uleb128 0x8
 1056 03ea 42170000 		.4byte	.LASF123
 1057 03ee 02       		.sleb128 2
 1058 03ef 08       		.uleb128 0x8
 1059 03f0 AD1D0000 		.4byte	.LASF124
 1060 03f4 03       		.sleb128 3
 1061 03f5 08       		.uleb128 0x8
 1062 03f6 FB170000 		.4byte	.LASF125
 1063 03fa 04       		.sleb128 4
 1064 03fb 00       		.byte	0
 1065 03fc 04       		.uleb128 0x4
 1066 03fd 9C020000 		.4byte	.LASF126
 1067 0401 04       		.byte	0x4
 1068 0402 52       		.byte	0x52
 1069 0403 DB030000 		.4byte	0x3db
 1070 0407 07       		.uleb128 0x7
 1071 0408 01       		.byte	0x1
 1072 0409 05       		.byte	0x5
 1073 040a B2       		.byte	0xb2
 1074 040b 28040000 		.4byte	0x428
 1075 040f 08       		.uleb128 0x8
 1076 0410 A9040000 		.4byte	.LASF127
ARM GAS  C:\Users\ELECTR~1\AppData\Local\Temp\ccJM91Ce.s 			page 52


 1077 0414 00       		.sleb128 0
 1078 0415 08       		.uleb128 0x8
 1079 0416 BF040000 		.4byte	.LASF128
 1080 041a 01       		.sleb128 1
 1081 041b 08       		.uleb128 0x8
 1082 041c D5040000 		.4byte	.LASF129
 1083 0420 02       		.sleb128 2
 1084 0421 08       		.uleb128 0x8
 1085 0422 3D0A0000 		.4byte	.LASF130
 1086 0426 0F       		.sleb128 15
 1087 0427 00       		.byte	0
 1088 0428 07       		.uleb128 0x7
 1089 0429 01       		.byte	0x1
 1090 042a 05       		.byte	0x5
 1091 042b CC       		.byte	0xcc
 1092 042c 4F040000 		.4byte	0x44f
 1093 0430 08       		.uleb128 0x8
 1094 0431 A0030000 		.4byte	.LASF131
 1095 0435 00       		.sleb128 0
 1096 0436 08       		.uleb128 0x8
 1097 0437 BE1B0000 		.4byte	.LASF132
 1098 043b 01       		.sleb128 1
 1099 043c 08       		.uleb128 0x8
 1100 043d ED080000 		.4byte	.LASF133
 1101 0441 02       		.sleb128 2
 1102 0442 08       		.uleb128 0x8
 1103 0443 B2000000 		.4byte	.LASF134
 1104 0447 03       		.sleb128 3
 1105 0448 08       		.uleb128 0x8
 1106 0449 A6190000 		.4byte	.LASF135
 1107 044d 04       		.sleb128 4
 1108 044e 00       		.byte	0
 1109 044f 04       		.uleb128 0x4
 1110 0450 0A010000 		.4byte	.LASF136
 1111 0454 05       		.byte	0x5
 1112 0455 DE       		.byte	0xde
 1113 0456 28040000 		.4byte	0x428
 1114 045a 07       		.uleb128 0x7
 1115 045b 01       		.byte	0x1
 1116 045c 05       		.byte	0x5
 1117 045d E2       		.byte	0xe2
 1118 045e B1040000 		.4byte	0x4b1
 1119 0462 08       		.uleb128 0x8
 1120 0463 5E150000 		.4byte	.LASF137
 1121 0467 00       		.sleb128 0
 1122 0468 08       		.uleb128 0x8
 1123 0469 0D040000 		.4byte	.LASF138
 1124 046d 01       		.sleb128 1
 1125 046e 08       		.uleb128 0x8
 1126 046f CC150000 		.4byte	.LASF139
 1127 0473 02       		.sleb128 2
 1128 0474 08       		.uleb128 0x8
 1129 0475 290D0000 		.4byte	.LASF140
 1130 0479 03       		.sleb128 3
 1131 047a 08       		.uleb128 0x8
 1132 047b 1B1D0000 		.4byte	.LASF141
 1133 047f 04       		.sleb128 4
ARM GAS  C:\Users\ELECTR~1\AppData\Local\Temp\ccJM91Ce.s 			page 53


 1134 0480 08       		.uleb128 0x8
 1135 0481 D0170000 		.4byte	.LASF142
 1136 0485 05       		.sleb128 5
 1137 0486 08       		.uleb128 0x8
 1138 0487 420F0000 		.4byte	.LASF143
 1139 048b 06       		.sleb128 6
 1140 048c 08       		.uleb128 0x8
 1141 048d FE0C0000 		.4byte	.LASF144
 1142 0491 07       		.sleb128 7
 1143 0492 08       		.uleb128 0x8
 1144 0493 DF020000 		.4byte	.LASF145
 1145 0497 08       		.sleb128 8
 1146 0498 08       		.uleb128 0x8
 1147 0499 A90E0000 		.4byte	.LASF146
 1148 049d 09       		.sleb128 9
 1149 049e 08       		.uleb128 0x8
 1150 049f 13080000 		.4byte	.LASF147
 1151 04a3 0A       		.sleb128 10
 1152 04a4 08       		.uleb128 0x8
 1153 04a5 B3020000 		.4byte	.LASF148
 1154 04a9 15       		.sleb128 21
 1155 04aa 08       		.uleb128 0x8
 1156 04ab AF0B0000 		.4byte	.LASF149
 1157 04af 18       		.sleb128 24
 1158 04b0 00       		.byte	0
 1159 04b1 0A       		.uleb128 0xa
 1160 04b2 E6130000 		.4byte	.LASF150
 1161 04b6 05       		.byte	0x5
 1162 04b7 0E01     		.2byte	0x10e
 1163 04b9 5A040000 		.4byte	0x45a
 1164 04bd 0B       		.uleb128 0xb
 1165 04be 04       		.byte	0x4
 1166 04bf 05       		.byte	0x5
 1167 04c0 2701     		.2byte	0x127
 1168 04c2 FB040000 		.4byte	0x4fb
 1169 04c6 0C       		.uleb128 0xc
 1170 04c7 00190000 		.4byte	.LASF151
 1171 04cb 05       		.byte	0x5
 1172 04cc 3001     		.2byte	0x130
 1173 04ce 6B000000 		.4byte	0x6b
 1174 04d2 00       		.byte	0
 1175 04d3 0C       		.uleb128 0xc
 1176 04d4 35120000 		.4byte	.LASF152
 1177 04d8 05       		.byte	0x5
 1178 04d9 3601     		.2byte	0x136
 1179 04db 6B000000 		.4byte	0x6b
 1180 04df 01       		.byte	0x1
 1181 04e0 0C       		.uleb128 0xc
 1182 04e1 24000000 		.4byte	.LASF153
 1183 04e5 05       		.byte	0x5
 1184 04e6 3C01     		.2byte	0x13c
 1185 04e8 6B000000 		.4byte	0x6b
 1186 04ec 02       		.byte	0x2
 1187 04ed 0C       		.uleb128 0xc
 1188 04ee 28190000 		.4byte	.LASF154
 1189 04f2 05       		.byte	0x5
 1190 04f3 4001     		.2byte	0x140
ARM GAS  C:\Users\ELECTR~1\AppData\Local\Temp\ccJM91Ce.s 			page 54


 1191 04f5 B1040000 		.4byte	0x4b1
 1192 04f9 03       		.byte	0x3
 1193 04fa 00       		.byte	0
 1194 04fb 0A       		.uleb128 0xa
 1195 04fc D7080000 		.4byte	.LASF155
 1196 0500 05       		.byte	0x5
 1197 0501 4201     		.2byte	0x142
 1198 0503 BD040000 		.4byte	0x4bd
 1199 0507 0F       		.uleb128 0xf
 1200 0508 04       		.byte	0x4
 1201 0509 6B000000 		.4byte	0x6b
 1202 050d 0B       		.uleb128 0xb
 1203 050e 08       		.byte	0x8
 1204 050f 05       		.byte	0x5
 1205 0510 AE02     		.2byte	0x2ae
 1206 0512 4B050000 		.4byte	0x54b
 1207 0516 0C       		.uleb128 0xc
 1208 0517 DC0C0000 		.4byte	.LASF156
 1209 051b 05       		.byte	0x5
 1210 051c B202     		.2byte	0x2b2
 1211 051e 6B000000 		.4byte	0x6b
 1212 0522 00       		.byte	0
 1213 0523 0C       		.uleb128 0xc
 1214 0524 9B1C0000 		.4byte	.LASF157
 1215 0528 05       		.byte	0x5
 1216 0529 B802     		.2byte	0x2b8
 1217 052b 76000000 		.4byte	0x76
 1218 052f 02       		.byte	0x2
 1219 0530 0C       		.uleb128 0xc
 1220 0531 B21B0000 		.4byte	.LASF158
 1221 0535 05       		.byte	0x5
 1222 0536 BD02     		.2byte	0x2bd
 1223 0538 76000000 		.4byte	0x76
 1224 053c 04       		.byte	0x4
 1225 053d 0C       		.uleb128 0xc
 1226 053e 9F1D0000 		.4byte	.LASF159
 1227 0542 05       		.byte	0x5
 1228 0543 C302     		.2byte	0x2c3
 1229 0545 76000000 		.4byte	0x76
 1230 0549 06       		.byte	0x6
 1231 054a 00       		.byte	0
 1232 054b 0A       		.uleb128 0xa
 1233 054c F8150000 		.4byte	.LASF160
 1234 0550 05       		.byte	0x5
 1235 0551 C502     		.2byte	0x2c5
 1236 0553 0D050000 		.4byte	0x50d
 1237 0557 07       		.uleb128 0x7
 1238 0558 01       		.byte	0x1
 1239 0559 06       		.byte	0x6
 1240 055a 48       		.byte	0x48
 1241 055b 11060000 		.4byte	0x611
 1242 055f 08       		.uleb128 0x8
 1243 0560 890A0000 		.4byte	.LASF161
 1244 0564 01       		.sleb128 1
 1245 0565 08       		.uleb128 0x8
 1246 0566 5B090000 		.4byte	.LASF162
 1247 056a 02       		.sleb128 2
ARM GAS  C:\Users\ELECTR~1\AppData\Local\Temp\ccJM91Ce.s 			page 55


 1248 056b 08       		.uleb128 0x8
 1249 056c 69040000 		.4byte	.LASF163
 1250 0570 03       		.sleb128 3
 1251 0571 08       		.uleb128 0x8
 1252 0572 94060000 		.4byte	.LASF164
 1253 0576 04       		.sleb128 4
 1254 0577 08       		.uleb128 0x8
 1255 0578 B3150000 		.4byte	.LASF165
 1256 057c 05       		.sleb128 5
 1257 057d 08       		.uleb128 0x8
 1258 057e 21150000 		.4byte	.LASF166
 1259 0582 06       		.sleb128 6
 1260 0583 08       		.uleb128 0x8
 1261 0584 EB040000 		.4byte	.LASF167
 1262 0588 07       		.sleb128 7
 1263 0589 08       		.uleb128 0x8
 1264 058a CB140000 		.4byte	.LASF168
 1265 058e 08       		.sleb128 8
 1266 058f 08       		.uleb128 0x8
 1267 0590 07030000 		.4byte	.LASF169
 1268 0594 09       		.sleb128 9
 1269 0595 08       		.uleb128 0x8
 1270 0596 C80C0000 		.4byte	.LASF170
 1271 059a 0A       		.sleb128 10
 1272 059b 08       		.uleb128 0x8
 1273 059c AD1A0000 		.4byte	.LASF171
 1274 05a0 0B       		.sleb128 11
 1275 05a1 08       		.uleb128 0x8
 1276 05a2 88170000 		.4byte	.LASF172
 1277 05a6 0C       		.sleb128 12
 1278 05a7 08       		.uleb128 0x8
 1279 05a8 06060000 		.4byte	.LASF173
 1280 05ac 0D       		.sleb128 13
 1281 05ad 08       		.uleb128 0x8
 1282 05ae 77140000 		.4byte	.LASF174
 1283 05b2 0E       		.sleb128 14
 1284 05b3 08       		.uleb128 0x8
 1285 05b4 7A020000 		.4byte	.LASF175
 1286 05b8 0F       		.sleb128 15
 1287 05b9 08       		.uleb128 0x8
 1288 05ba FE1C0000 		.4byte	.LASF176
 1289 05be 10       		.sleb128 16
 1290 05bf 08       		.uleb128 0x8
 1291 05c0 3A0C0000 		.4byte	.LASF177
 1292 05c4 11       		.sleb128 17
 1293 05c5 08       		.uleb128 0x8
 1294 05c6 09190000 		.4byte	.LASF178
 1295 05ca 12       		.sleb128 18
 1296 05cb 08       		.uleb128 0x8
 1297 05cc A3080000 		.4byte	.LASF179
 1298 05d0 13       		.sleb128 19
 1299 05d1 08       		.uleb128 0x8
 1300 05d2 EE000000 		.4byte	.LASF180
 1301 05d6 D200     		.sleb128 82
 1302 05d8 08       		.uleb128 0x8
 1303 05d9 93010000 		.4byte	.LASF181
 1304 05dd 16       		.sleb128 22
ARM GAS  C:\Users\ELECTR~1\AppData\Local\Temp\ccJM91Ce.s 			page 56


 1305 05de 08       		.uleb128 0x8
 1306 05df 5E130000 		.4byte	.LASF182
 1307 05e3 17       		.sleb128 23
 1308 05e4 08       		.uleb128 0x8
 1309 05e5 001C0000 		.4byte	.LASF183
 1310 05e9 18       		.sleb128 24
 1311 05ea 08       		.uleb128 0x8
 1312 05eb 5C0B0000 		.4byte	.LASF184
 1313 05ef 19       		.sleb128 25
 1314 05f0 08       		.uleb128 0x8
 1315 05f1 590D0000 		.4byte	.LASF185
 1316 05f5 1B       		.sleb128 27
 1317 05f6 08       		.uleb128 0x8
 1318 05f7 AD070000 		.4byte	.LASF186
 1319 05fb 1D       		.sleb128 29
 1320 05fc 08       		.uleb128 0x8
 1321 05fd 2D000000 		.4byte	.LASF187
 1322 0601 1E       		.sleb128 30
 1323 0602 08       		.uleb128 0x8
 1324 0603 FB0A0000 		.4byte	.LASF188
 1325 0607 D201     		.sleb128 210
 1326 0609 08       		.uleb128 0x8
 1327 060a 7F160000 		.4byte	.LASF189
 1328 060e FF01     		.sleb128 255
 1329 0610 00       		.byte	0
 1330 0611 07       		.uleb128 0x7
 1331 0612 01       		.byte	0x1
 1332 0613 06       		.byte	0x6
 1333 0614 A4       		.byte	0xa4
 1334 0615 E8060000 		.4byte	0x6e8
 1335 0619 08       		.uleb128 0x8
 1336 061a FF160000 		.4byte	.LASF190
 1337 061e 00       		.sleb128 0
 1338 061f 08       		.uleb128 0x8
 1339 0620 3C160000 		.4byte	.LASF191
 1340 0624 01       		.sleb128 1
 1341 0625 08       		.uleb128 0x8
 1342 0626 4C010000 		.4byte	.LASF192
 1343 062a 02       		.sleb128 2
 1344 062b 08       		.uleb128 0x8
 1345 062c 781C0000 		.4byte	.LASF193
 1346 0630 03       		.sleb128 3
 1347 0631 08       		.uleb128 0x8
 1348 0632 57050000 		.4byte	.LASF194
 1349 0636 04       		.sleb128 4
 1350 0637 08       		.uleb128 0x8
 1351 0638 87120000 		.4byte	.LASF195
 1352 063c 05       		.sleb128 5
 1353 063d 08       		.uleb128 0x8
 1354 063e 67190000 		.4byte	.LASF196
 1355 0642 06       		.sleb128 6
 1356 0643 08       		.uleb128 0x8
 1357 0644 AD140000 		.4byte	.LASF197
 1358 0648 07       		.sleb128 7
 1359 0649 08       		.uleb128 0x8
 1360 064a 75110000 		.4byte	.LASF198
 1361 064e 08       		.sleb128 8
ARM GAS  C:\Users\ELECTR~1\AppData\Local\Temp\ccJM91Ce.s 			page 57


 1362 064f 08       		.uleb128 0x8
 1363 0650 BB0F0000 		.4byte	.LASF199
 1364 0654 09       		.sleb128 9
 1365 0655 08       		.uleb128 0x8
 1366 0656 7B130000 		.4byte	.LASF200
 1367 065a 0A       		.sleb128 10
 1368 065b 08       		.uleb128 0x8
 1369 065c 1B0A0000 		.4byte	.LASF201
 1370 0660 0B       		.sleb128 11
 1371 0661 08       		.uleb128 0x8
 1372 0662 6D100000 		.4byte	.LASF202
 1373 0666 0C       		.sleb128 12
 1374 0667 08       		.uleb128 0x8
 1375 0668 1F060000 		.4byte	.LASF203
 1376 066c 0D       		.sleb128 13
 1377 066d 08       		.uleb128 0x8
 1378 066e 3D090000 		.4byte	.LASF204
 1379 0672 0E       		.sleb128 14
 1380 0673 08       		.uleb128 0x8
 1381 0674 B71C0000 		.4byte	.LASF205
 1382 0678 0F       		.sleb128 15
 1383 0679 08       		.uleb128 0x8
 1384 067a B0010000 		.4byte	.LASF206
 1385 067e 10       		.sleb128 16
 1386 067f 08       		.uleb128 0x8
 1387 0680 6E010000 		.4byte	.LASF207
 1388 0684 11       		.sleb128 17
 1389 0685 08       		.uleb128 0x8
 1390 0686 E5090000 		.4byte	.LASF208
 1391 068a 8001     		.sleb128 128
 1392 068c 08       		.uleb128 0x8
 1393 068d D60B0000 		.4byte	.LASF209
 1394 0691 8001     		.sleb128 128
 1395 0693 08       		.uleb128 0x8
 1396 0694 30190000 		.4byte	.LASF210
 1397 0698 8001     		.sleb128 128
 1398 069a 08       		.uleb128 0x8
 1399 069b 54170000 		.4byte	.LASF211
 1400 069f 8001     		.sleb128 128
 1401 06a1 08       		.uleb128 0x8
 1402 06a2 01130000 		.4byte	.LASF212
 1403 06a6 8001     		.sleb128 128
 1404 06a8 08       		.uleb128 0x8
 1405 06a9 7A0C0000 		.4byte	.LASF213
 1406 06ad 8001     		.sleb128 128
 1407 06af 08       		.uleb128 0x8
 1408 06b0 22090000 		.4byte	.LASF214
 1409 06b4 8001     		.sleb128 128
 1410 06b6 08       		.uleb128 0x8
 1411 06b7 170B0000 		.4byte	.LASF215
 1412 06bb 8101     		.sleb128 129
 1413 06bd 08       		.uleb128 0x8
 1414 06be 63180000 		.4byte	.LASF216
 1415 06c2 8101     		.sleb128 129
 1416 06c4 08       		.uleb128 0x8
 1417 06c5 00000000 		.4byte	.LASF217
 1418 06c9 8101     		.sleb128 129
ARM GAS  C:\Users\ELECTR~1\AppData\Local\Temp\ccJM91Ce.s 			page 58


 1419 06cb 08       		.uleb128 0x8
 1420 06cc 701A0000 		.4byte	.LASF218
 1421 06d0 A001     		.sleb128 160
 1422 06d2 08       		.uleb128 0x8
 1423 06d3 04070000 		.4byte	.LASF219
 1424 06d7 FD01     		.sleb128 253
 1425 06d9 08       		.uleb128 0x8
 1426 06da AB100000 		.4byte	.LASF220
 1427 06de FE01     		.sleb128 254
 1428 06e0 08       		.uleb128 0x8
 1429 06e1 05150000 		.4byte	.LASF221
 1430 06e5 FF01     		.sleb128 255
 1431 06e7 00       		.byte	0
 1432 06e8 0A       		.uleb128 0xa
 1433 06e9 2C170000 		.4byte	.LASF222
 1434 06ed 06       		.byte	0x6
 1435 06ee 4001     		.2byte	0x140
 1436 06f0 11060000 		.4byte	0x611
 1437 06f4 0A       		.uleb128 0xa
 1438 06f5 B4160000 		.4byte	.LASF223
 1439 06f9 06       		.byte	0x6
 1440 06fa 6201     		.2byte	0x162
 1441 06fc 76000000 		.4byte	0x76
 1442 0700 0B       		.uleb128 0xb
 1443 0701 02       		.byte	0x2
 1444 0702 06       		.byte	0x6
 1445 0703 6501     		.2byte	0x165
 1446 0705 24070000 		.4byte	0x724
 1447 0709 0C       		.uleb128 0xc
 1448 070a 04040000 		.4byte	.LASF224
 1449 070e 06       		.byte	0x6
 1450 070f 6C01     		.2byte	0x16c
 1451 0711 6B000000 		.4byte	0x6b
 1452 0715 00       		.byte	0
 1453 0716 0C       		.uleb128 0xc
 1454 0717 481D0000 		.4byte	.LASF225
 1455 071b 06       		.byte	0x6
 1456 071c 7201     		.2byte	0x172
 1457 071e 6B000000 		.4byte	0x6b
 1458 0722 01       		.byte	0x1
 1459 0723 00       		.byte	0
 1460 0724 0A       		.uleb128 0xa
 1461 0725 6C030000 		.4byte	.LASF226
 1462 0729 06       		.byte	0x6
 1463 072a 7401     		.2byte	0x174
 1464 072c 00070000 		.4byte	0x700
 1465 0730 0B       		.uleb128 0xb
 1466 0731 08       		.byte	0x8
 1467 0732 06       		.byte	0x6
 1468 0733 8901     		.2byte	0x189
 1469 0735 61070000 		.4byte	0x761
 1470 0739 10       		.uleb128 0x10
 1471 073a 76616C00 		.ascii	"val\000"
 1472 073e 06       		.byte	0x6
 1473 073f 8C01     		.2byte	0x18c
 1474 0741 07050000 		.4byte	0x507
 1475 0745 00       		.byte	0
ARM GAS  C:\Users\ELECTR~1\AppData\Local\Temp\ccJM91Ce.s 			page 59


 1476 0746 10       		.uleb128 0x10
 1477 0747 6C656E00 		.ascii	"len\000"
 1478 074b 06       		.byte	0x6
 1479 074c 8F01     		.2byte	0x18f
 1480 074e 76000000 		.4byte	0x76
 1481 0752 04       		.byte	0x4
 1482 0753 0C       		.uleb128 0xc
 1483 0754 F41C0000 		.4byte	.LASF227
 1484 0758 06       		.byte	0x6
 1485 0759 9601     		.2byte	0x196
 1486 075b 76000000 		.4byte	0x76
 1487 075f 06       		.byte	0x6
 1488 0760 00       		.byte	0
 1489 0761 0A       		.uleb128 0xa
 1490 0762 67020000 		.4byte	.LASF228
 1491 0766 06       		.byte	0x6
 1492 0767 9801     		.2byte	0x198
 1493 0769 30070000 		.4byte	0x730
 1494 076d 0B       		.uleb128 0xb
 1495 076e 0C       		.byte	0xc
 1496 076f 06       		.byte	0x6
 1497 0770 9B01     		.2byte	0x19b
 1498 0772 91070000 		.4byte	0x791
 1499 0776 0C       		.uleb128 0xc
 1500 0777 13170000 		.4byte	.LASF229
 1501 077b 06       		.byte	0x6
 1502 077c 9E01     		.2byte	0x19e
 1503 077e 61070000 		.4byte	0x761
 1504 0782 00       		.byte	0
 1505 0783 0C       		.uleb128 0xc
 1506 0784 9F110000 		.4byte	.LASF230
 1507 0788 06       		.byte	0x6
 1508 0789 A101     		.2byte	0x1a1
 1509 078b F4060000 		.4byte	0x6f4
 1510 078f 08       		.byte	0x8
 1511 0790 00       		.byte	0
 1512 0791 0A       		.uleb128 0xa
 1513 0792 C1050000 		.4byte	.LASF231
 1514 0796 06       		.byte	0x6
 1515 0797 A301     		.2byte	0x1a3
 1516 0799 6D070000 		.4byte	0x76d
 1517 079d 0B       		.uleb128 0xb
 1518 079e 04       		.byte	0x4
 1519 079f 06       		.byte	0x6
 1520 07a0 B101     		.2byte	0x1b1
 1521 07a2 C1070000 		.4byte	0x7c1
 1522 07a6 0C       		.uleb128 0xc
 1523 07a7 C5170000 		.4byte	.LASF232
 1524 07ab 06       		.byte	0x6
 1525 07ac B401     		.2byte	0x1b4
 1526 07ae 24070000 		.4byte	0x724
 1527 07b2 00       		.byte	0
 1528 07b3 10       		.uleb128 0x10
 1529 07b4 6D747500 		.ascii	"mtu\000"
 1530 07b8 06       		.byte	0x6
 1531 07b9 B701     		.2byte	0x1b7
 1532 07bb 76000000 		.4byte	0x76
ARM GAS  C:\Users\ELECTR~1\AppData\Local\Temp\ccJM91Ce.s 			page 60


 1533 07bf 02       		.byte	0x2
 1534 07c0 00       		.byte	0
 1535 07c1 0A       		.uleb128 0xa
 1536 07c2 B2120000 		.4byte	.LASF233
 1537 07c6 06       		.byte	0x6
 1538 07c7 B901     		.2byte	0x1b9
 1539 07c9 9D070000 		.4byte	0x79d
 1540 07cd 11       		.uleb128 0x11
 1541 07ce 04       		.byte	0x4
 1542 07cf 07       		.byte	0x7
 1543 07d0 34       		.byte	0x34
 1544 07d1 FA070000 		.4byte	0x7fa
 1545 07d5 12       		.uleb128 0x12
 1546 07d6 9F110000 		.4byte	.LASF230
 1547 07da 07       		.byte	0x7
 1548 07db 37       		.byte	0x37
 1549 07dc F4060000 		.4byte	0x6f4
 1550 07e0 00       		.byte	0
 1551 07e1 12       		.uleb128 0x12
 1552 07e2 6E110000 		.4byte	.LASF234
 1553 07e6 07       		.byte	0x7
 1554 07e7 3D       		.byte	0x3d
 1555 07e8 6B000000 		.4byte	0x6b
 1556 07ec 02       		.byte	0x2
 1557 07ed 12       		.uleb128 0x12
 1558 07ee 09080000 		.4byte	.LASF235
 1559 07f2 07       		.byte	0x7
 1560 07f3 40       		.byte	0x40
 1561 07f4 E8060000 		.4byte	0x6e8
 1562 07f8 03       		.byte	0x3
 1563 07f9 00       		.byte	0
 1564 07fa 04       		.uleb128 0x4
 1565 07fb 69070000 		.4byte	.LASF236
 1566 07ff 07       		.byte	0x7
 1567 0800 42       		.byte	0x42
 1568 0801 CD070000 		.4byte	0x7cd
 1569 0805 11       		.uleb128 0x11
 1570 0806 10       		.byte	0x10
 1571 0807 07       		.byte	0x7
 1572 0808 84       		.byte	0x84
 1573 0809 26080000 		.4byte	0x826
 1574 080d 12       		.uleb128 0x12
 1575 080e C5170000 		.4byte	.LASF232
 1576 0812 07       		.byte	0x7
 1577 0813 87       		.byte	0x87
 1578 0814 24070000 		.4byte	0x724
 1579 0818 00       		.byte	0
 1580 0819 12       		.uleb128 0x12
 1581 081a B7170000 		.4byte	.LASF237
 1582 081e 07       		.byte	0x7
 1583 081f 8A       		.byte	0x8a
 1584 0820 91070000 		.4byte	0x791
 1585 0824 04       		.byte	0x4
 1586 0825 00       		.byte	0
 1587 0826 04       		.uleb128 0x4
 1588 0827 3D120000 		.4byte	.LASF238
 1589 082b 07       		.byte	0x7
ARM GAS  C:\Users\ELECTR~1\AppData\Local\Temp\ccJM91Ce.s 			page 61


 1590 082c 8C       		.byte	0x8c
 1591 082d 05080000 		.4byte	0x805
 1592 0831 0A       		.uleb128 0xa
 1593 0832 23030000 		.4byte	.LASF239
 1594 0836 08       		.byte	0x8
 1595 0837 2D01     		.2byte	0x12d
 1596 0839 3D080000 		.4byte	0x83d
 1597 083d 0F       		.uleb128 0xf
 1598 083e 04       		.byte	0x4
 1599 083f 43080000 		.4byte	0x843
 1600 0843 13       		.uleb128 0x13
 1601 0844 53080000 		.4byte	0x853
 1602 0848 14       		.uleb128 0x14
 1603 0849 81000000 		.4byte	0x81
 1604 084d 14       		.uleb128 0x14
 1605 084e AD000000 		.4byte	0xad
 1606 0852 00       		.byte	0
 1607 0853 09       		.uleb128 0x9
 1608 0854 01       		.byte	0x1
 1609 0855 09       		.byte	0x9
 1610 0856 1D07     		.2byte	0x71d
 1611 0858 7B080000 		.4byte	0x87b
 1612 085c 08       		.uleb128 0x8
 1613 085d 55070000 		.4byte	.LASF240
 1614 0861 00       		.sleb128 0
 1615 0862 08       		.uleb128 0x8
 1616 0863 820E0000 		.4byte	.LASF241
 1617 0867 01       		.sleb128 1
 1618 0868 08       		.uleb128 0x8
 1619 0869 DE1C0000 		.4byte	.LASF242
 1620 086d 02       		.sleb128 2
 1621 086e 08       		.uleb128 0x8
 1622 086f D8030000 		.4byte	.LASF243
 1623 0873 03       		.sleb128 3
 1624 0874 08       		.uleb128 0x8
 1625 0875 AA180000 		.4byte	.LASF244
 1626 0879 04       		.sleb128 4
 1627 087a 00       		.byte	0
 1628 087b 0A       		.uleb128 0xa
 1629 087c C7190000 		.4byte	.LASF245
 1630 0880 09       		.byte	0x9
 1631 0881 2B07     		.2byte	0x72b
 1632 0883 53080000 		.4byte	0x853
 1633 0887 15       		.uleb128 0x15
 1634 0888 860F0000 		.4byte	.LASF280
 1635 088c 01       		.byte	0x1
 1636 088d 7304     		.2byte	0x473
 1637 088f 00000000 		.4byte	.LFB4
 1638 0893 10000000 		.4byte	.LFE4-.LFB4
 1639 0897 01       		.uleb128 0x1
 1640 0898 9C       		.byte	0x9c
 1641 0899 16       		.uleb128 0x16
 1642 089a CB130000 		.4byte	.LASF281
 1643 089e 01       		.byte	0x1
 1644 089f 1705     		.2byte	0x517
 1645 08a1 6B000000 		.4byte	0x6b
 1646 08a5 00000000 		.4byte	.LFB7
ARM GAS  C:\Users\ELECTR~1\AppData\Local\Temp\ccJM91Ce.s 			page 62


 1647 08a9 24000000 		.4byte	.LFE7-.LFB7
 1648 08ad 01       		.uleb128 0x1
 1649 08ae 9C       		.byte	0x9c
 1650 08af E2080000 		.4byte	0x8e2
 1651 08b3 17       		.uleb128 0x17
 1652 08b4 A70F0000 		.4byte	.LASF247
 1653 08b8 01       		.byte	0x1
 1654 08b9 1705     		.2byte	0x517
 1655 08bb E2080000 		.4byte	0x8e2
 1656 08bf 00000000 		.4byte	.LLST0
 1657 08c3 18       		.uleb128 0x18
 1658 08c4 6900     		.ascii	"i\000"
 1659 08c6 01       		.byte	0x1
 1660 08c7 1905     		.2byte	0x519
 1661 08c9 6B000000 		.4byte	0x6b
 1662 08cd 53000000 		.4byte	.LLST1
 1663 08d1 19       		.uleb128 0x19
 1664 08d2 6C160000 		.4byte	.LASF246
 1665 08d6 01       		.byte	0x1
 1666 08d7 1A05     		.2byte	0x51a
 1667 08d9 6B000000 		.4byte	0x6b
 1668 08dd 7C000000 		.4byte	.LLST2
 1669 08e1 00       		.byte	0
 1670 08e2 0F       		.uleb128 0xf
 1671 08e3 04       		.byte	0x4
 1672 08e4 E8080000 		.4byte	0x8e8
 1673 08e8 1A       		.uleb128 0x1a
 1674 08e9 CF030000 		.4byte	0x3cf
 1675 08ed 1B       		.uleb128 0x1b
 1676 08ee 72000000 		.4byte	.LASF282
 1677 08f2 01       		.byte	0x1
 1678 08f3 DE       		.byte	0xde
 1679 08f4 00000000 		.4byte	.LFB2
 1680 08f8 38000000 		.4byte	.LFE2-.LFB2
 1681 08fc 01       		.uleb128 0x1
 1682 08fd 9C       		.byte	0x9c
 1683 08fe 6B090000 		.4byte	0x96b
 1684 0902 1C       		.uleb128 0x1c
 1685 0903 88000000 		.4byte	.LASF248
 1686 0907 01       		.byte	0x1
 1687 0908 DE       		.byte	0xde
 1688 0909 6B090000 		.4byte	0x96b
 1689 090d 9B000000 		.4byte	.LLST3
 1690 0911 1D       		.uleb128 0x1d
 1691 0912 701C0000 		.4byte	.LASF249
 1692 0916 01       		.byte	0x1
 1693 0917 E0       		.byte	0xe0
 1694 0918 E8060000 		.4byte	0x6e8
 1695 091c C7000000 		.4byte	.LLST4
 1696 0920 1E       		.uleb128 0x1e
 1697 0921 16000000 		.4byte	.LBB2
 1698 0925 12000000 		.4byte	.LBE2-.LBB2
 1699 0929 4D090000 		.4byte	0x94d
 1700 092d 1F       		.uleb128 0x1f
 1701 092e 2F130000 		.4byte	.LASF250
 1702 0932 01       		.byte	0x1
 1703 0933 8201     		.2byte	0x182
ARM GAS  C:\Users\ELECTR~1\AppData\Local\Temp\ccJM91Ce.s 			page 63


 1704 0935 FA070000 		.4byte	0x7fa
 1705 0939 02       		.uleb128 0x2
 1706 093a 91       		.byte	0x91
 1707 093b 74       		.sleb128 -12
 1708 093c 20       		.uleb128 0x20
 1709 093d 28000000 		.4byte	.LVL13
 1710 0941 1A0C0000 		.4byte	0xc1a
 1711 0945 21       		.uleb128 0x21
 1712 0946 01       		.uleb128 0x1
 1713 0947 51       		.byte	0x51
 1714 0948 02       		.uleb128 0x2
 1715 0949 91       		.byte	0x91
 1716 094a 74       		.sleb128 -12
 1717 094b 00       		.byte	0
 1718 094c 00       		.byte	0
 1719 094d 22       		.uleb128 0x22
 1720 094e 0A000000 		.4byte	.LVL11
 1721 0952 3B0C0000 		.4byte	0xc3b
 1722 0956 61090000 		.4byte	0x961
 1723 095a 21       		.uleb128 0x21
 1724 095b 01       		.uleb128 0x1
 1725 095c 50       		.byte	0x50
 1726 095d 02       		.uleb128 0x2
 1727 095e 74       		.byte	0x74
 1728 095f 00       		.sleb128 0
 1729 0960 00       		.byte	0
 1730 0961 23       		.uleb128 0x23
 1731 0962 30000000 		.4byte	.LVL16
 1732 0966 500C0000 		.4byte	0xc50
 1733 096a 00       		.byte	0
 1734 096b 0F       		.uleb128 0xf
 1735 096c 04       		.byte	0x4
 1736 096d 26080000 		.4byte	0x826
 1737 0971 24       		.uleb128 0x24
 1738 0972 C6060000 		.4byte	.LASF283
 1739 0976 01       		.byte	0x1
 1740 0977 7505     		.2byte	0x575
 1741 0979 00000000 		.4byte	.LFB10
 1742 097d 18020000 		.4byte	.LFE10-.LFB10
 1743 0981 01       		.uleb128 0x1
 1744 0982 9C       		.byte	0x9c
 1745 0983 420B0000 		.4byte	0xb42
 1746 0987 17       		.uleb128 0x17
 1747 0988 751B0000 		.4byte	.LASF251
 1748 098c 01       		.byte	0x1
 1749 098d 7505     		.2byte	0x575
 1750 098f 6B000000 		.4byte	0x6b
 1751 0993 F1000000 		.4byte	.LLST5
 1752 0997 17       		.uleb128 0x17
 1753 0998 88000000 		.4byte	.LASF248
 1754 099c 01       		.byte	0x1
 1755 099d 7505     		.2byte	0x575
 1756 099f AD000000 		.4byte	0xad
 1757 09a3 C1010000 		.4byte	.LLST6
 1758 09a7 1E       		.uleb128 0x1e
 1759 09a8 56000000 		.4byte	.LBB3
 1760 09ac 1C000000 		.4byte	.LBE3-.LBB3
ARM GAS  C:\Users\ELECTR~1\AppData\Local\Temp\ccJM91Ce.s 			page 64


 1761 09b0 E8090000 		.4byte	0x9e8
 1762 09b4 1F       		.uleb128 0x1f
 1763 09b5 D0160000 		.4byte	.LASF252
 1764 09b9 01       		.byte	0x1
 1765 09ba 8205     		.2byte	0x582
 1766 09bc 8F030000 		.4byte	0x38f
 1767 09c0 02       		.uleb128 0x2
 1768 09c1 91       		.byte	0x91
 1769 09c2 64       		.sleb128 -28
 1770 09c3 22       		.uleb128 0x22
 1771 09c4 66000000 		.4byte	.LVL21
 1772 09c8 660C0000 		.4byte	0xc66
 1773 09cc D7090000 		.4byte	0x9d7
 1774 09d0 21       		.uleb128 0x21
 1775 09d1 01       		.uleb128 0x1
 1776 09d2 50       		.byte	0x50
 1777 09d3 02       		.uleb128 0x2
 1778 09d4 76       		.byte	0x76
 1779 09d5 00       		.sleb128 0
 1780 09d6 00       		.byte	0
 1781 09d7 20       		.uleb128 0x20
 1782 09d8 72000000 		.4byte	.LVL22
 1783 09dc 660C0000 		.4byte	0xc66
 1784 09e0 21       		.uleb128 0x21
 1785 09e1 01       		.uleb128 0x1
 1786 09e2 50       		.byte	0x50
 1787 09e3 02       		.uleb128 0x2
 1788 09e4 76       		.byte	0x76
 1789 09e5 00       		.sleb128 0
 1790 09e6 00       		.byte	0
 1791 09e7 00       		.byte	0
 1792 09e8 1E       		.uleb128 0x1e
 1793 09e9 98010000 		.4byte	.LBB4
 1794 09ed 0E000000 		.4byte	.LBE4-.LBB4
 1795 09f1 0F0A0000 		.4byte	0xa0f
 1796 09f5 19       		.uleb128 0x19
 1797 09f6 9B0E0000 		.4byte	.LASF253
 1798 09fa 01       		.byte	0x1
 1799 09fb 5206     		.2byte	0x652
 1800 09fd 76000000 		.4byte	0x76
 1801 0a01 ED010000 		.4byte	.LLST7
 1802 0a05 23       		.uleb128 0x23
 1803 0a06 A6010000 		.4byte	.LVL46
 1804 0a0a 820C0000 		.4byte	0xc82
 1805 0a0e 00       		.byte	0
 1806 0a0f 22       		.uleb128 0x22
 1807 0a10 7C000000 		.4byte	.LVL23
 1808 0a14 99080000 		.4byte	0x899
 1809 0a18 230A0000 		.4byte	0xa23
 1810 0a1c 21       		.uleb128 0x21
 1811 0a1d 01       		.uleb128 0x1
 1812 0a1e 50       		.byte	0x50
 1813 0a1f 02       		.uleb128 0x2
 1814 0a20 76       		.byte	0x76
 1815 0a21 00       		.sleb128 0
 1816 0a22 00       		.byte	0
 1817 0a23 22       		.uleb128 0x22
ARM GAS  C:\Users\ELECTR~1\AppData\Local\Temp\ccJM91Ce.s 			page 65


 1818 0a24 86000000 		.4byte	.LVL24
 1819 0a28 9D0C0000 		.4byte	0xc9d
 1820 0a2c 370A0000 		.4byte	0xa37
 1821 0a30 21       		.uleb128 0x21
 1822 0a31 01       		.uleb128 0x1
 1823 0a32 50       		.byte	0x50
 1824 0a33 02       		.uleb128 0x2
 1825 0a34 76       		.byte	0x76
 1826 0a35 00       		.sleb128 0
 1827 0a36 00       		.byte	0
 1828 0a37 22       		.uleb128 0x22
 1829 0a38 90000000 		.4byte	.LVL25
 1830 0a3c B30C0000 		.4byte	0xcb3
 1831 0a40 4A0A0000 		.4byte	0xa4a
 1832 0a44 21       		.uleb128 0x21
 1833 0a45 01       		.uleb128 0x1
 1834 0a46 51       		.byte	0x51
 1835 0a47 01       		.uleb128 0x1
 1836 0a48 30       		.byte	0x30
 1837 0a49 00       		.byte	0
 1838 0a4a 22       		.uleb128 0x22
 1839 0a4b 98000000 		.4byte	.LVL26
 1840 0a4f B30C0000 		.4byte	0xcb3
 1841 0a53 5D0A0000 		.4byte	0xa5d
 1842 0a57 21       		.uleb128 0x21
 1843 0a58 01       		.uleb128 0x1
 1844 0a59 51       		.byte	0x51
 1845 0a5a 01       		.uleb128 0x1
 1846 0a5b 31       		.byte	0x31
 1847 0a5c 00       		.byte	0
 1848 0a5d 22       		.uleb128 0x22
 1849 0a5e B4000000 		.4byte	.LVL27
 1850 0a62 9D0C0000 		.4byte	0xc9d
 1851 0a66 710A0000 		.4byte	0xa71
 1852 0a6a 21       		.uleb128 0x21
 1853 0a6b 01       		.uleb128 0x1
 1854 0a6c 50       		.byte	0x50
 1855 0a6d 02       		.uleb128 0x2
 1856 0a6e 76       		.byte	0x76
 1857 0a6f 00       		.sleb128 0
 1858 0a70 00       		.byte	0
 1859 0a71 22       		.uleb128 0x22
 1860 0a72 BC000000 		.4byte	.LVL28
 1861 0a76 B30C0000 		.4byte	0xcb3
 1862 0a7a 8A0A0000 		.4byte	0xa8a
 1863 0a7e 21       		.uleb128 0x21
 1864 0a7f 01       		.uleb128 0x1
 1865 0a80 51       		.byte	0x51
 1866 0a81 01       		.uleb128 0x1
 1867 0a82 30       		.byte	0x30
 1868 0a83 21       		.uleb128 0x21
 1869 0a84 01       		.uleb128 0x1
 1870 0a85 50       		.byte	0x50
 1871 0a86 02       		.uleb128 0x2
 1872 0a87 76       		.byte	0x76
 1873 0a88 00       		.sleb128 0
 1874 0a89 00       		.byte	0
ARM GAS  C:\Users\ELECTR~1\AppData\Local\Temp\ccJM91Ce.s 			page 66


 1875 0a8a 22       		.uleb128 0x22
 1876 0a8b C4000000 		.4byte	.LVL29
 1877 0a8f B30C0000 		.4byte	0xcb3
 1878 0a93 A30A0000 		.4byte	0xaa3
 1879 0a97 21       		.uleb128 0x21
 1880 0a98 01       		.uleb128 0x1
 1881 0a99 51       		.byte	0x51
 1882 0a9a 01       		.uleb128 0x1
 1883 0a9b 31       		.byte	0x31
 1884 0a9c 21       		.uleb128 0x21
 1885 0a9d 01       		.uleb128 0x1
 1886 0a9e 50       		.byte	0x50
 1887 0a9f 02       		.uleb128 0x2
 1888 0aa0 76       		.byte	0x76
 1889 0aa1 00       		.sleb128 0
 1890 0aa2 00       		.byte	0
 1891 0aa3 22       		.uleb128 0x22
 1892 0aa4 CA000000 		.4byte	.LVL30
 1893 0aa8 CA0C0000 		.4byte	0xcca
 1894 0aac B60A0000 		.4byte	0xab6
 1895 0ab0 21       		.uleb128 0x21
 1896 0ab1 01       		.uleb128 0x1
 1897 0ab2 50       		.byte	0x50
 1898 0ab3 01       		.uleb128 0x1
 1899 0ab4 30       		.byte	0x30
 1900 0ab5 00       		.byte	0
 1901 0ab6 22       		.uleb128 0x22
 1902 0ab7 FA000000 		.4byte	.LVL33
 1903 0abb E00C0000 		.4byte	0xce0
 1904 0abf CD0A0000 		.4byte	0xacd
 1905 0ac3 21       		.uleb128 0x21
 1906 0ac4 01       		.uleb128 0x1
 1907 0ac5 51       		.byte	0x51
 1908 0ac6 05       		.uleb128 0x5
 1909 0ac7 03       		.byte	0x3
 1910 0ac8 00000000 		.4byte	.LANCHOR0
 1911 0acc 00       		.byte	0
 1912 0acd 22       		.uleb128 0x22
 1913 0ace 68010000 		.4byte	.LVL36
 1914 0ad2 010D0000 		.4byte	0xd01
 1915 0ad6 E00A0000 		.4byte	0xae0
 1916 0ada 21       		.uleb128 0x21
 1917 0adb 01       		.uleb128 0x1
 1918 0adc 50       		.byte	0x50
 1919 0add 01       		.uleb128 0x1
 1920 0ade 31       		.byte	0x31
 1921 0adf 00       		.byte	0
 1922 0ae0 22       		.uleb128 0x22
 1923 0ae1 80010000 		.4byte	.LVL39
 1924 0ae5 170D0000 		.4byte	0xd17
 1925 0ae9 FF0A0000 		.4byte	0xaff
 1926 0aed 21       		.uleb128 0x21
 1927 0aee 01       		.uleb128 0x1
 1928 0aef 52       		.byte	0x52
 1929 0af0 01       		.uleb128 0x1
 1930 0af1 32       		.byte	0x32
 1931 0af2 21       		.uleb128 0x21
ARM GAS  C:\Users\ELECTR~1\AppData\Local\Temp\ccJM91Ce.s 			page 67


 1932 0af3 01       		.uleb128 0x1
 1933 0af4 51       		.byte	0x51
 1934 0af5 02       		.uleb128 0x2
 1935 0af6 75       		.byte	0x75
 1936 0af7 00       		.sleb128 0
 1937 0af8 21       		.uleb128 0x21
 1938 0af9 01       		.uleb128 0x1
 1939 0afa 50       		.byte	0x50
 1940 0afb 02       		.uleb128 0x2
 1941 0afc 76       		.byte	0x76
 1942 0afd 00       		.sleb128 0
 1943 0afe 00       		.byte	0
 1944 0aff 22       		.uleb128 0x22
 1945 0b00 90010000 		.4byte	.LVL40
 1946 0b04 170D0000 		.4byte	0xd17
 1947 0b08 120B0000 		.4byte	0xb12
 1948 0b0c 21       		.uleb128 0x21
 1949 0b0d 01       		.uleb128 0x1
 1950 0b0e 52       		.byte	0x52
 1951 0b0f 01       		.uleb128 0x1
 1952 0b10 34       		.byte	0x34
 1953 0b11 00       		.byte	0
 1954 0b12 23       		.uleb128 0x23
 1955 0b13 96010000 		.4byte	.LVL42
 1956 0b17 87080000 		.4byte	0x887
 1957 0b1b 22       		.uleb128 0x22
 1958 0b1c AE010000 		.4byte	.LVL49
 1959 0b20 ED080000 		.4byte	0x8ed
 1960 0b24 2F0B0000 		.4byte	0xb2f
 1961 0b28 21       		.uleb128 0x21
 1962 0b29 01       		.uleb128 0x1
 1963 0b2a 50       		.byte	0x50
 1964 0b2b 02       		.uleb128 0x2
 1965 0b2c 75       		.byte	0x75
 1966 0b2d 00       		.sleb128 0
 1967 0b2e 00       		.byte	0
 1968 0b2f 25       		.uleb128 0x25
 1969 0b30 D8010000 		.4byte	.LVL52
 1970 0b34 21       		.uleb128 0x21
 1971 0b35 01       		.uleb128 0x1
 1972 0b36 51       		.byte	0x51
 1973 0b37 02       		.uleb128 0x2
 1974 0b38 75       		.byte	0x75
 1975 0b39 00       		.sleb128 0
 1976 0b3a 21       		.uleb128 0x21
 1977 0b3b 01       		.uleb128 0x1
 1978 0b3c 50       		.byte	0x50
 1979 0b3d 02       		.uleb128 0x2
 1980 0b3e 74       		.byte	0x74
 1981 0b3f 00       		.sleb128 0
 1982 0b40 00       		.byte	0
 1983 0b41 00       		.byte	0
 1984 0b42 26       		.uleb128 0x26
 1985 0b43 19170000 		.4byte	.LASF254
 1986 0b47 08       		.byte	0x8
 1987 0b48 9E01     		.2byte	0x19e
 1988 0b4a 31080000 		.4byte	0x831
ARM GAS  C:\Users\ELECTR~1\AppData\Local\Temp\ccJM91Ce.s 			page 68


 1989 0b4e 27       		.uleb128 0x27
 1990 0b4f AF090000 		.4byte	.LASF255
 1991 0b53 01       		.byte	0x1
 1992 0b54 41       		.byte	0x41
 1993 0b55 A1000000 		.4byte	0xa1
 1994 0b59 05       		.uleb128 0x5
 1995 0b5a 03       		.byte	0x3
 1996 0b5b 00000000 		.4byte	cyBle_eventHandlerFlag
 1997 0b5f 26       		.uleb128 0x26
 1998 0b60 43050000 		.4byte	.LASF256
 1999 0b64 08       		.byte	0x8
 2000 0b65 A201     		.2byte	0x1a2
 2001 0b67 CF030000 		.4byte	0x3cf
 2002 0b6b 26       		.uleb128 0x26
 2003 0b6c E10A0000 		.4byte	.LASF257
 2004 0b70 08       		.byte	0x8
 2005 0b71 A301     		.2byte	0x1a3
 2006 0b73 770B0000 		.4byte	0xb77
 2007 0b77 0F       		.uleb128 0xf
 2008 0b78 04       		.byte	0x4
 2009 0b79 CF030000 		.4byte	0x3cf
 2010 0b7d 27       		.uleb128 0x27
 2011 0b7e F1180000 		.4byte	.LASF258
 2012 0b82 01       		.byte	0x1
 2013 0b83 C5       		.byte	0xc5
 2014 0b84 FB040000 		.4byte	0x4fb
 2015 0b88 05       		.uleb128 0x5
 2016 0b89 03       		.byte	0x3
 2017 0b8a 00000000 		.4byte	cyBle_authInfo
 2018 0b8e 26       		.uleb128 0x26
 2019 0b8f 0C180000 		.4byte	.LASF259
 2020 0b93 08       		.byte	0x8
 2021 0b94 BF01     		.2byte	0x1bf
 2022 0b96 6B000000 		.4byte	0x6b
 2023 0b9a 0D       		.uleb128 0xd
 2024 0b9b 6B000000 		.4byte	0x6b
 2025 0b9f AA0B0000 		.4byte	0xbaa
 2026 0ba3 0E       		.uleb128 0xe
 2027 0ba4 A6000000 		.4byte	0xa6
 2028 0ba8 03       		.byte	0x3
 2029 0ba9 00       		.byte	0
 2030 0baa 28       		.uleb128 0x28
 2031 0bab 401B0000 		.4byte	.LASF260
 2032 0baf 0A       		.byte	0xa
 2033 0bb0 BD       		.byte	0xbd
 2034 0bb1 9A0B0000 		.4byte	0xb9a
 2035 0bb5 0D       		.uleb128 0xd
 2036 0bb6 6B000000 		.4byte	0x6b
 2037 0bba CB0B0000 		.4byte	0xbcb
 2038 0bbe 0E       		.uleb128 0xe
 2039 0bbf A6000000 		.4byte	0xa6
 2040 0bc3 04       		.byte	0x4
 2041 0bc4 0E       		.uleb128 0xe
 2042 0bc5 A6000000 		.4byte	0xa6
 2043 0bc9 03       		.byte	0x3
 2044 0bca 00       		.byte	0
 2045 0bcb 28       		.uleb128 0x28
ARM GAS  C:\Users\ELECTR~1\AppData\Local\Temp\ccJM91Ce.s 			page 69


 2046 0bcc 2D010000 		.4byte	.LASF261
 2047 0bd0 0A       		.byte	0xa
 2048 0bd1 BF       		.byte	0xbf
 2049 0bd2 D60B0000 		.4byte	0xbd6
 2050 0bd6 1A       		.uleb128 0x1a
 2051 0bd7 B50B0000 		.4byte	0xbb5
 2052 0bdb 26       		.uleb128 0x26
 2053 0bdc 84180000 		.4byte	.LASF262
 2054 0be0 09       		.byte	0x9
 2055 0be1 0409     		.2byte	0x904
 2056 0be3 7B080000 		.4byte	0x87b
 2057 0be7 27       		.uleb128 0x27
 2058 0be8 780A0000 		.4byte	.LASF263
 2059 0bec 01       		.byte	0x1
 2060 0bed 3F       		.byte	0x3f
 2061 0bee 24070000 		.4byte	0x724
 2062 0bf2 05       		.uleb128 0x5
 2063 0bf3 03       		.byte	0x3
 2064 0bf4 00000000 		.4byte	cyBle_connHandle
 2065 0bf8 27       		.uleb128 0x27
 2066 0bf9 550E0000 		.4byte	.LASF264
 2067 0bfd 01       		.byte	0x1
 2068 0bfe 42       		.byte	0x42
 2069 0bff A1000000 		.4byte	0xa1
 2070 0c03 05       		.uleb128 0x5
 2071 0c04 03       		.byte	0x3
 2072 0c05 00000000 		.4byte	cyBle_busyStatus
 2073 0c09 27       		.uleb128 0x27
 2074 0c0a 4B1A0000 		.4byte	.LASF265
 2075 0c0e 01       		.byte	0x1
 2076 0c0f 45       		.byte	0x45
 2077 0c10 6B000000 		.4byte	0x6b
 2078 0c14 05       		.uleb128 0x5
 2079 0c15 03       		.byte	0x3
 2080 0c16 00000000 		.4byte	cyBle_advertisingIntervalType
 2081 0c1a 29       		.uleb128 0x29
 2082 0c1b 991A0000 		.4byte	.LASF266
 2083 0c1f 07       		.byte	0x7
 2084 0c20 3001     		.2byte	0x130
 2085 0c22 EB020000 		.4byte	0x2eb
 2086 0c26 350C0000 		.4byte	0xc35
 2087 0c2a 14       		.uleb128 0x14
 2088 0c2b 24070000 		.4byte	0x724
 2089 0c2f 14       		.uleb128 0x14
 2090 0c30 350C0000 		.4byte	0xc35
 2091 0c34 00       		.byte	0
 2092 0c35 0F       		.uleb128 0xf
 2093 0c36 04       		.byte	0x4
 2094 0c37 FA070000 		.4byte	0x7fa
 2095 0c3b 2A       		.uleb128 0x2a
 2096 0c3c E4120000 		.4byte	.LASF267
 2097 0c40 0A       		.byte	0xa
 2098 0c41 A5       		.byte	0xa5
 2099 0c42 E8060000 		.4byte	0x6e8
 2100 0c46 500C0000 		.4byte	0xc50
 2101 0c4a 14       		.uleb128 0x14
 2102 0c4b 6B090000 		.4byte	0x96b
ARM GAS  C:\Users\ELECTR~1\AppData\Local\Temp\ccJM91Ce.s 			page 70


 2103 0c4f 00       		.byte	0
 2104 0c50 29       		.uleb128 0x29
 2105 0c51 F0030000 		.4byte	.LASF268
 2106 0c55 07       		.byte	0x7
 2107 0c56 AF01     		.2byte	0x1af
 2108 0c58 EB020000 		.4byte	0x2eb
 2109 0c5c 660C0000 		.4byte	0xc66
 2110 0c60 14       		.uleb128 0x14
 2111 0c61 24070000 		.4byte	0x724
 2112 0c65 00       		.byte	0
 2113 0c66 29       		.uleb128 0x29
 2114 0c67 37040000 		.4byte	.LASF269
 2115 0c6b 03       		.byte	0x3
 2116 0c6c 0D05     		.2byte	0x50d
 2117 0c6e EB020000 		.4byte	0x2eb
 2118 0c72 7C0C0000 		.4byte	0xc7c
 2119 0c76 14       		.uleb128 0x14
 2120 0c77 7C0C0000 		.4byte	0xc7c
 2121 0c7b 00       		.byte	0
 2122 0c7c 0F       		.uleb128 0xf
 2123 0c7d 04       		.byte	0x4
 2124 0c7e 8F030000 		.4byte	0x38f
 2125 0c82 29       		.uleb128 0x29
 2126 0c83 420B0000 		.4byte	.LASF270
 2127 0c87 07       		.byte	0x7
 2128 0c88 5E01     		.2byte	0x15e
 2129 0c8a EB020000 		.4byte	0x2eb
 2130 0c8e 9D0C0000 		.4byte	0xc9d
 2131 0c92 14       		.uleb128 0x14
 2132 0c93 24070000 		.4byte	0x724
 2133 0c97 14       		.uleb128 0x14
 2134 0c98 76000000 		.4byte	0x76
 2135 0c9c 00       		.byte	0
 2136 0c9d 29       		.uleb128 0x29
 2137 0c9e 49000000 		.4byte	.LASF271
 2138 0ca2 03       		.byte	0x3
 2139 0ca3 8604     		.2byte	0x486
 2140 0ca5 EB020000 		.4byte	0x2eb
 2141 0ca9 B30C0000 		.4byte	0xcb3
 2142 0cad 14       		.uleb128 0x14
 2143 0cae 770B0000 		.4byte	0xb77
 2144 0cb2 00       		.byte	0
 2145 0cb3 2B       		.uleb128 0x2b
 2146 0cb4 660E0000 		.4byte	.LASF275
 2147 0cb8 08       		.byte	0x8
 2148 0cb9 8C01     		.2byte	0x18c
 2149 0cbb CA0C0000 		.4byte	0xcca
 2150 0cbf 14       		.uleb128 0x14
 2151 0cc0 E2080000 		.4byte	0x8e2
 2152 0cc4 14       		.uleb128 0x14
 2153 0cc5 6B000000 		.4byte	0x6b
 2154 0cc9 00       		.byte	0
 2155 0cca 29       		.uleb128 0x29
 2156 0ccb 60000000 		.4byte	.LASF272
 2157 0ccf 05       		.byte	0x5
 2158 0cd0 0B03     		.2byte	0x30b
 2159 0cd2 EB020000 		.4byte	0x2eb
ARM GAS  C:\Users\ELECTR~1\AppData\Local\Temp\ccJM91Ce.s 			page 71


 2160 0cd6 E00C0000 		.4byte	0xce0
 2161 0cda 14       		.uleb128 0x14
 2162 0cdb 4F040000 		.4byte	0x44f
 2163 0cdf 00       		.byte	0
 2164 0ce0 29       		.uleb128 0x29
 2165 0ce1 2B0F0000 		.4byte	.LASF273
 2166 0ce5 05       		.byte	0x5
 2167 0ce6 0506     		.2byte	0x605
 2168 0ce8 EB020000 		.4byte	0x2eb
 2169 0cec FB0C0000 		.4byte	0xcfb
 2170 0cf0 14       		.uleb128 0x14
 2171 0cf1 6B000000 		.4byte	0x6b
 2172 0cf5 14       		.uleb128 0x14
 2173 0cf6 FB0C0000 		.4byte	0xcfb
 2174 0cfa 00       		.byte	0
 2175 0cfb 0F       		.uleb128 0xf
 2176 0cfc 04       		.byte	0x4
 2177 0cfd FB040000 		.4byte	0x4fb
 2178 0d01 29       		.uleb128 0x29
 2179 0d02 EC070000 		.4byte	.LASF274
 2180 0d06 08       		.byte	0x8
 2181 0d07 8A01     		.2byte	0x18a
 2182 0d09 EB020000 		.4byte	0x2eb
 2183 0d0d 170D0000 		.4byte	0xd17
 2184 0d11 14       		.uleb128 0x14
 2185 0d12 6B000000 		.4byte	0x6b
 2186 0d16 00       		.byte	0
 2187 0d17 2C       		.uleb128 0x2c
 2188 0d18 F21A0000 		.4byte	.LASF276
 2189 0d1c AD000000 		.4byte	0xad
 2190 0d20 340D0000 		.4byte	0xd34
 2191 0d24 14       		.uleb128 0x14
 2192 0d25 AD000000 		.4byte	0xad
 2193 0d29 14       		.uleb128 0x14
 2194 0d2a 340D0000 		.4byte	0xd34
 2195 0d2e 14       		.uleb128 0x14
 2196 0d2f A6000000 		.4byte	0xa6
 2197 0d33 00       		.byte	0
 2198 0d34 0F       		.uleb128 0xf
 2199 0d35 04       		.byte	0x4
 2200 0d36 3A0D0000 		.4byte	0xd3a
 2201 0d3a 2D       		.uleb128 0x2d
 2202 0d3b 00       		.byte	0
 2203              		.section	.debug_abbrev,"",%progbits
 2204              	.Ldebug_abbrev0:
 2205 0000 01       		.uleb128 0x1
 2206 0001 11       		.uleb128 0x11
 2207 0002 01       		.byte	0x1
 2208 0003 25       		.uleb128 0x25
 2209 0004 0E       		.uleb128 0xe
 2210 0005 13       		.uleb128 0x13
 2211 0006 0B       		.uleb128 0xb
 2212 0007 03       		.uleb128 0x3
 2213 0008 0E       		.uleb128 0xe
 2214 0009 1B       		.uleb128 0x1b
 2215 000a 0E       		.uleb128 0xe
 2216 000b 55       		.uleb128 0x55
ARM GAS  C:\Users\ELECTR~1\AppData\Local\Temp\ccJM91Ce.s 			page 72


 2217 000c 17       		.uleb128 0x17
 2218 000d 11       		.uleb128 0x11
 2219 000e 01       		.uleb128 0x1
 2220 000f 10       		.uleb128 0x10
 2221 0010 17       		.uleb128 0x17
 2222 0011 00       		.byte	0
 2223 0012 00       		.byte	0
 2224 0013 02       		.uleb128 0x2
 2225 0014 24       		.uleb128 0x24
 2226 0015 00       		.byte	0
 2227 0016 0B       		.uleb128 0xb
 2228 0017 0B       		.uleb128 0xb
 2229 0018 3E       		.uleb128 0x3e
 2230 0019 0B       		.uleb128 0xb
 2231 001a 03       		.uleb128 0x3
 2232 001b 0E       		.uleb128 0xe
 2233 001c 00       		.byte	0
 2234 001d 00       		.byte	0
 2235 001e 03       		.uleb128 0x3
 2236 001f 24       		.uleb128 0x24
 2237 0020 00       		.byte	0
 2238 0021 0B       		.uleb128 0xb
 2239 0022 0B       		.uleb128 0xb
 2240 0023 3E       		.uleb128 0x3e
 2241 0024 0B       		.uleb128 0xb
 2242 0025 03       		.uleb128 0x3
 2243 0026 08       		.uleb128 0x8
 2244 0027 00       		.byte	0
 2245 0028 00       		.byte	0
 2246 0029 04       		.uleb128 0x4
 2247 002a 16       		.uleb128 0x16
 2248 002b 00       		.byte	0
 2249 002c 03       		.uleb128 0x3
 2250 002d 0E       		.uleb128 0xe
 2251 002e 3A       		.uleb128 0x3a
 2252 002f 0B       		.uleb128 0xb
 2253 0030 3B       		.uleb128 0x3b
 2254 0031 0B       		.uleb128 0xb
 2255 0032 49       		.uleb128 0x49
 2256 0033 13       		.uleb128 0x13
 2257 0034 00       		.byte	0
 2258 0035 00       		.byte	0
 2259 0036 05       		.uleb128 0x5
 2260 0037 35       		.uleb128 0x35
 2261 0038 00       		.byte	0
 2262 0039 49       		.uleb128 0x49
 2263 003a 13       		.uleb128 0x13
 2264 003b 00       		.byte	0
 2265 003c 00       		.byte	0
 2266 003d 06       		.uleb128 0x6
 2267 003e 0F       		.uleb128 0xf
 2268 003f 00       		.byte	0
 2269 0040 0B       		.uleb128 0xb
 2270 0041 0B       		.uleb128 0xb
 2271 0042 00       		.byte	0
 2272 0043 00       		.byte	0
 2273 0044 07       		.uleb128 0x7
ARM GAS  C:\Users\ELECTR~1\AppData\Local\Temp\ccJM91Ce.s 			page 73


 2274 0045 04       		.uleb128 0x4
 2275 0046 01       		.byte	0x1
 2276 0047 0B       		.uleb128 0xb
 2277 0048 0B       		.uleb128 0xb
 2278 0049 3A       		.uleb128 0x3a
 2279 004a 0B       		.uleb128 0xb
 2280 004b 3B       		.uleb128 0x3b
 2281 004c 0B       		.uleb128 0xb
 2282 004d 01       		.uleb128 0x1
 2283 004e 13       		.uleb128 0x13
 2284 004f 00       		.byte	0
 2285 0050 00       		.byte	0
 2286 0051 08       		.uleb128 0x8
 2287 0052 28       		.uleb128 0x28
 2288 0053 00       		.byte	0
 2289 0054 03       		.uleb128 0x3
 2290 0055 0E       		.uleb128 0xe
 2291 0056 1C       		.uleb128 0x1c
 2292 0057 0D       		.uleb128 0xd
 2293 0058 00       		.byte	0
 2294 0059 00       		.byte	0
 2295 005a 09       		.uleb128 0x9
 2296 005b 04       		.uleb128 0x4
 2297 005c 01       		.byte	0x1
 2298 005d 0B       		.uleb128 0xb
 2299 005e 0B       		.uleb128 0xb
 2300 005f 3A       		.uleb128 0x3a
 2301 0060 0B       		.uleb128 0xb
 2302 0061 3B       		.uleb128 0x3b
 2303 0062 05       		.uleb128 0x5
 2304 0063 01       		.uleb128 0x1
 2305 0064 13       		.uleb128 0x13
 2306 0065 00       		.byte	0
 2307 0066 00       		.byte	0
 2308 0067 0A       		.uleb128 0xa
 2309 0068 16       		.uleb128 0x16
 2310 0069 00       		.byte	0
 2311 006a 03       		.uleb128 0x3
 2312 006b 0E       		.uleb128 0xe
 2313 006c 3A       		.uleb128 0x3a
 2314 006d 0B       		.uleb128 0xb
 2315 006e 3B       		.uleb128 0x3b
 2316 006f 05       		.uleb128 0x5
 2317 0070 49       		.uleb128 0x49
 2318 0071 13       		.uleb128 0x13
 2319 0072 00       		.byte	0
 2320 0073 00       		.byte	0
 2321 0074 0B       		.uleb128 0xb
 2322 0075 13       		.uleb128 0x13
 2323 0076 01       		.byte	0x1
 2324 0077 0B       		.uleb128 0xb
 2325 0078 0B       		.uleb128 0xb
 2326 0079 3A       		.uleb128 0x3a
 2327 007a 0B       		.uleb128 0xb
 2328 007b 3B       		.uleb128 0x3b
 2329 007c 05       		.uleb128 0x5
 2330 007d 01       		.uleb128 0x1
ARM GAS  C:\Users\ELECTR~1\AppData\Local\Temp\ccJM91Ce.s 			page 74


 2331 007e 13       		.uleb128 0x13
 2332 007f 00       		.byte	0
 2333 0080 00       		.byte	0
 2334 0081 0C       		.uleb128 0xc
 2335 0082 0D       		.uleb128 0xd
 2336 0083 00       		.byte	0
 2337 0084 03       		.uleb128 0x3
 2338 0085 0E       		.uleb128 0xe
 2339 0086 3A       		.uleb128 0x3a
 2340 0087 0B       		.uleb128 0xb
 2341 0088 3B       		.uleb128 0x3b
 2342 0089 05       		.uleb128 0x5
 2343 008a 49       		.uleb128 0x49
 2344 008b 13       		.uleb128 0x13
 2345 008c 38       		.uleb128 0x38
 2346 008d 0B       		.uleb128 0xb
 2347 008e 00       		.byte	0
 2348 008f 00       		.byte	0
 2349 0090 0D       		.uleb128 0xd
 2350 0091 01       		.uleb128 0x1
 2351 0092 01       		.byte	0x1
 2352 0093 49       		.uleb128 0x49
 2353 0094 13       		.uleb128 0x13
 2354 0095 01       		.uleb128 0x1
 2355 0096 13       		.uleb128 0x13
 2356 0097 00       		.byte	0
 2357 0098 00       		.byte	0
 2358 0099 0E       		.uleb128 0xe
 2359 009a 21       		.uleb128 0x21
 2360 009b 00       		.byte	0
 2361 009c 49       		.uleb128 0x49
 2362 009d 13       		.uleb128 0x13
 2363 009e 2F       		.uleb128 0x2f
 2364 009f 0B       		.uleb128 0xb
 2365 00a0 00       		.byte	0
 2366 00a1 00       		.byte	0
 2367 00a2 0F       		.uleb128 0xf
 2368 00a3 0F       		.uleb128 0xf
 2369 00a4 00       		.byte	0
 2370 00a5 0B       		.uleb128 0xb
 2371 00a6 0B       		.uleb128 0xb
 2372 00a7 49       		.uleb128 0x49
 2373 00a8 13       		.uleb128 0x13
 2374 00a9 00       		.byte	0
 2375 00aa 00       		.byte	0
 2376 00ab 10       		.uleb128 0x10
 2377 00ac 0D       		.uleb128 0xd
 2378 00ad 00       		.byte	0
 2379 00ae 03       		.uleb128 0x3
 2380 00af 08       		.uleb128 0x8
 2381 00b0 3A       		.uleb128 0x3a
 2382 00b1 0B       		.uleb128 0xb
 2383 00b2 3B       		.uleb128 0x3b
 2384 00b3 05       		.uleb128 0x5
 2385 00b4 49       		.uleb128 0x49
 2386 00b5 13       		.uleb128 0x13
 2387 00b6 38       		.uleb128 0x38
ARM GAS  C:\Users\ELECTR~1\AppData\Local\Temp\ccJM91Ce.s 			page 75


 2388 00b7 0B       		.uleb128 0xb
 2389 00b8 00       		.byte	0
 2390 00b9 00       		.byte	0
 2391 00ba 11       		.uleb128 0x11
 2392 00bb 13       		.uleb128 0x13
 2393 00bc 01       		.byte	0x1
 2394 00bd 0B       		.uleb128 0xb
 2395 00be 0B       		.uleb128 0xb
 2396 00bf 3A       		.uleb128 0x3a
 2397 00c0 0B       		.uleb128 0xb
 2398 00c1 3B       		.uleb128 0x3b
 2399 00c2 0B       		.uleb128 0xb
 2400 00c3 01       		.uleb128 0x1
 2401 00c4 13       		.uleb128 0x13
 2402 00c5 00       		.byte	0
 2403 00c6 00       		.byte	0
 2404 00c7 12       		.uleb128 0x12
 2405 00c8 0D       		.uleb128 0xd
 2406 00c9 00       		.byte	0
 2407 00ca 03       		.uleb128 0x3
 2408 00cb 0E       		.uleb128 0xe
 2409 00cc 3A       		.uleb128 0x3a
 2410 00cd 0B       		.uleb128 0xb
 2411 00ce 3B       		.uleb128 0x3b
 2412 00cf 0B       		.uleb128 0xb
 2413 00d0 49       		.uleb128 0x49
 2414 00d1 13       		.uleb128 0x13
 2415 00d2 38       		.uleb128 0x38
 2416 00d3 0B       		.uleb128 0xb
 2417 00d4 00       		.byte	0
 2418 00d5 00       		.byte	0
 2419 00d6 13       		.uleb128 0x13
 2420 00d7 15       		.uleb128 0x15
 2421 00d8 01       		.byte	0x1
 2422 00d9 27       		.uleb128 0x27
 2423 00da 19       		.uleb128 0x19
 2424 00db 01       		.uleb128 0x1
 2425 00dc 13       		.uleb128 0x13
 2426 00dd 00       		.byte	0
 2427 00de 00       		.byte	0
 2428 00df 14       		.uleb128 0x14
 2429 00e0 05       		.uleb128 0x5
 2430 00e1 00       		.byte	0
 2431 00e2 49       		.uleb128 0x49
 2432 00e3 13       		.uleb128 0x13
 2433 00e4 00       		.byte	0
 2434 00e5 00       		.byte	0
 2435 00e6 15       		.uleb128 0x15
 2436 00e7 2E       		.uleb128 0x2e
 2437 00e8 00       		.byte	0
 2438 00e9 03       		.uleb128 0x3
 2439 00ea 0E       		.uleb128 0xe
 2440 00eb 3A       		.uleb128 0x3a
 2441 00ec 0B       		.uleb128 0xb
 2442 00ed 3B       		.uleb128 0x3b
 2443 00ee 05       		.uleb128 0x5
 2444 00ef 27       		.uleb128 0x27
ARM GAS  C:\Users\ELECTR~1\AppData\Local\Temp\ccJM91Ce.s 			page 76


 2445 00f0 19       		.uleb128 0x19
 2446 00f1 11       		.uleb128 0x11
 2447 00f2 01       		.uleb128 0x1
 2448 00f3 12       		.uleb128 0x12
 2449 00f4 06       		.uleb128 0x6
 2450 00f5 40       		.uleb128 0x40
 2451 00f6 18       		.uleb128 0x18
 2452 00f7 9742     		.uleb128 0x2117
 2453 00f9 19       		.uleb128 0x19
 2454 00fa 00       		.byte	0
 2455 00fb 00       		.byte	0
 2456 00fc 16       		.uleb128 0x16
 2457 00fd 2E       		.uleb128 0x2e
 2458 00fe 01       		.byte	0x1
 2459 00ff 03       		.uleb128 0x3
 2460 0100 0E       		.uleb128 0xe
 2461 0101 3A       		.uleb128 0x3a
 2462 0102 0B       		.uleb128 0xb
 2463 0103 3B       		.uleb128 0x3b
 2464 0104 05       		.uleb128 0x5
 2465 0105 27       		.uleb128 0x27
 2466 0106 19       		.uleb128 0x19
 2467 0107 49       		.uleb128 0x49
 2468 0108 13       		.uleb128 0x13
 2469 0109 11       		.uleb128 0x11
 2470 010a 01       		.uleb128 0x1
 2471 010b 12       		.uleb128 0x12
 2472 010c 06       		.uleb128 0x6
 2473 010d 40       		.uleb128 0x40
 2474 010e 18       		.uleb128 0x18
 2475 010f 9742     		.uleb128 0x2117
 2476 0111 19       		.uleb128 0x19
 2477 0112 01       		.uleb128 0x1
 2478 0113 13       		.uleb128 0x13
 2479 0114 00       		.byte	0
 2480 0115 00       		.byte	0
 2481 0116 17       		.uleb128 0x17
 2482 0117 05       		.uleb128 0x5
 2483 0118 00       		.byte	0
 2484 0119 03       		.uleb128 0x3
 2485 011a 0E       		.uleb128 0xe
 2486 011b 3A       		.uleb128 0x3a
 2487 011c 0B       		.uleb128 0xb
 2488 011d 3B       		.uleb128 0x3b
 2489 011e 05       		.uleb128 0x5
 2490 011f 49       		.uleb128 0x49
 2491 0120 13       		.uleb128 0x13
 2492 0121 02       		.uleb128 0x2
 2493 0122 17       		.uleb128 0x17
 2494 0123 00       		.byte	0
 2495 0124 00       		.byte	0
 2496 0125 18       		.uleb128 0x18
 2497 0126 34       		.uleb128 0x34
 2498 0127 00       		.byte	0
 2499 0128 03       		.uleb128 0x3
 2500 0129 08       		.uleb128 0x8
 2501 012a 3A       		.uleb128 0x3a
ARM GAS  C:\Users\ELECTR~1\AppData\Local\Temp\ccJM91Ce.s 			page 77


 2502 012b 0B       		.uleb128 0xb
 2503 012c 3B       		.uleb128 0x3b
 2504 012d 05       		.uleb128 0x5
 2505 012e 49       		.uleb128 0x49
 2506 012f 13       		.uleb128 0x13
 2507 0130 02       		.uleb128 0x2
 2508 0131 17       		.uleb128 0x17
 2509 0132 00       		.byte	0
 2510 0133 00       		.byte	0
 2511 0134 19       		.uleb128 0x19
 2512 0135 34       		.uleb128 0x34
 2513 0136 00       		.byte	0
 2514 0137 03       		.uleb128 0x3
 2515 0138 0E       		.uleb128 0xe
 2516 0139 3A       		.uleb128 0x3a
 2517 013a 0B       		.uleb128 0xb
 2518 013b 3B       		.uleb128 0x3b
 2519 013c 05       		.uleb128 0x5
 2520 013d 49       		.uleb128 0x49
 2521 013e 13       		.uleb128 0x13
 2522 013f 02       		.uleb128 0x2
 2523 0140 17       		.uleb128 0x17
 2524 0141 00       		.byte	0
 2525 0142 00       		.byte	0
 2526 0143 1A       		.uleb128 0x1a
 2527 0144 26       		.uleb128 0x26
 2528 0145 00       		.byte	0
 2529 0146 49       		.uleb128 0x49
 2530 0147 13       		.uleb128 0x13
 2531 0148 00       		.byte	0
 2532 0149 00       		.byte	0
 2533 014a 1B       		.uleb128 0x1b
 2534 014b 2E       		.uleb128 0x2e
 2535 014c 01       		.byte	0x1
 2536 014d 03       		.uleb128 0x3
 2537 014e 0E       		.uleb128 0xe
 2538 014f 3A       		.uleb128 0x3a
 2539 0150 0B       		.uleb128 0xb
 2540 0151 3B       		.uleb128 0x3b
 2541 0152 0B       		.uleb128 0xb
 2542 0153 27       		.uleb128 0x27
 2543 0154 19       		.uleb128 0x19
 2544 0155 11       		.uleb128 0x11
 2545 0156 01       		.uleb128 0x1
 2546 0157 12       		.uleb128 0x12
 2547 0158 06       		.uleb128 0x6
 2548 0159 40       		.uleb128 0x40
 2549 015a 18       		.uleb128 0x18
 2550 015b 9742     		.uleb128 0x2117
 2551 015d 19       		.uleb128 0x19
 2552 015e 01       		.uleb128 0x1
 2553 015f 13       		.uleb128 0x13
 2554 0160 00       		.byte	0
 2555 0161 00       		.byte	0
 2556 0162 1C       		.uleb128 0x1c
 2557 0163 05       		.uleb128 0x5
 2558 0164 00       		.byte	0
ARM GAS  C:\Users\ELECTR~1\AppData\Local\Temp\ccJM91Ce.s 			page 78


 2559 0165 03       		.uleb128 0x3
 2560 0166 0E       		.uleb128 0xe
 2561 0167 3A       		.uleb128 0x3a
 2562 0168 0B       		.uleb128 0xb
 2563 0169 3B       		.uleb128 0x3b
 2564 016a 0B       		.uleb128 0xb
 2565 016b 49       		.uleb128 0x49
 2566 016c 13       		.uleb128 0x13
 2567 016d 02       		.uleb128 0x2
 2568 016e 17       		.uleb128 0x17
 2569 016f 00       		.byte	0
 2570 0170 00       		.byte	0
 2571 0171 1D       		.uleb128 0x1d
 2572 0172 34       		.uleb128 0x34
 2573 0173 00       		.byte	0
 2574 0174 03       		.uleb128 0x3
 2575 0175 0E       		.uleb128 0xe
 2576 0176 3A       		.uleb128 0x3a
 2577 0177 0B       		.uleb128 0xb
 2578 0178 3B       		.uleb128 0x3b
 2579 0179 0B       		.uleb128 0xb
 2580 017a 49       		.uleb128 0x49
 2581 017b 13       		.uleb128 0x13
 2582 017c 02       		.uleb128 0x2
 2583 017d 17       		.uleb128 0x17
 2584 017e 00       		.byte	0
 2585 017f 00       		.byte	0
 2586 0180 1E       		.uleb128 0x1e
 2587 0181 0B       		.uleb128 0xb
 2588 0182 01       		.byte	0x1
 2589 0183 11       		.uleb128 0x11
 2590 0184 01       		.uleb128 0x1
 2591 0185 12       		.uleb128 0x12
 2592 0186 06       		.uleb128 0x6
 2593 0187 01       		.uleb128 0x1
 2594 0188 13       		.uleb128 0x13
 2595 0189 00       		.byte	0
 2596 018a 00       		.byte	0
 2597 018b 1F       		.uleb128 0x1f
 2598 018c 34       		.uleb128 0x34
 2599 018d 00       		.byte	0
 2600 018e 03       		.uleb128 0x3
 2601 018f 0E       		.uleb128 0xe
 2602 0190 3A       		.uleb128 0x3a
 2603 0191 0B       		.uleb128 0xb
 2604 0192 3B       		.uleb128 0x3b
 2605 0193 05       		.uleb128 0x5
 2606 0194 49       		.uleb128 0x49
 2607 0195 13       		.uleb128 0x13
 2608 0196 02       		.uleb128 0x2
 2609 0197 18       		.uleb128 0x18
 2610 0198 00       		.byte	0
 2611 0199 00       		.byte	0
 2612 019a 20       		.uleb128 0x20
 2613 019b 898201   		.uleb128 0x4109
 2614 019e 01       		.byte	0x1
 2615 019f 11       		.uleb128 0x11
ARM GAS  C:\Users\ELECTR~1\AppData\Local\Temp\ccJM91Ce.s 			page 79


 2616 01a0 01       		.uleb128 0x1
 2617 01a1 31       		.uleb128 0x31
 2618 01a2 13       		.uleb128 0x13
 2619 01a3 00       		.byte	0
 2620 01a4 00       		.byte	0
 2621 01a5 21       		.uleb128 0x21
 2622 01a6 8A8201   		.uleb128 0x410a
 2623 01a9 00       		.byte	0
 2624 01aa 02       		.uleb128 0x2
 2625 01ab 18       		.uleb128 0x18
 2626 01ac 9142     		.uleb128 0x2111
 2627 01ae 18       		.uleb128 0x18
 2628 01af 00       		.byte	0
 2629 01b0 00       		.byte	0
 2630 01b1 22       		.uleb128 0x22
 2631 01b2 898201   		.uleb128 0x4109
 2632 01b5 01       		.byte	0x1
 2633 01b6 11       		.uleb128 0x11
 2634 01b7 01       		.uleb128 0x1
 2635 01b8 31       		.uleb128 0x31
 2636 01b9 13       		.uleb128 0x13
 2637 01ba 01       		.uleb128 0x1
 2638 01bb 13       		.uleb128 0x13
 2639 01bc 00       		.byte	0
 2640 01bd 00       		.byte	0
 2641 01be 23       		.uleb128 0x23
 2642 01bf 898201   		.uleb128 0x4109
 2643 01c2 00       		.byte	0
 2644 01c3 11       		.uleb128 0x11
 2645 01c4 01       		.uleb128 0x1
 2646 01c5 31       		.uleb128 0x31
 2647 01c6 13       		.uleb128 0x13
 2648 01c7 00       		.byte	0
 2649 01c8 00       		.byte	0
 2650 01c9 24       		.uleb128 0x24
 2651 01ca 2E       		.uleb128 0x2e
 2652 01cb 01       		.byte	0x1
 2653 01cc 3F       		.uleb128 0x3f
 2654 01cd 19       		.uleb128 0x19
 2655 01ce 03       		.uleb128 0x3
 2656 01cf 0E       		.uleb128 0xe
 2657 01d0 3A       		.uleb128 0x3a
 2658 01d1 0B       		.uleb128 0xb
 2659 01d2 3B       		.uleb128 0x3b
 2660 01d3 05       		.uleb128 0x5
 2661 01d4 27       		.uleb128 0x27
 2662 01d5 19       		.uleb128 0x19
 2663 01d6 11       		.uleb128 0x11
 2664 01d7 01       		.uleb128 0x1
 2665 01d8 12       		.uleb128 0x12
 2666 01d9 06       		.uleb128 0x6
 2667 01da 40       		.uleb128 0x40
 2668 01db 18       		.uleb128 0x18
 2669 01dc 9742     		.uleb128 0x2117
 2670 01de 19       		.uleb128 0x19
 2671 01df 01       		.uleb128 0x1
 2672 01e0 13       		.uleb128 0x13
ARM GAS  C:\Users\ELECTR~1\AppData\Local\Temp\ccJM91Ce.s 			page 80


 2673 01e1 00       		.byte	0
 2674 01e2 00       		.byte	0
 2675 01e3 25       		.uleb128 0x25
 2676 01e4 898201   		.uleb128 0x4109
 2677 01e7 01       		.byte	0x1
 2678 01e8 11       		.uleb128 0x11
 2679 01e9 01       		.uleb128 0x1
 2680 01ea 00       		.byte	0
 2681 01eb 00       		.byte	0
 2682 01ec 26       		.uleb128 0x26
 2683 01ed 34       		.uleb128 0x34
 2684 01ee 00       		.byte	0
 2685 01ef 03       		.uleb128 0x3
 2686 01f0 0E       		.uleb128 0xe
 2687 01f1 3A       		.uleb128 0x3a
 2688 01f2 0B       		.uleb128 0xb
 2689 01f3 3B       		.uleb128 0x3b
 2690 01f4 05       		.uleb128 0x5
 2691 01f5 49       		.uleb128 0x49
 2692 01f6 13       		.uleb128 0x13
 2693 01f7 3F       		.uleb128 0x3f
 2694 01f8 19       		.uleb128 0x19
 2695 01f9 3C       		.uleb128 0x3c
 2696 01fa 19       		.uleb128 0x19
 2697 01fb 00       		.byte	0
 2698 01fc 00       		.byte	0
 2699 01fd 27       		.uleb128 0x27
 2700 01fe 34       		.uleb128 0x34
 2701 01ff 00       		.byte	0
 2702 0200 03       		.uleb128 0x3
 2703 0201 0E       		.uleb128 0xe
 2704 0202 3A       		.uleb128 0x3a
 2705 0203 0B       		.uleb128 0xb
 2706 0204 3B       		.uleb128 0x3b
 2707 0205 0B       		.uleb128 0xb
 2708 0206 49       		.uleb128 0x49
 2709 0207 13       		.uleb128 0x13
 2710 0208 3F       		.uleb128 0x3f
 2711 0209 19       		.uleb128 0x19
 2712 020a 02       		.uleb128 0x2
 2713 020b 18       		.uleb128 0x18
 2714 020c 00       		.byte	0
 2715 020d 00       		.byte	0
 2716 020e 28       		.uleb128 0x28
 2717 020f 34       		.uleb128 0x34
 2718 0210 00       		.byte	0
 2719 0211 03       		.uleb128 0x3
 2720 0212 0E       		.uleb128 0xe
 2721 0213 3A       		.uleb128 0x3a
 2722 0214 0B       		.uleb128 0xb
 2723 0215 3B       		.uleb128 0x3b
 2724 0216 0B       		.uleb128 0xb
 2725 0217 49       		.uleb128 0x49
 2726 0218 13       		.uleb128 0x13
 2727 0219 3F       		.uleb128 0x3f
 2728 021a 19       		.uleb128 0x19
 2729 021b 3C       		.uleb128 0x3c
ARM GAS  C:\Users\ELECTR~1\AppData\Local\Temp\ccJM91Ce.s 			page 81


 2730 021c 19       		.uleb128 0x19
 2731 021d 00       		.byte	0
 2732 021e 00       		.byte	0
 2733 021f 29       		.uleb128 0x29
 2734 0220 2E       		.uleb128 0x2e
 2735 0221 01       		.byte	0x1
 2736 0222 3F       		.uleb128 0x3f
 2737 0223 19       		.uleb128 0x19
 2738 0224 03       		.uleb128 0x3
 2739 0225 0E       		.uleb128 0xe
 2740 0226 3A       		.uleb128 0x3a
 2741 0227 0B       		.uleb128 0xb
 2742 0228 3B       		.uleb128 0x3b
 2743 0229 05       		.uleb128 0x5
 2744 022a 27       		.uleb128 0x27
 2745 022b 19       		.uleb128 0x19
 2746 022c 49       		.uleb128 0x49
 2747 022d 13       		.uleb128 0x13
 2748 022e 3C       		.uleb128 0x3c
 2749 022f 19       		.uleb128 0x19
 2750 0230 01       		.uleb128 0x1
 2751 0231 13       		.uleb128 0x13
 2752 0232 00       		.byte	0
 2753 0233 00       		.byte	0
 2754 0234 2A       		.uleb128 0x2a
 2755 0235 2E       		.uleb128 0x2e
 2756 0236 01       		.byte	0x1
 2757 0237 3F       		.uleb128 0x3f
 2758 0238 19       		.uleb128 0x19
 2759 0239 03       		.uleb128 0x3
 2760 023a 0E       		.uleb128 0xe
 2761 023b 3A       		.uleb128 0x3a
 2762 023c 0B       		.uleb128 0xb
 2763 023d 3B       		.uleb128 0x3b
 2764 023e 0B       		.uleb128 0xb
 2765 023f 27       		.uleb128 0x27
 2766 0240 19       		.uleb128 0x19
 2767 0241 49       		.uleb128 0x49
 2768 0242 13       		.uleb128 0x13
 2769 0243 3C       		.uleb128 0x3c
 2770 0244 19       		.uleb128 0x19
 2771 0245 01       		.uleb128 0x1
 2772 0246 13       		.uleb128 0x13
 2773 0247 00       		.byte	0
 2774 0248 00       		.byte	0
 2775 0249 2B       		.uleb128 0x2b
 2776 024a 2E       		.uleb128 0x2e
 2777 024b 01       		.byte	0x1
 2778 024c 3F       		.uleb128 0x3f
 2779 024d 19       		.uleb128 0x19
 2780 024e 03       		.uleb128 0x3
 2781 024f 0E       		.uleb128 0xe
 2782 0250 3A       		.uleb128 0x3a
 2783 0251 0B       		.uleb128 0xb
 2784 0252 3B       		.uleb128 0x3b
 2785 0253 05       		.uleb128 0x5
 2786 0254 27       		.uleb128 0x27
ARM GAS  C:\Users\ELECTR~1\AppData\Local\Temp\ccJM91Ce.s 			page 82


 2787 0255 19       		.uleb128 0x19
 2788 0256 3C       		.uleb128 0x3c
 2789 0257 19       		.uleb128 0x19
 2790 0258 01       		.uleb128 0x1
 2791 0259 13       		.uleb128 0x13
 2792 025a 00       		.byte	0
 2793 025b 00       		.byte	0
 2794 025c 2C       		.uleb128 0x2c
 2795 025d 2E       		.uleb128 0x2e
 2796 025e 01       		.byte	0x1
 2797 025f 3F       		.uleb128 0x3f
 2798 0260 19       		.uleb128 0x19
 2799 0261 03       		.uleb128 0x3
 2800 0262 0E       		.uleb128 0xe
 2801 0263 27       		.uleb128 0x27
 2802 0264 19       		.uleb128 0x19
 2803 0265 49       		.uleb128 0x49
 2804 0266 13       		.uleb128 0x13
 2805 0267 34       		.uleb128 0x34
 2806 0268 19       		.uleb128 0x19
 2807 0269 3C       		.uleb128 0x3c
 2808 026a 19       		.uleb128 0x19
 2809 026b 01       		.uleb128 0x1
 2810 026c 13       		.uleb128 0x13
 2811 026d 00       		.byte	0
 2812 026e 00       		.byte	0
 2813 026f 2D       		.uleb128 0x2d
 2814 0270 26       		.uleb128 0x26
 2815 0271 00       		.byte	0
 2816 0272 00       		.byte	0
 2817 0273 00       		.byte	0
 2818 0274 00       		.byte	0
 2819              		.section	.debug_loc,"",%progbits
 2820              	.Ldebug_loc0:
 2821              	.LLST0:
 2822 0000 00000000 		.4byte	.LVL0
 2823 0004 08000000 		.4byte	.LVL1
 2824 0008 0100     		.2byte	0x1
 2825 000a 50       		.byte	0x50
 2826 000b 08000000 		.4byte	.LVL1
 2827 000f 0A000000 		.4byte	.LVL2
 2828 0013 0400     		.2byte	0x4
 2829 0015 F3       		.byte	0xf3
 2830 0016 01       		.uleb128 0x1
 2831 0017 50       		.byte	0x50
 2832 0018 9F       		.byte	0x9f
 2833 0019 0A000000 		.4byte	.LVL2
 2834 001d 1E000000 		.4byte	.LVL7
 2835 0021 0100     		.2byte	0x1
 2836 0023 50       		.byte	0x50
 2837 0024 1E000000 		.4byte	.LVL7
 2838 0028 20000000 		.4byte	.LVL8
 2839 002c 0400     		.2byte	0x4
 2840 002e F3       		.byte	0xf3
 2841 002f 01       		.uleb128 0x1
 2842 0030 50       		.byte	0x50
 2843 0031 9F       		.byte	0x9f
ARM GAS  C:\Users\ELECTR~1\AppData\Local\Temp\ccJM91Ce.s 			page 83


 2844 0032 20000000 		.4byte	.LVL8
 2845 0036 22000000 		.4byte	.LVL9
 2846 003a 0100     		.2byte	0x1
 2847 003c 50       		.byte	0x50
 2848 003d 22000000 		.4byte	.LVL9
 2849 0041 24000000 		.4byte	.LFE7
 2850 0045 0400     		.2byte	0x4
 2851 0047 F3       		.byte	0xf3
 2852 0048 01       		.uleb128 0x1
 2853 0049 50       		.byte	0x50
 2854 004a 9F       		.byte	0x9f
 2855 004b 00000000 		.4byte	0
 2856 004f 00000000 		.4byte	0
 2857              	.LLST1:
 2858 0053 0A000000 		.4byte	.LVL2
 2859 0057 12000000 		.4byte	.LVL3
 2860 005b 0100     		.2byte	0x1
 2861 005d 53       		.byte	0x53
 2862 005e 14000000 		.4byte	.LVL4
 2863 0062 16000000 		.4byte	.LVL5
 2864 0066 0100     		.2byte	0x1
 2865 0068 53       		.byte	0x53
 2866 0069 18000000 		.4byte	.LVL6
 2867 006d 22000000 		.4byte	.LVL9
 2868 0071 0100     		.2byte	0x1
 2869 0073 53       		.byte	0x53
 2870 0074 00000000 		.4byte	0
 2871 0078 00000000 		.4byte	0
 2872              	.LLST2:
 2873 007c 00000000 		.4byte	.LVL0
 2874 0080 22000000 		.4byte	.LVL9
 2875 0084 0200     		.2byte	0x2
 2876 0086 30       		.byte	0x30
 2877 0087 9F       		.byte	0x9f
 2878 0088 22000000 		.4byte	.LVL9
 2879 008c 24000000 		.4byte	.LFE7
 2880 0090 0100     		.2byte	0x1
 2881 0092 50       		.byte	0x50
 2882 0093 00000000 		.4byte	0
 2883 0097 00000000 		.4byte	0
 2884              	.LLST3:
 2885 009b 00000000 		.4byte	.LVL10
 2886 009f 09000000 		.4byte	.LVL11-1
 2887 00a3 0100     		.2byte	0x1
 2888 00a5 50       		.byte	0x50
 2889 00a6 09000000 		.4byte	.LVL11-1
 2890 00aa 32000000 		.4byte	.LVL17
 2891 00ae 0100     		.2byte	0x1
 2892 00b0 54       		.byte	0x54
 2893 00b1 32000000 		.4byte	.LVL17
 2894 00b5 38000000 		.4byte	.LFE2
 2895 00b9 0400     		.2byte	0x4
 2896 00bb F3       		.byte	0xf3
 2897 00bc 01       		.uleb128 0x1
 2898 00bd 50       		.byte	0x50
 2899 00be 9F       		.byte	0x9f
 2900 00bf 00000000 		.4byte	0
ARM GAS  C:\Users\ELECTR~1\AppData\Local\Temp\ccJM91Ce.s 			page 84


 2901 00c3 00000000 		.4byte	0
 2902              	.LLST4:
 2903 00c7 0A000000 		.4byte	.LVL11
 2904 00cb 24000000 		.4byte	.LVL12
 2905 00cf 0100     		.2byte	0x1
 2906 00d1 50       		.byte	0x50
 2907 00d2 24000000 		.4byte	.LVL12
 2908 00d6 27000000 		.4byte	.LVL13-1
 2909 00da 0200     		.2byte	0x2
 2910 00dc 71       		.byte	0x71
 2911 00dd 03       		.sleb128 3
 2912 00de 2A000000 		.4byte	.LVL14
 2913 00e2 2C000000 		.4byte	.LVL15
 2914 00e6 0100     		.2byte	0x1
 2915 00e8 50       		.byte	0x50
 2916 00e9 00000000 		.4byte	0
 2917 00ed 00000000 		.4byte	0
 2918              	.LLST5:
 2919 00f1 00000000 		.4byte	.LVL18
 2920 00f5 62000000 		.4byte	.LVL20
 2921 00f9 0100     		.2byte	0x1
 2922 00fb 50       		.byte	0x50
 2923 00fc 62000000 		.4byte	.LVL20
 2924 0100 D2000000 		.4byte	.LVL31
 2925 0104 0400     		.2byte	0x4
 2926 0106 F3       		.byte	0xf3
 2927 0107 01       		.uleb128 0x1
 2928 0108 50       		.byte	0x50
 2929 0109 9F       		.byte	0x9f
 2930 010a D2000000 		.4byte	.LVL31
 2931 010e F4000000 		.4byte	.LVL32
 2932 0112 0100     		.2byte	0x1
 2933 0114 50       		.byte	0x50
 2934 0115 F4000000 		.4byte	.LVL32
 2935 0119 FC000000 		.4byte	.LVL34
 2936 011d 0400     		.2byte	0x4
 2937 011f F3       		.byte	0xf3
 2938 0120 01       		.uleb128 0x1
 2939 0121 50       		.byte	0x50
 2940 0122 9F       		.byte	0x9f
 2941 0123 FC000000 		.4byte	.LVL34
 2942 0127 64010000 		.4byte	.LVL35
 2943 012b 0100     		.2byte	0x1
 2944 012d 50       		.byte	0x50
 2945 012e 64010000 		.4byte	.LVL35
 2946 0132 74010000 		.4byte	.LVL37
 2947 0136 0400     		.2byte	0x4
 2948 0138 F3       		.byte	0xf3
 2949 0139 01       		.uleb128 0x1
 2950 013a 50       		.byte	0x50
 2951 013b 9F       		.byte	0x9f
 2952 013c 74010000 		.4byte	.LVL37
 2953 0140 78010000 		.4byte	.LVL38
 2954 0144 0100     		.2byte	0x1
 2955 0146 50       		.byte	0x50
 2956 0147 78010000 		.4byte	.LVL38
 2957 014b 92010000 		.4byte	.LVL41
ARM GAS  C:\Users\ELECTR~1\AppData\Local\Temp\ccJM91Ce.s 			page 85


 2958 014f 0400     		.2byte	0x4
 2959 0151 F3       		.byte	0xf3
 2960 0152 01       		.uleb128 0x1
 2961 0153 50       		.byte	0x50
 2962 0154 9F       		.byte	0x9f
 2963 0155 92010000 		.4byte	.LVL41
 2964 0159 95010000 		.4byte	.LVL42-1
 2965 015d 0100     		.2byte	0x1
 2966 015f 50       		.byte	0x50
 2967 0160 95010000 		.4byte	.LVL42-1
 2968 0164 98010000 		.4byte	.LVL43
 2969 0168 0400     		.2byte	0x4
 2970 016a F3       		.byte	0xf3
 2971 016b 01       		.uleb128 0x1
 2972 016c 50       		.byte	0x50
 2973 016d 9F       		.byte	0x9f
 2974 016e 98010000 		.4byte	.LVL43
 2975 0172 A2010000 		.4byte	.LVL45
 2976 0176 0100     		.2byte	0x1
 2977 0178 50       		.byte	0x50
 2978 0179 A2010000 		.4byte	.LVL45
 2979 017d A8010000 		.4byte	.LVL47
 2980 0181 0400     		.2byte	0x4
 2981 0183 F3       		.byte	0xf3
 2982 0184 01       		.uleb128 0x1
 2983 0185 50       		.byte	0x50
 2984 0186 9F       		.byte	0x9f
 2985 0187 A8010000 		.4byte	.LVL47
 2986 018b AA010000 		.4byte	.LVL48
 2987 018f 0100     		.2byte	0x1
 2988 0191 50       		.byte	0x50
 2989 0192 AA010000 		.4byte	.LVL48
 2990 0196 B0010000 		.4byte	.LVL50
 2991 019a 0400     		.2byte	0x4
 2992 019c F3       		.byte	0xf3
 2993 019d 01       		.uleb128 0x1
 2994 019e 50       		.byte	0x50
 2995 019f 9F       		.byte	0x9f
 2996 01a0 B0010000 		.4byte	.LVL50
 2997 01a4 BA010000 		.4byte	.LVL51
 2998 01a8 0100     		.2byte	0x1
 2999 01aa 50       		.byte	0x50
 3000 01ab BA010000 		.4byte	.LVL51
 3001 01af 18020000 		.4byte	.LFE10
 3002 01b3 0400     		.2byte	0x4
 3003 01b5 F3       		.byte	0xf3
 3004 01b6 01       		.uleb128 0x1
 3005 01b7 50       		.byte	0x50
 3006 01b8 9F       		.byte	0x9f
 3007 01b9 00000000 		.4byte	0
 3008 01bd 00000000 		.4byte	0
 3009              	.LLST6:
 3010 01c1 00000000 		.4byte	.LVL18
 3011 01c5 0C000000 		.4byte	.LVL19
 3012 01c9 0100     		.2byte	0x1
 3013 01cb 51       		.byte	0x51
 3014 01cc 0C000000 		.4byte	.LVL19
ARM GAS  C:\Users\ELECTR~1\AppData\Local\Temp\ccJM91Ce.s 			page 86


 3015 01d0 DA010000 		.4byte	.LVL53
 3016 01d4 0100     		.2byte	0x1
 3017 01d6 55       		.byte	0x55
 3018 01d7 DA010000 		.4byte	.LVL53
 3019 01db 18020000 		.4byte	.LFE10
 3020 01df 0400     		.2byte	0x4
 3021 01e1 F3       		.byte	0xf3
 3022 01e2 01       		.uleb128 0x1
 3023 01e3 51       		.byte	0x51
 3024 01e4 9F       		.byte	0x9f
 3025 01e5 00000000 		.4byte	0
 3026 01e9 00000000 		.4byte	0
 3027              	.LLST7:
 3028 01ed A0010000 		.4byte	.LVL44
 3029 01f1 A5010000 		.4byte	.LVL46-1
 3030 01f5 0100     		.2byte	0x1
 3031 01f7 51       		.byte	0x51
 3032 01f8 00000000 		.4byte	0
 3033 01fc 00000000 		.4byte	0
 3034              		.section	.debug_aranges,"",%progbits
 3035 0000 34000000 		.4byte	0x34
 3036 0004 0200     		.2byte	0x2
 3037 0006 00000000 		.4byte	.Ldebug_info0
 3038 000a 04       		.byte	0x4
 3039 000b 00       		.byte	0
 3040 000c 0000     		.2byte	0
 3041 000e 0000     		.2byte	0
 3042 0010 00000000 		.4byte	.LFB4
 3043 0014 10000000 		.4byte	.LFE4-.LFB4
 3044 0018 00000000 		.4byte	.LFB7
 3045 001c 24000000 		.4byte	.LFE7-.LFB7
 3046 0020 00000000 		.4byte	.LFB2
 3047 0024 38000000 		.4byte	.LFE2-.LFB2
 3048 0028 00000000 		.4byte	.LFB10
 3049 002c 18020000 		.4byte	.LFE10-.LFB10
 3050 0030 00000000 		.4byte	0
 3051 0034 00000000 		.4byte	0
 3052              		.section	.debug_ranges,"",%progbits
 3053              	.Ldebug_ranges0:
 3054 0000 00000000 		.4byte	.LFB4
 3055 0004 10000000 		.4byte	.LFE4
 3056 0008 00000000 		.4byte	.LFB7
 3057 000c 24000000 		.4byte	.LFE7
 3058 0010 00000000 		.4byte	.LFB2
 3059 0014 38000000 		.4byte	.LFE2
 3060 0018 00000000 		.4byte	.LFB10
 3061 001c 18020000 		.4byte	.LFE10
 3062 0020 00000000 		.4byte	0
 3063 0024 00000000 		.4byte	0
 3064              		.section	.debug_line,"",%progbits
 3065              	.Ldebug_line0:
 3066 0000 9E010000 		.section	.debug_str,"MS",%progbits,1
 3066      0200E000 
 3066      00000201 
 3066      FB0E0D00 
 3066      01010101 
 3067              	.LASF217:
ARM GAS  C:\Users\ELECTR~1\AppData\Local\Temp\ccJM91Ce.s 			page 87


 3068 0000 4359424C 		.ascii	"CYBLE_GATT_ERR_INVALID_CRC\000"
 3068      455F4741 
 3068      54545F45 
 3068      52525F49 
 3068      4E56414C 
 3069              	.LASF15:
 3070 001b 73697A65 		.ascii	"sizetype\000"
 3070      74797065 
 3070      00
 3071              	.LASF153:
 3072 0024 656B6579 		.ascii	"ekeySize\000"
 3072      53697A65 
 3072      00
 3073              	.LASF187:
 3074 002d 4359424C 		.ascii	"CYBLE_GATT_HANDLE_VALUE_CNF\000"
 3074      455F4741 
 3074      54545F48 
 3074      414E444C 
 3074      455F5641 
 3075              	.LASF271:
 3076 0049 4379426C 		.ascii	"CyBle_SetDeviceAddress\000"
 3076      655F5365 
 3076      74446576 
 3076      69636541 
 3076      64647265 
 3077              	.LASF272:
 3078 0060 4379426C 		.ascii	"CyBle_GapSetIoCap\000"
 3078      655F4761 
 3078      70536574 
 3078      496F4361 
 3078      7000
 3079              	.LASF282:
 3080 0072 4379426C 		.ascii	"CyBle_WriteReqHandler\000"
 3080      655F5772 
 3080      69746552 
 3080      65714861 
 3080      6E646C65 
 3081              	.LASF248:
 3082 0088 6576656E 		.ascii	"eventParam\000"
 3082      74506172 
 3082      616D00
 3083              	.LASF29:
 3084 0093 4359424C 		.ascii	"CYBLE_EVT_GAP_DEVICE_CONNECTED\000"
 3084      455F4556 
 3084      545F4741 
 3084      505F4445 
 3084      56494345 
 3085              	.LASF134:
 3086 00b2 4359424C 		.ascii	"CYBLE_GAP_IOCAP_NOINPUT_NOOUTPUT\000"
 3086      455F4741 
 3086      505F494F 
 3086      4341505F 
 3086      4E4F494E 
 3087              	.LASF36:
 3088 00d3 4359424C 		.ascii	"CYBLE_EVT_GATT_CONNECT_IND\000"
 3088      455F4556 
 3088      545F4741 
ARM GAS  C:\Users\ELECTR~1\AppData\Local\Temp\ccJM91Ce.s 			page 88


 3088      54545F43 
 3088      4F4E4E45 
 3089              	.LASF180:
 3090 00ee 4359424C 		.ascii	"CYBLE_GATT_WRITE_CMD\000"
 3090      455F4741 
 3090      54545F57 
 3090      52495445 
 3090      5F434D44 
 3091              	.LASF11:
 3092 0103 75696E74 		.ascii	"uint32\000"
 3092      333200
 3093              	.LASF136:
 3094 010a 4359424C 		.ascii	"CYBLE_GAP_IOCAP_T\000"
 3094      455F4741 
 3094      505F494F 
 3094      4341505F 
 3094      5400
 3095              	.LASF116:
 3096 011c 626C6550 		.ascii	"blePwrLevelInDbm\000"
 3096      77724C65 
 3096      76656C49 
 3096      6E44626D 
 3096      00
 3097              	.LASF261:
 3098 012d 6379426C 		.ascii	"cyBle_attValuesCCCDFlashMemory\000"
 3098      655F6174 
 3098      7456616C 
 3098      75657343 
 3098      43434446 
 3099              	.LASF192:
 3100 014c 4359424C 		.ascii	"CYBLE_GATT_ERR_READ_NOT_PERMITTED\000"
 3100      455F4741 
 3100      54545F45 
 3100      52525F52 
 3100      4541445F 
 3101              	.LASF207:
 3102 016e 4359424C 		.ascii	"CYBLE_GATT_ERR_INSUFFICIENT_RESOURCE\000"
 3102      455F4741 
 3102      54545F45 
 3102      52525F49 
 3102      4E535546 
 3103              	.LASF181:
 3104 0193 4359424C 		.ascii	"CYBLE_GATT_PREPARE_WRITE_REQ\000"
 3104      455F4741 
 3104      54545F50 
 3104      52455041 
 3104      52455F57 
 3105              	.LASF206:
 3106 01b0 4359424C 		.ascii	"CYBLE_GATT_ERR_UNSUPPORTED_GROUP_TYPE\000"
 3106      455F4741 
 3106      54545F45 
 3106      52525F55 
 3106      4E535550 
 3107              	.LASF89:
 3108 01d6 4359424C 		.ascii	"CYBLE_ERROR_L2CAP_CONNECTION_ENTITY_NOT_FOUND\000"
 3108      455F4552 
 3108      524F525F 
ARM GAS  C:\Users\ELECTR~1\AppData\Local\Temp\ccJM91Ce.s 			page 89


 3108      4C324341 
 3108      505F434F 
 3109              	.LASF95:
 3110 0204 4359424C 		.ascii	"CYBLE_ERROR_MIC_AUTH_FAILED\000"
 3110      455F4552 
 3110      524F525F 
 3110      4D49435F 
 3110      41555448 
 3111              	.LASF56:
 3112 0220 4359424C 		.ascii	"CYBLE_EVT_GATTS_DATA_SIGNED_CMD_REQ\000"
 3112      455F4556 
 3112      545F4741 
 3112      5454535F 
 3112      44415441 
 3113              	.LASF67:
 3114 0244 4359424C 		.ascii	"CYBLE_EVT_L2CAP_CBFC_RX_CREDIT_IND\000"
 3114      455F4556 
 3114      545F4C32 
 3114      4341505F 
 3114      43424643 
 3115              	.LASF228:
 3116 0267 4359424C 		.ascii	"CYBLE_GATT_VALUE_T\000"
 3116      455F4741 
 3116      54545F56 
 3116      414C5545 
 3116      5F5400
 3117              	.LASF175:
 3118 027a 4359424C 		.ascii	"CYBLE_GATT_READ_MULTIPLE_RSP\000"
 3118      455F4741 
 3118      54545F52 
 3118      4541445F 
 3118      4D554C54 
 3119              	.LASF120:
 3120 0297 74797065 		.ascii	"type\000"
 3120      00
 3121              	.LASF126:
 3122 029c 4359424C 		.ascii	"CYBLE_TO_REASON_CODE_T\000"
 3122      455F544F 
 3122      5F524541 
 3122      534F4E5F 
 3122      434F4445 
 3123              	.LASF148:
 3124 02b3 4359424C 		.ascii	"CYBLE_GAP_AUTH_ERROR_AUTHENTICATION_TIMEOUT\000"
 3124      455F4741 
 3124      505F4155 
 3124      54485F45 
 3124      52524F52 
 3125              	.LASF145:
 3126 02df 4359424C 		.ascii	"CYBLE_GAP_AUTH_ERROR_UNSPECIFIED_REASON\000"
 3126      455F4741 
 3126      505F4155 
 3126      54485F45 
 3126      52524F52 
 3127              	.LASF169:
 3128 0307 4359424C 		.ascii	"CYBLE_GATT_READ_BY_TYPE_RSP\000"
 3128      455F4741 
 3128      54545F52 
ARM GAS  C:\Users\ELECTR~1\AppData\Local\Temp\ccJM91Ce.s 			page 90


 3128      4541445F 
 3128      42595F54 
 3129              	.LASF239:
 3130 0323 4359424C 		.ascii	"CYBLE_CALLBACK_T\000"
 3130      455F4341 
 3130      4C4C4241 
 3130      434B5F54 
 3130      00
 3131              	.LASF53:
 3132 0334 4359424C 		.ascii	"CYBLE_EVT_GATTC_HANDLE_VALUE_NTF\000"
 3132      455F4556 
 3132      545F4741 
 3132      5454435F 
 3132      48414E44 
 3133              	.LASF23:
 3134 0355 4359424C 		.ascii	"CYBLE_EVT_GAP_AUTH_REQ\000"
 3134      455F4556 
 3134      545F4741 
 3134      505F4155 
 3134      54485F52 
 3135              	.LASF226:
 3136 036c 4359424C 		.ascii	"CYBLE_CONN_HANDLE_T\000"
 3136      455F434F 
 3136      4E4E5F48 
 3136      414E444C 
 3136      455F5400 
 3137              	.LASF84:
 3138 0380 4359424C 		.ascii	"CYBLE_ERROR_BT_ON_NOT_COMPLETED\000"
 3138      455F4552 
 3138      524F525F 
 3138      42545F4F 
 3138      4E5F4E4F 
 3139              	.LASF131:
 3140 03a0 4359424C 		.ascii	"CYBLE_GAP_IOCAP_DISPLAY_ONLY\000"
 3140      455F4741 
 3140      505F494F 
 3140      4341505F 
 3140      44495350 
 3141              	.LASF105:
 3142 03bd 4359424C 		.ascii	"CYBLE_LL_PWR_LVL_NEG_3_DBM\000"
 3142      455F4C4C 
 3142      5F505752 
 3142      5F4C564C 
 3142      5F4E4547 
 3143              	.LASF243:
 3144 03d8 4359424C 		.ascii	"CYBLE_STATE_ADVERTISING\000"
 3144      455F5354 
 3144      4154455F 
 3144      41445645 
 3144      52544953 
 3145              	.LASF268:
 3146 03f0 4379426C 		.ascii	"CyBle_GattsWriteRsp\000"
 3146      655F4761 
 3146      74747357 
 3146      72697465 
 3146      52737000 
 3147              	.LASF224:
ARM GAS  C:\Users\ELECTR~1\AppData\Local\Temp\ccJM91Ce.s 			page 91


 3148 0404 62644861 		.ascii	"bdHandle\000"
 3148      6E646C65 
 3148      00
 3149              	.LASF138:
 3150 040d 4359424C 		.ascii	"CYBLE_GAP_AUTH_ERROR_PASSKEY_ENTRY_FAILED\000"
 3150      455F4741 
 3150      505F4155 
 3150      54485F45 
 3150      52524F52 
 3151              	.LASF269:
 3152 0437 4379426C 		.ascii	"CyBle_SetTxPowerLevel\000"
 3152      655F5365 
 3152      74547850 
 3152      6F776572 
 3152      4C657665 
 3153              	.LASF103:
 3154 044d 4359424C 		.ascii	"CYBLE_LL_PWR_LVL_NEG_12_DBM\000"
 3154      455F4C4C 
 3154      5F505752 
 3154      5F4C564C 
 3154      5F4E4547 
 3155              	.LASF163:
 3156 0469 4359424C 		.ascii	"CYBLE_GATT_XCHNG_MTU_RSP\000"
 3156      455F4741 
 3156      54545F58 
 3156      43484E47 
 3156      5F4D5455 
 3157              	.LASF49:
 3158 0482 4359424C 		.ascii	"CYBLE_EVT_GATTS_WRITE_CMD_REQ\000"
 3158      455F4556 
 3158      545F4741 
 3158      5454535F 
 3158      57524954 
 3159              	.LASF4:
 3160 04a0 6C6F6E67 		.ascii	"long int\000"
 3160      20696E74 
 3160      00
 3161              	.LASF127:
 3162 04a9 4359424C 		.ascii	"CYBLE_GAP_SEC_LEVEL_1\000"
 3162      455F4741 
 3162      505F5345 
 3162      435F4C45 
 3162      56454C5F 
 3163              	.LASF128:
 3164 04bf 4359424C 		.ascii	"CYBLE_GAP_SEC_LEVEL_2\000"
 3164      455F4741 
 3164      505F5345 
 3164      435F4C45 
 3164      56454C5F 
 3165              	.LASF129:
 3166 04d5 4359424C 		.ascii	"CYBLE_GAP_SEC_LEVEL_3\000"
 3166      455F4741 
 3166      505F5345 
 3166      435F4C45 
 3166      56454C5F 
 3167              	.LASF167:
 3168 04eb 4359424C 		.ascii	"CYBLE_GATT_FIND_BY_TYPE_VALUE_RSP\000"
ARM GAS  C:\Users\ELECTR~1\AppData\Local\Temp\ccJM91Ce.s 			page 92


 3168      455F4741 
 3168      54545F46 
 3168      494E445F 
 3168      42595F54 
 3169              	.LASF17:
 3170 050d 4359424C 		.ascii	"CYBLE_EVT_STACK_ON\000"
 3170      455F4556 
 3170      545F5354 
 3170      41434B5F 
 3170      4F4E00
 3171              	.LASF91:
 3172 0520 4359424C 		.ascii	"CYBLE_ERROR_L2CAP_PSM_NOT_IN_RANGE\000"
 3172      455F4552 
 3172      524F525F 
 3172      4C324341 
 3172      505F5053 
 3173              	.LASF256:
 3174 0543 6379426C 		.ascii	"cyBle_deviceAddress\000"
 3174      655F6465 
 3174      76696365 
 3174      41646472 
 3174      65737300 
 3175              	.LASF194:
 3176 0557 4359424C 		.ascii	"CYBLE_GATT_ERR_INVALID_PDU\000"
 3176      455F4741 
 3176      54545F45 
 3176      52525F49 
 3176      4E56414C 
 3177              	.LASF278:
 3178 0572 2E5C4765 		.ascii	".\\Generated_Source\\PSoC4\\BLE_eventHandler.c\000"
 3178      6E657261 
 3178      7465645F 
 3178      536F7572 
 3178      63655C50 
 3179              	.LASF99:
 3180 059e 4359424C 		.ascii	"CYBLE_ERROR_CHAR_IS_NOT_DISCOVERED\000"
 3180      455F4552 
 3180      524F525F 
 3180      43484152 
 3180      5F49535F 
 3181              	.LASF231:
 3182 05c1 4359424C 		.ascii	"CYBLE_GATT_HANDLE_VALUE_PAIR_T\000"
 3182      455F4741 
 3182      54545F48 
 3182      414E444C 
 3182      455F5641 
 3183              	.LASF117:
 3184 05e0 626C6553 		.ascii	"bleSsChId\000"
 3184      73436849 
 3184      6400
 3185              	.LASF61:
 3186 05ea 4359424C 		.ascii	"CYBLE_EVT_L2CAP_COMMAND_REJ\000"
 3186      455F4556 
 3186      545F4C32 
 3186      4341505F 
 3186      434F4D4D 
 3187              	.LASF173:
ARM GAS  C:\Users\ELECTR~1\AppData\Local\Temp\ccJM91Ce.s 			page 93


 3188 0606 4359424C 		.ascii	"CYBLE_GATT_READ_BLOB_RSP\000"
 3188      455F4741 
 3188      54545F52 
 3188      4541445F 
 3188      424C4F42 
 3189              	.LASF203:
 3190 061f 4359424C 		.ascii	"CYBLE_GATT_ERR_INVALID_ATTRIBUTE_LEN\000"
 3190      455F4741 
 3190      54545F45 
 3190      52525F49 
 3190      4E56414C 
 3191              	.LASF92:
 3192 0644 4359424C 		.ascii	"CYBLE_ERROR_GATT_DB_INVALID_ATTR_HANDLE\000"
 3192      455F4552 
 3192      524F525F 
 3192      47415454 
 3192      5F44425F 
 3193              	.LASF0:
 3194 066c 7369676E 		.ascii	"signed char\000"
 3194      65642063 
 3194      68617200 
 3195              	.LASF102:
 3196 0678 4359424C 		.ascii	"CYBLE_LL_PWR_LVL_NEG_18_DBM\000"
 3196      455F4C4C 
 3196      5F505752 
 3196      5F4C564C 
 3196      5F4E4547 
 3197              	.LASF164:
 3198 0694 4359424C 		.ascii	"CYBLE_GATT_FIND_INFO_REQ\000"
 3198      455F4741 
 3198      54545F46 
 3198      494E445F 
 3198      494E464F 
 3199              	.LASF19:
 3200 06ad 4359424C 		.ascii	"CYBLE_EVT_HARDWARE_ERROR\000"
 3200      455F4556 
 3200      545F4841 
 3200      52445741 
 3200      52455F45 
 3201              	.LASF283:
 3202 06c6 4379426C 		.ascii	"CyBle_EventHandler\000"
 3202      655F4576 
 3202      656E7448 
 3202      616E646C 
 3202      657200
 3203              	.LASF73:
 3204 06d9 4359424C 		.ascii	"CYBLE_ERROR_OK\000"
 3204      455F4552 
 3204      524F525F 
 3204      4F4B00
 3205              	.LASF115:
 3206 06e8 4359424C 		.ascii	"CYBLE_BLESS_PHY_CH_GRP_ID_T\000"
 3206      455F424C 
 3206      4553535F 
 3206      5048595F 
 3206      43485F47 
 3207              	.LASF219:
ARM GAS  C:\Users\ELECTR~1\AppData\Local\Temp\ccJM91Ce.s 			page 94


 3208 0704 4359424C 		.ascii	"CYBLE_GATT_ERR_CCCD_IMPROPERLY_CONFIGURED\000"
 3208      455F4741 
 3208      54545F45 
 3208      52525F43 
 3208      4343445F 
 3209              	.LASF40:
 3210 072e 4359424C 		.ascii	"CYBLE_EVT_GATTC_READ_BY_GROUP_TYPE_RSP\000"
 3210      455F4556 
 3210      545F4741 
 3210      5454435F 
 3210      52454144 
 3211              	.LASF240:
 3212 0755 4359424C 		.ascii	"CYBLE_STATE_STOPPED\000"
 3212      455F5354 
 3212      4154455F 
 3212      53544F50 
 3212      50454400 
 3213              	.LASF236:
 3214 0769 4359424C 		.ascii	"CYBLE_GATTS_ERR_PARAM_T\000"
 3214      455F4741 
 3214      5454535F 
 3214      4552525F 
 3214      50415241 
 3215              	.LASF1:
 3216 0781 756E7369 		.ascii	"unsigned char\000"
 3216      676E6564 
 3216      20636861 
 3216      7200
 3217              	.LASF39:
 3218 078f 4359424C 		.ascii	"CYBLE_EVT_GATTC_XCHNG_MTU_RSP\000"
 3218      455F4556 
 3218      545F4741 
 3218      5454435F 
 3218      5843484E 
 3219              	.LASF186:
 3220 07ad 4359424C 		.ascii	"CYBLE_GATT_HANDLE_VALUE_IND\000"
 3220      455F4741 
 3220      54545F48 
 3220      414E444C 
 3220      455F5641 
 3221              	.LASF68:
 3222 07c9 4359424C 		.ascii	"CYBLE_EVT_L2CAP_CBFC_TX_CREDIT_IND\000"
 3222      455F4556 
 3222      545F4C32 
 3222      4341505F 
 3222      43424643 
 3223              	.LASF274:
 3224 07ec 4379426C 		.ascii	"CyBle_GappStartAdvertisement\000"
 3224      655F4761 
 3224      70705374 
 3224      61727441 
 3224      64766572 
 3225              	.LASF235:
 3226 0809 6572726F 		.ascii	"errorCode\000"
 3226      72436F64 
 3226      6500
 3227              	.LASF147:
ARM GAS  C:\Users\ELECTR~1\AppData\Local\Temp\ccJM91Ce.s 			page 95


 3228 0813 4359424C 		.ascii	"CYBLE_GAP_AUTH_ERROR_INVALID_PARAMETERS\000"
 3228      455F4741 
 3228      505F4155 
 3228      54485F45 
 3228      52524F52 
 3229              	.LASF65:
 3230 083b 4359424C 		.ascii	"CYBLE_EVT_L2CAP_CBFC_DISCONN_CNF\000"
 3230      455F4556 
 3230      545F4C32 
 3230      4341505F 
 3230      43424643 
 3231              	.LASF43:
 3232 085c 4359424C 		.ascii	"CYBLE_EVT_GATTC_FIND_BY_TYPE_VALUE_RSP\000"
 3232      455F4556 
 3232      545F4741 
 3232      5454435F 
 3232      46494E44 
 3233              	.LASF14:
 3234 0883 63686172 		.ascii	"char\000"
 3234      00
 3235              	.LASF106:
 3236 0888 4359424C 		.ascii	"CYBLE_LL_PWR_LVL_NEG_2_DBM\000"
 3236      455F4C4C 
 3236      5F505752 
 3236      5F4C564C 
 3236      5F4E4547 
 3237              	.LASF179:
 3238 08a3 4359424C 		.ascii	"CYBLE_GATT_WRITE_RSP\000"
 3238      455F4741 
 3238      54545F57 
 3238      52495445 
 3238      5F525350 
 3239              	.LASF46:
 3240 08b8 4359424C 		.ascii	"CYBLE_EVT_GATTC_READ_MULTI_RSP\000"
 3240      455F4556 
 3240      545F4741 
 3240      5454435F 
 3240      52454144 
 3241              	.LASF155:
 3242 08d7 4359424C 		.ascii	"CYBLE_GAP_AUTH_INFO_T\000"
 3242      455F4741 
 3242      505F4155 
 3242      54485F49 
 3242      4E464F5F 
 3243              	.LASF133:
 3244 08ed 4359424C 		.ascii	"CYBLE_GAP_IOCAP_KEYBOARD_ONLY\000"
 3244      455F4741 
 3244      505F494F 
 3244      4341505F 
 3244      4B455942 
 3245              	.LASF16:
 3246 090b 4359424C 		.ascii	"CYBLE_EVT_HOST_INVALID\000"
 3246      455F4556 
 3246      545F484F 
 3246      53545F49 
 3246      4E56414C 
 3247              	.LASF214:
ARM GAS  C:\Users\ELECTR~1\AppData\Local\Temp\ccJM91Ce.s 			page 96


 3248 0922 4359424C 		.ascii	"CYBLE_GATT_ERR_MISSING_CRC\000"
 3248      455F4741 
 3248      54545F45 
 3248      52525F4D 
 3248      49535349 
 3249              	.LASF204:
 3250 093d 4359424C 		.ascii	"CYBLE_GATT_ERR_UNLIKELY_ERROR\000"
 3250      455F4741 
 3250      54545F45 
 3250      52525F55 
 3250      4E4C494B 
 3251              	.LASF162:
 3252 095b 4359424C 		.ascii	"CYBLE_GATT_XCNHG_MTU_REQ\000"
 3252      455F4741 
 3252      54545F58 
 3252      434E4847 
 3252      5F4D5455 
 3253              	.LASF80:
 3254 0974 4359424C 		.ascii	"CYBLE_ERROR_NO_DEVICE_ENTITY\000"
 3254      455F4552 
 3254      524F525F 
 3254      4E4F5F44 
 3254      45564943 
 3255              	.LASF45:
 3256 0991 4359424C 		.ascii	"CYBLE_EVT_GATTC_READ_BLOB_RSP\000"
 3256      455F4556 
 3256      545F4741 
 3256      5454435F 
 3256      52454144 
 3257              	.LASF255:
 3258 09af 6379426C 		.ascii	"cyBle_eventHandlerFlag\000"
 3258      655F6576 
 3258      656E7448 
 3258      616E646C 
 3258      6572466C 
 3259              	.LASF52:
 3260 09c6 4359424C 		.ascii	"CYBLE_EVT_GATTC_EXEC_WRITE_RSP\000"
 3260      455F4556 
 3260      545F4741 
 3260      5454435F 
 3260      45584543 
 3261              	.LASF208:
 3262 09e5 4359424C 		.ascii	"CYBLE_GATT_ERR_HEART_RATE_CONTROL_POINT_NOT_SUPPORT"
 3262      455F4741 
 3262      54545F45 
 3262      52525F48 
 3262      45415254 
 3263 0a18 454400   		.ascii	"ED\000"
 3264              	.LASF201:
 3265 0a1b 4359424C 		.ascii	"CYBLE_GATT_ERR_ATTRIBUTE_NOT_LONG\000"
 3265      455F4741 
 3265      54545F45 
 3265      52525F41 
 3265      54545249 
 3266              	.LASF130:
 3267 0a3d 4359424C 		.ascii	"CYBLE_GAP_SEC_LEVEL_MASK\000"
 3267      455F4741 
ARM GAS  C:\Users\ELECTR~1\AppData\Local\Temp\ccJM91Ce.s 			page 97


 3267      505F5345 
 3267      435F4C45 
 3267      56454C5F 
 3268              	.LASF57:
 3269 0a56 4359424C 		.ascii	"CYBLE_EVT_GATTC_STOP_CMD_COMPLETE\000"
 3269      455F4556 
 3269      545F4741 
 3269      5454435F 
 3269      53544F50 
 3270              	.LASF263:
 3271 0a78 6379426C 		.ascii	"cyBle_connHandle\000"
 3271      655F636F 
 3271      6E6E4861 
 3271      6E646C65 
 3271      00
 3272              	.LASF161:
 3273 0a89 4359424C 		.ascii	"CYBLE_GATT_ERROR_RSP\000"
 3273      455F4741 
 3273      54545F45 
 3273      52524F52 
 3273      5F525350 
 3274              	.LASF74:
 3275 0a9e 4359424C 		.ascii	"CYBLE_ERROR_INVALID_PARAMETER\000"
 3275      455F4552 
 3275      524F525F 
 3275      494E5641 
 3275      4C49445F 
 3276              	.LASF76:
 3277 0abc 4359424C 		.ascii	"CYBLE_ERROR_MEMORY_ALLOCATION_FAILED\000"
 3277      455F4552 
 3277      524F525F 
 3277      4D454D4F 
 3277      52595F41 
 3278              	.LASF257:
 3279 0ae1 6379426C 		.ascii	"cyBle_sflashDeviceAddress\000"
 3279      655F7366 
 3279      6C617368 
 3279      44657669 
 3279      63654164 
 3280              	.LASF188:
 3281 0afb 4359424C 		.ascii	"CYBLE_GATT_SIGNED_WRITE_CMD\000"
 3281      455F4741 
 3281      54545F53 
 3281      49474E45 
 3281      445F5752 
 3282              	.LASF215:
 3283 0b17 4359424C 		.ascii	"CYBLE_GATTS_ERR_CCCD_IMPROPERLY_CONFIGURED\000"
 3283      455F4741 
 3283      5454535F 
 3283      4552525F 
 3283      43434344 
 3284              	.LASF270:
 3285 0b42 4379426C 		.ascii	"CyBle_GattsExchangeMtuRsp\000"
 3285      655F4761 
 3285      74747345 
 3285      78636861 
 3285      6E67654D 
ARM GAS  C:\Users\ELECTR~1\AppData\Local\Temp\ccJM91Ce.s 			page 98


 3286              	.LASF184:
 3287 0b5c 4359424C 		.ascii	"CYBLE_GATT_EXECUTE_WRITE_RSP\000"
 3287      455F4741 
 3287      54545F45 
 3287      58454355 
 3287      54455F57 
 3288              	.LASF96:
 3289 0b79 4359424C 		.ascii	"CYBLE_ERROR_MAX\000"
 3289      455F4552 
 3289      524F525F 
 3289      4D415800 
 3290              	.LASF60:
 3291 0b89 4359424C 		.ascii	"CYBLE_EVT_L2CAP_CONN_PARAM_UPDATE_RSP\000"
 3291      455F4556 
 3291      545F4C32 
 3291      4341505F 
 3291      434F4E4E 
 3292              	.LASF149:
 3293 0baf 4359424C 		.ascii	"CYBLE_GAP_AUTH_ERROR_LINK_DISCONNECTED\000"
 3293      455F4741 
 3293      505F4155 
 3293      54485F45 
 3293      52524F52 
 3294              	.LASF209:
 3295 0bd6 4359424C 		.ascii	"CYBLE_GATT_ERR_USER_DATA_ACCESS_NOT_PERMITTED\000"
 3295      455F4741 
 3295      54545F45 
 3295      52525F55 
 3295      5345525F 
 3296              	.LASF26:
 3297 0c04 4359424C 		.ascii	"CYBLE_EVT_GAP_AUTH_COMPLETE\000"
 3297      455F4556 
 3297      545F4741 
 3297      505F4155 
 3297      54485F43 
 3298              	.LASF27:
 3299 0c20 4359424C 		.ascii	"CYBLE_EVT_GAP_AUTH_FAILED\000"
 3299      455F4556 
 3299      545F4741 
 3299      505F4155 
 3299      54485F46 
 3300              	.LASF177:
 3301 0c3a 4359424C 		.ascii	"CYBLE_GATT_READ_BY_GROUP_RSP\000"
 3301      455F4741 
 3301      54545F52 
 3301      4541445F 
 3301      42595F47 
 3302              	.LASF77:
 3303 0c57 4359424C 		.ascii	"CYBLE_ERROR_INSUFFICIENT_RESOURCES\000"
 3303      455F4552 
 3303      524F525F 
 3303      494E5355 
 3303      46464943 
 3304              	.LASF213:
 3305 0c7a 4359424C 		.ascii	"CYBLE_GATT_ERR_OP_CODE_NOT_SUPPORTED\000"
 3305      455F4741 
 3305      54545F45 
ARM GAS  C:\Users\ELECTR~1\AppData\Local\Temp\ccJM91Ce.s 			page 99


 3305      52525F4F 
 3305      505F434F 
 3306              	.LASF109:
 3307 0c9f 4359424C 		.ascii	"CYBLE_LL_PWR_LVL_3_DBM\000"
 3307      455F4C4C 
 3307      5F505752 
 3307      5F4C564C 
 3307      5F335F44 
 3308              	.LASF5:
 3309 0cb6 6C6F6E67 		.ascii	"long unsigned int\000"
 3309      20756E73 
 3309      69676E65 
 3309      6420696E 
 3309      7400
 3310              	.LASF170:
 3311 0cc8 4359424C 		.ascii	"CYBLE_GATT_READ_REQ\000"
 3311      455F4741 
 3311      54545F52 
 3311      4541445F 
 3311      52455100 
 3312              	.LASF156:
 3313 0cdc 73746174 		.ascii	"status\000"
 3313      757300
 3314              	.LASF107:
 3315 0ce3 4359424C 		.ascii	"CYBLE_LL_PWR_LVL_NEG_1_DBM\000"
 3315      455F4C4C 
 3315      5F505752 
 3315      5F4C564C 
 3315      5F4E4547 
 3316              	.LASF144:
 3317 0cfe 4359424C 		.ascii	"CYBLE_GAP_AUTH_ERROR_COMMAND_NOT_SUPPORTED\000"
 3317      455F4741 
 3317      505F4155 
 3317      54485F45 
 3317      52524F52 
 3318              	.LASF140:
 3319 0d29 4359424C 		.ascii	"CYBLE_GAP_AUTH_ERROR_AUTHENTICATION_REQ_NOT_MET\000"
 3319      455F4741 
 3319      505F4155 
 3319      54485F45 
 3319      52524F52 
 3320              	.LASF185:
 3321 0d59 4359424C 		.ascii	"CYBLE_GATT_HANDLE_VALUE_NTF\000"
 3321      455F4741 
 3321      54545F48 
 3321      414E444C 
 3321      455F5641 
 3322              	.LASF87:
 3323 0d75 4359424C 		.ascii	"CYBLE_ERROR_L2CAP_PSM_ALREADY_REGISTERED\000"
 3323      455F4552 
 3323      524F525F 
 3323      4C324341 
 3323      505F5053 
 3324              	.LASF277:
 3325 0d9e 474E5520 		.ascii	"GNU C 4.9.3 20150303 (release) [ARM/embedded-4_9-br"
 3325      4320342E 
 3325      392E3320 
ARM GAS  C:\Users\ELECTR~1\AppData\Local\Temp\ccJM91Ce.s 			page 100


 3325      32303135 
 3325      30333033 
 3326 0dd1 616E6368 		.ascii	"anch revision 221220] -mcpu=cortex-m0 -mthumb -g -O"
 3326      20726576 
 3326      6973696F 
 3326      6E203232 
 3326      31323230 
 3327 0e04 67202D66 		.ascii	"g -ffunction-sections -ffat-lto-objects\000"
 3327      66756E63 
 3327      74696F6E 
 3327      2D736563 
 3327      74696F6E 
 3328              	.LASF32:
 3329 0e2c 4359424C 		.ascii	"CYBLE_EVT_GAP_CONNECTION_UPDATE_COMPLETE\000"
 3329      455F4556 
 3329      545F4741 
 3329      505F434F 
 3329      4E4E4543 
 3330              	.LASF264:
 3331 0e55 6379426C 		.ascii	"cyBle_busyStatus\000"
 3331      655F6275 
 3331      73795374 
 3331      61747573 
 3331      00
 3332              	.LASF275:
 3333 0e66 4379426C 		.ascii	"CyBle_ChangeAdDeviceAddress\000"
 3333      655F4368 
 3333      616E6765 
 3333      41644465 
 3333      76696365 
 3334              	.LASF241:
 3335 0e82 4359424C 		.ascii	"CYBLE_STATE_INITIALIZING\000"
 3335      455F5354 
 3335      4154455F 
 3335      494E4954 
 3335      49414C49 
 3336              	.LASF253:
 3337 0e9b 6379426C 		.ascii	"cyBle_mtuSize\000"
 3337      655F6D74 
 3337      7553697A 
 3337      6500
 3338              	.LASF146:
 3339 0ea9 4359424C 		.ascii	"CYBLE_GAP_AUTH_ERROR_REPEATED_ATTEMPTS\000"
 3339      455F4741 
 3339      505F4155 
 3339      54485F45 
 3339      52524F52 
 3340              	.LASF64:
 3341 0ed0 4359424C 		.ascii	"CYBLE_EVT_L2CAP_CBFC_DISCONN_IND\000"
 3341      455F4556 
 3341      545F4C32 
 3341      4341505F 
 3341      43424643 
 3342              	.LASF24:
 3343 0ef1 4359424C 		.ascii	"CYBLE_EVT_GAP_PASSKEY_ENTRY_REQUEST\000"
 3343      455F4556 
 3343      545F4741 
ARM GAS  C:\Users\ELECTR~1\AppData\Local\Temp\ccJM91Ce.s 			page 101


 3343      505F5041 
 3343      53534B45 
 3344              	.LASF111:
 3345 0f15 4359424C 		.ascii	"CYBLE_BLESS_PWR_LVL_T\000"
 3345      455F424C 
 3345      4553535F 
 3345      5057525F 
 3345      4C564C5F 
 3346              	.LASF273:
 3347 0f2b 4379426C 		.ascii	"CyBle_GappAuthReqReply\000"
 3347      655F4761 
 3347      70704175 
 3347      74685265 
 3347      71526570 
 3348              	.LASF143:
 3349 0f42 4359424C 		.ascii	"CYBLE_GAP_AUTH_ERROR_INSUFFICIENT_ENCRYPTION_KEY_SI"
 3349      455F4741 
 3349      505F4155 
 3349      54485F45 
 3349      52524F52 
 3350 0f75 5A4500   		.ascii	"ZE\000"
 3351              	.LASF6:
 3352 0f78 6C6F6E67 		.ascii	"long long int\000"
 3352      206C6F6E 
 3352      6720696E 
 3352      7400
 3353              	.LASF280:
 3354 0f86 4379426C 		.ascii	"CyBle_GattDisconnectEventHandler\000"
 3354      655F4761 
 3354      74744469 
 3354      73636F6E 
 3354      6E656374 
 3355              	.LASF247:
 3356 0fa7 73666C61 		.ascii	"sflashDeviceAddress\000"
 3356      73684465 
 3356      76696365 
 3356      41646472 
 3356      65737300 
 3357              	.LASF199:
 3358 0fbb 4359424C 		.ascii	"CYBLE_GATT_ERR_PREPARE_WRITE_QUEUE_FULL\000"
 3358      455F4741 
 3358      54545F45 
 3358      52525F50 
 3358      52455041 
 3359              	.LASF88:
 3360 0fe3 4359424C 		.ascii	"CYBLE_ERROR_L2CAP_PSM_NOT_REGISTERED\000"
 3360      455F4552 
 3360      524F525F 
 3360      4C324341 
 3360      505F5053 
 3361              	.LASF78:
 3362 1008 4359424C 		.ascii	"CYBLE_ERROR_OOB_NOT_AVAILABLE\000"
 3362      455F4552 
 3362      524F525F 
 3362      4F4F425F 
 3362      4E4F545F 
 3363              	.LASF13:
ARM GAS  C:\Users\ELECTR~1\AppData\Local\Temp\ccJM91Ce.s 			page 102


 3364 1026 646F7562 		.ascii	"double\000"
 3364      6C6500
 3365              	.LASF93:
 3366 102d 4359424C 		.ascii	"CYBLE_ERROR_DEVICE_ALREADY_EXISTS\000"
 3366      455F4552 
 3366      524F525F 
 3366      44455649 
 3366      43455F41 
 3367              	.LASF70:
 3368 104f 4359424C 		.ascii	"CYBLE_EVT_PENDING_FLASH_WRITE\000"
 3368      455F4556 
 3368      545F5045 
 3368      4E44494E 
 3368      475F464C 
 3369              	.LASF202:
 3370 106d 4359424C 		.ascii	"CYBLE_GATT_ERR_INSUFFICIENT_ENC_KEY_SIZE\000"
 3370      455F4741 
 3370      54545F45 
 3370      52525F49 
 3370      4E535546 
 3371              	.LASF110:
 3372 1096 4359424C 		.ascii	"CYBLE_LL_PWR_LVL_MAX\000"
 3372      455F4C4C 
 3372      5F505752 
 3372      5F4C564C 
 3372      5F4D4158 
 3373              	.LASF220:
 3374 10ab 4359424C 		.ascii	"CYBLE_GATT_ERR_PROCEDURE_ALREADY_IN_PROGRESS\000"
 3374      455F4741 
 3374      54545F45 
 3374      52525F50 
 3374      524F4345 
 3375              	.LASF90:
 3376 10d8 4359424C 		.ascii	"CYBLE_ERROR_L2CAP_CHANNEL_NOT_FOUND\000"
 3376      455F4552 
 3376      524F525F 
 3376      4C324341 
 3376      505F4348 
 3377              	.LASF81:
 3378 10fc 4359424C 		.ascii	"CYBLE_ERROR_REPEATED_ATTEMPTS\000"
 3378      455F4552 
 3378      524F525F 
 3378      52455045 
 3378      41544544 
 3379              	.LASF12:
 3380 111a 666C6F61 		.ascii	"float\000"
 3380      7400
 3381              	.LASF94:
 3382 1120 4359424C 		.ascii	"CYBLE_ERROR_FLASH_WRITE_NOT_PERMITED\000"
 3382      455F4552 
 3382      524F525F 
 3382      464C4153 
 3382      485F5752 
 3383              	.LASF58:
 3384 1145 4359424C 		.ascii	"CYBLE_EVT_GATTS_READ_CHAR_VAL_ACCESS_REQ\000"
 3384      455F4556 
 3384      545F4741 
ARM GAS  C:\Users\ELECTR~1\AppData\Local\Temp\ccJM91Ce.s 			page 103


 3384      5454535F 
 3384      52454144 
 3385              	.LASF234:
 3386 116e 6F70636F 		.ascii	"opcode\000"
 3386      646500
 3387              	.LASF198:
 3388 1175 4359424C 		.ascii	"CYBLE_GATT_ERR_INSUFFICIENT_AUTHORIZATION\000"
 3388      455F4741 
 3388      54545F45 
 3388      52525F49 
 3388      4E535546 
 3389              	.LASF230:
 3390 119f 61747472 		.ascii	"attrHandle\000"
 3390      48616E64 
 3390      6C6500
 3391              	.LASF279:
 3392 11aa 433A5C55 		.ascii	"C:\\Users\\Electronic\\Documents\\GitHub\\PSoC-4-BL"
 3392      73657273 
 3392      5C456C65 
 3392      6374726F 
 3392      6E69635C 
 3393 11d8 452D4578 		.ascii	"E-Experiments\\Project 003 Custom Profile CapSense "
 3393      70657269 
 3393      6D656E74 
 3393      735C5072 
 3393      6F6A6563 
 3394 120a 52474220 		.ascii	"RGB LED\\PSoC\\CapSenseRGB\\CapSenseRGB.cydsn\000"
 3394      4C45445C 
 3394      50536F43 
 3394      5C436170 
 3394      53656E73 
 3395              	.LASF152:
 3396 1235 626F6E64 		.ascii	"bonding\000"
 3396      696E6700 
 3397              	.LASF238:
 3398 123d 4359424C 		.ascii	"CYBLE_GATTS_WRITE_REQ_PARAM_T\000"
 3398      455F4741 
 3398      5454535F 
 3398      57524954 
 3398      455F5245 
 3399              	.LASF8:
 3400 125b 756E7369 		.ascii	"unsigned int\000"
 3400      676E6564 
 3400      20696E74 
 3400      00
 3401              	.LASF50:
 3402 1268 4359424C 		.ascii	"CYBLE_EVT_GATTS_PREP_WRITE_REQ\000"
 3402      455F4556 
 3402      545F4741 
 3402      5454535F 
 3402      50524550 
 3403              	.LASF195:
 3404 1287 4359424C 		.ascii	"CYBLE_GATT_ERR_INSUFFICIENT_AUTHENTICATION\000"
 3404      455F4741 
 3404      54545F45 
 3404      52525F49 
 3404      4E535546 
ARM GAS  C:\Users\ELECTR~1\AppData\Local\Temp\ccJM91Ce.s 			page 104


 3405              	.LASF233:
 3406 12b2 4359424C 		.ascii	"CYBLE_GATT_XCHG_MTU_PARAM_T\000"
 3406      455F4741 
 3406      54545F58 
 3406      4348475F 
 3406      4D54555F 
 3407              	.LASF113:
 3408 12ce 4359424C 		.ascii	"CYBLE_LL_CONN_CH_TYPE\000"
 3408      455F4C4C 
 3408      5F434F4E 
 3408      4E5F4348 
 3408      5F545950 
 3409              	.LASF267:
 3410 12e4 4379426C 		.ascii	"CyBle_GattsWriteEventHandler\000"
 3410      655F4761 
 3410      74747357 
 3410      72697465 
 3410      4576656E 
 3411              	.LASF212:
 3412 1301 4359424C 		.ascii	"CYBLE_GATTS_ERR_PROCEDURE_ALREADY_IN_PROGRESS\000"
 3412      455F4741 
 3412      5454535F 
 3412      4552525F 
 3412      50524F43 
 3413              	.LASF250:
 3414 132f 6572725F 		.ascii	"err_param\000"
 3414      70617261 
 3414      6D00
 3415              	.LASF86:
 3416 1339 4359424C 		.ascii	"CYBLE_ERROR_L2CAP_PSM_WRONG_ENCODING\000"
 3416      455F4552 
 3416      524F525F 
 3416      4C324341 
 3416      505F5053 
 3417              	.LASF182:
 3418 135e 4359424C 		.ascii	"CYBLE_GATT_PREPARE_WRITE_RSP\000"
 3418      455F4741 
 3418      54545F50 
 3418      52455041 
 3418      52455F57 
 3419              	.LASF200:
 3420 137b 4359424C 		.ascii	"CYBLE_GATT_ERR_ATTRIBUTE_NOT_FOUND\000"
 3420      455F4741 
 3420      54545F45 
 3420      52525F41 
 3420      54545249 
 3421              	.LASF72:
 3422 139e 4359424C 		.ascii	"CYBLE_EVT_MAX\000"
 3422      455F4556 
 3422      545F4D41 
 3422      5800
 3423              	.LASF33:
 3424 13ac 4359424C 		.ascii	"CYBLE_EVT_GAPC_SCAN_START_STOP\000"
 3424      455F4556 
 3424      545F4741 
 3424      50435F53 
 3424      43414E5F 
ARM GAS  C:\Users\ELECTR~1\AppData\Local\Temp\ccJM91Ce.s 			page 105


 3425              	.LASF281:
 3426 13cb 4379426C 		.ascii	"CyBle_IsDeviceAddressValid\000"
 3426      655F4973 
 3426      44657669 
 3426      63654164 
 3426      64726573 
 3427              	.LASF150:
 3428 13e6 4359424C 		.ascii	"CYBLE_GAP_AUTH_FAILED_REASON_T\000"
 3428      455F4741 
 3428      505F4155 
 3428      54485F46 
 3428      41494C45 
 3429              	.LASF47:
 3430 1405 4359424C 		.ascii	"CYBLE_EVT_GATTS_WRITE_REQ\000"
 3430      455F4556 
 3430      545F4741 
 3430      5454535F 
 3430      57524954 
 3431              	.LASF25:
 3432 141f 4359424C 		.ascii	"CYBLE_EVT_GAP_PASSKEY_DISPLAY_REQUEST\000"
 3432      455F4556 
 3432      545F4741 
 3432      505F5041 
 3432      53534B45 
 3433              	.LASF98:
 3434 1445 4359424C 		.ascii	"CYBLE_ERROR_IND_DISABLED\000"
 3434      455F4552 
 3434      524F525F 
 3434      494E445F 
 3434      44495341 
 3435              	.LASF97:
 3436 145e 4359424C 		.ascii	"CYBLE_ERROR_NTF_DISABLED\000"
 3436      455F4552 
 3436      524F525F 
 3436      4E54465F 
 3436      44495341 
 3437              	.LASF174:
 3438 1477 4359424C 		.ascii	"CYBLE_GATT_READ_MULTIPLE_REQ\000"
 3438      455F4741 
 3438      54545F52 
 3438      4541445F 
 3438      4D554C54 
 3439              	.LASF44:
 3440 1494 4359424C 		.ascii	"CYBLE_EVT_GATTC_READ_RSP\000"
 3440      455F4556 
 3440      545F4741 
 3440      5454435F 
 3440      52454144 
 3441              	.LASF197:
 3442 14ad 4359424C 		.ascii	"CYBLE_GATT_ERR_INVALID_OFFSET\000"
 3442      455F4741 
 3442      54545F45 
 3442      52525F49 
 3442      4E56414C 
 3443              	.LASF168:
 3444 14cb 4359424C 		.ascii	"CYBLE_GATT_READ_BY_TYPE_REQ\000"
 3444      455F4741 
ARM GAS  C:\Users\ELECTR~1\AppData\Local\Temp\ccJM91Ce.s 			page 106


 3444      54545F52 
 3444      4541445F 
 3444      42595F54 
 3445              	.LASF63:
 3446 14e7 4359424C 		.ascii	"CYBLE_EVT_L2CAP_CBFC_CONN_CNF\000"
 3446      455F4556 
 3446      545F4C32 
 3446      4341505F 
 3446      43424643 
 3447              	.LASF221:
 3448 1505 4359424C 		.ascii	"CYBLE_GATT_ERR_OUT_OF_RANGE\000"
 3448      455F4741 
 3448      54545F45 
 3448      52525F4F 
 3448      55545F4F 
 3449              	.LASF166:
 3450 1521 4359424C 		.ascii	"CYBLE_GATT_FIND_BY_TYPE_VALUE_REQ\000"
 3450      455F4741 
 3450      54545F46 
 3450      494E445F 
 3450      42595F54 
 3451              	.LASF104:
 3452 1543 4359424C 		.ascii	"CYBLE_LL_PWR_LVL_NEG_6_DBM\000"
 3452      455F4C4C 
 3452      5F505752 
 3452      5F4C564C 
 3452      5F4E4547 
 3453              	.LASF137:
 3454 155e 4359424C 		.ascii	"CYBLE_GAP_AUTH_ERROR_NONE\000"
 3454      455F4741 
 3454      505F4155 
 3454      54485F45 
 3454      52524F52 
 3455              	.LASF31:
 3456 1578 4359424C 		.ascii	"CYBLE_EVT_GAP_ENCRYPT_CHANGE\000"
 3456      455F4556 
 3456      545F4741 
 3456      505F454E 
 3456      43525950 
 3457              	.LASF38:
 3458 1595 4359424C 		.ascii	"CYBLE_EVT_GATTS_XCNHG_MTU_REQ\000"
 3458      455F4556 
 3458      545F4741 
 3458      5454535F 
 3458      58434E48 
 3459              	.LASF165:
 3460 15b3 4359424C 		.ascii	"CYBLE_GATT_FIND_INFO_RSP\000"
 3460      455F4741 
 3460      54545F46 
 3460      494E445F 
 3460      494E464F 
 3461              	.LASF139:
 3462 15cc 4359424C 		.ascii	"CYBLE_GAP_AUTH_ERROR_OOB_DATA_NOT_AVAILABLE\000"
 3462      455F4741 
 3462      505F4155 
 3462      54485F45 
 3462      52524F52 
ARM GAS  C:\Users\ELECTR~1\AppData\Local\Temp\ccJM91Ce.s 			page 107


 3463              	.LASF160:
 3464 15f8 4359424C 		.ascii	"CYBLE_GAP_CONN_PARAM_UPDATED_IN_CONTROLLER_T\000"
 3464      455F4741 
 3464      505F434F 
 3464      4E4E5F50 
 3464      4152414D 
 3465              	.LASF7:
 3466 1625 6C6F6E67 		.ascii	"long long unsigned int\000"
 3466      206C6F6E 
 3466      6720756E 
 3466      7369676E 
 3466      65642069 
 3467              	.LASF191:
 3468 163c 4359424C 		.ascii	"CYBLE_GATT_ERR_INVALID_HANDLE\000"
 3468      455F4741 
 3468      54545F45 
 3468      52525F49 
 3468      4E56414C 
 3469              	.LASF18:
 3470 165a 4359424C 		.ascii	"CYBLE_EVT_TIMEOUT\000"
 3470      455F4556 
 3470      545F5449 
 3470      4D454F55 
 3470      5400
 3471              	.LASF246:
 3472 166c 73666C61 		.ascii	"sflashAddressValid\000"
 3472      73684164 
 3472      64726573 
 3472      7356616C 
 3472      696400
 3473              	.LASF189:
 3474 167f 4359424C 		.ascii	"CYBLE_GATT_UNKNOWN_PDU_IND\000"
 3474      455F4741 
 3474      54545F55 
 3474      4E4B4E4F 
 3474      574E5F50 
 3475              	.LASF100:
 3476 169a 4359424C 		.ascii	"CYBLE_ERROR_INVALID_STATE\000"
 3476      455F4552 
 3476      524F525F 
 3476      494E5641 
 3476      4C49445F 
 3477              	.LASF223:
 3478 16b4 4359424C 		.ascii	"CYBLE_GATT_DB_ATTR_HANDLE_T\000"
 3478      455F4741 
 3478      54545F44 
 3478      425F4154 
 3478      54525F48 
 3479              	.LASF252:
 3480 16d0 626C6553 		.ascii	"bleSsPowerLevel\000"
 3480      73506F77 
 3480      65724C65 
 3480      76656C00 
 3481              	.LASF66:
 3482 16e0 4359424C 		.ascii	"CYBLE_EVT_L2CAP_CBFC_DATA_READ\000"
 3482      455F4556 
 3482      545F4C32 
ARM GAS  C:\Users\ELECTR~1\AppData\Local\Temp\ccJM91Ce.s 			page 108


 3482      4341505F 
 3482      43424643 
 3483              	.LASF190:
 3484 16ff 4359424C 		.ascii	"CYBLE_GATT_ERR_NONE\000"
 3484      455F4741 
 3484      54545F45 
 3484      52525F4E 
 3484      4F4E4500 
 3485              	.LASF229:
 3486 1713 76616C75 		.ascii	"value\000"
 3486      6500
 3487              	.LASF254:
 3488 1719 4379426C 		.ascii	"CyBle_ApplCallback\000"
 3488      655F4170 
 3488      706C4361 
 3488      6C6C6261 
 3488      636B00
 3489              	.LASF222:
 3490 172c 4359424C 		.ascii	"CYBLE_GATT_ERR_CODE_T\000"
 3490      455F4741 
 3490      54545F45 
 3490      52525F43 
 3490      4F44455F 
 3491              	.LASF123:
 3492 1742 4359424C 		.ascii	"CYBLE_GAP_SCAN_TO\000"
 3492      455F4741 
 3492      505F5343 
 3492      414E5F54 
 3492      4F00
 3493              	.LASF211:
 3494 1754 4359424C 		.ascii	"CYBLE_GATT_ERR_HTS_OUT_OF_RANGE\000"
 3494      455F4741 
 3494      54545F45 
 3494      52525F48 
 3494      54535F4F 
 3495              	.LASF121:
 3496 1774 4359424C 		.ascii	"CYBLE_GAP_BD_ADDR_T\000"
 3496      455F4741 
 3496      505F4244 
 3496      5F414444 
 3496      525F5400 
 3497              	.LASF172:
 3498 1788 4359424C 		.ascii	"CYBLE_GATT_READ_BLOB_REQ\000"
 3498      455F4741 
 3498      54545F52 
 3498      4541445F 
 3498      424C4F42 
 3499              	.LASF122:
 3500 17a1 4359424C 		.ascii	"CYBLE_GAP_ADV_MODE_TO\000"
 3500      455F4741 
 3500      505F4144 
 3500      565F4D4F 
 3500      44455F54 
 3501              	.LASF237:
 3502 17b7 68616E64 		.ascii	"handleValPair\000"
 3502      6C655661 
 3502      6C506169 
ARM GAS  C:\Users\ELECTR~1\AppData\Local\Temp\ccJM91Ce.s 			page 109


 3502      7200
 3503              	.LASF232:
 3504 17c5 636F6E6E 		.ascii	"connHandle\000"
 3504      48616E64 
 3504      6C6500
 3505              	.LASF142:
 3506 17d0 4359424C 		.ascii	"CYBLE_GAP_AUTH_ERROR_PAIRING_NOT_SUPPORTED\000"
 3506      455F4741 
 3506      505F4155 
 3506      54485F45 
 3506      52524F52 
 3507              	.LASF125:
 3508 17fb 4359424C 		.ascii	"CYBLE_GENERIC_TO\000"
 3508      455F4745 
 3508      4E455249 
 3508      435F544F 
 3508      00
 3509              	.LASF259:
 3510 180c 6379426C 		.ascii	"cyBle_pendingFlashWrite\000"
 3510      655F7065 
 3510      6E64696E 
 3510      67466C61 
 3510      73685772 
 3511              	.LASF42:
 3512 1824 4359424C 		.ascii	"CYBLE_EVT_GATTC_FIND_INFO_RSP\000"
 3512      455F4556 
 3512      545F4741 
 3512      5454435F 
 3512      46494E44 
 3513              	.LASF41:
 3514 1842 4359424C 		.ascii	"CYBLE_EVT_GATTC_READ_BY_TYPE_RSP\000"
 3514      455F4556 
 3514      545F4741 
 3514      5454435F 
 3514      52454144 
 3515              	.LASF216:
 3516 1863 4359424C 		.ascii	"CYBLE_GATTS_ERR_OPERATION_FAILED\000"
 3516      455F4741 
 3516      5454535F 
 3516      4552525F 
 3516      4F504552 
 3517              	.LASF262:
 3518 1884 6379426C 		.ascii	"cyBle_state\000"
 3518      655F7374 
 3518      61746500 
 3519              	.LASF48:
 3520 1890 4359424C 		.ascii	"CYBLE_EVT_GATTC_WRITE_RSP\000"
 3520      455F4556 
 3520      545F4741 
 3520      5454435F 
 3520      57524954 
 3521              	.LASF244:
 3522 18aa 4359424C 		.ascii	"CYBLE_STATE_DISCONNECTED\000"
 3522      455F5354 
 3522      4154455F 
 3522      44495343 
 3522      4F4E4E45 
ARM GAS  C:\Users\ELECTR~1\AppData\Local\Temp\ccJM91Ce.s 			page 110


 3523              	.LASF28:
 3524 18c3 4359424C 		.ascii	"CYBLE_EVT_GAPP_ADVERTISEMENT_START_STOP\000"
 3524      455F4556 
 3524      545F4741 
 3524      50505F41 
 3524      44564552 
 3525              	.LASF9:
 3526 18eb 75696E74 		.ascii	"uint8\000"
 3526      3800
 3527              	.LASF258:
 3528 18f1 6379426C 		.ascii	"cyBle_authInfo\000"
 3528      655F6175 
 3528      7468496E 
 3528      666F00
 3529              	.LASF151:
 3530 1900 73656375 		.ascii	"security\000"
 3530      72697479 
 3530      00
 3531              	.LASF178:
 3532 1909 4359424C 		.ascii	"CYBLE_GATT_WRITE_REQ\000"
 3532      455F4741 
 3532      54545F57 
 3532      52495445 
 3532      5F524551 
 3533              	.LASF2:
 3534 191e 73686F72 		.ascii	"short int\000"
 3534      7420696E 
 3534      7400
 3535              	.LASF154:
 3536 1928 61757468 		.ascii	"authErr\000"
 3536      45727200 
 3537              	.LASF210:
 3538 1930 4359424C 		.ascii	"CYBLE_GATT_ERR_CPS_INAPPROPRIATE_CONNECTION_PARAMET"
 3538      455F4741 
 3538      54545F45 
 3538      52525F43 
 3538      50535F49 
 3539 1963 45525300 		.ascii	"ERS\000"
 3540              	.LASF196:
 3541 1967 4359424C 		.ascii	"CYBLE_GATT_ERR_REQUEST_NOT_SUPPORTED\000"
 3541      455F4741 
 3541      54545F45 
 3541      52525F52 
 3541      45515545 
 3542              	.LASF35:
 3543 198c 4359424C 		.ascii	"CYBLE_EVT_GATTC_ERROR_RSP\000"
 3543      455F4556 
 3543      545F4741 
 3543      5454435F 
 3543      4552524F 
 3544              	.LASF135:
 3545 19a6 4359424C 		.ascii	"CYBLE_GAP_IOCAP_KEYBOARD_DISPLAY\000"
 3545      455F4741 
 3545      505F494F 
 3545      4341505F 
 3545      4B455942 
 3546              	.LASF245:
ARM GAS  C:\Users\ELECTR~1\AppData\Local\Temp\ccJM91Ce.s 			page 111


 3547 19c7 4359424C 		.ascii	"CYBLE_STATE_T\000"
 3547      455F5354 
 3547      4154455F 
 3547      5400
 3548              	.LASF62:
 3549 19d5 4359424C 		.ascii	"CYBLE_EVT_L2CAP_CBFC_CONN_IND\000"
 3549      455F4556 
 3549      545F4C32 
 3549      4341505F 
 3549      43424643 
 3550              	.LASF51:
 3551 19f3 4359424C 		.ascii	"CYBLE_EVT_GATTS_EXEC_WRITE_REQ\000"
 3551      455F4556 
 3551      545F4741 
 3551      5454535F 
 3551      45584543 
 3552              	.LASF22:
 3553 1a12 4359424C 		.ascii	"CYBLE_EVT_GAPC_SCAN_PROGRESS_RESULT\000"
 3553      455F4556 
 3553      545F4741 
 3553      50435F53 
 3553      43414E5F 
 3554              	.LASF82:
 3555 1a36 4359424C 		.ascii	"CYBLE_ERROR_GAP_ROLE\000"
 3555      455F4552 
 3555      524F525F 
 3555      4741505F 
 3555      524F4C45 
 3556              	.LASF265:
 3557 1a4b 6379426C 		.ascii	"cyBle_advertisingIntervalType\000"
 3557      655F6164 
 3557      76657274 
 3557      6973696E 
 3557      67496E74 
 3558              	.LASF119:
 3559 1a69 62644164 		.ascii	"bdAddr\000"
 3559      647200
 3560              	.LASF218:
 3561 1a70 4359424C 		.ascii	"CYBLE_GATT_ERR_ANS_COMMAND_NOT_SUPPORTED\000"
 3561      455F4741 
 3561      54545F45 
 3561      52525F41 
 3561      4E535F43 
 3562              	.LASF266:
 3563 1a99 4379426C 		.ascii	"CyBle_GattsErrorRsp\000"
 3563      655F4761 
 3563      74747345 
 3563      72726F72 
 3563      52737000 
 3564              	.LASF171:
 3565 1aad 4359424C 		.ascii	"CYBLE_GATT_READ_RSP\000"
 3565      455F4741 
 3565      54545F52 
 3565      4541445F 
 3565      52535000 
 3566              	.LASF79:
 3567 1ac1 4359424C 		.ascii	"CYBLE_ERROR_NO_CONNECTION\000"
ARM GAS  C:\Users\ELECTR~1\AppData\Local\Temp\ccJM91Ce.s 			page 112


 3567      455F4552 
 3567      524F525F 
 3567      4E4F5F43 
 3567      4F4E4E45 
 3568              	.LASF108:
 3569 1adb 4359424C 		.ascii	"CYBLE_LL_PWR_LVL_0_DBM\000"
 3569      455F4C4C 
 3569      5F505752 
 3569      5F4C564C 
 3569      5F305F44 
 3570              	.LASF276:
 3571 1af2 6D656D63 		.ascii	"memcpy\000"
 3571      707900
 3572              	.LASF112:
 3573 1af9 4359424C 		.ascii	"CYBLE_LL_ADV_CH_TYPE\000"
 3573      455F4C4C 
 3573      5F414456 
 3573      5F43485F 
 3573      54595045 
 3574              	.LASF71:
 3575 1b0e 4359424C 		.ascii	"CYBLE_EVT_LE_PING_AUTH_TIMEOUT\000"
 3575      455F4556 
 3575      545F4C45 
 3575      5F50494E 
 3575      475F4155 
 3576              	.LASF101:
 3577 1b2d 4359424C 		.ascii	"CYBLE_API_RESULT_T\000"
 3577      455F4150 
 3577      495F5245 
 3577      53554C54 
 3577      5F5400
 3578              	.LASF260:
 3579 1b40 6379426C 		.ascii	"cyBle_attValuesCCCD\000"
 3579      655F6174 
 3579      7456616C 
 3579      75657343 
 3579      43434400 
 3580              	.LASF54:
 3581 1b54 4359424C 		.ascii	"CYBLE_EVT_GATTC_HANDLE_VALUE_IND\000"
 3581      455F4556 
 3581      545F4741 
 3581      5454435F 
 3581      48414E44 
 3582              	.LASF251:
 3583 1b75 6576656E 		.ascii	"eventCode\000"
 3583      74436F64 
 3583      6500
 3584              	.LASF85:
 3585 1b7f 4359424C 		.ascii	"CYBLE_ERROR_SEC_FAILED\000"
 3585      455F4552 
 3585      524F525F 
 3585      5345435F 
 3585      4641494C 
 3586              	.LASF21:
 3587 1b96 4359424C 		.ascii	"CYBLE_EVT_STACK_BUSY_STATUS\000"
 3587      455F4556 
 3587      545F5354 
ARM GAS  C:\Users\ELECTR~1\AppData\Local\Temp\ccJM91Ce.s 			page 113


 3587      41434B5F 
 3587      42555359 
 3588              	.LASF158:
 3589 1bb2 636F6E6E 		.ascii	"connLatency\000"
 3589      4C617465 
 3589      6E637900 
 3590              	.LASF132:
 3591 1bbe 4359424C 		.ascii	"CYBLE_GAP_IOCAP_DISPLAY_YESNO\000"
 3591      455F4741 
 3591      505F494F 
 3591      4341505F 
 3591      44495350 
 3592              	.LASF34:
 3593 1bdc 4359424C 		.ascii	"CYBLE_EVT_GAP_KEYINFO_EXCHNGE_CMPLT\000"
 3593      455F4556 
 3593      545F4741 
 3593      505F4B45 
 3593      59494E46 
 3594              	.LASF183:
 3595 1c00 4359424C 		.ascii	"CYBLE_GATT_EXECUTE_WRITE_REQ\000"
 3595      455F4741 
 3595      54545F45 
 3595      58454355 
 3595      54455F57 
 3596              	.LASF118:
 3597 1c1d 4359424C 		.ascii	"CYBLE_BLESS_PWR_IN_DB_T\000"
 3597      455F424C 
 3597      4553535F 
 3597      5057525F 
 3597      494E5F44 
 3598              	.LASF114:
 3599 1c35 4359424C 		.ascii	"CYBLE_LL_MAX_CH_TYPE\000"
 3599      455F4C4C 
 3599      5F4D4158 
 3599      5F43485F 
 3599      54595045 
 3600              	.LASF59:
 3601 1c4a 4359424C 		.ascii	"CYBLE_EVT_L2CAP_CONN_PARAM_UPDATE_REQ\000"
 3601      455F4556 
 3601      545F4C32 
 3601      4341505F 
 3601      434F4E4E 
 3602              	.LASF249:
 3603 1c70 67617474 		.ascii	"gattErr\000"
 3603      45727200 
 3604              	.LASF193:
 3605 1c78 4359424C 		.ascii	"CYBLE_GATT_ERR_WRITE_NOT_PERMITTED\000"
 3605      455F4741 
 3605      54545F45 
 3605      52525F57 
 3605      52495445 
 3606              	.LASF157:
 3607 1c9b 636F6E6E 		.ascii	"connIntv\000"
 3607      496E7476 
 3607      00
 3608              	.LASF3:
 3609 1ca4 73686F72 		.ascii	"short unsigned int\000"
ARM GAS  C:\Users\ELECTR~1\AppData\Local\Temp\ccJM91Ce.s 			page 114


 3609      7420756E 
 3609      7369676E 
 3609      65642069 
 3609      6E7400
 3610              	.LASF205:
 3611 1cb7 4359424C 		.ascii	"CYBLE_GATT_ERR_INSUFFICIENT_ENCRYPTION\000"
 3611      455F4741 
 3611      54545F45 
 3611      52525F49 
 3611      4E535546 
 3612              	.LASF242:
 3613 1cde 4359424C 		.ascii	"CYBLE_STATE_CONNECTED\000"
 3613      455F5354 
 3613      4154455F 
 3613      434F4E4E 
 3613      45435445 
 3614              	.LASF227:
 3615 1cf4 61637475 		.ascii	"actualLen\000"
 3615      616C4C65 
 3615      6E00
 3616              	.LASF176:
 3617 1cfe 4359424C 		.ascii	"CYBLE_GATT_READ_BY_GROUP_REQ\000"
 3617      455F4741 
 3617      54545F52 
 3617      4541445F 
 3617      42595F47 
 3618              	.LASF141:
 3619 1d1b 4359424C 		.ascii	"CYBLE_GAP_AUTH_ERROR_CONFIRM_VALUE_NOT_MATCH\000"
 3619      455F4741 
 3619      505F4155 
 3619      54485F45 
 3619      52524F52 
 3620              	.LASF225:
 3621 1d48 61747449 		.ascii	"attId\000"
 3621      6400
 3622              	.LASF75:
 3623 1d4e 4359424C 		.ascii	"CYBLE_ERROR_INVALID_OPERATION\000"
 3623      455F4552 
 3623      524F525F 
 3623      494E5641 
 3623      4C49445F 
 3624              	.LASF20:
 3625 1d6c 4359424C 		.ascii	"CYBLE_EVT_HCI_STATUS\000"
 3625      455F4556 
 3625      545F4843 
 3625      495F5354 
 3625      41545553 
 3626              	.LASF37:
 3627 1d81 4359424C 		.ascii	"CYBLE_EVT_GATT_DISCONNECT_IND\000"
 3627      455F4556 
 3627      545F4741 
 3627      54545F44 
 3627      4953434F 
 3628              	.LASF159:
 3629 1d9f 73757065 		.ascii	"supervisionTO\000"
 3629      72766973 
 3629      696F6E54 
ARM GAS  C:\Users\ELECTR~1\AppData\Local\Temp\ccJM91Ce.s 			page 115


 3629      4F00
 3630              	.LASF124:
 3631 1dad 4359424C 		.ascii	"CYBLE_GATT_RSP_TO\000"
 3631      455F4741 
 3631      54545F52 
 3631      53505F54 
 3631      4F00
 3632              	.LASF69:
 3633 1dbf 4359424C 		.ascii	"CYBLE_EVT_L2CAP_CBFC_DATA_WRITE_IND\000"
 3633      455F4556 
 3633      545F4C32 
 3633      4341505F 
 3633      43424643 
 3634              	.LASF30:
 3635 1de3 4359424C 		.ascii	"CYBLE_EVT_GAP_DEVICE_DISCONNECTED\000"
 3635      455F4556 
 3635      545F4741 
 3635      505F4445 
 3635      56494345 
 3636              	.LASF55:
 3637 1e05 4359424C 		.ascii	"CYBLE_EVT_GATTS_HANDLE_VALUE_CNF\000"
 3637      455F4556 
 3637      545F4741 
 3637      5454535F 
 3637      48414E44 
 3638              	.LASF10:
 3639 1e26 75696E74 		.ascii	"uint16\000"
 3639      313600
 3640              	.LASF83:
 3641 1e2d 4359424C 		.ascii	"CYBLE_ERROR_TX_POWER_READ\000"
 3641      455F4552 
 3641      524F525F 
 3641      54585F50 
 3641      4F574552 
 3642              		.ident	"GCC: (GNU Tools for ARM Embedded Processors) 4.9.3 20150303 (release) [ARM/embedded-4_9-br
