ARM GAS  C:\Users\ELECTR~1\AppData\Local\Temp\ccn0iOtb.s 			page 1


   1              		.cpu cortex-m0
   2              		.fpu softvfp
   3              		.eabi_attribute 20, 1
   4              		.eabi_attribute 21, 1
   5              		.eabi_attribute 23, 3
   6              		.eabi_attribute 24, 1
   7              		.eabi_attribute 25, 1
   8              		.eabi_attribute 26, 1
   9              		.eabi_attribute 30, 1
  10              		.eabi_attribute 34, 0
  11              		.eabi_attribute 18, 4
  12              		.code	16
  13              		.file	"cyfitter_cfg.c"
  14              		.text
  15              	.Ltext0:
  16              		.cfi_sections	.debug_frame
  17              		.section	.text.cfg_write_bytes32,"ax",%progbits
  18              		.align	2
  19              		.code	16
  20              		.thumb_func
  21              		.type	cfg_write_bytes32, %function
  22              	cfg_write_bytes32:
  23              	.LFB5:
  24              		.file 1 ".\\Generated_Source\\PSoC4\\cyfitter_cfg.c"
   1:.\Generated_Source\PSoC4/cyfitter_cfg.c **** /*******************************************************************************
   2:.\Generated_Source\PSoC4/cyfitter_cfg.c **** * File Name: cyfitter_cfg.c
   3:.\Generated_Source\PSoC4/cyfitter_cfg.c **** * 
   4:.\Generated_Source\PSoC4/cyfitter_cfg.c **** * PSoC Creator  3.3
   5:.\Generated_Source\PSoC4/cyfitter_cfg.c **** *
   6:.\Generated_Source\PSoC4/cyfitter_cfg.c **** * Description:
   7:.\Generated_Source\PSoC4/cyfitter_cfg.c **** * This file contains device initialization code.
   8:.\Generated_Source\PSoC4/cyfitter_cfg.c **** * Except for the user defined sections in CyClockStartupError(), this file should not be modified.
   9:.\Generated_Source\PSoC4/cyfitter_cfg.c **** * This file is automatically generated by PSoC Creator.
  10:.\Generated_Source\PSoC4/cyfitter_cfg.c **** *
  11:.\Generated_Source\PSoC4/cyfitter_cfg.c **** ********************************************************************************
  12:.\Generated_Source\PSoC4/cyfitter_cfg.c **** * Copyright (c) 2007-2015 Cypress Semiconductor.  All rights reserved.
  13:.\Generated_Source\PSoC4/cyfitter_cfg.c **** * You may use this file only in accordance with the license, terms, conditions, 
  14:.\Generated_Source\PSoC4/cyfitter_cfg.c **** * disclaimers, and limitations in the end user license agreement accompanying 
  15:.\Generated_Source\PSoC4/cyfitter_cfg.c **** * the software package with which this file was provided.
  16:.\Generated_Source\PSoC4/cyfitter_cfg.c **** ********************************************************************************/
  17:.\Generated_Source\PSoC4/cyfitter_cfg.c **** 
  18:.\Generated_Source\PSoC4/cyfitter_cfg.c **** #include <string.h>
  19:.\Generated_Source\PSoC4/cyfitter_cfg.c **** #include "cytypes.h"
  20:.\Generated_Source\PSoC4/cyfitter_cfg.c **** #include "cydevice_trm.h"
  21:.\Generated_Source\PSoC4/cyfitter_cfg.c **** #include "cyfitter.h"
  22:.\Generated_Source\PSoC4/cyfitter_cfg.c **** #include "CyLib.h"
  23:.\Generated_Source\PSoC4/cyfitter_cfg.c **** #include "CyLFClk.h"
  24:.\Generated_Source\PSoC4/cyfitter_cfg.c **** #include "cyfitter_cfg.h"
  25:.\Generated_Source\PSoC4/cyfitter_cfg.c **** 
  26:.\Generated_Source\PSoC4/cyfitter_cfg.c **** 
  27:.\Generated_Source\PSoC4/cyfitter_cfg.c **** #if defined(__GNUC__) || defined(__ARMCC_VERSION)
  28:.\Generated_Source\PSoC4/cyfitter_cfg.c ****     #define CYPACKED 
  29:.\Generated_Source\PSoC4/cyfitter_cfg.c ****     #define CYPACKED_ATTR __attribute__ ((packed))
  30:.\Generated_Source\PSoC4/cyfitter_cfg.c ****     #define CYALIGNED __attribute__ ((aligned))
  31:.\Generated_Source\PSoC4/cyfitter_cfg.c ****     #define CY_CFG_UNUSED __attribute__ ((unused))
  32:.\Generated_Source\PSoC4/cyfitter_cfg.c ****     #define CY_CFG_SECTION __attribute__ ((section(".psocinit")))
  33:.\Generated_Source\PSoC4/cyfitter_cfg.c ****     
ARM GAS  C:\Users\ELECTR~1\AppData\Local\Temp\ccn0iOtb.s 			page 2


  34:.\Generated_Source\PSoC4/cyfitter_cfg.c ****     #if defined(__ARMCC_VERSION)
  35:.\Generated_Source\PSoC4/cyfitter_cfg.c ****         #define CY_CFG_MEMORY_BARRIER() __memory_changed()
  36:.\Generated_Source\PSoC4/cyfitter_cfg.c ****     #else
  37:.\Generated_Source\PSoC4/cyfitter_cfg.c ****         #define CY_CFG_MEMORY_BARRIER() __sync_synchronize()
  38:.\Generated_Source\PSoC4/cyfitter_cfg.c ****     #endif
  39:.\Generated_Source\PSoC4/cyfitter_cfg.c ****     
  40:.\Generated_Source\PSoC4/cyfitter_cfg.c **** #elif defined(__ICCARM__)
  41:.\Generated_Source\PSoC4/cyfitter_cfg.c ****     #include <intrinsics.h>
  42:.\Generated_Source\PSoC4/cyfitter_cfg.c **** 
  43:.\Generated_Source\PSoC4/cyfitter_cfg.c ****     #define CYPACKED __packed
  44:.\Generated_Source\PSoC4/cyfitter_cfg.c ****     #define CYPACKED_ATTR 
  45:.\Generated_Source\PSoC4/cyfitter_cfg.c ****     #define CYALIGNED _Pragma("data_alignment=4")
  46:.\Generated_Source\PSoC4/cyfitter_cfg.c ****     #define CY_CFG_UNUSED _Pragma("diag_suppress=Pe177")
  47:.\Generated_Source\PSoC4/cyfitter_cfg.c ****     #define CY_CFG_SECTION _Pragma("location=\".psocinit\"")
  48:.\Generated_Source\PSoC4/cyfitter_cfg.c ****     
  49:.\Generated_Source\PSoC4/cyfitter_cfg.c ****     #define CY_CFG_MEMORY_BARRIER() __DMB()
  50:.\Generated_Source\PSoC4/cyfitter_cfg.c ****     
  51:.\Generated_Source\PSoC4/cyfitter_cfg.c **** #else
  52:.\Generated_Source\PSoC4/cyfitter_cfg.c ****     #error Unsupported toolchain
  53:.\Generated_Source\PSoC4/cyfitter_cfg.c **** #endif
  54:.\Generated_Source\PSoC4/cyfitter_cfg.c **** 
  55:.\Generated_Source\PSoC4/cyfitter_cfg.c **** 
  56:.\Generated_Source\PSoC4/cyfitter_cfg.c **** CY_CFG_UNUSED
  57:.\Generated_Source\PSoC4/cyfitter_cfg.c **** static void CYMEMZERO(void *s, size_t n);
  58:.\Generated_Source\PSoC4/cyfitter_cfg.c **** CY_CFG_UNUSED
  59:.\Generated_Source\PSoC4/cyfitter_cfg.c **** static void CYMEMZERO(void *s, size_t n)
  60:.\Generated_Source\PSoC4/cyfitter_cfg.c **** {
  61:.\Generated_Source\PSoC4/cyfitter_cfg.c **** 	(void)memset(s, 0, n);
  62:.\Generated_Source\PSoC4/cyfitter_cfg.c **** }
  63:.\Generated_Source\PSoC4/cyfitter_cfg.c **** CY_CFG_UNUSED
  64:.\Generated_Source\PSoC4/cyfitter_cfg.c **** static void CYCONFIGCPY(void *dest, const void *src, size_t n);
  65:.\Generated_Source\PSoC4/cyfitter_cfg.c **** CY_CFG_UNUSED
  66:.\Generated_Source\PSoC4/cyfitter_cfg.c **** static void CYCONFIGCPY(void *dest, const void *src, size_t n)
  67:.\Generated_Source\PSoC4/cyfitter_cfg.c **** {
  68:.\Generated_Source\PSoC4/cyfitter_cfg.c **** 	(void)memcpy(dest, src, n);
  69:.\Generated_Source\PSoC4/cyfitter_cfg.c **** }
  70:.\Generated_Source\PSoC4/cyfitter_cfg.c **** CY_CFG_UNUSED
  71:.\Generated_Source\PSoC4/cyfitter_cfg.c **** static void CYCONFIGCPYCODE(void *dest, const void *src, size_t n);
  72:.\Generated_Source\PSoC4/cyfitter_cfg.c **** CY_CFG_UNUSED
  73:.\Generated_Source\PSoC4/cyfitter_cfg.c **** static void CYCONFIGCPYCODE(void *dest, const void *src, size_t n)
  74:.\Generated_Source\PSoC4/cyfitter_cfg.c **** {
  75:.\Generated_Source\PSoC4/cyfitter_cfg.c **** 	(void)memcpy(dest, src, n);
  76:.\Generated_Source\PSoC4/cyfitter_cfg.c **** }
  77:.\Generated_Source\PSoC4/cyfitter_cfg.c **** 
  78:.\Generated_Source\PSoC4/cyfitter_cfg.c **** 
  79:.\Generated_Source\PSoC4/cyfitter_cfg.c **** 
  80:.\Generated_Source\PSoC4/cyfitter_cfg.c **** /* Clock startup error codes                                                   */
  81:.\Generated_Source\PSoC4/cyfitter_cfg.c **** #define CYCLOCKSTART_NO_ERROR    0u
  82:.\Generated_Source\PSoC4/cyfitter_cfg.c **** #define CYCLOCKSTART_XTAL_ERROR  1u
  83:.\Generated_Source\PSoC4/cyfitter_cfg.c **** #define CYCLOCKSTART_32KHZ_ERROR 2u
  84:.\Generated_Source\PSoC4/cyfitter_cfg.c **** #define CYCLOCKSTART_PLL_ERROR   3u
  85:.\Generated_Source\PSoC4/cyfitter_cfg.c **** 
  86:.\Generated_Source\PSoC4/cyfitter_cfg.c **** #ifdef CY_NEED_CYCLOCKSTARTUPERROR
  87:.\Generated_Source\PSoC4/cyfitter_cfg.c **** /*******************************************************************************
  88:.\Generated_Source\PSoC4/cyfitter_cfg.c **** * Function Name: CyClockStartupError
  89:.\Generated_Source\PSoC4/cyfitter_cfg.c **** ********************************************************************************
  90:.\Generated_Source\PSoC4/cyfitter_cfg.c **** * Summary:
ARM GAS  C:\Users\ELECTR~1\AppData\Local\Temp\ccn0iOtb.s 			page 3


  91:.\Generated_Source\PSoC4/cyfitter_cfg.c **** *  If an error is encountered during clock configuration (crystal startup error,
  92:.\Generated_Source\PSoC4/cyfitter_cfg.c **** *  PLL lock error, etc.), the system will end up here.  Unless reimplemented by
  93:.\Generated_Source\PSoC4/cyfitter_cfg.c **** *  the customer, this function will stop in an infinite loop.
  94:.\Generated_Source\PSoC4/cyfitter_cfg.c **** *
  95:.\Generated_Source\PSoC4/cyfitter_cfg.c **** * Parameters:
  96:.\Generated_Source\PSoC4/cyfitter_cfg.c **** *   void
  97:.\Generated_Source\PSoC4/cyfitter_cfg.c **** *
  98:.\Generated_Source\PSoC4/cyfitter_cfg.c **** * Return:
  99:.\Generated_Source\PSoC4/cyfitter_cfg.c **** *   void
 100:.\Generated_Source\PSoC4/cyfitter_cfg.c **** *
 101:.\Generated_Source\PSoC4/cyfitter_cfg.c **** *******************************************************************************/
 102:.\Generated_Source\PSoC4/cyfitter_cfg.c **** CY_CFG_UNUSED
 103:.\Generated_Source\PSoC4/cyfitter_cfg.c **** static void CyClockStartupError(uint8 errorCode);
 104:.\Generated_Source\PSoC4/cyfitter_cfg.c **** CY_CFG_UNUSED
 105:.\Generated_Source\PSoC4/cyfitter_cfg.c **** static void CyClockStartupError(uint8 errorCode)
 106:.\Generated_Source\PSoC4/cyfitter_cfg.c **** {
 107:.\Generated_Source\PSoC4/cyfitter_cfg.c ****     /* To remove the compiler warning if errorCode not used.                */
 108:.\Generated_Source\PSoC4/cyfitter_cfg.c ****     errorCode = errorCode;
 109:.\Generated_Source\PSoC4/cyfitter_cfg.c **** 
 110:.\Generated_Source\PSoC4/cyfitter_cfg.c ****     /* `#START CyClockStartupError` */
 111:.\Generated_Source\PSoC4/cyfitter_cfg.c **** 
 112:.\Generated_Source\PSoC4/cyfitter_cfg.c ****     /* If we have a clock startup error (bad MHz crystal, PLL lock, etc.),  */
 113:.\Generated_Source\PSoC4/cyfitter_cfg.c ****     /* we will end up here to allow the customer to implement something to  */
 114:.\Generated_Source\PSoC4/cyfitter_cfg.c ****     /* deal with the clock condition.                                       */
 115:.\Generated_Source\PSoC4/cyfitter_cfg.c **** 
 116:.\Generated_Source\PSoC4/cyfitter_cfg.c ****     /* `#END` */
 117:.\Generated_Source\PSoC4/cyfitter_cfg.c **** 
 118:.\Generated_Source\PSoC4/cyfitter_cfg.c ****     /* If nothing else, stop here since the clocks have not started         */
 119:.\Generated_Source\PSoC4/cyfitter_cfg.c ****     /* correctly.                                                           */
 120:.\Generated_Source\PSoC4/cyfitter_cfg.c ****     while(1) {}
 121:.\Generated_Source\PSoC4/cyfitter_cfg.c **** }
 122:.\Generated_Source\PSoC4/cyfitter_cfg.c **** #endif
 123:.\Generated_Source\PSoC4/cyfitter_cfg.c **** 
 124:.\Generated_Source\PSoC4/cyfitter_cfg.c **** #define CY_CFG_BASE_ADDR_COUNT 6u
 125:.\Generated_Source\PSoC4/cyfitter_cfg.c **** CYPACKED typedef struct
 126:.\Generated_Source\PSoC4/cyfitter_cfg.c **** {
 127:.\Generated_Source\PSoC4/cyfitter_cfg.c **** 	uint8 offset;
 128:.\Generated_Source\PSoC4/cyfitter_cfg.c **** 	uint8 value;
 129:.\Generated_Source\PSoC4/cyfitter_cfg.c **** } CYPACKED_ATTR cy_cfg_addrvalue_t;
 130:.\Generated_Source\PSoC4/cyfitter_cfg.c **** 
 131:.\Generated_Source\PSoC4/cyfitter_cfg.c **** 
 132:.\Generated_Source\PSoC4/cyfitter_cfg.c **** 
 133:.\Generated_Source\PSoC4/cyfitter_cfg.c **** /*******************************************************************************
 134:.\Generated_Source\PSoC4/cyfitter_cfg.c **** * Function Name: cfg_write_bytes32
 135:.\Generated_Source\PSoC4/cyfitter_cfg.c **** ********************************************************************************
 136:.\Generated_Source\PSoC4/cyfitter_cfg.c **** * Summary:
 137:.\Generated_Source\PSoC4/cyfitter_cfg.c **** *  This function is used for setting up the chip configuration areas that
 138:.\Generated_Source\PSoC4/cyfitter_cfg.c **** *  contain relatively sparse data.
 139:.\Generated_Source\PSoC4/cyfitter_cfg.c **** *
 140:.\Generated_Source\PSoC4/cyfitter_cfg.c **** * Parameters:
 141:.\Generated_Source\PSoC4/cyfitter_cfg.c **** *   void
 142:.\Generated_Source\PSoC4/cyfitter_cfg.c **** *
 143:.\Generated_Source\PSoC4/cyfitter_cfg.c **** * Return:
 144:.\Generated_Source\PSoC4/cyfitter_cfg.c **** *   void
 145:.\Generated_Source\PSoC4/cyfitter_cfg.c **** *
 146:.\Generated_Source\PSoC4/cyfitter_cfg.c **** *******************************************************************************/
 147:.\Generated_Source\PSoC4/cyfitter_cfg.c **** static void cfg_write_bytes32(const uint32 addr_table[], const cy_cfg_addrvalue_t data_table[]);
ARM GAS  C:\Users\ELECTR~1\AppData\Local\Temp\ccn0iOtb.s 			page 4


 148:.\Generated_Source\PSoC4/cyfitter_cfg.c **** static void cfg_write_bytes32(const uint32 addr_table[], const cy_cfg_addrvalue_t data_table[])
 149:.\Generated_Source\PSoC4/cyfitter_cfg.c **** {
  25              		.loc 1 149 0
  26              		.cfi_startproc
  27              	.LVL0:
  28 0000 F0B5     		push	{r4, r5, r6, r7, lr}
  29              		.cfi_def_cfa_offset 20
  30              		.cfi_offset 4, -20
  31              		.cfi_offset 5, -16
  32              		.cfi_offset 6, -12
  33              		.cfi_offset 7, -8
  34              		.cfi_offset 14, -4
  35              	.LVL1:
 150:.\Generated_Source\PSoC4/cyfitter_cfg.c **** 	/* For 32-bit little-endian architectures */
 151:.\Generated_Source\PSoC4/cyfitter_cfg.c **** 	uint32 i, j = 0u;
  36              		.loc 1 151 0
  37 0002 0025     		mov	r5, #0
 152:.\Generated_Source\PSoC4/cyfitter_cfg.c **** 	for (i = 0u; i < CY_CFG_BASE_ADDR_COUNT; i++)
  38              		.loc 1 152 0
  39 0004 0027     		mov	r7, #0
  40 0006 11E0     		b	.L2
  41              	.LVL2:
  42              	.L5:
  43              	.LBB2:
 153:.\Generated_Source\PSoC4/cyfitter_cfg.c **** 	{
 154:.\Generated_Source\PSoC4/cyfitter_cfg.c **** 		uint32 baseAddr = addr_table[i];
  44              		.loc 1 154 0
  45 0008 BB00     		lsl	r3, r7, #2
  46 000a C658     		ldr	r6, [r0, r3]
  47              	.LVL3:
 155:.\Generated_Source\PSoC4/cyfitter_cfg.c **** 		uint8 count = (uint8)baseAddr;
  48              		.loc 1 155 0
  49 000c F3B2     		uxtb	r3, r6
  50              	.LVL4:
 156:.\Generated_Source\PSoC4/cyfitter_cfg.c **** 		baseAddr &= 0xFFFFFF00u;
  51              		.loc 1 156 0
  52 000e FF22     		mov	r2, #255
  53 0010 9643     		bic	r6, r2
  54              	.LVL5:
 157:.\Generated_Source\PSoC4/cyfitter_cfg.c **** 		while (count != 0u)
  55              		.loc 1 157 0
  56 0012 08E0     		b	.L3
  57              	.L4:
 158:.\Generated_Source\PSoC4/cyfitter_cfg.c **** 		{
 159:.\Generated_Source\PSoC4/cyfitter_cfg.c **** 			CY_SET_XTND_REG8((void CYFAR *)(baseAddr + data_table[j].offset), data_table[j].value);
  58              		.loc 1 159 0
  59 0014 6A00     		lsl	r2, r5, #1
  60 0016 8A18     		add	r2, r1, r2
  61 0018 1478     		ldrb	r4, [r2]
  62 001a A419     		add	r4, r4, r6
  63 001c 5278     		ldrb	r2, [r2, #1]
  64 001e 2270     		strb	r2, [r4]
 160:.\Generated_Source\PSoC4/cyfitter_cfg.c **** 			j++;
  65              		.loc 1 160 0
  66 0020 0135     		add	r5, r5, #1
  67              	.LVL6:
 161:.\Generated_Source\PSoC4/cyfitter_cfg.c **** 			count--;
ARM GAS  C:\Users\ELECTR~1\AppData\Local\Temp\ccn0iOtb.s 			page 5


  68              		.loc 1 161 0
  69 0022 013B     		sub	r3, r3, #1
  70              	.LVL7:
  71 0024 DBB2     		uxtb	r3, r3
  72              	.LVL8:
  73              	.L3:
 157:.\Generated_Source\PSoC4/cyfitter_cfg.c **** 		{
  74              		.loc 1 157 0
  75 0026 002B     		cmp	r3, #0
  76 0028 F4D1     		bne	.L4
  77              	.LBE2:
 152:.\Generated_Source\PSoC4/cyfitter_cfg.c **** 	{
  78              		.loc 1 152 0 discriminator 2
  79 002a 0137     		add	r7, r7, #1
  80              	.LVL9:
  81              	.L2:
 152:.\Generated_Source\PSoC4/cyfitter_cfg.c **** 	{
  82              		.loc 1 152 0 is_stmt 0 discriminator 1
  83 002c 052F     		cmp	r7, #5
  84 002e EBD9     		bls	.L5
 162:.\Generated_Source\PSoC4/cyfitter_cfg.c **** 		}
 163:.\Generated_Source\PSoC4/cyfitter_cfg.c **** 	}
 164:.\Generated_Source\PSoC4/cyfitter_cfg.c **** }
  85              		.loc 1 164 0 is_stmt 1
  86              		@ sp needed
  87              	.LVL10:
  88              	.LVL11:
  89 0030 F0BD     		pop	{r4, r5, r6, r7, pc}
  90              		.cfi_endproc
  91              	.LFE5:
  92              		.size	cfg_write_bytes32, .-cfg_write_bytes32
  93 0032 C046     		.section	.text.CYMEMZERO,"ax",%progbits
  94              		.align	2
  95              		.code	16
  96              		.thumb_func
  97              		.type	CYMEMZERO, %function
  98              	CYMEMZERO:
  99              	.LFB2:
  60:.\Generated_Source\PSoC4/cyfitter_cfg.c **** 	(void)memset(s, 0, n);
 100              		.loc 1 60 0
 101              		.cfi_startproc
 102              	.LVL12:
 103 0000 08B5     		push	{r3, lr}
 104              		.cfi_def_cfa_offset 8
 105              		.cfi_offset 3, -8
 106              		.cfi_offset 14, -4
 107 0002 0A1C     		mov	r2, r1
  61:.\Generated_Source\PSoC4/cyfitter_cfg.c **** }
 108              		.loc 1 61 0
 109 0004 0021     		mov	r1, #0
 110              	.LVL13:
 111 0006 FFF7FEFF 		bl	memset
 112              	.LVL14:
  62:.\Generated_Source\PSoC4/cyfitter_cfg.c **** CY_CFG_UNUSED
 113              		.loc 1 62 0
 114              		@ sp needed
 115 000a 08BD     		pop	{r3, pc}
ARM GAS  C:\Users\ELECTR~1\AppData\Local\Temp\ccn0iOtb.s 			page 6


 116              		.cfi_endproc
 117              	.LFE2:
 118              		.size	CYMEMZERO, .-CYMEMZERO
 119              		.section	.psocinit,"ax",%progbits
 120              		.align	2
 121              		.code	16
 122              		.thumb_func
 123              		.type	ClockSetup, %function
 124              	ClockSetup:
 125              	.LFB6:
 165:.\Generated_Source\PSoC4/cyfitter_cfg.c **** 
 166:.\Generated_Source\PSoC4/cyfitter_cfg.c **** 
 167:.\Generated_Source\PSoC4/cyfitter_cfg.c **** /*******************************************************************************
 168:.\Generated_Source\PSoC4/cyfitter_cfg.c **** * Function Name: ClockSetup
 169:.\Generated_Source\PSoC4/cyfitter_cfg.c **** ********************************************************************************
 170:.\Generated_Source\PSoC4/cyfitter_cfg.c **** *
 171:.\Generated_Source\PSoC4/cyfitter_cfg.c **** * Summary:
 172:.\Generated_Source\PSoC4/cyfitter_cfg.c **** *   Performs the initialization of all of the clocks in the device based on the
 173:.\Generated_Source\PSoC4/cyfitter_cfg.c **** *   settings in the Clock tab of the DWR.  This includes enabling the requested
 174:.\Generated_Source\PSoC4/cyfitter_cfg.c **** *   clocks and setting the necessary dividers to produce the desired frequency. 
 175:.\Generated_Source\PSoC4/cyfitter_cfg.c **** *
 176:.\Generated_Source\PSoC4/cyfitter_cfg.c **** * Parameters:
 177:.\Generated_Source\PSoC4/cyfitter_cfg.c **** *   void
 178:.\Generated_Source\PSoC4/cyfitter_cfg.c **** *
 179:.\Generated_Source\PSoC4/cyfitter_cfg.c **** * Return:
 180:.\Generated_Source\PSoC4/cyfitter_cfg.c **** *   void
 181:.\Generated_Source\PSoC4/cyfitter_cfg.c **** *
 182:.\Generated_Source\PSoC4/cyfitter_cfg.c **** *******************************************************************************/
 183:.\Generated_Source\PSoC4/cyfitter_cfg.c **** static void ClockSetup(void);
 184:.\Generated_Source\PSoC4/cyfitter_cfg.c **** CY_CFG_SECTION
 185:.\Generated_Source\PSoC4/cyfitter_cfg.c **** static void ClockSetup(void)
 186:.\Generated_Source\PSoC4/cyfitter_cfg.c **** {
 126              		.loc 1 186 0
 127              		.cfi_startproc
 128 0000 38B5     		push	{r3, r4, r5, lr}
 129              		.cfi_def_cfa_offset 16
 130              		.cfi_offset 3, -16
 131              		.cfi_offset 4, -12
 132              		.cfi_offset 5, -8
 133              		.cfi_offset 14, -4
 187:.\Generated_Source\PSoC4/cyfitter_cfg.c **** 
 188:.\Generated_Source\PSoC4/cyfitter_cfg.c **** 	/* Set Flash Cycles based on max possible frequency in case a glitch occurs during ClockSetup(). *
 189:.\Generated_Source\PSoC4/cyfitter_cfg.c **** 	CY_SET_REG32((void CYXDATA *)(CYREG_CPUSS_FLASH_CTL), (0x0012u));
 134              		.loc 1 189 0
 135 0002 1222     		mov	r2, #18
 136 0004 294B     		ldr	r3, .L8
 137 0006 1A60     		str	r2, [r3]
 190:.\Generated_Source\PSoC4/cyfitter_cfg.c **** 
 191:.\Generated_Source\PSoC4/cyfitter_cfg.c **** 	/* Start the WCO */
 192:.\Generated_Source\PSoC4/cyfitter_cfg.c **** 	CySysClkWcoStart();
 138              		.loc 1 192 0
 139 0008 FFF7FEFF 		bl	CySysClkWcoStart
 140              	.LVL15:
 193:.\Generated_Source\PSoC4/cyfitter_cfg.c **** 	CyDelayCycles(12000000u); /* WCO may take up to 500ms to start */
 141              		.loc 1 193 0
 142 000c 2848     		ldr	r0, .L8+4
 143 000e FFF7FEFF 		bl	CyDelayCycles
ARM GAS  C:\Users\ELECTR~1\AppData\Local\Temp\ccn0iOtb.s 			page 7


 144              	.LVL16:
 194:.\Generated_Source\PSoC4/cyfitter_cfg.c **** 	(void)CySysClkWcoSetPowerMode(CY_SYS_CLK_WCO_LPM);    /* Switch to the low power mode */
 145              		.loc 1 194 0
 146 0012 0120     		mov	r0, #1
 147 0014 FFF7FEFF 		bl	CySysClkWcoSetPowerMode
 148              	.LVL17:
 195:.\Generated_Source\PSoC4/cyfitter_cfg.c **** 
 196:.\Generated_Source\PSoC4/cyfitter_cfg.c **** 	/* Setup and trim IMO based on desired frequency. */
 197:.\Generated_Source\PSoC4/cyfitter_cfg.c **** 	CySysClkWriteImoFreq(48u);
 149              		.loc 1 197 0
 150 0018 3020     		mov	r0, #48
 151 001a FFF7FEFF 		bl	CySysClkWriteImoFreq
 152              	.LVL18:
 198:.\Generated_Source\PSoC4/cyfitter_cfg.c **** 	/* CYDEV_CLK_ILO_CONFIG Starting address: CYDEV_CLK_ILO_CONFIG */
 199:.\Generated_Source\PSoC4/cyfitter_cfg.c **** 	CY_SET_XTND_REG32((void CYFAR *)(CYREG_CLK_ILO_CONFIG), 0x80000006u);
 153              		.loc 1 199 0
 154 001e 254A     		ldr	r2, .L8+8
 155 0020 254B     		ldr	r3, .L8+12
 156 0022 1A60     		str	r2, [r3]
 200:.\Generated_Source\PSoC4/cyfitter_cfg.c **** 
 201:.\Generated_Source\PSoC4/cyfitter_cfg.c **** 	/* CYDEV_WDT_CONFIG Starting address: CYDEV_WDT_CONFIG */
 202:.\Generated_Source\PSoC4/cyfitter_cfg.c **** 	CY_SET_XTND_REG32((void CYFAR *)(CYREG_WDT_CONFIG), 0x40000000u);
 157              		.loc 1 202 0
 158 0024 254C     		ldr	r4, .L8+16
 159 0026 8025     		mov	r5, #128
 160 0028 ED05     		lsl	r5, r5, #23
 161 002a 2560     		str	r5, [r4]
 203:.\Generated_Source\PSoC4/cyfitter_cfg.c **** 
 204:.\Generated_Source\PSoC4/cyfitter_cfg.c **** 
 205:.\Generated_Source\PSoC4/cyfitter_cfg.c **** 	/* Enable fast start mode for XO */
 206:.\Generated_Source\PSoC4/cyfitter_cfg.c **** 	CY_SET_REG32((void*)CYREG_BLE_BLERD_BB_XO, CY_GET_REG32((void*)CYREG_BLE_BLERD_BB_XO) | (uint32)0x
 162              		.loc 1 206 0
 163 002c 244A     		ldr	r2, .L8+20
 164 002e 1168     		ldr	r1, [r2]
 165 0030 0223     		mov	r3, #2
 166 0032 0B43     		orr	r3, r1
 167 0034 1360     		str	r3, [r2]
 207:.\Generated_Source\PSoC4/cyfitter_cfg.c **** 	CY_SET_XTND_REG32((void CYFAR *)(CYREG_BLE_BLERD_BB_XO_CAPTRIM), 0x00003E2Du);
 168              		.loc 1 207 0
 169 0036 234A     		ldr	r2, .L8+24
 170 0038 234B     		ldr	r3, .L8+28
 171 003a 1A60     		str	r2, [r3]
 208:.\Generated_Source\PSoC4/cyfitter_cfg.c **** 	/* Disable Crystal Stable Interrupt before enabling ECO */
 209:.\Generated_Source\PSoC4/cyfitter_cfg.c **** 	CY_SET_REG32((void*)CYREG_BLE_BLESS_LL_DSM_CTRL, CY_GET_REG32((void*)CYREG_BLE_BLESS_LL_DSM_CTRL) 
 172              		.loc 1 209 0
 173 003c 234A     		ldr	r2, .L8+32
 174 003e 1368     		ldr	r3, [r2]
 175 0040 0821     		mov	r1, #8
 176 0042 8B43     		bic	r3, r1
 177 0044 1360     		str	r3, [r2]
 210:.\Generated_Source\PSoC4/cyfitter_cfg.c **** 	/* Start the ECO and do not check status since it is not needed for HFCLK */
 211:.\Generated_Source\PSoC4/cyfitter_cfg.c **** 	(void)CySysClkEcoStart(2000u);
 178              		.loc 1 211 0
 179 0046 FA20     		mov	r0, #250
 180 0048 C000     		lsl	r0, r0, #3
 181 004a FFF7FEFF 		bl	CySysClkEcoStart
 182              	.LVL19:
ARM GAS  C:\Users\ELECTR~1\AppData\Local\Temp\ccn0iOtb.s 			page 8


 212:.\Generated_Source\PSoC4/cyfitter_cfg.c **** 	CyDelayUs(1500u); /* Wait to stabalize */
 183              		.loc 1 212 0
 184 004e 2048     		ldr	r0, .L8+36
 185 0050 FFF7FEFF 		bl	CyDelayUs
 186              	.LVL20:
 213:.\Generated_Source\PSoC4/cyfitter_cfg.c **** 
 214:.\Generated_Source\PSoC4/cyfitter_cfg.c **** 	/* Setup phase aligned clocks */
 215:.\Generated_Source\PSoC4/cyfitter_cfg.c **** 	CY_SET_REG32((void *)CYREG_PERI_DIV_16_CTL2, 0x00002F00u);
 187              		.loc 1 215 0
 188 0054 BC22     		mov	r2, #188
 189 0056 9201     		lsl	r2, r2, #6
 190 0058 1E4B     		ldr	r3, .L8+40
 191 005a 1A60     		str	r2, [r3]
 216:.\Generated_Source\PSoC4/cyfitter_cfg.c **** 	CY_SET_REG32((void *)CYREG_PERI_DIV_CMD, 0x8000FF42u);
 192              		.loc 1 216 0
 193 005c 1E4B     		ldr	r3, .L8+44
 194 005e 1F4A     		ldr	r2, .L8+48
 195 0060 1A60     		str	r2, [r3]
 217:.\Generated_Source\PSoC4/cyfitter_cfg.c **** 	CY_SET_REG32((void *)CYREG_PERI_DIV_16_CTL0, 0x0000FE00u);
 196              		.loc 1 217 0
 197 0062 FE22     		mov	r2, #254
 198 0064 1202     		lsl	r2, r2, #8
 199 0066 1E49     		ldr	r1, .L8+52
 200 0068 0A60     		str	r2, [r1]
 218:.\Generated_Source\PSoC4/cyfitter_cfg.c **** 	CY_SET_REG32((void *)CYREG_PERI_DIV_CMD, 0x8000FF40u);
 201              		.loc 1 218 0
 202 006a 1E49     		ldr	r1, .L8+56
 203 006c 1960     		str	r1, [r3]
 219:.\Generated_Source\PSoC4/cyfitter_cfg.c **** 	CY_SET_REG32((void *)CYREG_PERI_DIV_16_CTL1, 0x0000FE00u);
 204              		.loc 1 219 0
 205 006e 1E49     		ldr	r1, .L8+60
 206 0070 0A60     		str	r2, [r1]
 220:.\Generated_Source\PSoC4/cyfitter_cfg.c **** 	CY_SET_REG32((void *)CYREG_PERI_DIV_CMD, 0x8000FF41u);
 207              		.loc 1 220 0
 208 0072 1E4A     		ldr	r2, .L8+64
 209 0074 1A60     		str	r2, [r3]
 221:.\Generated_Source\PSoC4/cyfitter_cfg.c **** 
 222:.\Generated_Source\PSoC4/cyfitter_cfg.c **** 	/* CYDEV_CLK_IMO_CONFIG Starting address: CYDEV_CLK_IMO_CONFIG */
 223:.\Generated_Source\PSoC4/cyfitter_cfg.c **** 	CY_SET_XTND_REG32((void CYFAR *)(CYREG_CLK_IMO_CONFIG), 0x80000000u);
 210              		.loc 1 223 0
 211 0076 8022     		mov	r2, #128
 212 0078 1206     		lsl	r2, r2, #24
 213 007a 1D4B     		ldr	r3, .L8+68
 214 007c 1A60     		str	r2, [r3]
 224:.\Generated_Source\PSoC4/cyfitter_cfg.c **** 
 225:.\Generated_Source\PSoC4/cyfitter_cfg.c **** 	/* CYDEV_CLK_SELECT Starting address: CYDEV_CLK_SELECT */
 226:.\Generated_Source\PSoC4/cyfitter_cfg.c **** 	CY_SET_XTND_REG32((void CYFAR *)(CYREG_CLK_SELECT), 0x00040000u);
 215              		.loc 1 226 0
 216 007e 8022     		mov	r2, #128
 217 0080 D202     		lsl	r2, r2, #11
 218 0082 1C4B     		ldr	r3, .L8+72
 219 0084 1A60     		str	r2, [r3]
 227:.\Generated_Source\PSoC4/cyfitter_cfg.c **** 
 228:.\Generated_Source\PSoC4/cyfitter_cfg.c **** 	/* CYDEV_PERI_PCLK_CTL11 Starting address: CYDEV_PERI_PCLK_CTL11 */
 229:.\Generated_Source\PSoC4/cyfitter_cfg.c **** 	CY_SET_XTND_REG32((void CYFAR *)(CYREG_PERI_PCLK_CTL11), 0x00000042u);
 220              		.loc 1 229 0
 221 0086 4222     		mov	r2, #66
ARM GAS  C:\Users\ELECTR~1\AppData\Local\Temp\ccn0iOtb.s 			page 9


 222 0088 1B4B     		ldr	r3, .L8+76
 223 008a 1A60     		str	r2, [r3]
 230:.\Generated_Source\PSoC4/cyfitter_cfg.c **** 
 231:.\Generated_Source\PSoC4/cyfitter_cfg.c **** 	/* CYDEV_PERI_PCLK_CTL5 Starting address: CYDEV_PERI_PCLK_CTL5 */
 232:.\Generated_Source\PSoC4/cyfitter_cfg.c **** 	CY_SET_XTND_REG32((void CYFAR *)(CYREG_PERI_PCLK_CTL5), 0x00000040u);
 224              		.loc 1 232 0
 225 008c 023A     		sub	r2, r2, #2
 226 008e 1B4B     		ldr	r3, .L8+80
 227 0090 1A60     		str	r2, [r3]
 233:.\Generated_Source\PSoC4/cyfitter_cfg.c **** 
 234:.\Generated_Source\PSoC4/cyfitter_cfg.c **** 	/* CYDEV_PERI_PCLK_CTL4 Starting address: CYDEV_PERI_PCLK_CTL4 */
 235:.\Generated_Source\PSoC4/cyfitter_cfg.c **** 	CY_SET_XTND_REG32((void CYFAR *)(CYREG_PERI_PCLK_CTL4), 0x00000041u);
 228              		.loc 1 235 0
 229 0092 0132     		add	r2, r2, #1
 230 0094 1A4B     		ldr	r3, .L8+84
 231 0096 1A60     		str	r2, [r3]
 236:.\Generated_Source\PSoC4/cyfitter_cfg.c **** 
 237:.\Generated_Source\PSoC4/cyfitter_cfg.c **** 	(void)CyIntSetVector(8u, &CySysWdtIsr);
 232              		.loc 1 237 0
 233 0098 0820     		mov	r0, #8
 234 009a 1A49     		ldr	r1, .L8+88
 235 009c FFF7FEFF 		bl	CyIntSetVector
 236              	.LVL21:
 238:.\Generated_Source\PSoC4/cyfitter_cfg.c **** 	CyIntEnable(8u);
 237              		.loc 1 238 0
 238 00a0 0820     		mov	r0, #8
 239 00a2 FFF7FEFF 		bl	CyIntEnable
 240              	.LVL22:
 239:.\Generated_Source\PSoC4/cyfitter_cfg.c **** 	CY_SET_XTND_REG32((void CYFAR *)(CYREG_WDT_CONFIG), 0x40000000u);
 241              		.loc 1 239 0
 242 00a6 2560     		str	r5, [r4]
 240:.\Generated_Source\PSoC4/cyfitter_cfg.c **** }
 243              		.loc 1 240 0
 244              		@ sp needed
 245 00a8 38BD     		pop	{r3, r4, r5, pc}
 246              	.L9:
 247 00aa C046     		.align	2
 248              	.L8:
 249 00ac 30001040 		.word	1074790448
 250 00b0 001BB700 		.word	12000000
 251 00b4 06000080 		.word	-2147483642
 252 00b8 04010B40 		.word	1074462980
 253 00bc 0C020B40 		.word	1074463244
 254 00c0 78002E40 		.word	1076756600
 255 00c4 2D3E0000 		.word	15917
 256 00c8 7C002E40 		.word	1076756604
 257 00cc 6CF02E40 		.word	1076818028
 258 00d0 DC050000 		.word	1500
 259 00d4 08030140 		.word	1073808136
 260 00d8 00000140 		.word	1073807360
 261 00dc 42FF0080 		.word	-2147418302
 262 00e0 00030140 		.word	1073808128
 263 00e4 40FF0080 		.word	-2147418304
 264 00e8 04030140 		.word	1073808132
 265 00ec 41FF0080 		.word	-2147418303
 266 00f0 08010B40 		.word	1074462984
 267 00f4 00010B40 		.word	1074462976
ARM GAS  C:\Users\ELECTR~1\AppData\Local\Temp\ccn0iOtb.s 			page 10


 268 00f8 2C010140 		.word	1073807660
 269 00fc 14010140 		.word	1073807636
 270 0100 10010140 		.word	1073807632
 271 0104 00000000 		.word	CySysWdtIsr
 272              		.cfi_endproc
 273              	.LFE6:
 274              		.size	ClockSetup, .-ClockSetup
 275              		.section	.text.SetAnalogRoutingPumps,"ax",%progbits
 276              		.align	2
 277              		.global	SetAnalogRoutingPumps
 278              		.code	16
 279              		.thumb_func
 280              		.type	SetAnalogRoutingPumps, %function
 281              	SetAnalogRoutingPumps:
 282              	.LFB8:
 241:.\Generated_Source\PSoC4/cyfitter_cfg.c **** 
 242:.\Generated_Source\PSoC4/cyfitter_cfg.c **** 
 243:.\Generated_Source\PSoC4/cyfitter_cfg.c **** /* Analog API Functions */
 244:.\Generated_Source\PSoC4/cyfitter_cfg.c **** 
 245:.\Generated_Source\PSoC4/cyfitter_cfg.c **** 
 246:.\Generated_Source\PSoC4/cyfitter_cfg.c **** /*******************************************************************************
 247:.\Generated_Source\PSoC4/cyfitter_cfg.c **** * Function Name: AnalogSetDefault
 248:.\Generated_Source\PSoC4/cyfitter_cfg.c **** ********************************************************************************
 249:.\Generated_Source\PSoC4/cyfitter_cfg.c **** *
 250:.\Generated_Source\PSoC4/cyfitter_cfg.c **** * Summary:
 251:.\Generated_Source\PSoC4/cyfitter_cfg.c **** *  Sets up the analog portions of the chip to default values based on chip
 252:.\Generated_Source\PSoC4/cyfitter_cfg.c **** *  configuration options from the project.
 253:.\Generated_Source\PSoC4/cyfitter_cfg.c **** *
 254:.\Generated_Source\PSoC4/cyfitter_cfg.c **** * Parameters:
 255:.\Generated_Source\PSoC4/cyfitter_cfg.c **** *  void
 256:.\Generated_Source\PSoC4/cyfitter_cfg.c **** *
 257:.\Generated_Source\PSoC4/cyfitter_cfg.c **** * Return:
 258:.\Generated_Source\PSoC4/cyfitter_cfg.c **** *  void
 259:.\Generated_Source\PSoC4/cyfitter_cfg.c **** *
 260:.\Generated_Source\PSoC4/cyfitter_cfg.c **** *******************************************************************************/
 261:.\Generated_Source\PSoC4/cyfitter_cfg.c **** static void AnalogSetDefault(void);
 262:.\Generated_Source\PSoC4/cyfitter_cfg.c **** static void AnalogSetDefault(void)
 263:.\Generated_Source\PSoC4/cyfitter_cfg.c **** {
 264:.\Generated_Source\PSoC4/cyfitter_cfg.c **** 	CY_SET_XTND_REG32((void CYFAR *)CYREG_CTBM0_DFT_CTRL, 0x00000003u);
 265:.\Generated_Source\PSoC4/cyfitter_cfg.c **** 	CY_SET_XTND_REG32((void CYFAR *)CYREG_CTBM1_DFT_CTRL, 0x00000003u);
 266:.\Generated_Source\PSoC4/cyfitter_cfg.c **** 	CY_SET_XTND_REG32((void CYFAR *)CYREG_PASS_DSAB_DSAB_CTRL, 0x00000000u);
 267:.\Generated_Source\PSoC4/cyfitter_cfg.c **** 	SetAnalogRoutingPumps(1);
 268:.\Generated_Source\PSoC4/cyfitter_cfg.c **** }
 269:.\Generated_Source\PSoC4/cyfitter_cfg.c **** 
 270:.\Generated_Source\PSoC4/cyfitter_cfg.c **** 
 271:.\Generated_Source\PSoC4/cyfitter_cfg.c **** /*******************************************************************************
 272:.\Generated_Source\PSoC4/cyfitter_cfg.c **** * Function Name: SetAnalogRoutingPumps
 273:.\Generated_Source\PSoC4/cyfitter_cfg.c **** ********************************************************************************
 274:.\Generated_Source\PSoC4/cyfitter_cfg.c **** *
 275:.\Generated_Source\PSoC4/cyfitter_cfg.c **** * Summary:
 276:.\Generated_Source\PSoC4/cyfitter_cfg.c **** * Enables or disables the analog pumps feeding analog routing switches.
 277:.\Generated_Source\PSoC4/cyfitter_cfg.c **** * Intended to be called at startup, based on the Vdda system configuration;
 278:.\Generated_Source\PSoC4/cyfitter_cfg.c **** * may be called during operation when the user informs us that the Vdda voltage crossed the pump th
 279:.\Generated_Source\PSoC4/cyfitter_cfg.c **** *
 280:.\Generated_Source\PSoC4/cyfitter_cfg.c **** * Parameters:
 281:.\Generated_Source\PSoC4/cyfitter_cfg.c **** *  enabled - 1 to enable the pumps, 0 to disable the pumps
 282:.\Generated_Source\PSoC4/cyfitter_cfg.c **** *
ARM GAS  C:\Users\ELECTR~1\AppData\Local\Temp\ccn0iOtb.s 			page 11


 283:.\Generated_Source\PSoC4/cyfitter_cfg.c **** * Return:
 284:.\Generated_Source\PSoC4/cyfitter_cfg.c **** *  void
 285:.\Generated_Source\PSoC4/cyfitter_cfg.c **** *
 286:.\Generated_Source\PSoC4/cyfitter_cfg.c **** *******************************************************************************/
 287:.\Generated_Source\PSoC4/cyfitter_cfg.c **** void SetAnalogRoutingPumps(uint8 enabled)
 288:.\Generated_Source\PSoC4/cyfitter_cfg.c **** {
 283              		.loc 1 288 0
 284              		.cfi_startproc
 285              	.LVL23:
 289:.\Generated_Source\PSoC4/cyfitter_cfg.c **** 	uint32 regValue = CY_GET_XTND_REG32((void *)(CYREG_SAR_PUMP_CTRL));
 286              		.loc 1 289 0
 287 0000 0C4B     		ldr	r3, .L15
 288 0002 1B68     		ldr	r3, [r3]
 289              	.LVL24:
 290:.\Generated_Source\PSoC4/cyfitter_cfg.c **** 	if (enabled != 0u)
 290              		.loc 1 290 0
 291 0004 0028     		cmp	r0, #0
 292 0006 03D0     		beq	.L11
 291:.\Generated_Source\PSoC4/cyfitter_cfg.c **** 	{
 292:.\Generated_Source\PSoC4/cyfitter_cfg.c **** 		regValue |= 0x80000000u;
 293              		.loc 1 292 0
 294 0008 8022     		mov	r2, #128
 295 000a 1206     		lsl	r2, r2, #24
 296 000c 1343     		orr	r3, r2
 297              	.LVL25:
 298 000e 01E0     		b	.L12
 299              	.L11:
 293:.\Generated_Source\PSoC4/cyfitter_cfg.c **** 	}
 294:.\Generated_Source\PSoC4/cyfitter_cfg.c **** 	else
 295:.\Generated_Source\PSoC4/cyfitter_cfg.c **** 	{
 296:.\Generated_Source\PSoC4/cyfitter_cfg.c **** 		regValue &= ~0x80000000u;
 300              		.loc 1 296 0
 301 0010 5B00     		lsl	r3, r3, #1
 302              	.LVL26:
 303 0012 5B08     		lsr	r3, r3, #1
 304              	.LVL27:
 305              	.L12:
 297:.\Generated_Source\PSoC4/cyfitter_cfg.c **** 	}
 298:.\Generated_Source\PSoC4/cyfitter_cfg.c **** 	CY_SET_XTND_REG32((void *)(CYREG_SAR_PUMP_CTRL), regValue);
 306              		.loc 1 298 0
 307 0014 074A     		ldr	r2, .L15
 308 0016 1360     		str	r3, [r2]
 299:.\Generated_Source\PSoC4/cyfitter_cfg.c **** 	regValue = CY_GET_XTND_REG32((void *)(CYREG_CLK_IMO_CONFIG));
 309              		.loc 1 299 0
 310 0018 074B     		ldr	r3, .L15+4
 311              	.LVL28:
 312 001a 1B68     		ldr	r3, [r3]
 313              	.LVL29:
 300:.\Generated_Source\PSoC4/cyfitter_cfg.c **** 	if (enabled != 0u)
 314              		.loc 1 300 0
 315 001c 0028     		cmp	r0, #0
 316 001e 03D0     		beq	.L13
 301:.\Generated_Source\PSoC4/cyfitter_cfg.c **** 	{
 302:.\Generated_Source\PSoC4/cyfitter_cfg.c **** 		regValue |= 0x02000000u;
 317              		.loc 1 302 0
 318 0020 8022     		mov	r2, #128
 319 0022 9204     		lsl	r2, r2, #18
ARM GAS  C:\Users\ELECTR~1\AppData\Local\Temp\ccn0iOtb.s 			page 12


 320 0024 1343     		orr	r3, r2
 321              	.LVL30:
 322 0026 01E0     		b	.L14
 323              	.L13:
 303:.\Generated_Source\PSoC4/cyfitter_cfg.c **** 	}
 304:.\Generated_Source\PSoC4/cyfitter_cfg.c **** 	else
 305:.\Generated_Source\PSoC4/cyfitter_cfg.c **** 	{
 306:.\Generated_Source\PSoC4/cyfitter_cfg.c **** 		regValue &= ~0x02000000u;
 324              		.loc 1 306 0
 325 0028 044A     		ldr	r2, .L15+8
 326 002a 1340     		and	r3, r2
 327              	.LVL31:
 328              	.L14:
 307:.\Generated_Source\PSoC4/cyfitter_cfg.c **** 	}
 308:.\Generated_Source\PSoC4/cyfitter_cfg.c **** 	CY_SET_XTND_REG32((void *)(CYREG_CLK_IMO_CONFIG), regValue);
 329              		.loc 1 308 0
 330 002c 024A     		ldr	r2, .L15+4
 331 002e 1360     		str	r3, [r2]
 309:.\Generated_Source\PSoC4/cyfitter_cfg.c **** }
 332              		.loc 1 309 0
 333              		@ sp needed
 334 0030 7047     		bx	lr
 335              	.L16:
 336 0032 C046     		.align	2
 337              	.L15:
 338 0034 80033A40 		.word	1077543808
 339 0038 08010B40 		.word	1074462984
 340 003c FFFFFFFD 		.word	-33554433
 341              		.cfi_endproc
 342              	.LFE8:
 343              		.size	SetAnalogRoutingPumps, .-SetAnalogRoutingPumps
 344              		.section	.text.AnalogSetDefault,"ax",%progbits
 345              		.align	2
 346              		.code	16
 347              		.thumb_func
 348              		.type	AnalogSetDefault, %function
 349              	AnalogSetDefault:
 350              	.LFB7:
 263:.\Generated_Source\PSoC4/cyfitter_cfg.c **** 	CY_SET_XTND_REG32((void CYFAR *)CYREG_CTBM0_DFT_CTRL, 0x00000003u);
 351              		.loc 1 263 0
 352              		.cfi_startproc
 353 0000 08B5     		push	{r3, lr}
 354              		.cfi_def_cfa_offset 8
 355              		.cfi_offset 3, -8
 356              		.cfi_offset 14, -4
 264:.\Generated_Source\PSoC4/cyfitter_cfg.c **** 	CY_SET_XTND_REG32((void CYFAR *)CYREG_CTBM1_DFT_CTRL, 0x00000003u);
 357              		.loc 1 264 0
 358 0002 0323     		mov	r3, #3
 359 0004 054A     		ldr	r2, .L18
 360 0006 1360     		str	r3, [r2]
 265:.\Generated_Source\PSoC4/cyfitter_cfg.c **** 	CY_SET_XTND_REG32((void CYFAR *)CYREG_PASS_DSAB_DSAB_CTRL, 0x00000000u);
 361              		.loc 1 265 0
 362 0008 054A     		ldr	r2, .L18+4
 363 000a 1360     		str	r3, [r2]
 266:.\Generated_Source\PSoC4/cyfitter_cfg.c **** 	SetAnalogRoutingPumps(1);
 364              		.loc 1 266 0
 365 000c 0022     		mov	r2, #0
ARM GAS  C:\Users\ELECTR~1\AppData\Local\Temp\ccn0iOtb.s 			page 13


 366 000e 054B     		ldr	r3, .L18+8
 367 0010 1A60     		str	r2, [r3]
 267:.\Generated_Source\PSoC4/cyfitter_cfg.c **** }
 368              		.loc 1 267 0
 369 0012 0120     		mov	r0, #1
 370 0014 FFF7FEFF 		bl	SetAnalogRoutingPumps
 371              	.LVL32:
 268:.\Generated_Source\PSoC4/cyfitter_cfg.c **** 
 372              		.loc 1 268 0
 373              		@ sp needed
 374 0018 08BD     		pop	{r3, pc}
 375              	.L19:
 376 001a C046     		.align	2
 377              	.L18:
 378 001c 30003040 		.word	1076887600
 379 0020 30003140 		.word	1076953136
 380 0024 000E3F40 		.word	1077874176
 381              		.cfi_endproc
 382              	.LFE7:
 383              		.size	AnalogSetDefault, .-AnalogSetDefault
 384              		.section	.psocinit
 385              		.align	2
 386              		.global	cyfitter_cfg
 387              		.code	16
 388              		.thumb_func
 389              		.type	cyfitter_cfg, %function
 390              	cyfitter_cfg:
 391              	.LFB9:
 310:.\Generated_Source\PSoC4/cyfitter_cfg.c **** 
 311:.\Generated_Source\PSoC4/cyfitter_cfg.c **** #define CY_AMUX_UNUSED CYREG_CM0_ROM_DWT
 312:.\Generated_Source\PSoC4/cyfitter_cfg.c **** 
 313:.\Generated_Source\PSoC4/cyfitter_cfg.c **** 
 314:.\Generated_Source\PSoC4/cyfitter_cfg.c **** /*******************************************************************************
 315:.\Generated_Source\PSoC4/cyfitter_cfg.c **** * Function Name: cyfitter_cfg
 316:.\Generated_Source\PSoC4/cyfitter_cfg.c **** ********************************************************************************
 317:.\Generated_Source\PSoC4/cyfitter_cfg.c **** * Summary:
 318:.\Generated_Source\PSoC4/cyfitter_cfg.c **** *  This function is called by the start-up code for the selected device. It
 319:.\Generated_Source\PSoC4/cyfitter_cfg.c **** *  performs all of the necessary device configuration based on the design
 320:.\Generated_Source\PSoC4/cyfitter_cfg.c **** *  settings.  This includes settings from the Design Wide Resources (DWR) such
 321:.\Generated_Source\PSoC4/cyfitter_cfg.c **** *  as Clocks and Pins as well as any component configuration that is necessary.
 322:.\Generated_Source\PSoC4/cyfitter_cfg.c **** *
 323:.\Generated_Source\PSoC4/cyfitter_cfg.c **** * Parameters:  
 324:.\Generated_Source\PSoC4/cyfitter_cfg.c **** *   void
 325:.\Generated_Source\PSoC4/cyfitter_cfg.c **** *
 326:.\Generated_Source\PSoC4/cyfitter_cfg.c **** * Return:
 327:.\Generated_Source\PSoC4/cyfitter_cfg.c **** *   void
 328:.\Generated_Source\PSoC4/cyfitter_cfg.c **** *
 329:.\Generated_Source\PSoC4/cyfitter_cfg.c **** *******************************************************************************/
 330:.\Generated_Source\PSoC4/cyfitter_cfg.c **** CY_CFG_SECTION
 331:.\Generated_Source\PSoC4/cyfitter_cfg.c **** void cyfitter_cfg(void)
 332:.\Generated_Source\PSoC4/cyfitter_cfg.c **** {
 392              		.loc 1 332 0
 393              		.cfi_startproc
 394 0108 10B5     		push	{r4, lr}
 395              		.cfi_def_cfa_offset 8
 396              		.cfi_offset 4, -8
 397              		.cfi_offset 14, -4
ARM GAS  C:\Users\ELECTR~1\AppData\Local\Temp\ccn0iOtb.s 			page 14


 333:.\Generated_Source\PSoC4/cyfitter_cfg.c **** 	/* Disable interrupts by default. Let user enable if/when they want. */
 334:.\Generated_Source\PSoC4/cyfitter_cfg.c **** 	CyGlobalIntDisable;
 398              		.loc 1 334 0
 399              	@ 334 ".\Generated_Source\PSoC4\cyfitter_cfg.c" 1
 400 010a 72B6     		CPSID   i
 401              	@ 0 "" 2
 335:.\Generated_Source\PSoC4/cyfitter_cfg.c **** 
 336:.\Generated_Source\PSoC4/cyfitter_cfg.c **** 	CY_SET_XTND_REG32((void CYFAR *)(CYREG_BLE_BLESS_LL_DSM_CTRL), 0x00000000u);
 402              		.loc 1 336 0
 403              		.code	16
 404 010c 0022     		mov	r2, #0
 405 010e 354B     		ldr	r3, .L23
 406 0110 1A60     		str	r2, [r3]
 407              	.LVL33:
 408              	.LBB3:
 337:.\Generated_Source\PSoC4/cyfitter_cfg.c **** 
 338:.\Generated_Source\PSoC4/cyfitter_cfg.c **** 	{
 339:.\Generated_Source\PSoC4/cyfitter_cfg.c **** 		static const uint32 CYCODE cy_cfg_addr_table[] = {
 340:.\Generated_Source\PSoC4/cyfitter_cfg.c **** 			0x400F3241u, /* Base address: 0x400F3200 Count: 65 */
 341:.\Generated_Source\PSoC4/cyfitter_cfg.c **** 			0x400F3326u, /* Base address: 0x400F3300 Count: 38 */
 342:.\Generated_Source\PSoC4/cyfitter_cfg.c **** 			0x400F4105u, /* Base address: 0x400F4100 Count: 5 */
 343:.\Generated_Source\PSoC4/cyfitter_cfg.c **** 			0x400F4202u, /* Base address: 0x400F4200 Count: 2 */
 344:.\Generated_Source\PSoC4/cyfitter_cfg.c **** 			0x400F430Au, /* Base address: 0x400F4300 Count: 10 */
 345:.\Generated_Source\PSoC4/cyfitter_cfg.c **** 			0x400F6002u, /* Base address: 0x400F6000 Count: 2 */
 346:.\Generated_Source\PSoC4/cyfitter_cfg.c **** 		};
 347:.\Generated_Source\PSoC4/cyfitter_cfg.c **** 
 348:.\Generated_Source\PSoC4/cyfitter_cfg.c **** 		static const cy_cfg_addrvalue_t CYCODE cy_cfg_data_table[] = {
 349:.\Generated_Source\PSoC4/cyfitter_cfg.c **** 			{0x08u, 0x01u},
 350:.\Generated_Source\PSoC4/cyfitter_cfg.c **** 			{0x0Au, 0x02u},
 351:.\Generated_Source\PSoC4/cyfitter_cfg.c **** 			{0x0Fu, 0x01u},
 352:.\Generated_Source\PSoC4/cyfitter_cfg.c **** 			{0x14u, 0x01u},
 353:.\Generated_Source\PSoC4/cyfitter_cfg.c **** 			{0x18u, 0x01u},
 354:.\Generated_Source\PSoC4/cyfitter_cfg.c **** 			{0x1Au, 0x02u},
 355:.\Generated_Source\PSoC4/cyfitter_cfg.c **** 			{0x35u, 0x01u},
 356:.\Generated_Source\PSoC4/cyfitter_cfg.c **** 			{0x36u, 0x03u},
 357:.\Generated_Source\PSoC4/cyfitter_cfg.c **** 			{0x38u, 0x88u},
 358:.\Generated_Source\PSoC4/cyfitter_cfg.c **** 			{0x3Eu, 0x04u},
 359:.\Generated_Source\PSoC4/cyfitter_cfg.c **** 			{0x40u, 0x03u},
 360:.\Generated_Source\PSoC4/cyfitter_cfg.c **** 			{0x45u, 0x01u},
 361:.\Generated_Source\PSoC4/cyfitter_cfg.c **** 			{0x48u, 0x09u},
 362:.\Generated_Source\PSoC4/cyfitter_cfg.c **** 			{0x49u, 0xFFu},
 363:.\Generated_Source\PSoC4/cyfitter_cfg.c **** 			{0x4Au, 0xFFu},
 364:.\Generated_Source\PSoC4/cyfitter_cfg.c **** 			{0x4Bu, 0xFFu},
 365:.\Generated_Source\PSoC4/cyfitter_cfg.c **** 			{0x4Cu, 0x02u},
 366:.\Generated_Source\PSoC4/cyfitter_cfg.c **** 			{0x4Du, 0x20u},
 367:.\Generated_Source\PSoC4/cyfitter_cfg.c **** 			{0x4Eu, 0xF0u},
 368:.\Generated_Source\PSoC4/cyfitter_cfg.c **** 			{0x52u, 0x03u},
 369:.\Generated_Source\PSoC4/cyfitter_cfg.c **** 			{0x58u, 0x0Eu},
 370:.\Generated_Source\PSoC4/cyfitter_cfg.c **** 			{0x59u, 0x04u},
 371:.\Generated_Source\PSoC4/cyfitter_cfg.c **** 			{0x5Au, 0x0Eu},
 372:.\Generated_Source\PSoC4/cyfitter_cfg.c **** 			{0x5Bu, 0x04u},
 373:.\Generated_Source\PSoC4/cyfitter_cfg.c **** 			{0x5Fu, 0x01u},
 374:.\Generated_Source\PSoC4/cyfitter_cfg.c **** 			{0x62u, 0x48u},
 375:.\Generated_Source\PSoC4/cyfitter_cfg.c **** 			{0x63u, 0xADu},
 376:.\Generated_Source\PSoC4/cyfitter_cfg.c **** 			{0x64u, 0xC0u},
 377:.\Generated_Source\PSoC4/cyfitter_cfg.c **** 			{0x66u, 0xC0u},
 378:.\Generated_Source\PSoC4/cyfitter_cfg.c **** 			{0x85u, 0x01u},
ARM GAS  C:\Users\ELECTR~1\AppData\Local\Temp\ccn0iOtb.s 			page 15


 379:.\Generated_Source\PSoC4/cyfitter_cfg.c **** 			{0x87u, 0x02u},
 380:.\Generated_Source\PSoC4/cyfitter_cfg.c **** 			{0x89u, 0x04u},
 381:.\Generated_Source\PSoC4/cyfitter_cfg.c **** 			{0x8Bu, 0x08u},
 382:.\Generated_Source\PSoC4/cyfitter_cfg.c **** 			{0x8Du, 0x01u},
 383:.\Generated_Source\PSoC4/cyfitter_cfg.c **** 			{0x95u, 0x04u},
 384:.\Generated_Source\PSoC4/cyfitter_cfg.c **** 			{0x97u, 0x08u},
 385:.\Generated_Source\PSoC4/cyfitter_cfg.c **** 			{0x99u, 0x04u},
 386:.\Generated_Source\PSoC4/cyfitter_cfg.c **** 			{0x9Du, 0x01u},
 387:.\Generated_Source\PSoC4/cyfitter_cfg.c **** 			{0x9Fu, 0x02u},
 388:.\Generated_Source\PSoC4/cyfitter_cfg.c **** 			{0xAEu, 0x01u},
 389:.\Generated_Source\PSoC4/cyfitter_cfg.c **** 			{0xB0u, 0x01u},
 390:.\Generated_Source\PSoC4/cyfitter_cfg.c **** 			{0xB3u, 0x03u},
 391:.\Generated_Source\PSoC4/cyfitter_cfg.c **** 			{0xB7u, 0x0Cu},
 392:.\Generated_Source\PSoC4/cyfitter_cfg.c **** 			{0xB9u, 0x88u},
 393:.\Generated_Source\PSoC4/cyfitter_cfg.c **** 			{0xC0u, 0x03u},
 394:.\Generated_Source\PSoC4/cyfitter_cfg.c **** 			{0xC5u, 0x50u},
 395:.\Generated_Source\PSoC4/cyfitter_cfg.c **** 			{0xC6u, 0x04u},
 396:.\Generated_Source\PSoC4/cyfitter_cfg.c **** 			{0xC7u, 0x01u},
 397:.\Generated_Source\PSoC4/cyfitter_cfg.c **** 			{0xC8u, 0x17u},
 398:.\Generated_Source\PSoC4/cyfitter_cfg.c **** 			{0xC9u, 0xFFu},
 399:.\Generated_Source\PSoC4/cyfitter_cfg.c **** 			{0xCAu, 0xFFu},
 400:.\Generated_Source\PSoC4/cyfitter_cfg.c **** 			{0xCBu, 0xFFu},
 401:.\Generated_Source\PSoC4/cyfitter_cfg.c **** 			{0xCCu, 0x02u},
 402:.\Generated_Source\PSoC4/cyfitter_cfg.c **** 			{0xCDu, 0x20u},
 403:.\Generated_Source\PSoC4/cyfitter_cfg.c **** 			{0xCEu, 0xF0u},
 404:.\Generated_Source\PSoC4/cyfitter_cfg.c **** 			{0xD2u, 0x07u},
 405:.\Generated_Source\PSoC4/cyfitter_cfg.c **** 			{0xD8u, 0x04u},
 406:.\Generated_Source\PSoC4/cyfitter_cfg.c **** 			{0xD9u, 0x0Cu},
 407:.\Generated_Source\PSoC4/cyfitter_cfg.c **** 			{0xDAu, 0x0Cu},
 408:.\Generated_Source\PSoC4/cyfitter_cfg.c **** 			{0xDBu, 0x04u},
 409:.\Generated_Source\PSoC4/cyfitter_cfg.c **** 			{0xDFu, 0x01u},
 410:.\Generated_Source\PSoC4/cyfitter_cfg.c **** 			{0xE2u, 0x48u},
 411:.\Generated_Source\PSoC4/cyfitter_cfg.c **** 			{0xE3u, 0xADu},
 412:.\Generated_Source\PSoC4/cyfitter_cfg.c **** 			{0xE4u, 0xC0u},
 413:.\Generated_Source\PSoC4/cyfitter_cfg.c **** 			{0xE6u, 0xC0u},
 414:.\Generated_Source\PSoC4/cyfitter_cfg.c **** 			{0x07u, 0x04u},
 415:.\Generated_Source\PSoC4/cyfitter_cfg.c **** 			{0x0Fu, 0x28u},
 416:.\Generated_Source\PSoC4/cyfitter_cfg.c **** 			{0x10u, 0x02u},
 417:.\Generated_Source\PSoC4/cyfitter_cfg.c **** 			{0x1Bu, 0x01u},
 418:.\Generated_Source\PSoC4/cyfitter_cfg.c **** 			{0x1Du, 0x08u},
 419:.\Generated_Source\PSoC4/cyfitter_cfg.c **** 			{0x1Fu, 0x88u},
 420:.\Generated_Source\PSoC4/cyfitter_cfg.c **** 			{0x20u, 0x01u},
 421:.\Generated_Source\PSoC4/cyfitter_cfg.c **** 			{0x22u, 0x04u},
 422:.\Generated_Source\PSoC4/cyfitter_cfg.c **** 			{0x26u, 0x20u},
 423:.\Generated_Source\PSoC4/cyfitter_cfg.c **** 			{0x30u, 0xA8u},
 424:.\Generated_Source\PSoC4/cyfitter_cfg.c **** 			{0x38u, 0x80u},
 425:.\Generated_Source\PSoC4/cyfitter_cfg.c **** 			{0x39u, 0x24u},
 426:.\Generated_Source\PSoC4/cyfitter_cfg.c **** 			{0x3Eu, 0x40u},
 427:.\Generated_Source\PSoC4/cyfitter_cfg.c **** 			{0x43u, 0x08u},
 428:.\Generated_Source\PSoC4/cyfitter_cfg.c **** 			{0x45u, 0x08u},
 429:.\Generated_Source\PSoC4/cyfitter_cfg.c **** 			{0x48u, 0xA0u},
 430:.\Generated_Source\PSoC4/cyfitter_cfg.c **** 			{0x4Fu, 0x08u},
 431:.\Generated_Source\PSoC4/cyfitter_cfg.c **** 			{0x50u, 0x48u},
 432:.\Generated_Source\PSoC4/cyfitter_cfg.c **** 			{0x57u, 0x10u},
 433:.\Generated_Source\PSoC4/cyfitter_cfg.c **** 			{0x68u, 0x02u},
 434:.\Generated_Source\PSoC4/cyfitter_cfg.c **** 			{0x69u, 0x24u},
 435:.\Generated_Source\PSoC4/cyfitter_cfg.c **** 			{0x6Eu, 0x40u},
ARM GAS  C:\Users\ELECTR~1\AppData\Local\Temp\ccn0iOtb.s 			page 16


 436:.\Generated_Source\PSoC4/cyfitter_cfg.c **** 			{0x6Fu, 0x04u},
 437:.\Generated_Source\PSoC4/cyfitter_cfg.c **** 			{0x7Bu, 0x01u},
 438:.\Generated_Source\PSoC4/cyfitter_cfg.c **** 			{0x7Eu, 0x20u},
 439:.\Generated_Source\PSoC4/cyfitter_cfg.c **** 			{0x87u, 0x80u},
 440:.\Generated_Source\PSoC4/cyfitter_cfg.c **** 			{0x89u, 0x08u},
 441:.\Generated_Source\PSoC4/cyfitter_cfg.c **** 			{0x8Au, 0x04u},
 442:.\Generated_Source\PSoC4/cyfitter_cfg.c **** 			{0x8Cu, 0x01u},
 443:.\Generated_Source\PSoC4/cyfitter_cfg.c **** 			{0xC0u, 0x40u},
 444:.\Generated_Source\PSoC4/cyfitter_cfg.c **** 			{0xC2u, 0x60u},
 445:.\Generated_Source\PSoC4/cyfitter_cfg.c **** 			{0xC4u, 0x01u},
 446:.\Generated_Source\PSoC4/cyfitter_cfg.c **** 			{0xCCu, 0x0Eu},
 447:.\Generated_Source\PSoC4/cyfitter_cfg.c **** 			{0xCEu, 0x1Eu},
 448:.\Generated_Source\PSoC4/cyfitter_cfg.c **** 			{0xD0u, 0x42u},
 449:.\Generated_Source\PSoC4/cyfitter_cfg.c **** 			{0xDEu, 0x48u},
 450:.\Generated_Source\PSoC4/cyfitter_cfg.c **** 			{0xE4u, 0x08u},
 451:.\Generated_Source\PSoC4/cyfitter_cfg.c **** 			{0xE6u, 0x20u},
 452:.\Generated_Source\PSoC4/cyfitter_cfg.c **** 			{0x39u, 0x04u},
 453:.\Generated_Source\PSoC4/cyfitter_cfg.c **** 			{0x3Du, 0x04u},
 454:.\Generated_Source\PSoC4/cyfitter_cfg.c **** 			{0x3Eu, 0x04u},
 455:.\Generated_Source\PSoC4/cyfitter_cfg.c **** 			{0x8Au, 0x04u},
 456:.\Generated_Source\PSoC4/cyfitter_cfg.c **** 			{0xCEu, 0xC0u},
 457:.\Generated_Source\PSoC4/cyfitter_cfg.c **** 			{0x61u, 0x02u},
 458:.\Generated_Source\PSoC4/cyfitter_cfg.c **** 			{0xD8u, 0x02u},
 459:.\Generated_Source\PSoC4/cyfitter_cfg.c **** 			{0x63u, 0x02u},
 460:.\Generated_Source\PSoC4/cyfitter_cfg.c **** 			{0x67u, 0x08u},
 461:.\Generated_Source\PSoC4/cyfitter_cfg.c **** 			{0x87u, 0x01u},
 462:.\Generated_Source\PSoC4/cyfitter_cfg.c **** 			{0x8Bu, 0x04u},
 463:.\Generated_Source\PSoC4/cyfitter_cfg.c **** 			{0x8Du, 0x02u},
 464:.\Generated_Source\PSoC4/cyfitter_cfg.c **** 			{0xA5u, 0x02u},
 465:.\Generated_Source\PSoC4/cyfitter_cfg.c **** 			{0xD6u, 0x02u},
 466:.\Generated_Source\PSoC4/cyfitter_cfg.c **** 			{0xD8u, 0x01u},
 467:.\Generated_Source\PSoC4/cyfitter_cfg.c **** 			{0xE0u, 0x01u},
 468:.\Generated_Source\PSoC4/cyfitter_cfg.c **** 			{0xE4u, 0x08u},
 469:.\Generated_Source\PSoC4/cyfitter_cfg.c **** 			{0x01u, 0x01u},
 470:.\Generated_Source\PSoC4/cyfitter_cfg.c **** 			{0x10u, 0x01u},
 471:.\Generated_Source\PSoC4/cyfitter_cfg.c **** 		};
 472:.\Generated_Source\PSoC4/cyfitter_cfg.c **** 
 473:.\Generated_Source\PSoC4/cyfitter_cfg.c **** 
 474:.\Generated_Source\PSoC4/cyfitter_cfg.c **** 
 475:.\Generated_Source\PSoC4/cyfitter_cfg.c **** 		CYPACKED typedef struct {
 476:.\Generated_Source\PSoC4/cyfitter_cfg.c **** 			void CYFAR *address;
 477:.\Generated_Source\PSoC4/cyfitter_cfg.c **** 			uint16 size;
 478:.\Generated_Source\PSoC4/cyfitter_cfg.c **** 		} CYPACKED_ATTR cfg_memset_t;
 479:.\Generated_Source\PSoC4/cyfitter_cfg.c **** 
 480:.\Generated_Source\PSoC4/cyfitter_cfg.c **** 		static const cfg_memset_t CYCODE cfg_memset_list [] = {
 481:.\Generated_Source\PSoC4/cyfitter_cfg.c **** 			/* address, size */
 482:.\Generated_Source\PSoC4/cyfitter_cfg.c **** 			{(void CYFAR *)(CYDEV_UDB_P0_U0_BASE), 1024u},
 483:.\Generated_Source\PSoC4/cyfitter_cfg.c **** 			{(void CYFAR *)(CYDEV_UDB_DSI0_BASE), 1024u},
 484:.\Generated_Source\PSoC4/cyfitter_cfg.c **** 		};
 485:.\Generated_Source\PSoC4/cyfitter_cfg.c **** 
 486:.\Generated_Source\PSoC4/cyfitter_cfg.c **** 		uint8 CYDATA i;
 487:.\Generated_Source\PSoC4/cyfitter_cfg.c **** 
 488:.\Generated_Source\PSoC4/cyfitter_cfg.c **** 		/* Zero out critical memory blocks before beginning configuration */
 489:.\Generated_Source\PSoC4/cyfitter_cfg.c **** 		for (i = 0u; i < (sizeof(cfg_memset_list)/sizeof(cfg_memset_list[0])); i++)
 409              		.loc 1 489 0
 410 0112 0024     		mov	r4, #0
 411 0114 10E0     		b	.L21
ARM GAS  C:\Users\ELECTR~1\AppData\Local\Temp\ccn0iOtb.s 			page 17


 412              	.LVL34:
 413              	.L22:
 414              	.LBB4:
 490:.\Generated_Source\PSoC4/cyfitter_cfg.c **** 		{
 491:.\Generated_Source\PSoC4/cyfitter_cfg.c **** 			const cfg_memset_t CYCODE * CYDATA ms = &cfg_memset_list[i];
 492:.\Generated_Source\PSoC4/cyfitter_cfg.c **** 			CYMEMZERO(ms->address, (size_t)(uint32)(ms->size));
 415              		.loc 1 492 0 discriminator 3
 416 0116 3448     		ldr	r0, .L23+4
 417 0118 6300     		lsl	r3, r4, #1
 418 011a 1A19     		add	r2, r3, r4
 419 011c 5200     		lsl	r2, r2, #1
 420 011e 8218     		add	r2, r0, r2
 421 0120 9188     		ldrh	r1, [r2, #4]
 422 0122 1B19     		add	r3, r3, r4
 423 0124 5B00     		lsl	r3, r3, #1
 424 0126 1A5A     		ldrh	r2, [r3, r0]
 425 0128 C318     		add	r3, r0, r3
 426 012a 5888     		ldrh	r0, [r3, #2]
 427 012c 0004     		lsl	r0, r0, #16
 428 012e 1043     		orr	r0, r2
 429 0130 FFF7FEFF 		bl	CYMEMZERO
 430              	.LVL35:
 431              	.LBE4:
 489:.\Generated_Source\PSoC4/cyfitter_cfg.c **** 		{
 432              		.loc 1 489 0 discriminator 3
 433 0134 0134     		add	r4, r4, #1
 434              	.LVL36:
 435 0136 E4B2     		uxtb	r4, r4
 436              	.LVL37:
 437              	.L21:
 489:.\Generated_Source\PSoC4/cyfitter_cfg.c **** 		{
 438              		.loc 1 489 0 is_stmt 0 discriminator 1
 439 0138 012C     		cmp	r4, #1
 440 013a ECD9     		bls	.L22
 493:.\Generated_Source\PSoC4/cyfitter_cfg.c **** 		}
 494:.\Generated_Source\PSoC4/cyfitter_cfg.c **** 
 495:.\Generated_Source\PSoC4/cyfitter_cfg.c **** 		cfg_write_bytes32(cy_cfg_addr_table, cy_cfg_data_table);
 441              		.loc 1 495 0 is_stmt 1
 442 013c 2A49     		ldr	r1, .L23+4
 443 013e 081C     		mov	r0, r1
 444 0140 0C30     		add	r0, r0, #12
 445 0142 2431     		add	r1, r1, #36
 446 0144 FFF7FEFF 		bl	cfg_write_bytes32
 447              	.LVL38:
 496:.\Generated_Source\PSoC4/cyfitter_cfg.c **** 
 497:.\Generated_Source\PSoC4/cyfitter_cfg.c **** 		/* PWR_BG_CONFIG Starting address: CYDEV_PWR_BG_CONFIG */
 498:.\Generated_Source\PSoC4/cyfitter_cfg.c **** 		CY_SET_XTND_REG32((void CYFAR *)(CYREG_PWR_BG_CONFIG), 0x00040000u);
 448              		.loc 1 498 0
 449 0148 8020     		mov	r0, #128
 450 014a C002     		lsl	r0, r0, #11
 451 014c 274B     		ldr	r3, .L23+8
 452 014e 1860     		str	r0, [r3]
 499:.\Generated_Source\PSoC4/cyfitter_cfg.c **** 
 500:.\Generated_Source\PSoC4/cyfitter_cfg.c **** 		/* HSIOM Starting address: CYDEV_HSIOM_BASE */
 501:.\Generated_Source\PSoC4/cyfitter_cfg.c **** 		CY_SET_XTND_REG32((void CYFAR *)(CYDEV_HSIOM_BASE), 0xEE000000u);
 453              		.loc 1 501 0
 454 0150 EE22     		mov	r2, #238
ARM GAS  C:\Users\ELECTR~1\AppData\Local\Temp\ccn0iOtb.s 			page 18


 455 0152 1206     		lsl	r2, r2, #24
 456 0154 264B     		ldr	r3, .L23+12
 457 0156 1A60     		str	r2, [r3]
 502:.\Generated_Source\PSoC4/cyfitter_cfg.c **** 		CY_SET_XTND_REG32((void CYFAR *)(CYREG_HSIOM_PORT_SEL2), 0x03000000u);
 458              		.loc 1 502 0
 459 0158 C022     		mov	r2, #192
 460 015a 9204     		lsl	r2, r2, #18
 461 015c 254B     		ldr	r3, .L23+16
 462 015e 1A60     		str	r2, [r3]
 503:.\Generated_Source\PSoC4/cyfitter_cfg.c **** 		CY_SET_XTND_REG32((void CYFAR *)(CYREG_HSIOM_PORT_SEL3), 0x33000000u);
 463              		.loc 1 503 0
 464 0160 CC22     		mov	r2, #204
 465 0162 9205     		lsl	r2, r2, #22
 466 0164 244B     		ldr	r3, .L23+20
 467 0166 1A60     		str	r2, [r3]
 504:.\Generated_Source\PSoC4/cyfitter_cfg.c **** 
 505:.\Generated_Source\PSoC4/cyfitter_cfg.c **** 		/* UDB_PA_0 Starting address: CYDEV_UDB_PA0_BASE */
 506:.\Generated_Source\PSoC4/cyfitter_cfg.c **** 		CY_SET_XTND_REG32((void CYFAR *)(CYDEV_UDB_PA0_BASE), 0x00990000u);
 468              		.loc 1 506 0
 469 0168 9923     		mov	r3, #153
 470 016a 1B04     		lsl	r3, r3, #16
 471 016c 234A     		ldr	r2, .L23+24
 472 016e 1360     		str	r3, [r2]
 507:.\Generated_Source\PSoC4/cyfitter_cfg.c **** 
 508:.\Generated_Source\PSoC4/cyfitter_cfg.c **** 		/* UDB_PA_2 Starting address: CYDEV_UDB_PA2_BASE */
 509:.\Generated_Source\PSoC4/cyfitter_cfg.c **** 		CY_SET_XTND_REG32((void CYFAR *)(CYDEV_UDB_PA2_BASE), 0x00990000u);
 473              		.loc 1 509 0
 474 0170 234A     		ldr	r2, .L23+28
 475 0172 1360     		str	r3, [r2]
 510:.\Generated_Source\PSoC4/cyfitter_cfg.c **** 		CY_SET_XTND_REG32((void CYFAR *)(CYREG_UDB_PA2_CFG8), 0x20000000u);
 476              		.loc 1 510 0
 477 0174 8021     		mov	r1, #128
 478 0176 8905     		lsl	r1, r1, #22
 479 0178 224A     		ldr	r2, .L23+32
 480 017a 1160     		str	r1, [r2]
 511:.\Generated_Source\PSoC4/cyfitter_cfg.c **** 
 512:.\Generated_Source\PSoC4/cyfitter_cfg.c **** 		/* UDB_PA_3 Starting address: CYDEV_UDB_PA3_BASE */
 513:.\Generated_Source\PSoC4/cyfitter_cfg.c **** 		CY_SET_XTND_REG32((void CYFAR *)(CYDEV_UDB_PA3_BASE), 0x00990000u);
 481              		.loc 1 513 0
 482 017c 224A     		ldr	r2, .L23+36
 483 017e 1360     		str	r3, [r2]
 514:.\Generated_Source\PSoC4/cyfitter_cfg.c **** 		CY_SET_XTND_REG32((void CYFAR *)(CYREG_UDB_PA3_CFG8), 0x30000000u);
 484              		.loc 1 514 0
 485 0180 C022     		mov	r2, #192
 486 0182 9205     		lsl	r2, r2, #22
 487 0184 214B     		ldr	r3, .L23+40
 488 0186 1A60     		str	r2, [r3]
 515:.\Generated_Source\PSoC4/cyfitter_cfg.c **** 
 516:.\Generated_Source\PSoC4/cyfitter_cfg.c **** 		/* Enable digital routing */
 517:.\Generated_Source\PSoC4/cyfitter_cfg.c **** 		CY_SET_XTND_REG8((void *)CYREG_UDB_UDBIF_BANK_CTL, CY_GET_XTND_REG8((void *)CYREG_UDB_UDBIF_BANK_
 489              		.loc 1 517 0
 490 0188 214B     		ldr	r3, .L23+44
 491 018a 1978     		ldrb	r1, [r3]
 492 018c 0222     		mov	r2, #2
 493 018e 0A43     		orr	r2, r1
 494 0190 1A70     		strb	r2, [r3]
 518:.\Generated_Source\PSoC4/cyfitter_cfg.c **** 
ARM GAS  C:\Users\ELECTR~1\AppData\Local\Temp\ccn0iOtb.s 			page 19


 519:.\Generated_Source\PSoC4/cyfitter_cfg.c **** 		/* Enable UDB array */
 520:.\Generated_Source\PSoC4/cyfitter_cfg.c **** 		CY_SET_XTND_REG8((void *)CYREG_UDB_UDBIF_WAIT_CFG, (uint8)((CY_GET_XTND_REG8((void *)CYREG_UDB_UD
 495              		.loc 1 520 0
 496 0192 204C     		ldr	r4, .L23+48
 497              	.LVL39:
 498 0194 2278     		ldrb	r2, [r4]
 499 0196 3C21     		mov	r1, #60
 500 0198 8A43     		bic	r2, r1
 501 019a 2839     		sub	r1, r1, #40
 502 019c 0A43     		orr	r2, r1
 503 019e 2270     		strb	r2, [r4]
 521:.\Generated_Source\PSoC4/cyfitter_cfg.c **** 		CY_SET_XTND_REG8((void *)CYREG_UDB_UDBIF_BANK_CTL, (uint8)(CY_GET_XTND_REG8((void *)CYREG_UDB_UDB
 504              		.loc 1 521 0
 505 01a0 1978     		ldrb	r1, [r3]
 506 01a2 1622     		mov	r2, #22
 507 01a4 0A43     		orr	r2, r1
 508 01a6 1A70     		strb	r2, [r3]
 509              	.LBE3:
 522:.\Generated_Source\PSoC4/cyfitter_cfg.c **** 	}
 523:.\Generated_Source\PSoC4/cyfitter_cfg.c **** 
 524:.\Generated_Source\PSoC4/cyfitter_cfg.c **** 	/* Perform second pass device configuration. These items must be configured in specific order afte
 525:.\Generated_Source\PSoC4/cyfitter_cfg.c **** 	/* IOPINS0_0 Starting address: CYDEV_GPIO_PRT0_BASE */
 526:.\Generated_Source\PSoC4/cyfitter_cfg.c **** 	CY_SET_XTND_REG32((void CYFAR *)(CYREG_GPIO_PRT0_PC), 0x00D80000u);
 510              		.loc 1 526 0
 511 01a8 D822     		mov	r2, #216
 512 01aa 1204     		lsl	r2, r2, #16
 513 01ac 1A4B     		ldr	r3, .L23+52
 514 01ae 1A60     		str	r2, [r3]
 527:.\Generated_Source\PSoC4/cyfitter_cfg.c **** 
 528:.\Generated_Source\PSoC4/cyfitter_cfg.c **** 	/* IOPINS0_2 Starting address: CYDEV_GPIO_PRT2_BASE */
 529:.\Generated_Source\PSoC4/cyfitter_cfg.c **** 	CY_SET_XTND_REG32((void CYFAR *)(CYDEV_GPIO_PRT2_BASE), 0x0000007Eu);
 515              		.loc 1 529 0
 516 01b0 7E22     		mov	r2, #126
 517 01b2 1A4B     		ldr	r3, .L23+56
 518 01b4 1A60     		str	r2, [r3]
 530:.\Generated_Source\PSoC4/cyfitter_cfg.c **** 	CY_SET_XTND_REG32((void CYFAR *)(CYREG_GPIO_PRT2_PC), 0x00040000u);
 519              		.loc 1 530 0
 520 01b6 1A4B     		ldr	r3, .L23+60
 521 01b8 1860     		str	r0, [r3]
 531:.\Generated_Source\PSoC4/cyfitter_cfg.c **** 	CY_SET_XTND_REG32((void CYFAR *)(CYREG_GPIO_PRT2_PC2), 0x0000003Eu);
 522              		.loc 1 531 0
 523 01ba 403A     		sub	r2, r2, #64
 524 01bc 194B     		ldr	r3, .L23+64
 525 01be 1A60     		str	r2, [r3]
 532:.\Generated_Source\PSoC4/cyfitter_cfg.c **** 
 533:.\Generated_Source\PSoC4/cyfitter_cfg.c **** 	/* IOPINS0_3 Starting address: CYDEV_GPIO_PRT3_BASE */
 534:.\Generated_Source\PSoC4/cyfitter_cfg.c **** 	CY_SET_XTND_REG32((void CYFAR *)(CYDEV_GPIO_PRT3_BASE), 0x000000C0u);
 526              		.loc 1 534 0
 527 01c0 8232     		add	r2, r2, #130
 528 01c2 194B     		ldr	r3, .L23+68
 529 01c4 1A60     		str	r2, [r3]
 535:.\Generated_Source\PSoC4/cyfitter_cfg.c **** 	CY_SET_XTND_REG32((void CYFAR *)(CYREG_GPIO_PRT3_PC), 0x00240000u);
 530              		.loc 1 535 0
 531 01c6 9022     		mov	r2, #144
 532 01c8 9203     		lsl	r2, r2, #14
 533 01ca 184B     		ldr	r3, .L23+72
 534 01cc 1A60     		str	r2, [r3]
ARM GAS  C:\Users\ELECTR~1\AppData\Local\Temp\ccn0iOtb.s 			page 20


 536:.\Generated_Source\PSoC4/cyfitter_cfg.c **** 
 537:.\Generated_Source\PSoC4/cyfitter_cfg.c **** 	/* IOPINS0_4 Starting address: CYDEV_GPIO_PRT4_BASE */
 538:.\Generated_Source\PSoC4/cyfitter_cfg.c **** 	CY_SET_XTND_REG32((void CYFAR *)(CYDEV_GPIO_PRT4_BASE), 0x00000001u);
 535              		.loc 1 538 0
 536 01ce 0123     		mov	r3, #1
 537 01d0 174A     		ldr	r2, .L23+76
 538 01d2 1360     		str	r3, [r2]
 539:.\Generated_Source\PSoC4/cyfitter_cfg.c **** 	CY_SET_XTND_REG32((void CYFAR *)(CYREG_GPIO_PRT4_PC2), 0x00000001u);
 539              		.loc 1 539 0
 540 01d4 174A     		ldr	r2, .L23+80
 541 01d6 1360     		str	r3, [r2]
 540:.\Generated_Source\PSoC4/cyfitter_cfg.c **** 
 541:.\Generated_Source\PSoC4/cyfitter_cfg.c **** 	/* Setup clocks based on selections from Clock DWR */
 542:.\Generated_Source\PSoC4/cyfitter_cfg.c **** 	ClockSetup();
 542              		.loc 1 542 0
 543 01d8 FFF712FF 		bl	ClockSetup
 544              	.LVL40:
 543:.\Generated_Source\PSoC4/cyfitter_cfg.c **** 
 544:.\Generated_Source\PSoC4/cyfitter_cfg.c **** 	/* Perform basic analog initialization to defaults */
 545:.\Generated_Source\PSoC4/cyfitter_cfg.c **** 	AnalogSetDefault();
 545              		.loc 1 545 0
 546 01dc FFF7FEFF 		bl	AnalogSetDefault
 547              	.LVL41:
 546:.\Generated_Source\PSoC4/cyfitter_cfg.c **** 
 547:.\Generated_Source\PSoC4/cyfitter_cfg.c **** }
 548              		.loc 1 547 0
 549              		@ sp needed
 550 01e0 10BD     		pop	{r4, pc}
 551              	.L24:
 552 01e2 C046     		.align	2
 553              	.L23:
 554 01e4 6CF02E40 		.word	1076818028
 555 01e8 00000000 		.word	.LANCHOR0
 556 01ec 14000B40 		.word	1074462740
 557 01f0 00000240 		.word	1073872896
 558 01f4 00020240 		.word	1073873408
 559 01f8 00030240 		.word	1073873664
 560 01fc 00500F40 		.word	1074745344
 561 0200 20500F40 		.word	1074745376
 562 0204 28500F40 		.word	1074745384
 563 0208 30500F40 		.word	1074745392
 564 020c 38500F40 		.word	1074745400
 565 0210 00700F40 		.word	1074753536
 566 0214 01700F40 		.word	1074753537
 567 0218 08000440 		.word	1074003976
 568 021c 00020440 		.word	1074004480
 569 0220 08020440 		.word	1074004488
 570 0224 18020440 		.word	1074004504
 571 0228 00030440 		.word	1074004736
 572 022c 08030440 		.word	1074004744
 573 0230 00040440 		.word	1074004992
 574 0234 18040440 		.word	1074005016
 575              		.cfi_endproc
 576              	.LFE9:
 577              		.size	cyfitter_cfg, .-cyfitter_cfg
 578              		.section	.rodata
 579              		.align	2
ARM GAS  C:\Users\ELECTR~1\AppData\Local\Temp\ccn0iOtb.s 			page 21


 580              		.set	.LANCHOR0,. + 0
 581              		.type	cfg_memset_list.4771, %object
 582              		.size	cfg_memset_list.4771, 12
 583              	cfg_memset_list.4771:
 584 0000 00300F40 		.word	1074737152
 585 0004 0004     		.short	1024
 586 0006 00400F40 		.4byte	1074741248
 587 000a 0004     		.short	1024
 588              		.type	cy_cfg_addr_table.4765, %object
 589              		.size	cy_cfg_addr_table.4765, 24
 590              	cy_cfg_addr_table.4765:
 591 000c 41320F40 		.word	1074737729
 592 0010 26330F40 		.word	1074737958
 593 0014 05410F40 		.word	1074741509
 594 0018 02420F40 		.word	1074741762
 595 001c 0A430F40 		.word	1074742026
 596 0020 02600F40 		.word	1074749442
 597              		.type	cy_cfg_data_table.4766, %object
 598              		.size	cy_cfg_data_table.4766, 244
 599              	cy_cfg_data_table.4766:
 600 0024 08       		.byte	8
 601 0025 01       		.byte	1
 602 0026 0A       		.byte	10
 603 0027 02       		.byte	2
 604 0028 0F       		.byte	15
 605 0029 01       		.byte	1
 606 002a 14       		.byte	20
 607 002b 01       		.byte	1
 608 002c 18       		.byte	24
 609 002d 01       		.byte	1
 610 002e 1A       		.byte	26
 611 002f 02       		.byte	2
 612 0030 35       		.byte	53
 613 0031 01       		.byte	1
 614 0032 36       		.byte	54
 615 0033 03       		.byte	3
 616 0034 38       		.byte	56
 617 0035 88       		.byte	-120
 618 0036 3E       		.byte	62
 619 0037 04       		.byte	4
 620 0038 40       		.byte	64
 621 0039 03       		.byte	3
 622 003a 45       		.byte	69
 623 003b 01       		.byte	1
 624 003c 48       		.byte	72
 625 003d 09       		.byte	9
 626 003e 49       		.byte	73
 627 003f FF       		.byte	-1
 628 0040 4A       		.byte	74
 629 0041 FF       		.byte	-1
 630 0042 4B       		.byte	75
 631 0043 FF       		.byte	-1
 632 0044 4C       		.byte	76
 633 0045 02       		.byte	2
 634 0046 4D       		.byte	77
 635 0047 20       		.byte	32
 636 0048 4E       		.byte	78
ARM GAS  C:\Users\ELECTR~1\AppData\Local\Temp\ccn0iOtb.s 			page 22


 637 0049 F0       		.byte	-16
 638 004a 52       		.byte	82
 639 004b 03       		.byte	3
 640 004c 58       		.byte	88
 641 004d 0E       		.byte	14
 642 004e 59       		.byte	89
 643 004f 04       		.byte	4
 644 0050 5A       		.byte	90
 645 0051 0E       		.byte	14
 646 0052 5B       		.byte	91
 647 0053 04       		.byte	4
 648 0054 5F       		.byte	95
 649 0055 01       		.byte	1
 650 0056 62       		.byte	98
 651 0057 48       		.byte	72
 652 0058 63       		.byte	99
 653 0059 AD       		.byte	-83
 654 005a 64       		.byte	100
 655 005b C0       		.byte	-64
 656 005c 66       		.byte	102
 657 005d C0       		.byte	-64
 658 005e 85       		.byte	-123
 659 005f 01       		.byte	1
 660 0060 87       		.byte	-121
 661 0061 02       		.byte	2
 662 0062 89       		.byte	-119
 663 0063 04       		.byte	4
 664 0064 8B       		.byte	-117
 665 0065 08       		.byte	8
 666 0066 8D       		.byte	-115
 667 0067 01       		.byte	1
 668 0068 95       		.byte	-107
 669 0069 04       		.byte	4
 670 006a 97       		.byte	-105
 671 006b 08       		.byte	8
 672 006c 99       		.byte	-103
 673 006d 04       		.byte	4
 674 006e 9D       		.byte	-99
 675 006f 01       		.byte	1
 676 0070 9F       		.byte	-97
 677 0071 02       		.byte	2
 678 0072 AE       		.byte	-82
 679 0073 01       		.byte	1
 680 0074 B0       		.byte	-80
 681 0075 01       		.byte	1
 682 0076 B3       		.byte	-77
 683 0077 03       		.byte	3
 684 0078 B7       		.byte	-73
 685 0079 0C       		.byte	12
 686 007a B9       		.byte	-71
 687 007b 88       		.byte	-120
 688 007c C0       		.byte	-64
 689 007d 03       		.byte	3
 690 007e C5       		.byte	-59
 691 007f 50       		.byte	80
 692 0080 C6       		.byte	-58
 693 0081 04       		.byte	4
ARM GAS  C:\Users\ELECTR~1\AppData\Local\Temp\ccn0iOtb.s 			page 23


 694 0082 C7       		.byte	-57
 695 0083 01       		.byte	1
 696 0084 C8       		.byte	-56
 697 0085 17       		.byte	23
 698 0086 C9       		.byte	-55
 699 0087 FF       		.byte	-1
 700 0088 CA       		.byte	-54
 701 0089 FF       		.byte	-1
 702 008a CB       		.byte	-53
 703 008b FF       		.byte	-1
 704 008c CC       		.byte	-52
 705 008d 02       		.byte	2
 706 008e CD       		.byte	-51
 707 008f 20       		.byte	32
 708 0090 CE       		.byte	-50
 709 0091 F0       		.byte	-16
 710 0092 D2       		.byte	-46
 711 0093 07       		.byte	7
 712 0094 D8       		.byte	-40
 713 0095 04       		.byte	4
 714 0096 D9       		.byte	-39
 715 0097 0C       		.byte	12
 716 0098 DA       		.byte	-38
 717 0099 0C       		.byte	12
 718 009a DB       		.byte	-37
 719 009b 04       		.byte	4
 720 009c DF       		.byte	-33
 721 009d 01       		.byte	1
 722 009e E2       		.byte	-30
 723 009f 48       		.byte	72
 724 00a0 E3       		.byte	-29
 725 00a1 AD       		.byte	-83
 726 00a2 E4       		.byte	-28
 727 00a3 C0       		.byte	-64
 728 00a4 E6       		.byte	-26
 729 00a5 C0       		.byte	-64
 730 00a6 07       		.byte	7
 731 00a7 04       		.byte	4
 732 00a8 0F       		.byte	15
 733 00a9 28       		.byte	40
 734 00aa 10       		.byte	16
 735 00ab 02       		.byte	2
 736 00ac 1B       		.byte	27
 737 00ad 01       		.byte	1
 738 00ae 1D       		.byte	29
 739 00af 08       		.byte	8
 740 00b0 1F       		.byte	31
 741 00b1 88       		.byte	-120
 742 00b2 20       		.byte	32
 743 00b3 01       		.byte	1
 744 00b4 22       		.byte	34
 745 00b5 04       		.byte	4
 746 00b6 26       		.byte	38
 747 00b7 20       		.byte	32
 748 00b8 30       		.byte	48
 749 00b9 A8       		.byte	-88
 750 00ba 38       		.byte	56
ARM GAS  C:\Users\ELECTR~1\AppData\Local\Temp\ccn0iOtb.s 			page 24


 751 00bb 80       		.byte	-128
 752 00bc 39       		.byte	57
 753 00bd 24       		.byte	36
 754 00be 3E       		.byte	62
 755 00bf 40       		.byte	64
 756 00c0 43       		.byte	67
 757 00c1 08       		.byte	8
 758 00c2 45       		.byte	69
 759 00c3 08       		.byte	8
 760 00c4 48       		.byte	72
 761 00c5 A0       		.byte	-96
 762 00c6 4F       		.byte	79
 763 00c7 08       		.byte	8
 764 00c8 50       		.byte	80
 765 00c9 48       		.byte	72
 766 00ca 57       		.byte	87
 767 00cb 10       		.byte	16
 768 00cc 68       		.byte	104
 769 00cd 02       		.byte	2
 770 00ce 69       		.byte	105
 771 00cf 24       		.byte	36
 772 00d0 6E       		.byte	110
 773 00d1 40       		.byte	64
 774 00d2 6F       		.byte	111
 775 00d3 04       		.byte	4
 776 00d4 7B       		.byte	123
 777 00d5 01       		.byte	1
 778 00d6 7E       		.byte	126
 779 00d7 20       		.byte	32
 780 00d8 87       		.byte	-121
 781 00d9 80       		.byte	-128
 782 00da 89       		.byte	-119
 783 00db 08       		.byte	8
 784 00dc 8A       		.byte	-118
 785 00dd 04       		.byte	4
 786 00de 8C       		.byte	-116
 787 00df 01       		.byte	1
 788 00e0 C0       		.byte	-64
 789 00e1 40       		.byte	64
 790 00e2 C2       		.byte	-62
 791 00e3 60       		.byte	96
 792 00e4 C4       		.byte	-60
 793 00e5 01       		.byte	1
 794 00e6 CC       		.byte	-52
 795 00e7 0E       		.byte	14
 796 00e8 CE       		.byte	-50
 797 00e9 1E       		.byte	30
 798 00ea D0       		.byte	-48
 799 00eb 42       		.byte	66
 800 00ec DE       		.byte	-34
 801 00ed 48       		.byte	72
 802 00ee E4       		.byte	-28
 803 00ef 08       		.byte	8
 804 00f0 E6       		.byte	-26
 805 00f1 20       		.byte	32
 806 00f2 39       		.byte	57
 807 00f3 04       		.byte	4
ARM GAS  C:\Users\ELECTR~1\AppData\Local\Temp\ccn0iOtb.s 			page 25


 808 00f4 3D       		.byte	61
 809 00f5 04       		.byte	4
 810 00f6 3E       		.byte	62
 811 00f7 04       		.byte	4
 812 00f8 8A       		.byte	-118
 813 00f9 04       		.byte	4
 814 00fa CE       		.byte	-50
 815 00fb C0       		.byte	-64
 816 00fc 61       		.byte	97
 817 00fd 02       		.byte	2
 818 00fe D8       		.byte	-40
 819 00ff 02       		.byte	2
 820 0100 63       		.byte	99
 821 0101 02       		.byte	2
 822 0102 67       		.byte	103
 823 0103 08       		.byte	8
 824 0104 87       		.byte	-121
 825 0105 01       		.byte	1
 826 0106 8B       		.byte	-117
 827 0107 04       		.byte	4
 828 0108 8D       		.byte	-115
 829 0109 02       		.byte	2
 830 010a A5       		.byte	-91
 831 010b 02       		.byte	2
 832 010c D6       		.byte	-42
 833 010d 02       		.byte	2
 834 010e D8       		.byte	-40
 835 010f 01       		.byte	1
 836 0110 E0       		.byte	-32
 837 0111 01       		.byte	1
 838 0112 E4       		.byte	-28
 839 0113 08       		.byte	8
 840 0114 01       		.byte	1
 841 0115 01       		.byte	1
 842 0116 10       		.byte	16
 843 0117 01       		.byte	1
 844              		.text
 845              	.Letext0:
 846              		.file 2 "c:\\program files (x86)\\cypress\\psoc creator\\3.3\\psoc creator\\import\\gnu\\arm\\4.9.
 847              		.file 3 ".\\Generated_Source\\PSoC4\\cytypes.h"
 848              		.file 4 ".\\Generated_Source\\PSoC4\\CyLib.h"
 849              		.file 5 ".\\Generated_Source\\PSoC4\\CyLFClk.h"