ARM GAS  C:\Users\ELECTR~1\AppData\Local\Temp\ccbbDBvf.s 			page 1


   1              		.cpu cortex-m0
   2              		.fpu softvfp
   3              		.eabi_attribute 20, 1
   4              		.eabi_attribute 21, 1
   5              		.eabi_attribute 23, 3
   6              		.eabi_attribute 24, 1
   7              		.eabi_attribute 25, 1
   8              		.eabi_attribute 26, 1
   9              		.eabi_attribute 30, 1
  10              		.eabi_attribute 34, 0
  11              		.eabi_attribute 18, 4
  12              		.code	16
  13              		.file	"Slider.c"
  14              		.text
  15              	.Ltext0:
  16              		.cfi_sections	.debug_frame
  17              		.section	.text.Slider_CsdHwBlockInit,"ax",%progbits
  18              		.align	2
  19              		.global	Slider_CsdHwBlockInit
  20              		.code	16
  21              		.thumb_func
  22              		.type	Slider_CsdHwBlockInit, %function
  23              	Slider_CsdHwBlockInit:
  24              	.LFB36:
  25              		.file 1 ".\\Generated_Source\\PSoC4\\Slider.c"
   1:.\Generated_Source\PSoC4/Slider.c **** /*******************************************************************************
   2:.\Generated_Source\PSoC4/Slider.c **** * File Name: Slider.c
   3:.\Generated_Source\PSoC4/Slider.c **** * Version 2.20
   4:.\Generated_Source\PSoC4/Slider.c **** *
   5:.\Generated_Source\PSoC4/Slider.c **** * Description:
   6:.\Generated_Source\PSoC4/Slider.c **** *  This file provides the source code for scanning APIs for the CapSense CSD 
   7:.\Generated_Source\PSoC4/Slider.c **** *  component.
   8:.\Generated_Source\PSoC4/Slider.c **** *
   9:.\Generated_Source\PSoC4/Slider.c **** * Note:
  10:.\Generated_Source\PSoC4/Slider.c **** *
  11:.\Generated_Source\PSoC4/Slider.c **** ********************************************************************************
  12:.\Generated_Source\PSoC4/Slider.c **** * Copyright 2014, Cypress Semiconductor Corporation.  All rights reserved.
  13:.\Generated_Source\PSoC4/Slider.c **** * You may use this file only in accordance with the license, terms, conditions,
  14:.\Generated_Source\PSoC4/Slider.c **** * disclaimers, and limitations in the end user license agreement accompanying
  15:.\Generated_Source\PSoC4/Slider.c **** * the software package with which this file was provided.
  16:.\Generated_Source\PSoC4/Slider.c **** *******************************************************************************/
  17:.\Generated_Source\PSoC4/Slider.c **** 
  18:.\Generated_Source\PSoC4/Slider.c **** #include "Slider.h"
  19:.\Generated_Source\PSoC4/Slider.c **** #include "Slider_PVT.h"
  20:.\Generated_Source\PSoC4/Slider.c **** #include "cypins.h"
  21:.\Generated_Source\PSoC4/Slider.c **** 
  22:.\Generated_Source\PSoC4/Slider.c **** #if(0u != Slider_CSHL_API_GENERATE)
  23:.\Generated_Source\PSoC4/Slider.c **** 	#include "Slider_CSHL.h"
  24:.\Generated_Source\PSoC4/Slider.c **** #endif /* (0u != Slider_CSHL_API_GENERATE) */
  25:.\Generated_Source\PSoC4/Slider.c **** 
  26:.\Generated_Source\PSoC4/Slider.c **** /* This definition is intended to prevent unexpected linker error. 
  27:.\Generated_Source\PSoC4/Slider.c ****    For more details please see the IAR Technical Note 49981 */
  28:.\Generated_Source\PSoC4/Slider.c **** #if defined(__ICCARM__)
  29:.\Generated_Source\PSoC4/Slider.c **** 	extern void Slider_EnableSensor(uint32 sensor);
  30:.\Generated_Source\PSoC4/Slider.c **** 	extern void Slider_DisableSensor(uint32 sensor);
  31:.\Generated_Source\PSoC4/Slider.c **** #endif /* (__ICCARM__) */	
  32:.\Generated_Source\PSoC4/Slider.c **** 
ARM GAS  C:\Users\ELECTR~1\AppData\Local\Temp\ccbbDBvf.s 			page 2


  33:.\Generated_Source\PSoC4/Slider.c **** /* SmartSense functions */
  34:.\Generated_Source\PSoC4/Slider.c **** #if (Slider_TUNING_METHOD == Slider__TUNING_AUTO)
  35:.\Generated_Source\PSoC4/Slider.c ****     uint8 Slider_lowLevelTuningDone = 0u;
  36:.\Generated_Source\PSoC4/Slider.c **** 	uint8 scanSpeedTbl[((Slider_TOTAL_SENSOR_COUNT - 1u) / 8u) + 1u];
  37:.\Generated_Source\PSoC4/Slider.c **** #endif /* (Slider_TUNING_METHOD == Slider__TUNING_AUTO) */
  38:.\Generated_Source\PSoC4/Slider.c **** 
  39:.\Generated_Source\PSoC4/Slider.c **** #if(Slider_PRS_OPTIONS != Slider__PRS_NONE)
  40:.\Generated_Source\PSoC4/Slider.c **** 	uint8 Slider_prescalersTuningDone = 0u;
  41:.\Generated_Source\PSoC4/Slider.c **** #endif /* (Slider_PRS_OPTIONS == Slider__PRS_NONE) */
  42:.\Generated_Source\PSoC4/Slider.c ****             
  43:.\Generated_Source\PSoC4/Slider.c **** /* Global software variables */
  44:.\Generated_Source\PSoC4/Slider.c **** volatile uint8 Slider_csdStatusVar = 0u;   /* CapSense CSD status, variable */
  45:.\Generated_Source\PSoC4/Slider.c **** volatile uint8 Slider_sensorIndex = 0u;    /* Index of scannig sensor */
  46:.\Generated_Source\PSoC4/Slider.c **** 
  47:.\Generated_Source\PSoC4/Slider.c **** /* Global array of Raw Counts */
  48:.\Generated_Source\PSoC4/Slider.c **** uint16 Slider_sensorRaw[Slider_TOTAL_SENSOR_COUNT] = {0u};
  49:.\Generated_Source\PSoC4/Slider.c **** 
  50:.\Generated_Source\PSoC4/Slider.c **** /* Backup variables for trim registers*/
  51:.\Generated_Source\PSoC4/Slider.c **** #if (Slider_IDAC1_POLARITY == Slider__IDAC_SINK)
  52:.\Generated_Source\PSoC4/Slider.c **** 	uint8 Slider_csdTrim2;   
  53:.\Generated_Source\PSoC4/Slider.c **** #else
  54:.\Generated_Source\PSoC4/Slider.c ****     uint8 Slider_csdTrim1;	
  55:.\Generated_Source\PSoC4/Slider.c **** #endif /* (Slider_IDAC1_POLARITY == Slider__IDAC_SINK) */
  56:.\Generated_Source\PSoC4/Slider.c **** 
  57:.\Generated_Source\PSoC4/Slider.c **** /* Global array of un-scanned sensors state */
  58:.\Generated_Source\PSoC4/Slider.c **** uint8 Slider_unscannedSnsDriveMode[Slider_TOTAL_SENSOR_COUNT];
  59:.\Generated_Source\PSoC4/Slider.c **** 
  60:.\Generated_Source\PSoC4/Slider.c **** /* Backup array for Slider_sensorEnableMask */
  61:.\Generated_Source\PSoC4/Slider.c **** uint8 Slider_sensorEnableMaskBackup[(((Slider_TOTAL_SENSOR_COUNT - 1u) / 8u) + 1u)];
  62:.\Generated_Source\PSoC4/Slider.c **** 
  63:.\Generated_Source\PSoC4/Slider.c **** /* Configured constants and arrays by Customizer */
  64:.\Generated_Source\PSoC4/Slider.c **** uint8 Slider_sensorEnableMask[(((Slider_TOTAL_SENSOR_COUNT - 1u) / 8u) + 1u)] = {
  65:.\Generated_Source\PSoC4/Slider.c **** 0x1Fu, };
  66:.\Generated_Source\PSoC4/Slider.c **** 
  67:.\Generated_Source\PSoC4/Slider.c **** reg32 * Slider_pcTable[] = {
  68:.\Generated_Source\PSoC4/Slider.c ****     (reg32 *)Slider_Sns__LinearSlider0_e0__LS__PC, 
  69:.\Generated_Source\PSoC4/Slider.c ****     (reg32 *)Slider_Sns__LinearSlider0_e1__LS__PC, 
  70:.\Generated_Source\PSoC4/Slider.c ****     (reg32 *)Slider_Sns__LinearSlider0_e2__LS__PC, 
  71:.\Generated_Source\PSoC4/Slider.c ****     (reg32 *)Slider_Sns__LinearSlider0_e3__LS__PC, 
  72:.\Generated_Source\PSoC4/Slider.c ****     (reg32 *)Slider_Sns__LinearSlider0_e4__LS__PC, 
  73:.\Generated_Source\PSoC4/Slider.c **** };
  74:.\Generated_Source\PSoC4/Slider.c **** 
  75:.\Generated_Source\PSoC4/Slider.c **** const uint8 Slider_portTable[] = {
  76:.\Generated_Source\PSoC4/Slider.c ****     Slider_Sns__LinearSlider0_e0__LS__PORT, 
  77:.\Generated_Source\PSoC4/Slider.c ****     Slider_Sns__LinearSlider0_e1__LS__PORT, 
  78:.\Generated_Source\PSoC4/Slider.c ****     Slider_Sns__LinearSlider0_e2__LS__PORT, 
  79:.\Generated_Source\PSoC4/Slider.c ****     Slider_Sns__LinearSlider0_e3__LS__PORT, 
  80:.\Generated_Source\PSoC4/Slider.c ****     Slider_Sns__LinearSlider0_e4__LS__PORT, 
  81:.\Generated_Source\PSoC4/Slider.c **** };
  82:.\Generated_Source\PSoC4/Slider.c **** 
  83:.\Generated_Source\PSoC4/Slider.c **** const uint32 Slider_maskTable[] = {
  84:.\Generated_Source\PSoC4/Slider.c ****     Slider_Sns__LinearSlider0_e0__LS__MASK, 
  85:.\Generated_Source\PSoC4/Slider.c ****     Slider_Sns__LinearSlider0_e1__LS__MASK, 
  86:.\Generated_Source\PSoC4/Slider.c ****     Slider_Sns__LinearSlider0_e2__LS__MASK, 
  87:.\Generated_Source\PSoC4/Slider.c ****     Slider_Sns__LinearSlider0_e3__LS__MASK, 
  88:.\Generated_Source\PSoC4/Slider.c ****     Slider_Sns__LinearSlider0_e4__LS__MASK, 
  89:.\Generated_Source\PSoC4/Slider.c **** };
ARM GAS  C:\Users\ELECTR~1\AppData\Local\Temp\ccbbDBvf.s 			page 3


  90:.\Generated_Source\PSoC4/Slider.c **** 
  91:.\Generated_Source\PSoC4/Slider.c **** const uint8 Slider_pinShiftTbl[] = {
  92:.\Generated_Source\PSoC4/Slider.c ****     (uint8) Slider_Sns__LinearSlider0_e0__LS__SHIFT, 
  93:.\Generated_Source\PSoC4/Slider.c ****     (uint8) Slider_Sns__LinearSlider0_e1__LS__SHIFT, 
  94:.\Generated_Source\PSoC4/Slider.c ****     (uint8) Slider_Sns__LinearSlider0_e2__LS__SHIFT, 
  95:.\Generated_Source\PSoC4/Slider.c ****     (uint8) Slider_Sns__LinearSlider0_e3__LS__SHIFT, 
  96:.\Generated_Source\PSoC4/Slider.c ****     (uint8) Slider_Sns__LinearSlider0_e4__LS__SHIFT, 
  97:.\Generated_Source\PSoC4/Slider.c **** };
  98:.\Generated_Source\PSoC4/Slider.c **** 
  99:.\Generated_Source\PSoC4/Slider.c **** uint8 Slider_modulationIDAC[Slider_TOTAL_SENSOR_COUNT];
 100:.\Generated_Source\PSoC4/Slider.c **** uint8 Slider_compensationIDAC[Slider_TOTAL_SENSOR_COUNT];
 101:.\Generated_Source\PSoC4/Slider.c **** 
 102:.\Generated_Source\PSoC4/Slider.c **** uint32 Slider_widgetResolution[Slider_RESOLUTIONS_TBL_SIZE] = {
 103:.\Generated_Source\PSoC4/Slider.c ****     Slider_RESOLUTION_12_BITS,
 104:.\Generated_Source\PSoC4/Slider.c **** };
 105:.\Generated_Source\PSoC4/Slider.c **** 
 106:.\Generated_Source\PSoC4/Slider.c **** uint8 Slider_senseClkDividerVal[Slider_TOTAL_SCANSLOT_COUNT];
 107:.\Generated_Source\PSoC4/Slider.c **** uint8 Slider_sampleClkDividerVal[Slider_TOTAL_SCANSLOT_COUNT];
 108:.\Generated_Source\PSoC4/Slider.c **** 
 109:.\Generated_Source\PSoC4/Slider.c **** const uint8 Slider_widgetNumber[Slider_TOTAL_SENSOR_COUNT] = {
 110:.\Generated_Source\PSoC4/Slider.c ****     0u, 0u, 0u, 0u, 0u, /* LinearSlider0__LS */
 111:.\Generated_Source\PSoC4/Slider.c **** };
 112:.\Generated_Source\PSoC4/Slider.c **** 
 113:.\Generated_Source\PSoC4/Slider.c **** 
 114:.\Generated_Source\PSoC4/Slider.c **** 
 115:.\Generated_Source\PSoC4/Slider.c **** reg32* const Slider_prtSelTbl[] = {
 116:.\Generated_Source\PSoC4/Slider.c **** /* CY_PSOC4_4000 is default*/
 117:.\Generated_Source\PSoC4/Slider.c **** 	((reg32 *) CYREG_HSIOM_PORT_SEL0),
 118:.\Generated_Source\PSoC4/Slider.c **** 	((reg32 *) CYREG_HSIOM_PORT_SEL1),
 119:.\Generated_Source\PSoC4/Slider.c **** 	((reg32 *) CYREG_HSIOM_PORT_SEL2),
 120:.\Generated_Source\PSoC4/Slider.c **** 	((reg32 *) CYREG_HSIOM_PORT_SEL3),
 121:.\Generated_Source\PSoC4/Slider.c **** #if (Slider_CFG_REG_TBL_SIZE == 5u)
 122:.\Generated_Source\PSoC4/Slider.c **** 	((reg32 *) CYREG_HSIOM_PORT_SEL4)
 123:.\Generated_Source\PSoC4/Slider.c **** #elif(Slider_CFG_REG_TBL_SIZE == 6u)
 124:.\Generated_Source\PSoC4/Slider.c **** 	((reg32 *) CYREG_HSIOM_PORT_SEL4),
 125:.\Generated_Source\PSoC4/Slider.c **** 	((reg32 *) CYREG_HSIOM_PORT_SEL5)
 126:.\Generated_Source\PSoC4/Slider.c **** #elif(Slider_CFG_REG_TBL_SIZE == 8u)
 127:.\Generated_Source\PSoC4/Slider.c **** 	((reg32 *) CYREG_HSIOM_PORT_SEL4),
 128:.\Generated_Source\PSoC4/Slider.c **** 	((reg32 *) CYREG_HSIOM_PORT_SEL5),
 129:.\Generated_Source\PSoC4/Slider.c **** 	((reg32 *) CYREG_HSIOM_PORT_SEL6),
 130:.\Generated_Source\PSoC4/Slider.c **** 	((reg32 *) CYREG_HSIOM_PORT_SEL7)
 131:.\Generated_Source\PSoC4/Slider.c **** #endif /* (CY_PSOC4_4200) */
 132:.\Generated_Source\PSoC4/Slider.c **** };
 133:.\Generated_Source\PSoC4/Slider.c **** 
 134:.\Generated_Source\PSoC4/Slider.c **** reg32* const Slider_prtCfgTbl[] = {
 135:.\Generated_Source\PSoC4/Slider.c **** /* CY_PSOC4_4000 is default*/
 136:.\Generated_Source\PSoC4/Slider.c **** 	((reg32 *) CYREG_GPIO_PRT0_PC),
 137:.\Generated_Source\PSoC4/Slider.c **** 	((reg32 *) CYREG_GPIO_PRT1_PC),
 138:.\Generated_Source\PSoC4/Slider.c **** 	((reg32 *) CYREG_GPIO_PRT2_PC),
 139:.\Generated_Source\PSoC4/Slider.c **** 	((reg32 *) CYREG_GPIO_PRT3_PC),
 140:.\Generated_Source\PSoC4/Slider.c **** #if (Slider_CFG_REG_TBL_SIZE == 5u)
 141:.\Generated_Source\PSoC4/Slider.c **** 	((reg32 *) CYREG_GPIO_PRT4_PC)
 142:.\Generated_Source\PSoC4/Slider.c **** #elif(Slider_CFG_REG_TBL_SIZE == 6u)
 143:.\Generated_Source\PSoC4/Slider.c **** 	((reg32 *) CYREG_GPIO_PRT4_PC),
 144:.\Generated_Source\PSoC4/Slider.c **** 	((reg32 *) CYREG_GPIO_PRT5_PC)
 145:.\Generated_Source\PSoC4/Slider.c **** #elif(Slider_CFG_REG_TBL_SIZE == 8u)
 146:.\Generated_Source\PSoC4/Slider.c **** 	((reg32 *) CYREG_GPIO_PRT4_PC),
ARM GAS  C:\Users\ELECTR~1\AppData\Local\Temp\ccbbDBvf.s 			page 4


 147:.\Generated_Source\PSoC4/Slider.c **** 	((reg32 *) CYREG_GPIO_PRT5_PC),
 148:.\Generated_Source\PSoC4/Slider.c **** 	((reg32 *) CYREG_GPIO_PRT6_PC),
 149:.\Generated_Source\PSoC4/Slider.c **** 	((reg32 *) CYREG_GPIO_PRT7_PC)
 150:.\Generated_Source\PSoC4/Slider.c **** #endif /* (CY_PSOC4_4200) */	
 151:.\Generated_Source\PSoC4/Slider.c **** };
 152:.\Generated_Source\PSoC4/Slider.c **** 
 153:.\Generated_Source\PSoC4/Slider.c **** reg32* const Slider_prtDRTbl[] = {
 154:.\Generated_Source\PSoC4/Slider.c **** /* CY_PSOC4_4000 is default*/
 155:.\Generated_Source\PSoC4/Slider.c **** 	((reg32 *) CYREG_GPIO_PRT0_DR),
 156:.\Generated_Source\PSoC4/Slider.c **** 	((reg32 *) CYREG_GPIO_PRT1_DR),
 157:.\Generated_Source\PSoC4/Slider.c **** 	((reg32 *) CYREG_GPIO_PRT2_DR),
 158:.\Generated_Source\PSoC4/Slider.c **** 	((reg32 *) CYREG_GPIO_PRT3_DR),
 159:.\Generated_Source\PSoC4/Slider.c **** #if (Slider_CFG_REG_TBL_SIZE == 5u)
 160:.\Generated_Source\PSoC4/Slider.c **** 	((reg32 *) CYREG_GPIO_PRT4_DR)
 161:.\Generated_Source\PSoC4/Slider.c **** #elif(Slider_CFG_REG_TBL_SIZE == 6u)
 162:.\Generated_Source\PSoC4/Slider.c **** 	((reg32 *) CYREG_GPIO_PRT4_DR),
 163:.\Generated_Source\PSoC4/Slider.c **** 	((reg32 *) CYREG_GPIO_PRT5_DR),
 164:.\Generated_Source\PSoC4/Slider.c **** #elif(Slider_CFG_REG_TBL_SIZE == 8u)
 165:.\Generated_Source\PSoC4/Slider.c **** 	((reg32 *) CYREG_GPIO_PRT4_DR),
 166:.\Generated_Source\PSoC4/Slider.c **** 	((reg32 *) CYREG_GPIO_PRT5_DR),
 167:.\Generated_Source\PSoC4/Slider.c **** 	((reg32 *) CYREG_GPIO_PRT6_DR),
 168:.\Generated_Source\PSoC4/Slider.c **** 	((reg32 *) CYREG_GPIO_PRT7_DR),
 169:.\Generated_Source\PSoC4/Slider.c **** #endif /* (CY_PSOC4_4200) */	
 170:.\Generated_Source\PSoC4/Slider.c **** };
 171:.\Generated_Source\PSoC4/Slider.c ****     
 172:.\Generated_Source\PSoC4/Slider.c **** 
 173:.\Generated_Source\PSoC4/Slider.c **** /*******************************************************************************
 174:.\Generated_Source\PSoC4/Slider.c **** * Function Name: Slider_Init
 175:.\Generated_Source\PSoC4/Slider.c **** ********************************************************************************
 176:.\Generated_Source\PSoC4/Slider.c **** *
 177:.\Generated_Source\PSoC4/Slider.c **** * Summary:
 178:.\Generated_Source\PSoC4/Slider.c **** *  API initializes default CapSense configuration provided by the customizer that defines 
 179:.\Generated_Source\PSoC4/Slider.c **** *  the mode of component operations and resets all the sensors to an inactive state.
 180:.\Generated_Source\PSoC4/Slider.c **** *
 181:.\Generated_Source\PSoC4/Slider.c **** * Parameters:
 182:.\Generated_Source\PSoC4/Slider.c **** *  None
 183:.\Generated_Source\PSoC4/Slider.c **** *
 184:.\Generated_Source\PSoC4/Slider.c **** * Return:
 185:.\Generated_Source\PSoC4/Slider.c **** *  None
 186:.\Generated_Source\PSoC4/Slider.c **** *
 187:.\Generated_Source\PSoC4/Slider.c **** * Global Variables:
 188:.\Generated_Source\PSoC4/Slider.c **** *  Slider_immunityIndex - defines immunity level.
 189:.\Generated_Source\PSoC4/Slider.c **** *
 190:.\Generated_Source\PSoC4/Slider.c **** * Side Effects:
 191:.\Generated_Source\PSoC4/Slider.c **** *  None
 192:.\Generated_Source\PSoC4/Slider.c **** * 
 193:.\Generated_Source\PSoC4/Slider.c **** *******************************************************************************/
 194:.\Generated_Source\PSoC4/Slider.c **** void Slider_Init(void)
 195:.\Generated_Source\PSoC4/Slider.c **** {   
 196:.\Generated_Source\PSoC4/Slider.c **** 	uint32 curSensor;
 197:.\Generated_Source\PSoC4/Slider.c **** 	
 198:.\Generated_Source\PSoC4/Slider.c **** 	#if(Slider_IS_SHIELD_ENABLE)
 199:.\Generated_Source\PSoC4/Slider.c **** 		
 200:.\Generated_Source\PSoC4/Slider.c **** 		#if((Slider_CSH_TANK_PREGARGE_OPTION == Slider__CAPPRIOBUF) || (0u != Slider_CSH_TANK_ENABLE))
 201:.\Generated_Source\PSoC4/Slider.c **** 			uint32 newRegValue;
 202:.\Generated_Source\PSoC4/Slider.c **** 			
 203:.\Generated_Source\PSoC4/Slider.c **** 			newRegValue = Slider_CTANK_CONNECTION_REG;
ARM GAS  C:\Users\ELECTR~1\AppData\Local\Temp\ccbbDBvf.s 			page 5


 204:.\Generated_Source\PSoC4/Slider.c **** 	        newRegValue &= ~(Slider_CSD_CTANK_CONNECTION_MASK);
 205:.\Generated_Source\PSoC4/Slider.c **** 			newRegValue |= Slider_CSD_CTANK_TO_AMUXBUS_B;
 206:.\Generated_Source\PSoC4/Slider.c **** 	        Slider_CTANK_CONNECTION_REG = newRegValue;
 207:.\Generated_Source\PSoC4/Slider.c **** 			
 208:.\Generated_Source\PSoC4/Slider.c **** 			#if(Slider_CSH_TANK_PREGARGE_OPTION == Slider__CAPPRIOBUF)
 209:.\Generated_Source\PSoC4/Slider.c **** 				newRegValue = Slider_CTANK_PORT_PC_REG;
 210:.\Generated_Source\PSoC4/Slider.c **** 		        newRegValue &= ~(Slider_CSD_CTANK_PC_MASK);
 211:.\Generated_Source\PSoC4/Slider.c **** 				newRegValue |= Slider_CTANK_PC_STRONG_MODE;
 212:.\Generated_Source\PSoC4/Slider.c **** 		        Slider_CTANK_PORT_PC_REG = newRegValue;
 213:.\Generated_Source\PSoC4/Slider.c **** 				
 214:.\Generated_Source\PSoC4/Slider.c **** 				newRegValue = Slider_CTANK_PORT_DR_REG;
 215:.\Generated_Source\PSoC4/Slider.c **** 		        newRegValue &= ~(Slider_CTANK_DR_MASK);
 216:.\Generated_Source\PSoC4/Slider.c **** 				newRegValue |= Slider_CTANK_DR_CONFIG;
 217:.\Generated_Source\PSoC4/Slider.c **** 		        Slider_CTANK_PORT_DR_REG = newRegValue;
 218:.\Generated_Source\PSoC4/Slider.c **** 			#endif /* (Slider_CSH_TANK_PREGARGE_OPTION == Slider__CAPPRIOBUF) */
 219:.\Generated_Source\PSoC4/Slider.c **** 	        
 220:.\Generated_Source\PSoC4/Slider.c **** 		#endif /* ((Slider_CSH_TANK_PREGARGE_OPTION == Slider__CAPPRIOBUF) || (Slider_CSH_TANK_ENABLE)) *
 221:.\Generated_Source\PSoC4/Slider.c **** 		
 222:.\Generated_Source\PSoC4/Slider.c **** 		Slider_EnableShieldElectrode((uint32)Slider_SHIELD_PIN_NUMBER, (uint32)Slider_SHIELD_PORT_NUMBER)
 223:.\Generated_Source\PSoC4/Slider.c **** 		
 224:.\Generated_Source\PSoC4/Slider.c **** 	#endif /* (Slider_IS_SHIELD_ENABLE) */
 225:.\Generated_Source\PSoC4/Slider.c **** 	
 226:.\Generated_Source\PSoC4/Slider.c **** 	for(curSensor = 0u; curSensor < Slider_TOTAL_SENSOR_COUNT; curSensor++)
 227:.\Generated_Source\PSoC4/Slider.c **** 	{
 228:.\Generated_Source\PSoC4/Slider.c **** 		Slider_unscannedSnsDriveMode[curSensor] = Slider_CONNECT_INACTIVE_SNS;
 229:.\Generated_Source\PSoC4/Slider.c **** 	}
 230:.\Generated_Source\PSoC4/Slider.c ****     
 231:.\Generated_Source\PSoC4/Slider.c **** 	Slider_CsdHwBlockInit();
 232:.\Generated_Source\PSoC4/Slider.c ****     Slider_SetShieldDelay(Slider_SHIELD_DELAY );
 233:.\Generated_Source\PSoC4/Slider.c **** 	
 234:.\Generated_Source\PSoC4/Slider.c **** 	/* Clear all sensors */
 235:.\Generated_Source\PSoC4/Slider.c ****     Slider_ClearSensors();
 236:.\Generated_Source\PSoC4/Slider.c **** }
 237:.\Generated_Source\PSoC4/Slider.c **** 
 238:.\Generated_Source\PSoC4/Slider.c **** /*******************************************************************************
 239:.\Generated_Source\PSoC4/Slider.c **** * Function Name: Slider_CsdHwBlockInit
 240:.\Generated_Source\PSoC4/Slider.c **** ********************************************************************************
 241:.\Generated_Source\PSoC4/Slider.c **** *
 242:.\Generated_Source\PSoC4/Slider.c **** * Summary:
 243:.\Generated_Source\PSoC4/Slider.c **** *  Initialises the hardware parameters of the CSD block 
 244:.\Generated_Source\PSoC4/Slider.c **** *
 245:.\Generated_Source\PSoC4/Slider.c **** * Parameters:
 246:.\Generated_Source\PSoC4/Slider.c **** *  None
 247:.\Generated_Source\PSoC4/Slider.c **** *
 248:.\Generated_Source\PSoC4/Slider.c **** * Return:
 249:.\Generated_Source\PSoC4/Slider.c **** *  None
 250:.\Generated_Source\PSoC4/Slider.c **** *
 251:.\Generated_Source\PSoC4/Slider.c **** * Global Variables:
 252:.\Generated_Source\PSoC4/Slider.c **** *  Slider_csdTrim1 - Contains IDAC trim register value for Sourcing Mode.
 253:.\Generated_Source\PSoC4/Slider.c **** *  Slider_csdTrim2 - Contains IDAC trim register value for Sinking Mode.
 254:.\Generated_Source\PSoC4/Slider.c **** *
 255:.\Generated_Source\PSoC4/Slider.c **** * Side Effects:
 256:.\Generated_Source\PSoC4/Slider.c **** *  None
 257:.\Generated_Source\PSoC4/Slider.c **** * 
 258:.\Generated_Source\PSoC4/Slider.c **** *******************************************************************************/
 259:.\Generated_Source\PSoC4/Slider.c **** void Slider_CsdHwBlockInit(void)
 260:.\Generated_Source\PSoC4/Slider.c **** {
ARM GAS  C:\Users\ELECTR~1\AppData\Local\Temp\ccbbDBvf.s 			page 6


  26              		.loc 1 260 0
  27              		.cfi_startproc
  28 0000 38B5     		push	{r3, r4, r5, lr}
  29              		.cfi_def_cfa_offset 16
  30              		.cfi_offset 3, -16
  31              		.cfi_offset 4, -12
  32              		.cfi_offset 5, -8
  33              		.cfi_offset 14, -4
 261:.\Generated_Source\PSoC4/Slider.c **** 	uint32 newRegValue;
 262:.\Generated_Source\PSoC4/Slider.c **** 	
 263:.\Generated_Source\PSoC4/Slider.c **** 	    /* Set trim registers for CSD Mode */
 264:.\Generated_Source\PSoC4/Slider.c ****     #if (Slider_IDAC1_POLARITY == Slider__IDAC_SINK)
 265:.\Generated_Source\PSoC4/Slider.c **** 		/* iDAC1 Sinking Mode */ 
 266:.\Generated_Source\PSoC4/Slider.c **** 		Slider_csdTrim2 = (uint8)Slider_CSD_TRIM2_REG;
 267:.\Generated_Source\PSoC4/Slider.c **** 		newRegValue = Slider_csdTrim2;
 268:.\Generated_Source\PSoC4/Slider.c **** 		newRegValue &= Slider_CSD_IDAC1_TRIM_MASK;
 269:.\Generated_Source\PSoC4/Slider.c **** 		newRegValue |= (uint32)((uint32)Slider_SFLASH_CSD_TRIM2_REG & (uint32)Slider_CSFLASH_TRIM_IDAC1_M
 270:.\Generated_Source\PSoC4/Slider.c **** 		
 271:.\Generated_Source\PSoC4/Slider.c **** 		#if (Slider_IDAC_CNT == 2u)
 272:.\Generated_Source\PSoC4/Slider.c **** 		    /* iDAC2 Sinking Mode */ 
 273:.\Generated_Source\PSoC4/Slider.c **** 			newRegValue &= Slider_CSD_IDAC2_TRIM_MASK;
 274:.\Generated_Source\PSoC4/Slider.c **** 			newRegValue |= (uint32)((uint32)Slider_SFLASH_CSD_TRIM2_REG & (uint32)Slider_CSFLASH_TRIM_IDAC2_
 275:.\Generated_Source\PSoC4/Slider.c **** 		#endif /* (Slider_IDAC_CNT == 2u) */
 276:.\Generated_Source\PSoC4/Slider.c **** 		Slider_CSD_TRIM2_REG = newRegValue;
 277:.\Generated_Source\PSoC4/Slider.c ****     #else   
 278:.\Generated_Source\PSoC4/Slider.c **** 		/* iDAC1 Sourcing Mode */ 
 279:.\Generated_Source\PSoC4/Slider.c **** 		Slider_csdTrim1 = (uint8)Slider_CSD_TRIM1_REG;
  34              		.loc 1 279 0
  35 0002 164C     		ldr	r4, .L2
  36 0004 2368     		ldr	r3, [r4]
  37 0006 DBB2     		uxtb	r3, r3
  38 0008 154A     		ldr	r2, .L2+4
  39 000a 1370     		strb	r3, [r2]
  40              	.LVL0:
 280:.\Generated_Source\PSoC4/Slider.c **** 		newRegValue = Slider_csdTrim1;
 281:.\Generated_Source\PSoC4/Slider.c **** 		newRegValue &= Slider_CSD_IDAC1_TRIM_MASK;
  41              		.loc 1 281 0
  42 000c 0F20     		mov	r0, #15
  43 000e 8343     		bic	r3, r0
  44              	.LVL1:
  45 0010 191C     		mov	r1, r3
  46              	.LVL2:
 282:.\Generated_Source\PSoC4/Slider.c **** 		newRegValue |= (uint32)((uint32)Slider_SFLASH_CSD_TRIM1_REG & (uint32)Slider_CSFLASH_TRIM_IDAC1_M
  47              		.loc 1 282 0
  48 0012 144D     		ldr	r5, .L2+8
  49 0014 2A78     		ldrb	r2, [r5]
  50 0016 0F23     		mov	r3, #15
  51 0018 1340     		and	r3, r2
  52 001a 0B43     		orr	r3, r1
  53              	.LVL3:
 283:.\Generated_Source\PSoC4/Slider.c **** 		#if (Slider_IDAC_CNT == 2u)
 284:.\Generated_Source\PSoC4/Slider.c **** 		     /* iDAC2 Sourcing Mode */ 
 285:.\Generated_Source\PSoC4/Slider.c **** 			newRegValue &= Slider_CSD_IDAC2_TRIM_MASK;
  54              		.loc 1 285 0
  55 001c F022     		mov	r2, #240
  56 001e 9343     		bic	r3, r2
  57              	.LVL4:
ARM GAS  C:\Users\ELECTR~1\AppData\Local\Temp\ccbbDBvf.s 			page 7


  58 0020 1A1C     		mov	r2, r3
  59              	.LVL5:
 286:.\Generated_Source\PSoC4/Slider.c **** 			newRegValue |= (uint32)((uint32)Slider_SFLASH_CSD_TRIM1_REG & (uint32)Slider_CSFLASH_TRIM_IDAC2_
  60              		.loc 1 286 0
  61 0022 2B78     		ldrb	r3, [r5]
  62 0024 8343     		bic	r3, r0
  63 0026 1343     		orr	r3, r2
  64              	.LVL6:
 287:.\Generated_Source\PSoC4/Slider.c **** 		#endif		
 288:.\Generated_Source\PSoC4/Slider.c **** 		Slider_CSD_TRIM1_REG = newRegValue;
  65              		.loc 1 288 0
  66 0028 2360     		str	r3, [r4]
 289:.\Generated_Source\PSoC4/Slider.c ****     #endif /* (Slider_IDAC1_POLARITY == Slider__IDAC_SINK) */
 290:.\Generated_Source\PSoC4/Slider.c **** 	
 291:.\Generated_Source\PSoC4/Slider.c **** 	/* Configure CSD and IDAC */
 292:.\Generated_Source\PSoC4/Slider.c **** 	#if (Slider_IDAC_CNT > 1u)
 293:.\Generated_Source\PSoC4/Slider.c **** 		Slider_CSD_IDAC_REG = Slider_DEFAULT_CSD_IDAC_CONFIG;
  67              		.loc 1 293 0
  68 002a 0F4A     		ldr	r2, .L2+12
  69 002c 0F4B     		ldr	r3, .L2+16
  70              	.LVL7:
  71 002e 1A60     		str	r2, [r3]
  72              	.LVL8:
 294:.\Generated_Source\PSoC4/Slider.c **** 		Slider_CSD_CFG_REG = Slider_DEFAULT_CSD_CONFIG;
  73              		.loc 1 294 0
  74 0030 0F4A     		ldr	r2, .L2+20
  75 0032 104B     		ldr	r3, .L2+24
  76 0034 1A60     		str	r2, [r3]
 295:.\Generated_Source\PSoC4/Slider.c **** 	#else
 296:.\Generated_Source\PSoC4/Slider.c **** 		Slider_CSD_IDAC_REG &= ~(Slider_CSD_IDAC1_MODE_MASK  | Slider_CSD_IDAC1_DATA_MASK);
 297:.\Generated_Source\PSoC4/Slider.c **** 		Slider_CSD_IDAC_REG |= Slider_DEFAULT_CSD_IDAC_CONFIG;
 298:.\Generated_Source\PSoC4/Slider.c **** 		
 299:.\Generated_Source\PSoC4/Slider.c **** 		Slider_CSD_CFG_REG &= ~(Slider_CSD_CONFIG_MASK);
 300:.\Generated_Source\PSoC4/Slider.c **** 		Slider_CSD_CFG_REG |= (Slider_DEFAULT_CSD_CONFIG);
 301:.\Generated_Source\PSoC4/Slider.c **** 	#endif /* (Slider_IDAC_CNT > 1u) */
 302:.\Generated_Source\PSoC4/Slider.c **** 	
 303:.\Generated_Source\PSoC4/Slider.c **** 	
 304:.\Generated_Source\PSoC4/Slider.c **** 	/* Connect Cmod to AMUX bus */ 
 305:.\Generated_Source\PSoC4/Slider.c **** 	newRegValue = Slider_CMOD_CONNECTION_REG; 
  77              		.loc 1 305 0
  78 0036 1049     		ldr	r1, .L2+28
  79 0038 0B68     		ldr	r3, [r1]
  80              	.LVL9:
 306:.\Generated_Source\PSoC4/Slider.c ****     newRegValue &= ~(Slider_CSD_CMOD_CONNECTION_MASK);
  81              		.loc 1 306 0
  82 003a 8343     		bic	r3, r0
  83              	.LVL10:
 307:.\Generated_Source\PSoC4/Slider.c ****     newRegValue |= Slider_CSD_CMOD_TO_AMUXBUS_A;
  84              		.loc 1 307 0
  85 003c 0622     		mov	r2, #6
  86 003e 1343     		orr	r3, r2
  87              	.LVL11:
 308:.\Generated_Source\PSoC4/Slider.c ****     Slider_CMOD_CONNECTION_REG = newRegValue;
  88              		.loc 1 308 0
  89 0040 0B60     		str	r3, [r1]
 309:.\Generated_Source\PSoC4/Slider.c **** 	
 310:.\Generated_Source\PSoC4/Slider.c **** 	/* Configure Dead Band PWM if it is enabled */
ARM GAS  C:\Users\ELECTR~1\AppData\Local\Temp\ccbbDBvf.s 			page 8


 311:.\Generated_Source\PSoC4/Slider.c **** 	#if(Slider_CSD_4B_PWM_MODE != Slider__PWM_OFF)
 312:.\Generated_Source\PSoC4/Slider.c **** 		Slider_CSD_4B_PWM_REG = Slider_DEFAULT_CSD_4B_PWM_CONFIG;
 313:.\Generated_Source\PSoC4/Slider.c **** 	#endif /* (Slider_CSD_4B_PWM_MODE != Slider__PWM_OFF) */
 314:.\Generated_Source\PSoC4/Slider.c **** 
 315:.\Generated_Source\PSoC4/Slider.c **** 	/* Setup ISR */
 316:.\Generated_Source\PSoC4/Slider.c **** 	CyIntDisable(Slider_ISR_NUMBER);
  90              		.loc 1 316 0
  91 0042 0130     		add	r0, r0, #1
  92 0044 FFF7FEFF 		bl	CyIntDisable
  93              	.LVL12:
 317:.\Generated_Source\PSoC4/Slider.c **** 	#if !defined(CY_EXTERNAL_INTERRUPT_CONFIG)		
 318:.\Generated_Source\PSoC4/Slider.c **** 	    (void)CyIntSetVector(Slider_ISR_NUMBER, &Slider_ISR);
  94              		.loc 1 318 0
  95 0048 1020     		mov	r0, #16
  96 004a 0C49     		ldr	r1, .L2+32
  97 004c FFF7FEFF 		bl	CyIntSetVector
  98              	.LVL13:
 319:.\Generated_Source\PSoC4/Slider.c **** 	    CyIntSetPriority(Slider_ISR_NUMBER, Slider_ISR_PRIORITY);
  99              		.loc 1 319 0
 100 0050 1020     		mov	r0, #16
 101 0052 0321     		mov	r1, #3
 102 0054 FFF7FEFF 		bl	CyIntSetPriority
 103              	.LVL14:
 320:.\Generated_Source\PSoC4/Slider.c **** 	#endif /* (CY_EXTERNAL_INTERRUPT_CONFIG) */
 321:.\Generated_Source\PSoC4/Slider.c **** }
 104              		.loc 1 321 0
 105              		@ sp needed
 106 0058 38BD     		pop	{r3, r4, r5, pc}
 107              	.L3:
 108 005a C046     		.align	2
 109              	.L2:
 110 005c 00FF2840 		.word	1076428544
 111 0060 00000000 		.word	Slider_csdTrim1
 112 0064 62F1FF0F 		.word	268431714
 113 0068 00020001 		.word	16777728
 114 006c 08002840 		.word	1076363272
 115 0070 0008A001 		.word	27265024
 116 0074 04002840 		.word	1076363268
 117 0078 00040240 		.word	1073873920
 118 007c 00000000 		.word	Slider_ISR
 119              		.cfi_endproc
 120              	.LFE36:
 121              		.size	Slider_CsdHwBlockInit, .-Slider_CsdHwBlockInit
 122              		.section	.text.Slider_Enable,"ax",%progbits
 123              		.align	2
 124              		.global	Slider_Enable
 125              		.code	16
 126              		.thumb_func
 127              		.type	Slider_Enable, %function
 128              	Slider_Enable:
 129              	.LFB37:
 322:.\Generated_Source\PSoC4/Slider.c **** 
 323:.\Generated_Source\PSoC4/Slider.c **** 
 324:.\Generated_Source\PSoC4/Slider.c **** /*******************************************************************************
 325:.\Generated_Source\PSoC4/Slider.c **** * Function Name: Slider_Enable
 326:.\Generated_Source\PSoC4/Slider.c **** ********************************************************************************
 327:.\Generated_Source\PSoC4/Slider.c **** *
ARM GAS  C:\Users\ELECTR~1\AppData\Local\Temp\ccbbDBvf.s 			page 9


 328:.\Generated_Source\PSoC4/Slider.c **** * Summary:
 329:.\Generated_Source\PSoC4/Slider.c **** *  Enables the CSD block and related resources to an active mode.
 330:.\Generated_Source\PSoC4/Slider.c **** *
 331:.\Generated_Source\PSoC4/Slider.c **** * Parameters:
 332:.\Generated_Source\PSoC4/Slider.c **** *  None
 333:.\Generated_Source\PSoC4/Slider.c **** *
 334:.\Generated_Source\PSoC4/Slider.c **** * Return:
 335:.\Generated_Source\PSoC4/Slider.c **** *  None
 336:.\Generated_Source\PSoC4/Slider.c **** *
 337:.\Generated_Source\PSoC4/Slider.c **** * Global Variables:
 338:.\Generated_Source\PSoC4/Slider.c **** *  None.
 339:.\Generated_Source\PSoC4/Slider.c **** *
 340:.\Generated_Source\PSoC4/Slider.c **** * Side Effects:
 341:.\Generated_Source\PSoC4/Slider.c **** *  None
 342:.\Generated_Source\PSoC4/Slider.c **** * 
 343:.\Generated_Source\PSoC4/Slider.c **** *******************************************************************************/
 344:.\Generated_Source\PSoC4/Slider.c **** void Slider_Enable(void)
 345:.\Generated_Source\PSoC4/Slider.c **** {
 130              		.loc 1 345 0
 131              		.cfi_startproc
 132 0000 08B5     		push	{r3, lr}
 133              		.cfi_def_cfa_offset 8
 134              		.cfi_offset 3, -8
 135              		.cfi_offset 14, -4
 346:.\Generated_Source\PSoC4/Slider.c ****     uint32 newRegValue;
 347:.\Generated_Source\PSoC4/Slider.c ****     
 348:.\Generated_Source\PSoC4/Slider.c ****     /* Enable Clocks */
 349:.\Generated_Source\PSoC4/Slider.c **** 	Slider_SenseClk_Stop();
 136              		.loc 1 349 0
 137 0002 FFF7FEFF 		bl	Slider_SenseClk_Stop
 138              	.LVL15:
 350:.\Generated_Source\PSoC4/Slider.c **** 	Slider_SampleClk_Stop();
 139              		.loc 1 350 0
 140 0006 FFF7FEFF 		bl	Slider_SampleClk_Stop
 141              	.LVL16:
 351:.\Generated_Source\PSoC4/Slider.c **** 	
 352:.\Generated_Source\PSoC4/Slider.c **** 	Slider_SampleClk_SetDividerValue((uint16)Slider_INITIAL_CLK_DIVIDER);
 142              		.loc 1 352 0
 143 000a 0020     		mov	r0, #0
 144 000c 0021     		mov	r1, #0
 145 000e FFF7FEFF 		bl	Slider_SampleClk_SetFractionalDividerRegister
 146              	.LVL17:
 353:.\Generated_Source\PSoC4/Slider.c **** 	Slider_SenseClk_SetDividerValue((uint16)Slider_INITIAL_CLK_DIVIDER);
 147              		.loc 1 353 0
 148 0012 0020     		mov	r0, #0
 149 0014 0021     		mov	r1, #0
 150 0016 FFF7FEFF 		bl	Slider_SenseClk_SetFractionalDividerRegister
 151              	.LVL18:
 354:.\Generated_Source\PSoC4/Slider.c **** 	
 355:.\Generated_Source\PSoC4/Slider.c **** 	#if (0u == Slider_IS_M0S8PERI_BLOCK)
 356:.\Generated_Source\PSoC4/Slider.c **** 		Slider_SenseClk_Start();
 357:.\Generated_Source\PSoC4/Slider.c **** 		Slider_SampleClk_Start();
 358:.\Generated_Source\PSoC4/Slider.c **** 	#else
 359:.\Generated_Source\PSoC4/Slider.c **** 		Slider_SampleClk_Start();
 152              		.loc 1 359 0
 153 001a FF20     		mov	r0, #255
 154 001c FFF7FEFF 		bl	Slider_SampleClk_StartEx
ARM GAS  C:\Users\ELECTR~1\AppData\Local\Temp\ccbbDBvf.s 			page 10


 155              	.LVL19:
 360:.\Generated_Source\PSoC4/Slider.c **** 		Slider_SenseClk_StartEx(Slider_SampleClk__DIV_ID);
 156              		.loc 1 360 0
 157 0020 4020     		mov	r0, #64
 158 0022 FFF7FEFF 		bl	Slider_SenseClk_StartEx
 159              	.LVL20:
 361:.\Generated_Source\PSoC4/Slider.c **** 	#endif /* (0u == Slider_IS_M0S8PERI_BLOCK) */
 362:.\Generated_Source\PSoC4/Slider.c **** 	
 363:.\Generated_Source\PSoC4/Slider.c **** 	/* Enable the CSD block */
 364:.\Generated_Source\PSoC4/Slider.c ****     newRegValue = Slider_CSD_CFG_REG;
 160              		.loc 1 364 0
 161 0026 044A     		ldr	r2, .L5
 162 0028 1368     		ldr	r3, [r2]
 163              	.LVL21:
 365:.\Generated_Source\PSoC4/Slider.c ****     newRegValue |= (Slider_CSD_CFG_ENABLE | Slider_CSD_CFG_SENSE_COMP_EN 
 164              		.loc 1 365 0
 165 002a 0449     		ldr	r1, .L5+4
 166 002c 0B43     		orr	r3, r1
 167              	.LVL22:
 366:.\Generated_Source\PSoC4/Slider.c ****                                                    | Slider_CSD_CFG_SENSE_EN);    
 367:.\Generated_Source\PSoC4/Slider.c ****     Slider_CSD_CFG_REG = newRegValue;
 168              		.loc 1 367 0
 169 002e 1360     		str	r3, [r2]
 368:.\Generated_Source\PSoC4/Slider.c **** 
 369:.\Generated_Source\PSoC4/Slider.c ****     /* Enable interrupt */
 370:.\Generated_Source\PSoC4/Slider.c ****     CyIntEnable(Slider_ISR_NUMBER);
 170              		.loc 1 370 0
 171 0030 1020     		mov	r0, #16
 172 0032 FFF7FEFF 		bl	CyIntEnable
 173              	.LVL23:
 371:.\Generated_Source\PSoC4/Slider.c **** }
 174              		.loc 1 371 0
 175              		@ sp needed
 176 0036 08BD     		pop	{r3, pc}
 177              	.L6:
 178              		.align	2
 179              	.L5:
 180 0038 04002840 		.word	1076363268
 181 003c 00100880 		.word	-2146955264
 182              		.cfi_endproc
 183              	.LFE37:
 184              		.size	Slider_Enable, .-Slider_Enable
 185              		.section	.text.Slider_Stop,"ax",%progbits
 186              		.align	2
 187              		.global	Slider_Stop
 188              		.code	16
 189              		.thumb_func
 190              		.type	Slider_Stop, %function
 191              	Slider_Stop:
 192              	.LFB39:
 372:.\Generated_Source\PSoC4/Slider.c **** 
 373:.\Generated_Source\PSoC4/Slider.c **** 
 374:.\Generated_Source\PSoC4/Slider.c **** /*******************************************************************************
 375:.\Generated_Source\PSoC4/Slider.c **** * Function Name: Slider_Start
 376:.\Generated_Source\PSoC4/Slider.c **** ********************************************************************************
 377:.\Generated_Source\PSoC4/Slider.c **** *
 378:.\Generated_Source\PSoC4/Slider.c **** * Summary:
ARM GAS  C:\Users\ELECTR~1\AppData\Local\Temp\ccbbDBvf.s 			page 11


 379:.\Generated_Source\PSoC4/Slider.c **** *  This is the preferred method to begin the component operation. CapSense_Start() 
 380:.\Generated_Source\PSoC4/Slider.c **** *  calls the CapSense_Init() function, and then calls the CapSense_Enable() 
 381:.\Generated_Source\PSoC4/Slider.c **** *  function. Initializes the registers and starts the CSD method of the CapSense 
 382:.\Generated_Source\PSoC4/Slider.c **** *  component. Resets all the sensors to an inactive state. Enables interrupts for 
 383:.\Generated_Source\PSoC4/Slider.c **** *  sensors scanning. When the SmartSense tuning mode is selected, the tuning procedure
 384:.\Generated_Source\PSoC4/Slider.c **** *  is applied for all the sensors. The CapSense_Start() routine must be called before 
 385:.\Generated_Source\PSoC4/Slider.c **** *  any other API routines.
 386:.\Generated_Source\PSoC4/Slider.c **** *
 387:.\Generated_Source\PSoC4/Slider.c **** * Parameters:
 388:.\Generated_Source\PSoC4/Slider.c **** *  None
 389:.\Generated_Source\PSoC4/Slider.c **** *
 390:.\Generated_Source\PSoC4/Slider.c **** * Return:
 391:.\Generated_Source\PSoC4/Slider.c **** *  None
 392:.\Generated_Source\PSoC4/Slider.c **** *
 393:.\Generated_Source\PSoC4/Slider.c **** * Global Variables:
 394:.\Generated_Source\PSoC4/Slider.c **** *   Slider_initVar - used to check the initial configuration, 
 395:.\Generated_Source\PSoC4/Slider.c **** *   modified on the first function call.
 396:.\Generated_Source\PSoC4/Slider.c **** *  Slider_lowLevelTuningDone - Used to notify the Tuner GUI that 
 397:.\Generated_Source\PSoC4/Slider.c **** *   tuning of the scanning parameters is done. 
 398:.\Generated_Source\PSoC4/Slider.c **** *
 399:.\Generated_Source\PSoC4/Slider.c **** * Side Effects:
 400:.\Generated_Source\PSoC4/Slider.c **** *  None
 401:.\Generated_Source\PSoC4/Slider.c **** * 
 402:.\Generated_Source\PSoC4/Slider.c **** *******************************************************************************/
 403:.\Generated_Source\PSoC4/Slider.c **** void Slider_Start(void)
 404:.\Generated_Source\PSoC4/Slider.c **** {
 405:.\Generated_Source\PSoC4/Slider.c **** 
 406:.\Generated_Source\PSoC4/Slider.c **** 	static uint8 Slider_initVar = 0u;
 407:.\Generated_Source\PSoC4/Slider.c **** 
 408:.\Generated_Source\PSoC4/Slider.c **** 	#if((0u != Slider_AUTOCALIBRATION_ENABLE) && (Slider_TUNING_METHOD != Slider__TUNING_AUTO))
 409:.\Generated_Source\PSoC4/Slider.c **** 		uint32 curSensor;
 410:.\Generated_Source\PSoC4/Slider.c **** 		uint32 rawLevel;
 411:.\Generated_Source\PSoC4/Slider.c **** 		uint32 widget;
 412:.\Generated_Source\PSoC4/Slider.c ****     #endif /* ((0u != Slider_AUTOCALIBRATION_ENABLE) && (Slider_TUNING_METHOD != Slider__TUNING_AUT
 413:.\Generated_Source\PSoC4/Slider.c **** 	
 414:.\Generated_Source\PSoC4/Slider.c ****     if (Slider_initVar == 0u)
 415:.\Generated_Source\PSoC4/Slider.c ****     {
 416:.\Generated_Source\PSoC4/Slider.c ****         Slider_Init();
 417:.\Generated_Source\PSoC4/Slider.c ****         Slider_initVar = 1u;
 418:.\Generated_Source\PSoC4/Slider.c ****     }
 419:.\Generated_Source\PSoC4/Slider.c ****     Slider_Enable();
 420:.\Generated_Source\PSoC4/Slider.c **** 	
 421:.\Generated_Source\PSoC4/Slider.c ****     /* AutoTunning start */
 422:.\Generated_Source\PSoC4/Slider.c ****     #if(Slider_TUNING_METHOD == Slider__TUNING_AUTO)
 423:.\Generated_Source\PSoC4/Slider.c **** 		#if(0u != Slider_CSHL_API_GENERATE)
 424:.\Generated_Source\PSoC4/Slider.c **** 	        Slider_AutoTune();
 425:.\Generated_Source\PSoC4/Slider.c **** 	        Slider_lowLevelTuningDone = 1u;
 426:.\Generated_Source\PSoC4/Slider.c **** 		#endif /* (0u != Slider_CSHL_API_GENERATE) */
 427:.\Generated_Source\PSoC4/Slider.c **** 	#else
 428:.\Generated_Source\PSoC4/Slider.c **** 		#if(0u != Slider_AUTOCALIBRATION_ENABLE)
 429:.\Generated_Source\PSoC4/Slider.c **** 			
 430:.\Generated_Source\PSoC4/Slider.c **** 			#if(Slider_IDAC_CNT > 1u)
 431:.\Generated_Source\PSoC4/Slider.c **** 				Slider_CSD_IDAC_REG &= ~(Slider_CSD_IDAC2_MODE_MASK);	
 432:.\Generated_Source\PSoC4/Slider.c **** 			#endif /* (Slider_IDAC_CNT > 1u) */
 433:.\Generated_Source\PSoC4/Slider.c **** 			
 434:.\Generated_Source\PSoC4/Slider.c **** 			for(curSensor = 0u; curSensor < Slider_TOTAL_SCANSLOT_COUNT; curSensor++)
 435:.\Generated_Source\PSoC4/Slider.c **** 			{
ARM GAS  C:\Users\ELECTR~1\AppData\Local\Temp\ccbbDBvf.s 			page 12


 436:.\Generated_Source\PSoC4/Slider.c **** 				widget = Slider_widgetNumber[curSensor];
 437:.\Generated_Source\PSoC4/Slider.c **** 				rawLevel = Slider_widgetResolution[widget] >> Slider_RESOLUTION_OFFSET;
 438:.\Generated_Source\PSoC4/Slider.c **** 				
 439:.\Generated_Source\PSoC4/Slider.c **** 				/* Calibration level should be equal to 85% from scanning resolution */
 440:.\Generated_Source\PSoC4/Slider.c **** 				rawLevel = (rawLevel * 85u) / 100u;
 441:.\Generated_Source\PSoC4/Slider.c **** 				
 442:.\Generated_Source\PSoC4/Slider.c **** 				Slider_CalibrateSensor(curSensor, rawLevel, Slider_modulationIDAC);
 443:.\Generated_Source\PSoC4/Slider.c **** 			}
 444:.\Generated_Source\PSoC4/Slider.c **** 
 445:.\Generated_Source\PSoC4/Slider.c **** 			#if(0u != Slider_TOTAL_CENTROIDS_COUNT) 
 446:.\Generated_Source\PSoC4/Slider.c **** 				Slider_NormalizeWidgets(Slider_END_OF_WIDGETS_INDEX, Slider_modulationIDAC);
 447:.\Generated_Source\PSoC4/Slider.c **** 			#endif /* (0u != Slider_TOTAL_CENTROIDS_COUNT)  */
 448:.\Generated_Source\PSoC4/Slider.c **** 
 449:.\Generated_Source\PSoC4/Slider.c **** 			#if(Slider_IDAC_CNT > 1u)
 450:.\Generated_Source\PSoC4/Slider.c **** 				for(curSensor = 0u; curSensor < Slider_TOTAL_SCANSLOT_COUNT; curSensor++)
 451:.\Generated_Source\PSoC4/Slider.c **** 			    {
 452:.\Generated_Source\PSoC4/Slider.c **** 					Slider_compensationIDAC[curSensor] = Slider_modulationIDAC[curSensor] / 2u;
 453:.\Generated_Source\PSoC4/Slider.c **** 					Slider_modulationIDAC[curSensor] = (Slider_modulationIDAC[curSensor] + 1u) / 2u;
 454:.\Generated_Source\PSoC4/Slider.c **** 			    }
 455:.\Generated_Source\PSoC4/Slider.c **** 				Slider_CSD_IDAC_REG |= Slider_CSD_IDAC2_MODE_FIXED;
 456:.\Generated_Source\PSoC4/Slider.c **** 			#endif /* (Slider_IDAC_CNT > 1u) */
 457:.\Generated_Source\PSoC4/Slider.c **** 			
 458:.\Generated_Source\PSoC4/Slider.c ****         #endif /* (0u != Slider_AUTOCALIBRATION_ENABLE) */ 
 459:.\Generated_Source\PSoC4/Slider.c **** 					
 460:.\Generated_Source\PSoC4/Slider.c ****     #endif /* ((Slider_TUNING_METHOD == Slider__TUNING_AUTO) */	
 461:.\Generated_Source\PSoC4/Slider.c **** 	
 462:.\Generated_Source\PSoC4/Slider.c **** 	/* Initialize Advanced Centroid */
 463:.\Generated_Source\PSoC4/Slider.c **** 	#if(Slider_TOTAL_TRACKPAD_GESTURES_COUNT > 0u)
 464:.\Generated_Source\PSoC4/Slider.c **** 		Slider_AdvancedCentroidInit();
 465:.\Generated_Source\PSoC4/Slider.c **** 	#endif /* (Slider_TOTAL_TRACKPAD_GESTURES_COUNT > 0u) */
 466:.\Generated_Source\PSoC4/Slider.c **** 	
 467:.\Generated_Source\PSoC4/Slider.c **** 	/* Connect sense comparator input to AMUXA */
 468:.\Generated_Source\PSoC4/Slider.c **** 	Slider_CSD_CFG_REG |= Slider_CSD_CFG_SENSE_INSEL;
 469:.\Generated_Source\PSoC4/Slider.c **** }
 470:.\Generated_Source\PSoC4/Slider.c **** 
 471:.\Generated_Source\PSoC4/Slider.c **** 
 472:.\Generated_Source\PSoC4/Slider.c **** /*******************************************************************************
 473:.\Generated_Source\PSoC4/Slider.c **** * Function Name: Slider_Stop
 474:.\Generated_Source\PSoC4/Slider.c **** ********************************************************************************
 475:.\Generated_Source\PSoC4/Slider.c **** *
 476:.\Generated_Source\PSoC4/Slider.c **** * Summary:
 477:.\Generated_Source\PSoC4/Slider.c **** *  Stops the sensor scanning, disables component interrupts, and resets all the 
 478:.\Generated_Source\PSoC4/Slider.c **** *  sensors to an inactive state. Disables the Active mode power template bits for
 479:.\Generated_Source\PSoC4/Slider.c **** *  the subcomponents used within CapSense.
 480:.\Generated_Source\PSoC4/Slider.c **** *
 481:.\Generated_Source\PSoC4/Slider.c **** * Parameters:
 482:.\Generated_Source\PSoC4/Slider.c **** *  None
 483:.\Generated_Source\PSoC4/Slider.c **** *
 484:.\Generated_Source\PSoC4/Slider.c **** * Return:
 485:.\Generated_Source\PSoC4/Slider.c **** *  None
 486:.\Generated_Source\PSoC4/Slider.c **** *
 487:.\Generated_Source\PSoC4/Slider.c **** * Global Variables:
 488:.\Generated_Source\PSoC4/Slider.c **** *  Slider_csdTrim1 - Contains the IDAC trim register value for the Sourcing Mode.
 489:.\Generated_Source\PSoC4/Slider.c **** *  Slider_csdTrim2 - Contains the IDAC trim register value for vSinking Mode.
 490:.\Generated_Source\PSoC4/Slider.c **** *
 491:.\Generated_Source\PSoC4/Slider.c **** * Side Effects:
 492:.\Generated_Source\PSoC4/Slider.c **** *  This function should be called after scans are completed.
ARM GAS  C:\Users\ELECTR~1\AppData\Local\Temp\ccbbDBvf.s 			page 13


 493:.\Generated_Source\PSoC4/Slider.c **** *
 494:.\Generated_Source\PSoC4/Slider.c **** *******************************************************************************/
 495:.\Generated_Source\PSoC4/Slider.c **** void Slider_Stop(void)
 496:.\Generated_Source\PSoC4/Slider.c **** {
 193              		.loc 1 496 0
 194              		.cfi_startproc
 195 0000 08B5     		push	{r3, lr}
 196              		.cfi_def_cfa_offset 8
 197              		.cfi_offset 3, -8
 198              		.cfi_offset 14, -4
 497:.\Generated_Source\PSoC4/Slider.c ****     /* Disable interrupt */
 498:.\Generated_Source\PSoC4/Slider.c ****     CyIntDisable(Slider_ISR_NUMBER);
 199              		.loc 1 498 0
 200 0002 1020     		mov	r0, #16
 201 0004 FFF7FEFF 		bl	CyIntDisable
 202              	.LVL24:
 499:.\Generated_Source\PSoC4/Slider.c **** 	
 500:.\Generated_Source\PSoC4/Slider.c **** 	Slider_CSD_CFG_REG &= ~(Slider_CSD_CFG_SENSE_COMP_EN | Slider_CSD_CFG_SENSE_EN);
 203              		.loc 1 500 0
 204 0008 064A     		ldr	r2, .L8
 205 000a 1168     		ldr	r1, [r2]
 206 000c 064B     		ldr	r3, .L8+4
 207 000e 0B40     		and	r3, r1
 208 0010 1360     		str	r3, [r2]
 501:.\Generated_Source\PSoC4/Slider.c **** 	
 502:.\Generated_Source\PSoC4/Slider.c **** 	#if(Slider_IDAC_CNT == 2u)
 503:.\Generated_Source\PSoC4/Slider.c **** 		Slider_CSD_CFG_REG &= ~(Slider_CSD_CFG_ENABLE);
 209              		.loc 1 503 0
 210 0012 1368     		ldr	r3, [r2]
 211 0014 5B00     		lsl	r3, r3, #1
 212 0016 5B08     		lsr	r3, r3, #1
 213 0018 1360     		str	r3, [r2]
 504:.\Generated_Source\PSoC4/Slider.c **** 	#endif /* (Slider_IDAC_CNT == 2u) */
 505:.\Generated_Source\PSoC4/Slider.c **** 
 506:.\Generated_Source\PSoC4/Slider.c ****     /* Disable the Clocks */
 507:.\Generated_Source\PSoC4/Slider.c ****     Slider_SenseClk_Stop();
 214              		.loc 1 507 0
 215 001a FFF7FEFF 		bl	Slider_SenseClk_Stop
 216              	.LVL25:
 508:.\Generated_Source\PSoC4/Slider.c ****     Slider_SampleClk_Stop();
 217              		.loc 1 508 0
 218 001e FFF7FEFF 		bl	Slider_SampleClk_Stop
 219              	.LVL26:
 509:.\Generated_Source\PSoC4/Slider.c **** }
 220              		.loc 1 509 0
 221              		@ sp needed
 222 0022 08BD     		pop	{r3, pc}
 223              	.L9:
 224              		.align	2
 225              	.L8:
 226 0024 04002840 		.word	1076363268
 227 0028 FFEFF7FF 		.word	-528385
 228              		.cfi_endproc
 229              	.LFE39:
 230              		.size	Slider_Stop, .-Slider_Stop
 231              		.section	.text.Slider_IsBusy,"ax",%progbits
 232              		.align	2
ARM GAS  C:\Users\ELECTR~1\AppData\Local\Temp\ccbbDBvf.s 			page 14


 233              		.global	Slider_IsBusy
 234              		.code	16
 235              		.thumb_func
 236              		.type	Slider_IsBusy, %function
 237              	Slider_IsBusy:
 238              	.LFB44:
 510:.\Generated_Source\PSoC4/Slider.c **** 
 511:.\Generated_Source\PSoC4/Slider.c **** 
 512:.\Generated_Source\PSoC4/Slider.c **** /*******************************************************************************
 513:.\Generated_Source\PSoC4/Slider.c **** * Function Name: Slider_FindNextSensor
 514:.\Generated_Source\PSoC4/Slider.c **** ********************************************************************************
 515:.\Generated_Source\PSoC4/Slider.c **** *
 516:.\Generated_Source\PSoC4/Slider.c **** * Summary:
 517:.\Generated_Source\PSoC4/Slider.c **** *  Finds the next sensor to scan. 
 518:.\Generated_Source\PSoC4/Slider.c **** *
 519:.\Generated_Source\PSoC4/Slider.c **** * Parameters:
 520:.\Generated_Source\PSoC4/Slider.c **** *  snsIndex:  Current index of sensor.
 521:.\Generated_Source\PSoC4/Slider.c **** *
 522:.\Generated_Source\PSoC4/Slider.c **** * Return:
 523:.\Generated_Source\PSoC4/Slider.c **** *  Returns the next sensor index to scan.
 524:.\Generated_Source\PSoC4/Slider.c **** *
 525:.\Generated_Source\PSoC4/Slider.c **** * Global Variables:
 526:.\Generated_Source\PSoC4/Slider.c **** *  Slider_sensorEnableMask[] - used to store bit masks of the enabled sensors.
 527:.\Generated_Source\PSoC4/Slider.c **** *
 528:.\Generated_Source\PSoC4/Slider.c **** * Side Effects:
 529:.\Generated_Source\PSoC4/Slider.c **** *  This function affects the  current scanning and should not
 530:.\Generated_Source\PSoC4/Slider.c **** *  be used outside the component.
 531:.\Generated_Source\PSoC4/Slider.c **** *
 532:.\Generated_Source\PSoC4/Slider.c **** *******************************************************************************/
 533:.\Generated_Source\PSoC4/Slider.c **** uint8 Slider_FindNextSensor(uint8 snsIndex)
 534:.\Generated_Source\PSoC4/Slider.c **** {
 535:.\Generated_Source\PSoC4/Slider.c ****     uint32 enableFlag;
 536:.\Generated_Source\PSoC4/Slider.c ****     
 537:.\Generated_Source\PSoC4/Slider.c ****     /* Check if sensor enabled */
 538:.\Generated_Source\PSoC4/Slider.c ****     do
 539:.\Generated_Source\PSoC4/Slider.c ****     {
 540:.\Generated_Source\PSoC4/Slider.c ****         /* Proceed with next sensor */
 541:.\Generated_Source\PSoC4/Slider.c ****         snsIndex++;
 542:.\Generated_Source\PSoC4/Slider.c ****         if(snsIndex == Slider_TOTAL_SENSOR_COUNT)
 543:.\Generated_Source\PSoC4/Slider.c ****         {
 544:.\Generated_Source\PSoC4/Slider.c ****             break;
 545:.\Generated_Source\PSoC4/Slider.c ****         }
 546:.\Generated_Source\PSoC4/Slider.c ****         enableFlag = Slider_GetBitValue(Slider_sensorEnableMask, (uint32)snsIndex);
 547:.\Generated_Source\PSoC4/Slider.c ****     }    
 548:.\Generated_Source\PSoC4/Slider.c ****     while(enableFlag == 0u);
 549:.\Generated_Source\PSoC4/Slider.c ****     
 550:.\Generated_Source\PSoC4/Slider.c ****     return ((uint8)snsIndex);
 551:.\Generated_Source\PSoC4/Slider.c **** }
 552:.\Generated_Source\PSoC4/Slider.c **** 
 553:.\Generated_Source\PSoC4/Slider.c **** 
 554:.\Generated_Source\PSoC4/Slider.c **** /*******************************************************************************
 555:.\Generated_Source\PSoC4/Slider.c **** * Function Name: Slider_ScanSensor
 556:.\Generated_Source\PSoC4/Slider.c **** ********************************************************************************
 557:.\Generated_Source\PSoC4/Slider.c **** *
 558:.\Generated_Source\PSoC4/Slider.c **** * Summary:
 559:.\Generated_Source\PSoC4/Slider.c **** *  Sets the scan settings and starts scanning a sensor. After scanning is complete,
 560:.\Generated_Source\PSoC4/Slider.c **** *  the ISR copies the measured sensor raw data to the global raw sensor array. 
ARM GAS  C:\Users\ELECTR~1\AppData\Local\Temp\ccbbDBvf.s 			page 15


 561:.\Generated_Source\PSoC4/Slider.c **** *  Use of the ISR ensures this function is non-blocking. 
 562:.\Generated_Source\PSoC4/Slider.c **** *  Each sensor has a unique number within the sensor array. 
 563:.\Generated_Source\PSoC4/Slider.c **** *  This number is assigned by the CapSense customizer in sequence.
 564:.\Generated_Source\PSoC4/Slider.c **** *
 565:.\Generated_Source\PSoC4/Slider.c **** * Parameters:
 566:.\Generated_Source\PSoC4/Slider.c **** *  sensor:  Sensor number.
 567:.\Generated_Source\PSoC4/Slider.c **** *
 568:.\Generated_Source\PSoC4/Slider.c **** * Return:
 569:.\Generated_Source\PSoC4/Slider.c **** *  None
 570:.\Generated_Source\PSoC4/Slider.c **** *
 571:.\Generated_Source\PSoC4/Slider.c **** * Global Variables:
 572:.\Generated_Source\PSoC4/Slider.c **** *  Slider_csdStatusVar - used to provide the status and mode of the scanning process. 
 573:.\Generated_Source\PSoC4/Slider.c **** *  Sets the busy status(scan in progress) and mode of scan as single scan.
 574:.\Generated_Source\PSoC4/Slider.c **** *  Slider_sensorIndex - used to store a sensor scanning sensor number.
 575:.\Generated_Source\PSoC4/Slider.c **** *  Sets to the provided sensor argument.
 576:.\Generated_Source\PSoC4/Slider.c **** *
 577:.\Generated_Source\PSoC4/Slider.c **** * Side Effects:
 578:.\Generated_Source\PSoC4/Slider.c **** *  None
 579:.\Generated_Source\PSoC4/Slider.c **** * 
 580:.\Generated_Source\PSoC4/Slider.c **** *******************************************************************************/
 581:.\Generated_Source\PSoC4/Slider.c **** void Slider_ScanSensor(uint32 sensor)
 582:.\Generated_Source\PSoC4/Slider.c **** {
 583:.\Generated_Source\PSoC4/Slider.c ****     /* Clears status/control variable and set sensorIndex */
 584:.\Generated_Source\PSoC4/Slider.c ****     Slider_csdStatusVar = 0u;
 585:.\Generated_Source\PSoC4/Slider.c ****     Slider_sensorIndex = (uint8)sensor;
 586:.\Generated_Source\PSoC4/Slider.c ****     
 587:.\Generated_Source\PSoC4/Slider.c ****     /* Start of sensor scan */
 588:.\Generated_Source\PSoC4/Slider.c ****     Slider_csdStatusVar = (Slider_SW_STS_BUSY | Slider_SW_CTRL_SINGLE_SCAN);
 589:.\Generated_Source\PSoC4/Slider.c ****     Slider_PreScan(sensor);
 590:.\Generated_Source\PSoC4/Slider.c **** }
 591:.\Generated_Source\PSoC4/Slider.c **** 
 592:.\Generated_Source\PSoC4/Slider.c **** 
 593:.\Generated_Source\PSoC4/Slider.c **** #if(0u != Slider_CSHL_API_GENERATE)
 594:.\Generated_Source\PSoC4/Slider.c **** /*******************************************************************************
 595:.\Generated_Source\PSoC4/Slider.c **** * Function Name: Slider_ScanWidget
 596:.\Generated_Source\PSoC4/Slider.c **** ********************************************************************************
 597:.\Generated_Source\PSoC4/Slider.c **** *
 598:.\Generated_Source\PSoC4/Slider.c **** * Summary:
 599:.\Generated_Source\PSoC4/Slider.c **** *  Sets the scan settings and starts scanning a widget.
 600:.\Generated_Source\PSoC4/Slider.c **** *
 601:.\Generated_Source\PSoC4/Slider.c **** * Parameters:
 602:.\Generated_Source\PSoC4/Slider.c **** *  uint32 widget: Widget number.
 603:.\Generated_Source\PSoC4/Slider.c **** *
 604:.\Generated_Source\PSoC4/Slider.c **** * Return:
 605:.\Generated_Source\PSoC4/Slider.c **** *  None
 606:.\Generated_Source\PSoC4/Slider.c **** *
 607:.\Generated_Source\PSoC4/Slider.c **** * Global Variables:
 608:.\Generated_Source\PSoC4/Slider.c **** *  Slider_csdStatusVar - used to provide the status and mode of the scanning process. 
 609:.\Generated_Source\PSoC4/Slider.c **** *  Sets the busy status(scan in progress) and clears the single scan mode.
 610:.\Generated_Source\PSoC4/Slider.c **** *  Slider_sensorIndex - used to store a sensor scanning sensor number.
 611:.\Generated_Source\PSoC4/Slider.c **** *  Sets to 0xFF and provided to function Slider_FindNextSensor or
 612:.\Generated_Source\PSoC4/Slider.c **** *  Slider_sensorEnableMask[] - used to store bit masks of the enabled sensors.
 613:.\Generated_Source\PSoC4/Slider.c **** *  Slider_sensorEnableMaskBackup[] - used to backup bit masks of the enabled
 614:.\Generated_Source\PSoC4/Slider.c **** *   sensors.
 615:.\Generated_Source\PSoC4/Slider.c **** *
 616:.\Generated_Source\PSoC4/Slider.c **** * Side Effects:
 617:.\Generated_Source\PSoC4/Slider.c **** *  None
ARM GAS  C:\Users\ELECTR~1\AppData\Local\Temp\ccbbDBvf.s 			page 16


 618:.\Generated_Source\PSoC4/Slider.c **** * 
 619:.\Generated_Source\PSoC4/Slider.c **** *******************************************************************************/
 620:.\Generated_Source\PSoC4/Slider.c **** void Slider_ScanWidget(uint32 widget)
 621:.\Generated_Source\PSoC4/Slider.c **** {
 622:.\Generated_Source\PSoC4/Slider.c ****     uint32 sensorsPerWidget;
 623:.\Generated_Source\PSoC4/Slider.c ****     uint32 lastSensor;
 624:.\Generated_Source\PSoC4/Slider.c ****     uint32 snsIndex;
 625:.\Generated_Source\PSoC4/Slider.c **** 
 626:.\Generated_Source\PSoC4/Slider.c **** 	/* Get first sensor in widget */
 627:.\Generated_Source\PSoC4/Slider.c **** 	Slider_sensorIndex = Slider_rawDataIndex[widget];
 628:.\Generated_Source\PSoC4/Slider.c **** 	
 629:.\Generated_Source\PSoC4/Slider.c **** 	/* Get number of sensors in widget */
 630:.\Generated_Source\PSoC4/Slider.c **** 	sensorsPerWidget = Slider_numberOfSensors[widget];
 631:.\Generated_Source\PSoC4/Slider.c **** 	
 632:.\Generated_Source\PSoC4/Slider.c **** 	/* Check if generic Sensor */
 633:.\Generated_Source\PSoC4/Slider.c **** 	if(sensorsPerWidget == 0u)
 634:.\Generated_Source\PSoC4/Slider.c **** 	{
 635:.\Generated_Source\PSoC4/Slider.c **** 		sensorsPerWidget = 1u;
 636:.\Generated_Source\PSoC4/Slider.c **** 	}
 637:.\Generated_Source\PSoC4/Slider.c **** 	
 638:.\Generated_Source\PSoC4/Slider.c **** 	/* Get last sensor in widget */
 639:.\Generated_Source\PSoC4/Slider.c **** 	lastSensor = (Slider_rawDataIndex[widget] + sensorsPerWidget) - 1u;
 640:.\Generated_Source\PSoC4/Slider.c **** 
 641:.\Generated_Source\PSoC4/Slider.c **** 	/* Backup sensorEnableMask array */
 642:.\Generated_Source\PSoC4/Slider.c **** 	for(snsIndex = 0u; snsIndex < Slider_TOTAL_SENSOR_MASK; snsIndex++)
 643:.\Generated_Source\PSoC4/Slider.c **** 	{
 644:.\Generated_Source\PSoC4/Slider.c **** 		/* Backup sensorEnableMask array */
 645:.\Generated_Source\PSoC4/Slider.c **** 		Slider_sensorEnableMaskBackup[snsIndex] = Slider_sensorEnableMask[snsIndex];
 646:.\Generated_Source\PSoC4/Slider.c **** 	}
 647:.\Generated_Source\PSoC4/Slider.c **** 
 648:.\Generated_Source\PSoC4/Slider.c **** 	/* Update sensorEnableMask to scan the sensors that belong to widget */
 649:.\Generated_Source\PSoC4/Slider.c **** 	for(snsIndex = 0u; snsIndex < Slider_TOTAL_SENSOR_COUNT; snsIndex++)
 650:.\Generated_Source\PSoC4/Slider.c **** 	{
 651:.\Generated_Source\PSoC4/Slider.c **** 		/* Update sensorEnableMask array bits to scan the widget only */ 
 652:.\Generated_Source\PSoC4/Slider.c **** 	    if((snsIndex >= Slider_sensorIndex) && (snsIndex <= lastSensor))
 653:.\Generated_Source\PSoC4/Slider.c **** 		{
 654:.\Generated_Source\PSoC4/Slider.c **** 		    /* Set sensor bit to scan */
 655:.\Generated_Source\PSoC4/Slider.c **** 			Slider_SetBitValue(Slider_sensorEnableMask, snsIndex, 1u);
 656:.\Generated_Source\PSoC4/Slider.c **** 		}
 657:.\Generated_Source\PSoC4/Slider.c **** 		else
 658:.\Generated_Source\PSoC4/Slider.c **** 		{
 659:.\Generated_Source\PSoC4/Slider.c **** 		    /* Reset sensor bit to do not scan */
 660:.\Generated_Source\PSoC4/Slider.c **** 		    Slider_SetBitValue(Slider_sensorEnableMask, snsIndex, 0u);
 661:.\Generated_Source\PSoC4/Slider.c **** 		}
 662:.\Generated_Source\PSoC4/Slider.c **** 	}
 663:.\Generated_Source\PSoC4/Slider.c **** 
 664:.\Generated_Source\PSoC4/Slider.c ****     /* Check end of scan condition */
 665:.\Generated_Source\PSoC4/Slider.c ****     if(Slider_sensorIndex < Slider_TOTAL_SENSOR_COUNT)
 666:.\Generated_Source\PSoC4/Slider.c ****     {
 667:.\Generated_Source\PSoC4/Slider.c **** 		/* Set widget busy bit in status/control variable*/ 
 668:.\Generated_Source\PSoC4/Slider.c **** 		Slider_csdStatusVar = (Slider_SW_STS_BUSY | Slider_SW_CTRL_WIDGET_SCAN);
 669:.\Generated_Source\PSoC4/Slider.c **** 		/* Scan first sensor of widget*/ 
 670:.\Generated_Source\PSoC4/Slider.c ****         Slider_PreScan((uint32)Slider_sensorIndex);
 671:.\Generated_Source\PSoC4/Slider.c ****     }
 672:.\Generated_Source\PSoC4/Slider.c **** }
 673:.\Generated_Source\PSoC4/Slider.c **** #endif /* (0u != Slider_CSHL_API_GENERATE) */
 674:.\Generated_Source\PSoC4/Slider.c **** 
ARM GAS  C:\Users\ELECTR~1\AppData\Local\Temp\ccbbDBvf.s 			page 17


 675:.\Generated_Source\PSoC4/Slider.c **** 
 676:.\Generated_Source\PSoC4/Slider.c **** /*******************************************************************************
 677:.\Generated_Source\PSoC4/Slider.c **** * Function Name: Slider_ScanEnableWidgets
 678:.\Generated_Source\PSoC4/Slider.c **** ********************************************************************************
 679:.\Generated_Source\PSoC4/Slider.c **** *
 680:.\Generated_Source\PSoC4/Slider.c **** * Summary:
 681:.\Generated_Source\PSoC4/Slider.c **** *  This is the preferred method to scan all of the enabled widgets. 
 682:.\Generated_Source\PSoC4/Slider.c **** *  The API starts scanning a sensor within the enabled widgets. 
 683:.\Generated_Source\PSoC4/Slider.c **** *  The ISR continues scanning the sensors until all the enabled widgets are scanned. 
 684:.\Generated_Source\PSoC4/Slider.c **** *  Use of the ISR ensures this function is non-blocking.
 685:.\Generated_Source\PSoC4/Slider.c **** *  All the widgets are enabled by default except proximity widgets. 
 686:.\Generated_Source\PSoC4/Slider.c **** *  The proximity widgets must be manually enabled as their long scan time 
 687:.\Generated_Source\PSoC4/Slider.c **** *  is incompatible with a fast response required of other widget types.
 688:.\Generated_Source\PSoC4/Slider.c **** *
 689:.\Generated_Source\PSoC4/Slider.c **** * Parameters:
 690:.\Generated_Source\PSoC4/Slider.c **** *  None
 691:.\Generated_Source\PSoC4/Slider.c **** *
 692:.\Generated_Source\PSoC4/Slider.c **** * Return:
 693:.\Generated_Source\PSoC4/Slider.c **** *  None
 694:.\Generated_Source\PSoC4/Slider.c **** *
 695:.\Generated_Source\PSoC4/Slider.c **** * Global Variables:
 696:.\Generated_Source\PSoC4/Slider.c **** *  Slider_csdStatusVar - used to provide the status and mode of the scanning process. 
 697:.\Generated_Source\PSoC4/Slider.c **** *  Sets the busy status(scan in progress) and clears the single scan mode.
 698:.\Generated_Source\PSoC4/Slider.c **** *  Slider_sensorIndex - used to store a sensor scanning sensor number.
 699:.\Generated_Source\PSoC4/Slider.c **** *  Sets to 0xFF and provided to function Slider_FindNextSensor or
 700:.\Generated_Source\PSoC4/Slider.c **** *
 701:.\Generated_Source\PSoC4/Slider.c **** * Side Effects:
 702:.\Generated_Source\PSoC4/Slider.c **** *  None
 703:.\Generated_Source\PSoC4/Slider.c **** * 
 704:.\Generated_Source\PSoC4/Slider.c **** *******************************************************************************/
 705:.\Generated_Source\PSoC4/Slider.c **** void Slider_ScanEnabledWidgets(void)
 706:.\Generated_Source\PSoC4/Slider.c **** {
 707:.\Generated_Source\PSoC4/Slider.c ****     /* Clears status/control variable and set sensorIndex */
 708:.\Generated_Source\PSoC4/Slider.c ****     Slider_csdStatusVar = 0u;
 709:.\Generated_Source\PSoC4/Slider.c ****     Slider_sensorIndex = 0xFFu;
 710:.\Generated_Source\PSoC4/Slider.c ****     
 711:.\Generated_Source\PSoC4/Slider.c ****     /* Find next sensor */
 712:.\Generated_Source\PSoC4/Slider.c ****     Slider_sensorIndex = (uint8)Slider_FindNextSensor(Slider_sensorIndex);
 713:.\Generated_Source\PSoC4/Slider.c **** 
 714:.\Generated_Source\PSoC4/Slider.c ****     /* Check end of scan condition */
 715:.\Generated_Source\PSoC4/Slider.c ****     if(Slider_sensorIndex < Slider_TOTAL_SENSOR_COUNT)
 716:.\Generated_Source\PSoC4/Slider.c ****     {
 717:.\Generated_Source\PSoC4/Slider.c ****         Slider_csdStatusVar |= Slider_SW_STS_BUSY;
 718:.\Generated_Source\PSoC4/Slider.c ****         Slider_PreScan((uint32)Slider_sensorIndex);
 719:.\Generated_Source\PSoC4/Slider.c ****     }
 720:.\Generated_Source\PSoC4/Slider.c **** }
 721:.\Generated_Source\PSoC4/Slider.c **** 
 722:.\Generated_Source\PSoC4/Slider.c **** 
 723:.\Generated_Source\PSoC4/Slider.c **** /*******************************************************************************
 724:.\Generated_Source\PSoC4/Slider.c **** * Function Name: Slider_IsBusy
 725:.\Generated_Source\PSoC4/Slider.c **** ********************************************************************************
 726:.\Generated_Source\PSoC4/Slider.c **** *
 727:.\Generated_Source\PSoC4/Slider.c **** * Summary:
 728:.\Generated_Source\PSoC4/Slider.c **** *  Returns the state of the CapSense component. 1 means that scanning in 
 729:.\Generated_Source\PSoC4/Slider.c **** *  progress and 0 means that scanning is complete.
 730:.\Generated_Source\PSoC4/Slider.c **** *
 731:.\Generated_Source\PSoC4/Slider.c **** * Parameters:
ARM GAS  C:\Users\ELECTR~1\AppData\Local\Temp\ccbbDBvf.s 			page 18


 732:.\Generated_Source\PSoC4/Slider.c **** *  None
 733:.\Generated_Source\PSoC4/Slider.c **** *
 734:.\Generated_Source\PSoC4/Slider.c **** * Return:
 735:.\Generated_Source\PSoC4/Slider.c **** *  Returns the state of scanning. 1 - scanning in progress, 0 - scanning 
 736:.\Generated_Source\PSoC4/Slider.c **** *  completed.
 737:.\Generated_Source\PSoC4/Slider.c **** *
 738:.\Generated_Source\PSoC4/Slider.c **** * Global Variables:
 739:.\Generated_Source\PSoC4/Slider.c **** *  Slider_csdStatusVar - used to provide the status and mode of the scanning process. 
 740:.\Generated_Source\PSoC4/Slider.c **** *  Checks the busy status.
 741:.\Generated_Source\PSoC4/Slider.c **** *
 742:.\Generated_Source\PSoC4/Slider.c **** * Side Effects:
 743:.\Generated_Source\PSoC4/Slider.c **** *  None
 744:.\Generated_Source\PSoC4/Slider.c **** * 
 745:.\Generated_Source\PSoC4/Slider.c **** *******************************************************************************/
 746:.\Generated_Source\PSoC4/Slider.c **** uint32 Slider_IsBusy(void)
 747:.\Generated_Source\PSoC4/Slider.c **** {
 239              		.loc 1 747 0
 240              		.cfi_startproc
 748:.\Generated_Source\PSoC4/Slider.c ****     return ((uint32)((0u != (Slider_csdStatusVar & Slider_SW_STS_BUSY)) ? 1u : 0u));
 241              		.loc 1 748 0
 242 0000 024B     		ldr	r3, .L11
 243 0002 1878     		ldrb	r0, [r3]
 244 0004 0123     		mov	r3, #1
 245 0006 1840     		and	r0, r3
 749:.\Generated_Source\PSoC4/Slider.c **** }
 246              		.loc 1 749 0
 247              		@ sp needed
 248 0008 7047     		bx	lr
 249              	.L12:
 250 000a C046     		.align	2
 251              	.L11:
 252 000c 00000000 		.word	.LANCHOR0
 253              		.cfi_endproc
 254              	.LFE44:
 255              		.size	Slider_IsBusy, .-Slider_IsBusy
 256              		.section	.text.Slider_ReadSensorRaw,"ax",%progbits
 257              		.align	2
 258              		.global	Slider_ReadSensorRaw
 259              		.code	16
 260              		.thumb_func
 261              		.type	Slider_ReadSensorRaw, %function
 262              	Slider_ReadSensorRaw:
 263              	.LFB45:
 750:.\Generated_Source\PSoC4/Slider.c **** 
 751:.\Generated_Source\PSoC4/Slider.c **** 
 752:.\Generated_Source\PSoC4/Slider.c **** /*******************************************************************************
 753:.\Generated_Source\PSoC4/Slider.c **** * Function Name: Slider_ReadSensorRaw
 754:.\Generated_Source\PSoC4/Slider.c **** ********************************************************************************
 755:.\Generated_Source\PSoC4/Slider.c **** *
 756:.\Generated_Source\PSoC4/Slider.c **** * Summary:
 757:.\Generated_Source\PSoC4/Slider.c **** *  Returns sensor raw data from the global CapSense_sensorRaw[ ] array. 
 758:.\Generated_Source\PSoC4/Slider.c **** *  Each scan sensor has a unique number within the sensor array. 
 759:.\Generated_Source\PSoC4/Slider.c **** *  This number is assigned by the CapSense customizer in sequence. 
 760:.\Generated_Source\PSoC4/Slider.c **** *  Raw data can be used to perform calculations outside of the CapSense 
 761:.\Generated_Source\PSoC4/Slider.c **** *  provided framework.
 762:.\Generated_Source\PSoC4/Slider.c **** *
 763:.\Generated_Source\PSoC4/Slider.c **** * Parameters:
ARM GAS  C:\Users\ELECTR~1\AppData\Local\Temp\ccbbDBvf.s 			page 19


 764:.\Generated_Source\PSoC4/Slider.c **** *  sensor:  Sensor number.
 765:.\Generated_Source\PSoC4/Slider.c **** *
 766:.\Generated_Source\PSoC4/Slider.c **** * Return:
 767:.\Generated_Source\PSoC4/Slider.c **** *  Returns the current raw data value for a defined sensor number.
 768:.\Generated_Source\PSoC4/Slider.c **** *
 769:.\Generated_Source\PSoC4/Slider.c **** * Global Variables:
 770:.\Generated_Source\PSoC4/Slider.c **** *  Slider_sensorRaw[] - used to store sensors raw data.
 771:.\Generated_Source\PSoC4/Slider.c **** *
 772:.\Generated_Source\PSoC4/Slider.c **** * Side Effects: 
 773:.\Generated_Source\PSoC4/Slider.c **** *  None
 774:.\Generated_Source\PSoC4/Slider.c **** *
 775:.\Generated_Source\PSoC4/Slider.c **** *******************************************************************************/
 776:.\Generated_Source\PSoC4/Slider.c **** uint16 Slider_ReadSensorRaw(uint32 sensor)
 777:.\Generated_Source\PSoC4/Slider.c **** {
 264              		.loc 1 777 0
 265              		.cfi_startproc
 266              	.LVL27:
 778:.\Generated_Source\PSoC4/Slider.c ****     return Slider_sensorRaw[sensor];
 267              		.loc 1 778 0
 268 0000 4000     		lsl	r0, r0, #1
 269              	.LVL28:
 270 0002 024B     		ldr	r3, .L14
 271 0004 1818     		add	r0, r3, r0
 272 0006 8088     		ldrh	r0, [r0, #4]
 779:.\Generated_Source\PSoC4/Slider.c **** }
 273              		.loc 1 779 0
 274              		@ sp needed
 275 0008 7047     		bx	lr
 276              	.L15:
 277 000a C046     		.align	2
 278              	.L14:
 279 000c 00000000 		.word	.LANCHOR0
 280              		.cfi_endproc
 281              	.LFE45:
 282              		.size	Slider_ReadSensorRaw, .-Slider_ReadSensorRaw
 283              		.section	.text.Slider_WriteSensorRaw,"ax",%progbits
 284              		.align	2
 285              		.global	Slider_WriteSensorRaw
 286              		.code	16
 287              		.thumb_func
 288              		.type	Slider_WriteSensorRaw, %function
 289              	Slider_WriteSensorRaw:
 290              	.LFB46:
 780:.\Generated_Source\PSoC4/Slider.c **** 
 781:.\Generated_Source\PSoC4/Slider.c **** 
 782:.\Generated_Source\PSoC4/Slider.c **** /*******************************************************************************
 783:.\Generated_Source\PSoC4/Slider.c **** * Function Name: Slider_WriteSensorRaw
 784:.\Generated_Source\PSoC4/Slider.c **** ********************************************************************************
 785:.\Generated_Source\PSoC4/Slider.c **** *
 786:.\Generated_Source\PSoC4/Slider.c **** * Summary:
 787:.\Generated_Source\PSoC4/Slider.c **** *  This API writes the raw count value passed as an argument to the sensor Raw count array.
 788:.\Generated_Source\PSoC4/Slider.c **** *
 789:.\Generated_Source\PSoC4/Slider.c **** * Parameters:
 790:.\Generated_Source\PSoC4/Slider.c **** *  sensor:  Sensor number.
 791:.\Generated_Source\PSoC4/Slider.c **** *  value: Raw count value.
 792:.\Generated_Source\PSoC4/Slider.c **** *
 793:.\Generated_Source\PSoC4/Slider.c **** * Global Variables:
ARM GAS  C:\Users\ELECTR~1\AppData\Local\Temp\ccbbDBvf.s 			page 20


 794:.\Generated_Source\PSoC4/Slider.c **** *  Slider_sensorRaw[] - used to store sensors raw data.
 795:.\Generated_Source\PSoC4/Slider.c **** *
 796:.\Generated_Source\PSoC4/Slider.c **** * Return:
 797:.\Generated_Source\PSoC4/Slider.c **** *  None
 798:.\Generated_Source\PSoC4/Slider.c **** *
 799:.\Generated_Source\PSoC4/Slider.c **** * Side Effects: 
 800:.\Generated_Source\PSoC4/Slider.c **** *  None
 801:.\Generated_Source\PSoC4/Slider.c **** *
 802:.\Generated_Source\PSoC4/Slider.c **** *******************************************************************************/
 803:.\Generated_Source\PSoC4/Slider.c **** void Slider_WriteSensorRaw(uint32 sensor, uint16 value)
 804:.\Generated_Source\PSoC4/Slider.c **** {
 291              		.loc 1 804 0
 292              		.cfi_startproc
 293              	.LVL29:
 805:.\Generated_Source\PSoC4/Slider.c **** 	Slider_sensorRaw[sensor] = value;
 294              		.loc 1 805 0
 295 0000 4000     		lsl	r0, r0, #1
 296              	.LVL30:
 297 0002 024B     		ldr	r3, .L17
 298 0004 1818     		add	r0, r3, r0
 299 0006 8180     		strh	r1, [r0, #4]
 806:.\Generated_Source\PSoC4/Slider.c **** }
 300              		.loc 1 806 0
 301              		@ sp needed
 302 0008 7047     		bx	lr
 303              	.L18:
 304 000a C046     		.align	2
 305              	.L17:
 306 000c 00000000 		.word	.LANCHOR0
 307              		.cfi_endproc
 308              	.LFE46:
 309              		.size	Slider_WriteSensorRaw, .-Slider_WriteSensorRaw
 310              		.section	.text.Slider_SetScanResolution,"ax",%progbits
 311              		.align	2
 312              		.global	Slider_SetScanResolution
 313              		.code	16
 314              		.thumb_func
 315              		.type	Slider_SetScanResolution, %function
 316              	Slider_SetScanResolution:
 317              	.LFB47:
 807:.\Generated_Source\PSoC4/Slider.c **** 
 808:.\Generated_Source\PSoC4/Slider.c **** 
 809:.\Generated_Source\PSoC4/Slider.c **** #if (Slider_TUNING_METHOD != Slider__TUNING_NONE)
 810:.\Generated_Source\PSoC4/Slider.c **** 	/*******************************************************************************
 811:.\Generated_Source\PSoC4/Slider.c **** 	* Function Name: Slider_SetScanResolution
 812:.\Generated_Source\PSoC4/Slider.c **** 	********************************************************************************
 813:.\Generated_Source\PSoC4/Slider.c **** 	*
 814:.\Generated_Source\PSoC4/Slider.c **** 	* Summary:
 815:.\Generated_Source\PSoC4/Slider.c **** 	*  Sets a value of the sensor scan resolution for a widget. 
 816:.\Generated_Source\PSoC4/Slider.c **** 	*  The MIN resolution can be set 8-bit. The MAX Resolution can be set 16 bit.
 817:.\Generated_Source\PSoC4/Slider.c **** 	*  This function is not available for the tuning mode "None".
 818:.\Generated_Source\PSoC4/Slider.c **** 	*
 819:.\Generated_Source\PSoC4/Slider.c **** 	* Parameters:
 820:.\Generated_Source\PSoC4/Slider.c **** 	*  widget:     Widget index.
 821:.\Generated_Source\PSoC4/Slider.c **** 	*  resolution: Represents the resolution value. The following defines which are available in the
 822:.\Generated_Source\PSoC4/Slider.c **** 	*			   Slider.h file should be used:
 823:.\Generated_Source\PSoC4/Slider.c **** 	*			   Slider_RESOLUTION_6_BITS
ARM GAS  C:\Users\ELECTR~1\AppData\Local\Temp\ccbbDBvf.s 			page 21


 824:.\Generated_Source\PSoC4/Slider.c **** 	*			   Slider_RESOLUTION_7_BITS
 825:.\Generated_Source\PSoC4/Slider.c **** 	*			   Slider_RESOLUTION_8_BITS
 826:.\Generated_Source\PSoC4/Slider.c **** 	*			   Slider_RESOLUTION_9_BITS
 827:.\Generated_Source\PSoC4/Slider.c **** 	*			   Slider_RESOLUTION_10_BITS
 828:.\Generated_Source\PSoC4/Slider.c **** 	*			   Slider_RESOLUTION_11_BITS
 829:.\Generated_Source\PSoC4/Slider.c **** 	*			   Slider_RESOLUTION_12_BITS
 830:.\Generated_Source\PSoC4/Slider.c **** 	*			   Slider_RESOLUTION_13_BITS
 831:.\Generated_Source\PSoC4/Slider.c **** 	*			   Slider_RESOLUTION_14_BITS
 832:.\Generated_Source\PSoC4/Slider.c **** 	*			   Slider_RESOLUTION_15_BITS
 833:.\Generated_Source\PSoC4/Slider.c **** 	*			   Slider_RESOLUTION_16_BITS
 834:.\Generated_Source\PSoC4/Slider.c **** 	*
 835:.\Generated_Source\PSoC4/Slider.c **** 	* Return:
 836:.\Generated_Source\PSoC4/Slider.c **** 	*  None
 837:.\Generated_Source\PSoC4/Slider.c **** 	*
 838:.\Generated_Source\PSoC4/Slider.c **** 	* Global Variables:
 839:.\Generated_Source\PSoC4/Slider.c **** 	*  Slider_widgetResolution[] - used to store scan resolution of each widget.
 840:.\Generated_Source\PSoC4/Slider.c **** 	*
 841:.\Generated_Source\PSoC4/Slider.c **** 	* Side Effects: 
 842:.\Generated_Source\PSoC4/Slider.c **** 	*  None
 843:.\Generated_Source\PSoC4/Slider.c **** 	*
 844:.\Generated_Source\PSoC4/Slider.c **** 	*******************************************************************************/
 845:.\Generated_Source\PSoC4/Slider.c **** 	void Slider_SetScanResolution(uint32 widget, uint32 resolution)
 846:.\Generated_Source\PSoC4/Slider.c **** 	{ 
 318              		.loc 1 846 0
 319              		.cfi_startproc
 320              	.LVL31:
 847:.\Generated_Source\PSoC4/Slider.c ****         Slider_widgetResolution[widget] = resolution;
 321              		.loc 1 847 0
 322 0000 8000     		lsl	r0, r0, #2
 323              	.LVL32:
 324 0002 014B     		ldr	r3, .L20
 325 0004 C150     		str	r1, [r0, r3]
 848:.\Generated_Source\PSoC4/Slider.c **** 	}
 326              		.loc 1 848 0
 327              		@ sp needed
 328 0006 7047     		bx	lr
 329              	.L21:
 330              		.align	2
 331              	.L20:
 332 0008 00000000 		.word	.LANCHOR1
 333              		.cfi_endproc
 334              	.LFE47:
 335              		.size	Slider_SetScanResolution, .-Slider_SetScanResolution
 336              		.section	.text.Slider_GetScanResolution,"ax",%progbits
 337              		.align	2
 338              		.global	Slider_GetScanResolution
 339              		.code	16
 340              		.thumb_func
 341              		.type	Slider_GetScanResolution, %function
 342              	Slider_GetScanResolution:
 343              	.LFB48:
 849:.\Generated_Source\PSoC4/Slider.c **** #endif /* (Slider_TUNING_METHOD != Slider__TUNING_NONE) */
 850:.\Generated_Source\PSoC4/Slider.c **** 
 851:.\Generated_Source\PSoC4/Slider.c **** 
 852:.\Generated_Source\PSoC4/Slider.c **** /*******************************************************************************
 853:.\Generated_Source\PSoC4/Slider.c **** * Function Name: Slider_GetScanResolution
 854:.\Generated_Source\PSoC4/Slider.c **** ********************************************************************************
ARM GAS  C:\Users\ELECTR~1\AppData\Local\Temp\ccbbDBvf.s 			page 22


 855:.\Generated_Source\PSoC4/Slider.c **** *
 856:.\Generated_Source\PSoC4/Slider.c **** * Summary:
 857:.\Generated_Source\PSoC4/Slider.c **** *  Returns the resolution value for the appropriate sensor.
 858:.\Generated_Source\PSoC4/Slider.c **** *  This function is not available for tuning mode "None".
 859:.\Generated_Source\PSoC4/Slider.c **** *
 860:.\Generated_Source\PSoC4/Slider.c **** * Parameters:
 861:.\Generated_Source\PSoC4/Slider.c **** *  widget:     Widget index.
 862:.\Generated_Source\PSoC4/Slider.c **** *
 863:.\Generated_Source\PSoC4/Slider.c **** * Return:
 864:.\Generated_Source\PSoC4/Slider.c **** *  resolution: Returns the resolution value for the appropriate sensor. 
 865:.\Generated_Source\PSoC4/Slider.c **** *              The resolution values are defined in the Slider.h file 
 866:.\Generated_Source\PSoC4/Slider.c **** *              The defines are encountered below:
 867:.\Generated_Source\PSoC4/Slider.c **** *			   Slider_RESOLUTION_6_BITS
 868:.\Generated_Source\PSoC4/Slider.c **** *			   Slider_RESOLUTION_7_BITS
 869:.\Generated_Source\PSoC4/Slider.c **** *			   Slider_RESOLUTION_8_BITS
 870:.\Generated_Source\PSoC4/Slider.c **** *			   Slider_RESOLUTION_9_BITS
 871:.\Generated_Source\PSoC4/Slider.c **** *			   Slider_RESOLUTION_10_BITS
 872:.\Generated_Source\PSoC4/Slider.c **** *			   Slider_RESOLUTION_11_BITS
 873:.\Generated_Source\PSoC4/Slider.c **** *			   Slider_RESOLUTION_12_BITS
 874:.\Generated_Source\PSoC4/Slider.c **** *			   Slider_RESOLUTION_13_BITS
 875:.\Generated_Source\PSoC4/Slider.c **** *			   Slider_RESOLUTION_14_BITS
 876:.\Generated_Source\PSoC4/Slider.c **** *			   Slider_RESOLUTION_15_BITS
 877:.\Generated_Source\PSoC4/Slider.c **** *			   Slider_RESOLUTION_16_BITS
 878:.\Generated_Source\PSoC4/Slider.c **** *
 879:.\Generated_Source\PSoC4/Slider.c **** * Global Variables:
 880:.\Generated_Source\PSoC4/Slider.c **** *  Slider_widgetResolution[] - used to store scan resolution of every widget.
 881:.\Generated_Source\PSoC4/Slider.c **** *
 882:.\Generated_Source\PSoC4/Slider.c **** * Side Effects: 
 883:.\Generated_Source\PSoC4/Slider.c **** *  None
 884:.\Generated_Source\PSoC4/Slider.c **** *
 885:.\Generated_Source\PSoC4/Slider.c **** *******************************************************************************/
 886:.\Generated_Source\PSoC4/Slider.c **** uint32 Slider_GetScanResolution(uint32 widget)
 887:.\Generated_Source\PSoC4/Slider.c **** {
 344              		.loc 1 887 0
 345              		.cfi_startproc
 346              	.LVL33:
 888:.\Generated_Source\PSoC4/Slider.c **** 	return(Slider_widgetResolution[widget]);
 347              		.loc 1 888 0
 348 0000 8000     		lsl	r0, r0, #2
 349              	.LVL34:
 350 0002 014B     		ldr	r3, .L23
 351 0004 C058     		ldr	r0, [r0, r3]
 889:.\Generated_Source\PSoC4/Slider.c **** }
 352              		.loc 1 889 0
 353              		@ sp needed
 354 0006 7047     		bx	lr
 355              	.L24:
 356              		.align	2
 357              	.L23:
 358 0008 00000000 		.word	.LANCHOR1
 359              		.cfi_endproc
 360              	.LFE48:
 361              		.size	Slider_GetScanResolution, .-Slider_GetScanResolution
 362              		.section	.text.Slider_EnableSensor,"ax",%progbits
 363              		.align	2
 364              		.global	Slider_EnableSensor
 365              		.code	16
ARM GAS  C:\Users\ELECTR~1\AppData\Local\Temp\ccbbDBvf.s 			page 23


 366              		.thumb_func
 367              		.type	Slider_EnableSensor, %function
 368              	Slider_EnableSensor:
 369              	.LFB50:
 890:.\Generated_Source\PSoC4/Slider.c **** 
 891:.\Generated_Source\PSoC4/Slider.c **** 
 892:.\Generated_Source\PSoC4/Slider.c **** /*******************************************************************************
 893:.\Generated_Source\PSoC4/Slider.c **** * Function Name: Slider_ClearSensors
 894:.\Generated_Source\PSoC4/Slider.c **** ********************************************************************************
 895:.\Generated_Source\PSoC4/Slider.c **** *
 896:.\Generated_Source\PSoC4/Slider.c **** * Summary:
 897:.\Generated_Source\PSoC4/Slider.c **** *  Resets all the sensors to the non-sampling state by sequentially disconnecting
 898:.\Generated_Source\PSoC4/Slider.c **** *  all the sensors from Analog MUX Bus and putting them to an inactive state.
 899:.\Generated_Source\PSoC4/Slider.c **** *
 900:.\Generated_Source\PSoC4/Slider.c **** * Parameters:
 901:.\Generated_Source\PSoC4/Slider.c **** *  None
 902:.\Generated_Source\PSoC4/Slider.c **** *
 903:.\Generated_Source\PSoC4/Slider.c **** * Return:
 904:.\Generated_Source\PSoC4/Slider.c **** *  None
 905:.\Generated_Source\PSoC4/Slider.c **** *
 906:.\Generated_Source\PSoC4/Slider.c **** * Global Variables:
 907:.\Generated_Source\PSoC4/Slider.c **** *  None
 908:.\Generated_Source\PSoC4/Slider.c **** *
 909:.\Generated_Source\PSoC4/Slider.c **** * Side Effects: 
 910:.\Generated_Source\PSoC4/Slider.c **** *  None
 911:.\Generated_Source\PSoC4/Slider.c **** *
 912:.\Generated_Source\PSoC4/Slider.c **** *******************************************************************************/
 913:.\Generated_Source\PSoC4/Slider.c **** void Slider_ClearSensors(void)
 914:.\Generated_Source\PSoC4/Slider.c **** {
 915:.\Generated_Source\PSoC4/Slider.c **** 	uint32 snsIndex;
 916:.\Generated_Source\PSoC4/Slider.c **** 	
 917:.\Generated_Source\PSoC4/Slider.c ****     for (snsIndex = 0u; snsIndex < Slider_TOTAL_SENSOR_COUNT; snsIndex++)
 918:.\Generated_Source\PSoC4/Slider.c ****     {
 919:.\Generated_Source\PSoC4/Slider.c ****         Slider_DisableScanSlot(snsIndex);
 920:.\Generated_Source\PSoC4/Slider.c ****     }
 921:.\Generated_Source\PSoC4/Slider.c **** }
 922:.\Generated_Source\PSoC4/Slider.c **** 
 923:.\Generated_Source\PSoC4/Slider.c **** 
 924:.\Generated_Source\PSoC4/Slider.c **** #if (Slider_IS_COMPLEX_SCANSLOTS)
 925:.\Generated_Source\PSoC4/Slider.c ****     /*******************************************************************************
 926:.\Generated_Source\PSoC4/Slider.c ****     * Function Name: Slider_EnableScanSlot
 927:.\Generated_Source\PSoC4/Slider.c ****     ********************************************************************************
 928:.\Generated_Source\PSoC4/Slider.c ****     *
 929:.\Generated_Source\PSoC4/Slider.c ****     * Summary:
 930:.\Generated_Source\PSoC4/Slider.c ****     *  Configures the selected slot to measure during the next measurement 
 931:.\Generated_Source\PSoC4/Slider.c ****     *  cycle. The corresponding pin/pins are set to Analog High-Z mode and 
 932:.\Generated_Source\PSoC4/Slider.c ****     *  connected to the Analog Mux Bus. This also enables the comparator function.
 933:.\Generated_Source\PSoC4/Slider.c ****     *
 934:.\Generated_Source\PSoC4/Slider.c ****     * Parameters:
 935:.\Generated_Source\PSoC4/Slider.c ****     *  slot:  Slot number.
 936:.\Generated_Source\PSoC4/Slider.c ****     *
 937:.\Generated_Source\PSoC4/Slider.c ****     * Return:
 938:.\Generated_Source\PSoC4/Slider.c ****     *  None
 939:.\Generated_Source\PSoC4/Slider.c ****     *
 940:.\Generated_Source\PSoC4/Slider.c ****     * Global Constants:
 941:.\Generated_Source\PSoC4/Slider.c ****     *  Slider_portTable[]  - used to store the port number that pin 
 942:.\Generated_Source\PSoC4/Slider.c ****     *  belongs to for each sensor.
ARM GAS  C:\Users\ELECTR~1\AppData\Local\Temp\ccbbDBvf.s 			page 24


 943:.\Generated_Source\PSoC4/Slider.c ****     *  Slider_maskTable[]  - used to store the pin within the port for 
 944:.\Generated_Source\PSoC4/Slider.c ****     *  each sensor.
 945:.\Generated_Source\PSoC4/Slider.c ****     *  Slider_indexTable[] - used to store indexes of complex sensors.
 946:.\Generated_Source\PSoC4/Slider.c ****     *  The offset and position in this array are stored in a port and mask table for 
 947:.\Generated_Source\PSoC4/Slider.c ****     *  complex sensors.
 948:.\Generated_Source\PSoC4/Slider.c ****     *  Bit 7 (msb) is used to define the sensor type: single or complex.
 949:.\Generated_Source\PSoC4/Slider.c ****     *
 950:.\Generated_Source\PSoC4/Slider.c **** 	* Side Effects: 
 951:.\Generated_Source\PSoC4/Slider.c **** 	*  None
 952:.\Generated_Source\PSoC4/Slider.c **** 	*
 953:.\Generated_Source\PSoC4/Slider.c ****     *******************************************************************************/
 954:.\Generated_Source\PSoC4/Slider.c ****     void Slider_EnableScanSlot(uint32 slot)
 955:.\Generated_Source\PSoC4/Slider.c ****     {
 956:.\Generated_Source\PSoC4/Slider.c ****         uint8 j;
 957:.\Generated_Source\PSoC4/Slider.c ****         uint8 snsNumber;
 958:.\Generated_Source\PSoC4/Slider.c ****         const uint8 *index;
 959:.\Generated_Source\PSoC4/Slider.c ****         /* Read sensor type: single or complex */
 960:.\Generated_Source\PSoC4/Slider.c ****         uint8 snsType = Slider_portTable[slot];
 961:.\Generated_Source\PSoC4/Slider.c **** 
 962:.\Generated_Source\PSoC4/Slider.c ****         /* Check if sensor is complex */
 963:.\Generated_Source\PSoC4/Slider.c ****         if ((snsType & Slider_COMPLEX_SS_FLAG) == 0u)
 964:.\Generated_Source\PSoC4/Slider.c ****         {
 965:.\Generated_Source\PSoC4/Slider.c ****             /* Enable sensor (single) */
 966:.\Generated_Source\PSoC4/Slider.c ****             Slider_EnableSensor(slot);
 967:.\Generated_Source\PSoC4/Slider.c ****         }
 968:.\Generated_Source\PSoC4/Slider.c ****         else
 969:.\Generated_Source\PSoC4/Slider.c ****         {
 970:.\Generated_Source\PSoC4/Slider.c ****             /* Enable complex sensor */
 971:.\Generated_Source\PSoC4/Slider.c ****             snsType &= ~Slider_COMPLEX_SS_FLAG;
 972:.\Generated_Source\PSoC4/Slider.c ****             index = &Slider_indexTable[snsType];
 973:.\Generated_Source\PSoC4/Slider.c ****             snsNumber = Slider_maskTable[slot];
 974:.\Generated_Source\PSoC4/Slider.c ****                         
 975:.\Generated_Source\PSoC4/Slider.c ****             for (j = 0u; j < snsNumber; j++)
 976:.\Generated_Source\PSoC4/Slider.c ****             {
 977:.\Generated_Source\PSoC4/Slider.c ****                 Slider_EnableSensor(index[j]);
 978:.\Generated_Source\PSoC4/Slider.c ****             }
 979:.\Generated_Source\PSoC4/Slider.c ****         }
 980:.\Generated_Source\PSoC4/Slider.c ****     }
 981:.\Generated_Source\PSoC4/Slider.c ****     
 982:.\Generated_Source\PSoC4/Slider.c ****     
 983:.\Generated_Source\PSoC4/Slider.c ****     /*******************************************************************************
 984:.\Generated_Source\PSoC4/Slider.c ****     * Function Name: Slider_DisableScanSlot
 985:.\Generated_Source\PSoC4/Slider.c ****     ********************************************************************************
 986:.\Generated_Source\PSoC4/Slider.c ****     *
 987:.\Generated_Source\PSoC4/Slider.c ****     * Summary:
 988:.\Generated_Source\PSoC4/Slider.c ****     *  Disables the selected slot. The corresponding pin/pins is/are disconnected 
 989:.\Generated_Source\PSoC4/Slider.c ****     *  from the Analog Mux Bus and connected to GND, High_Z or Shield electrode.
 990:.\Generated_Source\PSoC4/Slider.c ****     *
 991:.\Generated_Source\PSoC4/Slider.c ****     * Parameters:
 992:.\Generated_Source\PSoC4/Slider.c ****     *  slot:  Slot number.
 993:.\Generated_Source\PSoC4/Slider.c ****     *
 994:.\Generated_Source\PSoC4/Slider.c ****     * Return:
 995:.\Generated_Source\PSoC4/Slider.c ****     *  None
 996:.\Generated_Source\PSoC4/Slider.c ****     *
 997:.\Generated_Source\PSoC4/Slider.c ****     * Global Variables:
 998:.\Generated_Source\PSoC4/Slider.c ****     *  Slider_portTable[]  - used to store the port number that pin 
 999:.\Generated_Source\PSoC4/Slider.c ****     *  belongs to for each sensor.
ARM GAS  C:\Users\ELECTR~1\AppData\Local\Temp\ccbbDBvf.s 			page 25


1000:.\Generated_Source\PSoC4/Slider.c ****     *  Slider_maskTable[]  - used to store the pin within the port for 
1001:.\Generated_Source\PSoC4/Slider.c ****     *  each sensor.
1002:.\Generated_Source\PSoC4/Slider.c ****     *  Slider_indexTable[] - used to store indexes of complex sensors.
1003:.\Generated_Source\PSoC4/Slider.c ****     *  The offset and position in this array are stored in a port and mask table for 
1004:.\Generated_Source\PSoC4/Slider.c ****     *  complex sensors.
1005:.\Generated_Source\PSoC4/Slider.c ****     *  7bit(msb) is used to define the sensor type: single or complex.
1006:.\Generated_Source\PSoC4/Slider.c ****     *
1007:.\Generated_Source\PSoC4/Slider.c **** 	* Side Effects: 
1008:.\Generated_Source\PSoC4/Slider.c **** 	*  None
1009:.\Generated_Source\PSoC4/Slider.c **** 	*
1010:.\Generated_Source\PSoC4/Slider.c ****     *******************************************************************************/
1011:.\Generated_Source\PSoC4/Slider.c ****     void Slider_DisableScanSlot(uint32 slot)
1012:.\Generated_Source\PSoC4/Slider.c ****     {
1013:.\Generated_Source\PSoC4/Slider.c ****         uint8 j;
1014:.\Generated_Source\PSoC4/Slider.c ****         uint8 snsNumber;
1015:.\Generated_Source\PSoC4/Slider.c ****         const uint8 *index;
1016:.\Generated_Source\PSoC4/Slider.c **** 
1017:.\Generated_Source\PSoC4/Slider.c ****         /* Read sensor type: single or complex */
1018:.\Generated_Source\PSoC4/Slider.c ****         uint8 snsType = Slider_portTable[slot];
1019:.\Generated_Source\PSoC4/Slider.c ****         
1020:.\Generated_Source\PSoC4/Slider.c ****         /* Check if sensor is complex */
1021:.\Generated_Source\PSoC4/Slider.c ****         if ((snsType & Slider_COMPLEX_SS_FLAG) == 0u)
1022:.\Generated_Source\PSoC4/Slider.c ****         {
1023:.\Generated_Source\PSoC4/Slider.c ****             /* Disable sensor (single) */
1024:.\Generated_Source\PSoC4/Slider.c ****             Slider_DisableSensor(slot);
1025:.\Generated_Source\PSoC4/Slider.c ****         }
1026:.\Generated_Source\PSoC4/Slider.c ****         else
1027:.\Generated_Source\PSoC4/Slider.c ****         {
1028:.\Generated_Source\PSoC4/Slider.c ****             /* Disable complex sensor */
1029:.\Generated_Source\PSoC4/Slider.c ****             snsType &= ~Slider_COMPLEX_SS_FLAG;
1030:.\Generated_Source\PSoC4/Slider.c ****             index = &Slider_indexTable[snsType];
1031:.\Generated_Source\PSoC4/Slider.c ****             snsNumber = Slider_maskTable[slot];
1032:.\Generated_Source\PSoC4/Slider.c ****                         
1033:.\Generated_Source\PSoC4/Slider.c ****             for (j=0; j < snsNumber; j++)
1034:.\Generated_Source\PSoC4/Slider.c ****             {
1035:.\Generated_Source\PSoC4/Slider.c ****                 Slider_DisableSensor(index[j]);
1036:.\Generated_Source\PSoC4/Slider.c ****             }
1037:.\Generated_Source\PSoC4/Slider.c ****         } 
1038:.\Generated_Source\PSoC4/Slider.c ****     }
1039:.\Generated_Source\PSoC4/Slider.c **** #endif  /* Slider_IS_COMPLEX_SCANSLOTS */
1040:.\Generated_Source\PSoC4/Slider.c **** 
1041:.\Generated_Source\PSoC4/Slider.c **** 
1042:.\Generated_Source\PSoC4/Slider.c **** /*******************************************************************************
1043:.\Generated_Source\PSoC4/Slider.c **** * Function Name: Slider_EnableSensor
1044:.\Generated_Source\PSoC4/Slider.c **** ********************************************************************************
1045:.\Generated_Source\PSoC4/Slider.c **** *
1046:.\Generated_Source\PSoC4/Slider.c **** * Summary:
1047:.\Generated_Source\PSoC4/Slider.c **** *  Configures the selected sensor to measure during the next measurement cycle.
1048:.\Generated_Source\PSoC4/Slider.c **** *  The corresponding pins are set to Analog High-Z mode and connected to the
1049:.\Generated_Source\PSoC4/Slider.c **** *  Analog Mux Bus. This also enables the comparator function.
1050:.\Generated_Source\PSoC4/Slider.c **** *
1051:.\Generated_Source\PSoC4/Slider.c **** * Parameters:
1052:.\Generated_Source\PSoC4/Slider.c **** *  sensor:  Sensor number.
1053:.\Generated_Source\PSoC4/Slider.c **** *
1054:.\Generated_Source\PSoC4/Slider.c **** * Return:
1055:.\Generated_Source\PSoC4/Slider.c **** *  None
1056:.\Generated_Source\PSoC4/Slider.c **** *
ARM GAS  C:\Users\ELECTR~1\AppData\Local\Temp\ccbbDBvf.s 			page 26


1057:.\Generated_Source\PSoC4/Slider.c **** * Global Variables:
1058:.\Generated_Source\PSoC4/Slider.c **** *  Slider_portTable[] - used to store the port number that pin 
1059:.\Generated_Source\PSoC4/Slider.c **** *  belongs to for each sensor.
1060:.\Generated_Source\PSoC4/Slider.c **** *  Slider_pinShiftTbl[] - used to store position of pin that 
1061:.\Generated_Source\PSoC4/Slider.c **** *  configured as sensor in port. 
1062:.\Generated_Source\PSoC4/Slider.c **** *  Slider_prtSelTbl[] - Contains pointers to the HSIOM 
1063:.\Generated_Source\PSoC4/Slider.c **** *  registers for each port. 
1064:.\Generated_Source\PSoC4/Slider.c **** *  Slider_PrtCfgTb[] - Contains pointers to the port config 
1065:.\Generated_Source\PSoC4/Slider.c **** *  registers for each port.
1066:.\Generated_Source\PSoC4/Slider.c **** *
1067:.\Generated_Source\PSoC4/Slider.c **** * Side Effects: 
1068:.\Generated_Source\PSoC4/Slider.c **** *  None
1069:.\Generated_Source\PSoC4/Slider.c **** *
1070:.\Generated_Source\PSoC4/Slider.c **** *******************************************************************************/
1071:.\Generated_Source\PSoC4/Slider.c **** void Slider_EnableSensor(uint32 sensor)
1072:.\Generated_Source\PSoC4/Slider.c **** {
 370              		.loc 1 1072 0
 371              		.cfi_startproc
 372              	.LVL35:
 373 0000 F8B5     		push	{r3, r4, r5, r6, r7, lr}
 374              		.cfi_def_cfa_offset 24
 375              		.cfi_offset 3, -24
 376              		.cfi_offset 4, -20
 377              		.cfi_offset 5, -16
 378              		.cfi_offset 6, -12
 379              		.cfi_offset 7, -8
 380              		.cfi_offset 14, -4
1073:.\Generated_Source\PSoC4/Slider.c **** 	uint8  pinModeShift;
1074:.\Generated_Source\PSoC4/Slider.c ****     uint8  pinHSIOMShift;
1075:.\Generated_Source\PSoC4/Slider.c **** 	uint8 interruptState;
1076:.\Generated_Source\PSoC4/Slider.c **** 	uint32 newRegisterValue;
1077:.\Generated_Source\PSoC4/Slider.c ****     uint32 port;
1078:.\Generated_Source\PSoC4/Slider.c **** 	
1079:.\Generated_Source\PSoC4/Slider.c **** 	port = (uint32) Slider_portTable[sensor];
 381              		.loc 1 1079 0
 382 0002 104F     		ldr	r7, .L26
 383 0004 3C5C     		ldrb	r4, [r7, r0]
 384              	.LVL36:
1080:.\Generated_Source\PSoC4/Slider.c ****     pinModeShift = Slider_pinShiftTbl[sensor]  * Slider_PC_PIN_CFG_SIZE;
 385              		.loc 1 1080 0
 386 0006 3818     		add	r0, r7, r0
 387              	.LVL37:
 388 0008 027A     		ldrb	r2, [r0, #8]
 389 000a 5500     		lsl	r5, r2, #1
 390 000c 5519     		add	r5, r2, r5
 391 000e EDB2     		uxtb	r5, r5
 392              	.LVL38:
1081:.\Generated_Source\PSoC4/Slider.c ****     pinHSIOMShift = Slider_pinShiftTbl[sensor] * Slider_HSIOM_PIN_CFG_SIZE;
 393              		.loc 1 1081 0
 394 0010 9200     		lsl	r2, r2, #2
 395 0012 D6B2     		uxtb	r6, r2
 396              	.LVL39:
1082:.\Generated_Source\PSoC4/Slider.c **** 
1083:.\Generated_Source\PSoC4/Slider.c **** 	interruptState = CyEnterCriticalSection();
 397              		.loc 1 1083 0
 398 0014 FFF7FEFF 		bl	CyEnterCriticalSection
 399              	.LVL40:
ARM GAS  C:\Users\ELECTR~1\AppData\Local\Temp\ccbbDBvf.s 			page 27


1084:.\Generated_Source\PSoC4/Slider.c **** 	
1085:.\Generated_Source\PSoC4/Slider.c **** 	newRegisterValue = *Slider_prtSelTbl[port];
 400              		.loc 1 1085 0
 401 0018 A400     		lsl	r4, r4, #2
 402              	.LVL41:
 403 001a 3B19     		add	r3, r7, r4
 404 001c 1C69     		ldr	r4, [r3, #16]
 405 001e 2268     		ldr	r2, [r4]
 406              	.LVL42:
1086:.\Generated_Source\PSoC4/Slider.c **** 	newRegisterValue &= ~(Slider_CSD_HSIOM_MASK << pinHSIOMShift);
 407              		.loc 1 1086 0
 408 0020 0F21     		mov	r1, #15
 409 0022 B140     		lsl	r1, r1, r6
 410 0024 8A43     		bic	r2, r1
 411              	.LVL43:
 412 0026 111C     		mov	r1, r2
 413              	.LVL44:
1087:.\Generated_Source\PSoC4/Slider.c **** 	newRegisterValue |= (uint32)((uint32)Slider_CSD_SENSE_PORT_MODE << pinHSIOMShift);
 414              		.loc 1 1087 0
 415 0028 0422     		mov	r2, #4
 416 002a B240     		lsl	r2, r2, r6
 417 002c 0A43     		orr	r2, r1
 418              	.LVL45:
1088:.\Generated_Source\PSoC4/Slider.c ****    
1089:.\Generated_Source\PSoC4/Slider.c ****     *Slider_prtCfgTbl[port] &= (uint32)~((uint32)Slider_CSD_PIN_MODE_MASK << pinModeShift);
 419              		.loc 1 1089 0
 420 002e 9E6A     		ldr	r6, [r3, #40]
 421              	.LVL46:
 422 0030 3368     		ldr	r3, [r6]
 423 0032 0721     		mov	r1, #7
 424 0034 A940     		lsl	r1, r1, r5
 425 0036 8B43     		bic	r3, r1
 426 0038 3360     		str	r3, [r6]
1090:.\Generated_Source\PSoC4/Slider.c ****     *Slider_prtSelTbl[port] = newRegisterValue;
 427              		.loc 1 1090 0
 428 003a 2260     		str	r2, [r4]
1091:.\Generated_Source\PSoC4/Slider.c **** 	
1092:.\Generated_Source\PSoC4/Slider.c **** 	CyExitCriticalSection(interruptState);
 429              		.loc 1 1092 0
 430 003c FFF7FEFF 		bl	CyExitCriticalSection
 431              	.LVL47:
1093:.\Generated_Source\PSoC4/Slider.c **** }
 432              		.loc 1 1093 0
 433              		@ sp needed
 434              	.LVL48:
 435              	.LVL49:
 436 0040 F8BD     		pop	{r3, r4, r5, r6, r7, pc}
 437              	.L27:
 438 0042 C046     		.align	2
 439              	.L26:
 440 0044 00000000 		.word	.LANCHOR2
 441              		.cfi_endproc
 442              	.LFE50:
 443              		.size	Slider_EnableSensor, .-Slider_EnableSensor
 444              		.section	.text.Slider_DisableSensor,"ax",%progbits
 445              		.align	2
 446              		.global	Slider_DisableSensor
ARM GAS  C:\Users\ELECTR~1\AppData\Local\Temp\ccbbDBvf.s 			page 28


 447              		.code	16
 448              		.thumb_func
 449              		.type	Slider_DisableSensor, %function
 450              	Slider_DisableSensor:
 451              	.LFB51:
1094:.\Generated_Source\PSoC4/Slider.c **** 
1095:.\Generated_Source\PSoC4/Slider.c **** 
1096:.\Generated_Source\PSoC4/Slider.c **** /*******************************************************************************
1097:.\Generated_Source\PSoC4/Slider.c **** * Function Name: Slider_DisableSensor
1098:.\Generated_Source\PSoC4/Slider.c **** ********************************************************************************
1099:.\Generated_Source\PSoC4/Slider.c **** *
1100:.\Generated_Source\PSoC4/Slider.c **** * Summary:
1101:.\Generated_Source\PSoC4/Slider.c **** *  Disables the selected sensor. The corresponding pin is disconnected from the
1102:.\Generated_Source\PSoC4/Slider.c **** *  Analog Mux Bus and connected to GND, High_Z or Shield electrode.
1103:.\Generated_Source\PSoC4/Slider.c **** *
1104:.\Generated_Source\PSoC4/Slider.c **** * Parameters:
1105:.\Generated_Source\PSoC4/Slider.c **** *  sensor:  Sensor number
1106:.\Generated_Source\PSoC4/Slider.c **** *
1107:.\Generated_Source\PSoC4/Slider.c **** * Return:
1108:.\Generated_Source\PSoC4/Slider.c **** *  None
1109:.\Generated_Source\PSoC4/Slider.c **** *
1110:.\Generated_Source\PSoC4/Slider.c **** * Global Variables:
1111:.\Generated_Source\PSoC4/Slider.c **** *  Slider_portTable[] - used to store the port number that pin 
1112:.\Generated_Source\PSoC4/Slider.c **** *  belongs to for each sensor.
1113:.\Generated_Source\PSoC4/Slider.c **** *  Slider_pinShiftTbl[] - used to store position of pin that 
1114:.\Generated_Source\PSoC4/Slider.c **** *  configured as a sensor in the port. 
1115:.\Generated_Source\PSoC4/Slider.c **** *  Slider_prtSelTbl[] - Contains pointers to the HSIOM 
1116:.\Generated_Source\PSoC4/Slider.c **** *  registers for each port. 
1117:.\Generated_Source\PSoC4/Slider.c **** *  Slider_PrtCfgTb[] - Contains pointers to the port config 
1118:.\Generated_Source\PSoC4/Slider.c **** *  registers for each port.
1119:.\Generated_Source\PSoC4/Slider.c **** *
1120:.\Generated_Source\PSoC4/Slider.c **** * Side Effects: 
1121:.\Generated_Source\PSoC4/Slider.c **** *  None
1122:.\Generated_Source\PSoC4/Slider.c **** *
1123:.\Generated_Source\PSoC4/Slider.c **** *******************************************************************************/
1124:.\Generated_Source\PSoC4/Slider.c **** void Slider_DisableSensor(uint32 sensor)
1125:.\Generated_Source\PSoC4/Slider.c **** {
 452              		.loc 1 1125 0
 453              		.cfi_startproc
 454              	.LVL50:
 455 0000 F8B5     		push	{r3, r4, r5, r6, r7, lr}
 456              		.cfi_def_cfa_offset 24
 457              		.cfi_offset 3, -24
 458              		.cfi_offset 4, -20
 459              		.cfi_offset 5, -16
 460              		.cfi_offset 6, -12
 461              		.cfi_offset 7, -8
 462              		.cfi_offset 14, -4
1126:.\Generated_Source\PSoC4/Slider.c ****     uint8 interruptState;
1127:.\Generated_Source\PSoC4/Slider.c **** 	uint32 newRegisterValue;
1128:.\Generated_Source\PSoC4/Slider.c **** 	
1129:.\Generated_Source\PSoC4/Slider.c ****     uint32 port = (uint32) Slider_portTable[sensor];
 463              		.loc 1 1129 0
 464 0002 1949     		ldr	r1, .L33
 465 0004 0C5C     		ldrb	r4, [r1, r0]
 466              	.LVL51:
1130:.\Generated_Source\PSoC4/Slider.c ****     uint8  pinHSIOMShift = Slider_pinShiftTbl[sensor] * Slider_HSIOM_PIN_CFG_SIZE;
ARM GAS  C:\Users\ELECTR~1\AppData\Local\Temp\ccbbDBvf.s 			page 29


 467              		.loc 1 1130 0
 468 0006 0B18     		add	r3, r1, r0
 469 0008 1E7A     		ldrb	r6, [r3, #8]
 470 000a B200     		lsl	r2, r6, #2
 471 000c D2B2     		uxtb	r2, r2
 472              	.LVL52:
1131:.\Generated_Source\PSoC4/Slider.c ****     uint8  pinModeShift = Slider_pinShiftTbl[sensor]  * Slider_PC_PIN_CFG_SIZE;
 473              		.loc 1 1131 0
 474 000e 7500     		lsl	r5, r6, #1
 475 0010 7519     		add	r5, r6, r5
 476 0012 EDB2     		uxtb	r5, r5
 477              	.LVL53:
1132:.\Generated_Source\PSoC4/Slider.c **** 
1133:.\Generated_Source\PSoC4/Slider.c **** 	uint32 inactiveConnect = Slider_SNS_HIZANALOG_CONNECT;
1134:.\Generated_Source\PSoC4/Slider.c **** 	uint32 sensorState = Slider_unscannedSnsDriveMode[sensor];
 478              		.loc 1 1134 0
 479 0014 154B     		ldr	r3, .L33+4
 480 0016 185C     		ldrb	r0, [r3, r0]
 481              	.LVL54:
1135:.\Generated_Source\PSoC4/Slider.c **** 
1136:.\Generated_Source\PSoC4/Slider.c ****     *Slider_prtSelTbl[port] &= ~(Slider_CSD_HSIOM_MASK << pinHSIOMShift);
 482              		.loc 1 1136 0
 483 0018 A300     		lsl	r3, r4, #2
 484 001a CB18     		add	r3, r1, r3
 485 001c 1F69     		ldr	r7, [r3, #16]
 486 001e 3B68     		ldr	r3, [r7]
 487 0020 0F21     		mov	r1, #15
 488 0022 9140     		lsl	r1, r1, r2
 489 0024 8B43     		bic	r3, r1
 490 0026 3B60     		str	r3, [r7]
1137:.\Generated_Source\PSoC4/Slider.c **** 
1138:.\Generated_Source\PSoC4/Slider.c **** 	#if(Slider_IS_SHIELD_ENABLE != 0)
1139:.\Generated_Source\PSoC4/Slider.c **** 	if(sensorState != (uint32)Slider__SHIELD)
1140:.\Generated_Source\PSoC4/Slider.c **** 	{
1141:.\Generated_Source\PSoC4/Slider.c **** 	#else
1142:.\Generated_Source\PSoC4/Slider.c **** 	    /* Connected to Ground if shield is disabled */
1143:.\Generated_Source\PSoC4/Slider.c **** 	    if(sensorState == (uint32)Slider__SHIELD)
 491              		.loc 1 1143 0
 492 0028 0228     		cmp	r0, #2
 493 002a 00D1     		bne	.L29
1144:.\Generated_Source\PSoC4/Slider.c **** 		{
1145:.\Generated_Source\PSoC4/Slider.c **** 			sensorState = (uint32)Slider__GROUND;
 494              		.loc 1 1145 0
 495 002c 0020     		mov	r0, #0
 496              	.LVL55:
 497              	.L29:
1146:.\Generated_Source\PSoC4/Slider.c **** 		}
1147:.\Generated_Source\PSoC4/Slider.c **** 	#endif /* (Slider_IS_SHIELD_ENABLE) */
1148:.\Generated_Source\PSoC4/Slider.c **** 	    if(sensorState != (uint32)Slider__HIZ_ANALOG)
 498              		.loc 1 1148 0
 499 002e 0128     		cmp	r0, #1
 500 0030 01D1     		bne	.L32
1133:.\Generated_Source\PSoC4/Slider.c **** 	uint32 sensorState = Slider_unscannedSnsDriveMode[sensor];
 501              		.loc 1 1133 0
 502 0032 0027     		mov	r7, #0
 503 0034 00E0     		b	.L30
 504              	.L32:
ARM GAS  C:\Users\ELECTR~1\AppData\Local\Temp\ccbbDBvf.s 			page 30


1149:.\Generated_Source\PSoC4/Slider.c **** 		{   
1150:.\Generated_Source\PSoC4/Slider.c **** 		    /* Connected to Ground */
1151:.\Generated_Source\PSoC4/Slider.c **** 		    inactiveConnect = (uint32)Slider_SNS_GROUND_CONNECT;
 505              		.loc 1 1151 0
 506 0036 0627     		mov	r7, #6
 507              	.L30:
 508              	.LVL56:
1152:.\Generated_Source\PSoC4/Slider.c **** 		}
1153:.\Generated_Source\PSoC4/Slider.c **** 		
1154:.\Generated_Source\PSoC4/Slider.c ****         interruptState = CyEnterCriticalSection();
 509              		.loc 1 1154 0
 510 0038 FFF7FEFF 		bl	CyEnterCriticalSection
 511              	.LVL57:
1155:.\Generated_Source\PSoC4/Slider.c **** 
1156:.\Generated_Source\PSoC4/Slider.c ****         /* Set drive mode */
1157:.\Generated_Source\PSoC4/Slider.c ****     	newRegisterValue = *Slider_prtCfgTbl[port];
 512              		.loc 1 1157 0
 513 003c A400     		lsl	r4, r4, #2
 514              	.LVL58:
 515 003e 0A4B     		ldr	r3, .L33
 516              	.LVL59:
 517 0040 1C19     		add	r4, r3, r4
 518 0042 A16A     		ldr	r1, [r4, #40]
 519 0044 0B68     		ldr	r3, [r1]
 520              	.LVL60:
1158:.\Generated_Source\PSoC4/Slider.c ****     	newRegisterValue &= ~(Slider_CSD_PIN_MODE_MASK << pinModeShift);
 521              		.loc 1 1158 0
 522 0046 0722     		mov	r2, #7
 523 0048 AA40     		lsl	r2, r2, r5
 524 004a 9343     		bic	r3, r2
 525              	.LVL61:
 526 004c 1A1C     		mov	r2, r3
 527              	.LVL62:
1159:.\Generated_Source\PSoC4/Slider.c ****     	newRegisterValue |=  (uint32)(inactiveConnect << pinModeShift);
 528              		.loc 1 1159 0
 529 004e 3B1C     		mov	r3, r7
 530 0050 AB40     		lsl	r3, r3, r5
 531 0052 1343     		orr	r3, r2
 532              	.LVL63:
1160:.\Generated_Source\PSoC4/Slider.c ****         *Slider_prtCfgTbl[port] =  newRegisterValue;
 533              		.loc 1 1160 0
 534 0054 0B60     		str	r3, [r1]
1161:.\Generated_Source\PSoC4/Slider.c ****         
1162:.\Generated_Source\PSoC4/Slider.c ****         CyExitCriticalSection(interruptState);
 535              		.loc 1 1162 0
 536 0056 FFF7FEFF 		bl	CyExitCriticalSection
 537              	.LVL64:
1163:.\Generated_Source\PSoC4/Slider.c **** 
1164:.\Generated_Source\PSoC4/Slider.c ****     	*Slider_prtDRTbl[port]  &=  (uint32)~(uint32)((uint32)1u << Slider_pinShiftTbl[sensor]); 
 538              		.loc 1 1164 0
 539 005a 216C     		ldr	r1, [r4, #64]
 540 005c 0B68     		ldr	r3, [r1]
 541 005e 0122     		mov	r2, #1
 542 0060 B240     		lsl	r2, r2, r6
 543 0062 9343     		bic	r3, r2
 544 0064 0B60     		str	r3, [r1]
1165:.\Generated_Source\PSoC4/Slider.c **** 	#if(Slider_IS_SHIELD_ENABLE != 0)
ARM GAS  C:\Users\ELECTR~1\AppData\Local\Temp\ccbbDBvf.s 			page 31


1166:.\Generated_Source\PSoC4/Slider.c **** 	}
1167:.\Generated_Source\PSoC4/Slider.c **** 	else
1168:.\Generated_Source\PSoC4/Slider.c **** 	{
1169:.\Generated_Source\PSoC4/Slider.c **** 		/* Connect to Shield */
1170:.\Generated_Source\PSoC4/Slider.c **** 		*Slider_prtSelTbl[port] |= (Slider_CSD_SHIELD_PORT_MODE << pinHSIOMShift);
1171:.\Generated_Source\PSoC4/Slider.c **** 	}
1172:.\Generated_Source\PSoC4/Slider.c **** 	#endif /* (Slider_IS_SHIELD_ENABLE) */
1173:.\Generated_Source\PSoC4/Slider.c **** }
 545              		.loc 1 1173 0
 546              		@ sp needed
 547              	.LVL65:
 548              	.LVL66:
 549              	.LVL67:
 550 0066 F8BD     		pop	{r3, r4, r5, r6, r7, pc}
 551              	.L34:
 552              		.align	2
 553              	.L33:
 554 0068 00000000 		.word	.LANCHOR2
 555 006c 00000000 		.word	Slider_unscannedSnsDriveMode
 556              		.cfi_endproc
 557              	.LFE51:
 558              		.size	Slider_DisableSensor, .-Slider_DisableSensor
 559              		.section	.text.Slider_ClearSensors,"ax",%progbits
 560              		.align	2
 561              		.global	Slider_ClearSensors
 562              		.code	16
 563              		.thumb_func
 564              		.type	Slider_ClearSensors, %function
 565              	Slider_ClearSensors:
 566              	.LFB49:
 914:.\Generated_Source\PSoC4/Slider.c **** 	uint32 snsIndex;
 567              		.loc 1 914 0
 568              		.cfi_startproc
 569 0000 10B5     		push	{r4, lr}
 570              		.cfi_def_cfa_offset 8
 571              		.cfi_offset 4, -8
 572              		.cfi_offset 14, -4
 573              	.LVL68:
 917:.\Generated_Source\PSoC4/Slider.c ****     {
 574              		.loc 1 917 0
 575 0002 0024     		mov	r4, #0
 576 0004 03E0     		b	.L36
 577              	.LVL69:
 578              	.L37:
 919:.\Generated_Source\PSoC4/Slider.c ****     }
 579              		.loc 1 919 0 discriminator 3
 580 0006 201C     		mov	r0, r4
 581 0008 FFF7FEFF 		bl	Slider_DisableSensor
 582              	.LVL70:
 917:.\Generated_Source\PSoC4/Slider.c ****     {
 583              		.loc 1 917 0 discriminator 3
 584 000c 0134     		add	r4, r4, #1
 585              	.LVL71:
 586              	.L36:
 917:.\Generated_Source\PSoC4/Slider.c ****     {
 587              		.loc 1 917 0 is_stmt 0 discriminator 1
 588 000e 042C     		cmp	r4, #4
ARM GAS  C:\Users\ELECTR~1\AppData\Local\Temp\ccbbDBvf.s 			page 32


 589 0010 F9D9     		bls	.L37
 921:.\Generated_Source\PSoC4/Slider.c **** 
 590              		.loc 1 921 0 is_stmt 1
 591              		@ sp needed
 592              	.LVL72:
 593 0012 10BD     		pop	{r4, pc}
 594              		.cfi_endproc
 595              	.LFE49:
 596              		.size	Slider_ClearSensors, .-Slider_ClearSensors
 597              		.section	.text.Slider_SetPinDriveMode,"ax",%progbits
 598              		.align	2
 599              		.global	Slider_SetPinDriveMode
 600              		.code	16
 601              		.thumb_func
 602              		.type	Slider_SetPinDriveMode, %function
 603              	Slider_SetPinDriveMode:
 604              	.LFB54:
1174:.\Generated_Source\PSoC4/Slider.c **** 
1175:.\Generated_Source\PSoC4/Slider.c **** 
1176:.\Generated_Source\PSoC4/Slider.c **** /*******************************************************************************
1177:.\Generated_Source\PSoC4/Slider.c **** * Function Name: Slider_SetDriveModeAllPins
1178:.\Generated_Source\PSoC4/Slider.c **** ********************************************************************************
1179:.\Generated_Source\PSoC4/Slider.c **** *
1180:.\Generated_Source\PSoC4/Slider.c **** * Summary:
1181:.\Generated_Source\PSoC4/Slider.c **** * This API sets the drive mode of port pins used by the CapSense
1182:.\Generated_Source\PSoC4/Slider.c **** * component (sensors, guard, shield, shield tank and Cmod) to drive the 
1183:.\Generated_Source\PSoC4/Slider.c **** * mode specified by the argument.
1184:.\Generated_Source\PSoC4/Slider.c **** *
1185:.\Generated_Source\PSoC4/Slider.c **** * Parameters:
1186:.\Generated_Source\PSoC4/Slider.c **** *  driveMode:  Drive mode definition.
1187:.\Generated_Source\PSoC4/Slider.c **** *
1188:.\Generated_Source\PSoC4/Slider.c **** * Return:
1189:.\Generated_Source\PSoC4/Slider.c **** *  None
1190:.\Generated_Source\PSoC4/Slider.c **** *
1191:.\Generated_Source\PSoC4/Slider.c **** * Global Variables:
1192:.\Generated_Source\PSoC4/Slider.c **** *  Slider_portTable[] - used to store the port number that pin 
1193:.\Generated_Source\PSoC4/Slider.c **** *  belongs to for each sensor.
1194:.\Generated_Source\PSoC4/Slider.c **** *  Slider_pinShiftTbl[] - used to store position of pin that 
1195:.\Generated_Source\PSoC4/Slider.c **** *  configured as a sensor in the port. 
1196:.\Generated_Source\PSoC4/Slider.c **** *
1197:.\Generated_Source\PSoC4/Slider.c **** * Side Effects: 
1198:.\Generated_Source\PSoC4/Slider.c **** *  This API shall be called only after CapSense component is stopped.
1199:.\Generated_Source\PSoC4/Slider.c **** *
1200:.\Generated_Source\PSoC4/Slider.c **** *******************************************************************************/
1201:.\Generated_Source\PSoC4/Slider.c **** void Slider_SetDriveModeAllPins(uint32 driveMode)
1202:.\Generated_Source\PSoC4/Slider.c **** {
1203:.\Generated_Source\PSoC4/Slider.c **** 	uint8 curSensor;
1204:.\Generated_Source\PSoC4/Slider.c **** 	#if (Slider_IS_COMPLEX_SCANSLOTS)
1205:.\Generated_Source\PSoC4/Slider.c **** 		uint8 snsNumber;
1206:.\Generated_Source\PSoC4/Slider.c **** 		uint8 snsType;
1207:.\Generated_Source\PSoC4/Slider.c **** 	#endif  /* Slider_IS_COMPLEX_SCANSLOTS */
1208:.\Generated_Source\PSoC4/Slider.c **** 	uint32 prtNumberTmp;
1209:.\Generated_Source\PSoC4/Slider.c **** 	uint32 pinNumberTmp;
1210:.\Generated_Source\PSoC4/Slider.c **** 
1211:.\Generated_Source\PSoC4/Slider.c **** 	for(curSensor = 0u; curSensor < Slider_TOTAL_SENSOR_COUNT; curSensor++)
1212:.\Generated_Source\PSoC4/Slider.c **** 	{	
1213:.\Generated_Source\PSoC4/Slider.c **** 		#if (Slider_IS_COMPLEX_SCANSLOTS)
ARM GAS  C:\Users\ELECTR~1\AppData\Local\Temp\ccbbDBvf.s 			page 33


1214:.\Generated_Source\PSoC4/Slider.c **** 			/* Read sensor type: single or complex */
1215:.\Generated_Source\PSoC4/Slider.c **** 			snsType = Slider_portTable[curSensor];
1216:.\Generated_Source\PSoC4/Slider.c **** 		
1217:.\Generated_Source\PSoC4/Slider.c **** 			/* Check if sensor is complex */
1218:.\Generated_Source\PSoC4/Slider.c **** 			if ((snsType & Slider_COMPLEX_SS_FLAG) == 0u)
1219:.\Generated_Source\PSoC4/Slider.c **** 			{
1220:.\Generated_Source\PSoC4/Slider.c **** 				/* The sensor is not complex */
1221:.\Generated_Source\PSoC4/Slider.c **** 				snsNumber = curSensor;
1222:.\Generated_Source\PSoC4/Slider.c **** 			}
1223:.\Generated_Source\PSoC4/Slider.c **** 			else
1224:.\Generated_Source\PSoC4/Slider.c **** 			{
1225:.\Generated_Source\PSoC4/Slider.c **** 				/* Get dedicated sensor ID of the complex sensor */
1226:.\Generated_Source\PSoC4/Slider.c **** 				snsType &= ~Slider_COMPLEX_SS_FLAG;
1227:.\Generated_Source\PSoC4/Slider.c **** 				snsNumber = Slider_indexTable[snsType];
1228:.\Generated_Source\PSoC4/Slider.c **** 			}
1229:.\Generated_Source\PSoC4/Slider.c **** 
1230:.\Generated_Source\PSoC4/Slider.c **** 			prtNumberTmp = Slider_portTable[snsNumber];
1231:.\Generated_Source\PSoC4/Slider.c **** 			pinNumberTmp = Slider_pinShiftTbl[snsNumber];
1232:.\Generated_Source\PSoC4/Slider.c **** 		#else
1233:.\Generated_Source\PSoC4/Slider.c **** 			prtNumberTmp = Slider_portTable[curSensor];
1234:.\Generated_Source\PSoC4/Slider.c **** 			pinNumberTmp = Slider_pinShiftTbl[curSensor];
1235:.\Generated_Source\PSoC4/Slider.c **** 		#endif  /* Slider_IS_COMPLEX_SCANSLOTS */
1236:.\Generated_Source\PSoC4/Slider.c **** 	
1237:.\Generated_Source\PSoC4/Slider.c **** 		Slider_SetPinDriveMode(driveMode, pinNumberTmp, prtNumberTmp);
1238:.\Generated_Source\PSoC4/Slider.c **** 	}
1239:.\Generated_Source\PSoC4/Slider.c **** 	
1240:.\Generated_Source\PSoC4/Slider.c **** 	Slider_SetPinDriveMode(driveMode, (uint32)Slider_CMOD_PIN_NUMBER, (uint32)Slider_CMOD_PRT_NUMBER);
1241:.\Generated_Source\PSoC4/Slider.c **** 	
1242:.\Generated_Source\PSoC4/Slider.c **** 	#if(0u != Slider_CSH_TANK_ENABLE)
1243:.\Generated_Source\PSoC4/Slider.c **** 		Slider_SetPinDriveMode(driveMode, (uint32)Slider_CTANK_PIN_NUMBER, (uint32)Slider_CTANK_PRT_NUMBE
1244:.\Generated_Source\PSoC4/Slider.c **** 	#endif /* (0u != Slider_CSH_TANK_ENABLE) */	
1245:.\Generated_Source\PSoC4/Slider.c **** 	
1246:.\Generated_Source\PSoC4/Slider.c **** 	#if(0u != Slider_IS_SHIELD_ENABLE)
1247:.\Generated_Source\PSoC4/Slider.c **** 		Slider_SetPinDriveMode(driveMode, (uint32)Slider_SHIELD_PIN_NUMBER, (uint32)Slider_SHIELD_PORT_NU
1248:.\Generated_Source\PSoC4/Slider.c **** 	#endif /* (0u != Slider_IS_SHIELD_ENABLE) */	
1249:.\Generated_Source\PSoC4/Slider.c **** }
1250:.\Generated_Source\PSoC4/Slider.c **** 
1251:.\Generated_Source\PSoC4/Slider.c **** 
1252:.\Generated_Source\PSoC4/Slider.c **** /*******************************************************************************
1253:.\Generated_Source\PSoC4/Slider.c **** * Function Name: Slider_RestoreDriveModeAllPins
1254:.\Generated_Source\PSoC4/Slider.c **** ********************************************************************************
1255:.\Generated_Source\PSoC4/Slider.c **** *
1256:.\Generated_Source\PSoC4/Slider.c **** * Summary:
1257:.\Generated_Source\PSoC4/Slider.c **** *  This API restores the drive for all the CapSense port pins to the original
1258:.\Generated_Source\PSoC4/Slider.c **** *  state.
1259:.\Generated_Source\PSoC4/Slider.c **** *
1260:.\Generated_Source\PSoC4/Slider.c **** * Parameters:
1261:.\Generated_Source\PSoC4/Slider.c **** *  None
1262:.\Generated_Source\PSoC4/Slider.c **** *
1263:.\Generated_Source\PSoC4/Slider.c **** * Return:
1264:.\Generated_Source\PSoC4/Slider.c **** *  None
1265:.\Generated_Source\PSoC4/Slider.c **** *
1266:.\Generated_Source\PSoC4/Slider.c **** * Global Variables:
1267:.\Generated_Source\PSoC4/Slider.c **** *  Slider_prtSelTbl[] - Contains pointers to the HSIOM 
1268:.\Generated_Source\PSoC4/Slider.c **** *  registers for each port. 
1269:.\Generated_Source\PSoC4/Slider.c **** *
1270:.\Generated_Source\PSoC4/Slider.c **** * Side Effects: 
ARM GAS  C:\Users\ELECTR~1\AppData\Local\Temp\ccbbDBvf.s 			page 34


1271:.\Generated_Source\PSoC4/Slider.c **** *  This API is called only after the CapSense component is stopped.
1272:.\Generated_Source\PSoC4/Slider.c **** *
1273:.\Generated_Source\PSoC4/Slider.c **** *******************************************************************************/
1274:.\Generated_Source\PSoC4/Slider.c **** void Slider_RestoreDriveModeAllPins(void)
1275:.\Generated_Source\PSoC4/Slider.c **** {
1276:.\Generated_Source\PSoC4/Slider.c **** 	uint32 newRegisterValue;
1277:.\Generated_Source\PSoC4/Slider.c **** 	
1278:.\Generated_Source\PSoC4/Slider.c **** 	Slider_SetDriveModeAllPins(CY_SYS_PINS_DM_ALG_HIZ);
1279:.\Generated_Source\PSoC4/Slider.c **** 	
1280:.\Generated_Source\PSoC4/Slider.c **** 	newRegisterValue = Slider_CMOD_CONNECTION_REG; 
1281:.\Generated_Source\PSoC4/Slider.c ****     newRegisterValue &= ~(Slider_CSD_CMOD_CONNECTION_MASK);
1282:.\Generated_Source\PSoC4/Slider.c ****     newRegisterValue |= Slider_CSD_CMOD_TO_AMUXBUS_A;
1283:.\Generated_Source\PSoC4/Slider.c ****     Slider_CMOD_CONNECTION_REG = newRegisterValue;
1284:.\Generated_Source\PSoC4/Slider.c **** 	
1285:.\Generated_Source\PSoC4/Slider.c **** 	#if(0u != Slider_CSH_TANK_ENABLE)
1286:.\Generated_Source\PSoC4/Slider.c **** 		newRegisterValue = Slider_CTANK_CONNECTION_REG;
1287:.\Generated_Source\PSoC4/Slider.c ****         newRegisterValue &= ~(Slider_CSD_CTANK_CONNECTION_MASK);
1288:.\Generated_Source\PSoC4/Slider.c **** 		newRegisterValue |= Slider_CSD_CTANK_TO_AMUXBUS_B;
1289:.\Generated_Source\PSoC4/Slider.c ****         Slider_CTANK_CONNECTION_REG = newRegisterValue;
1290:.\Generated_Source\PSoC4/Slider.c **** 	#endif/* (0u != Slider_CSH_TANK_ENABLE) */
1291:.\Generated_Source\PSoC4/Slider.c **** 	
1292:.\Generated_Source\PSoC4/Slider.c **** 	#if(0u != Slider_IS_SHIELD_ENABLE)
1293:.\Generated_Source\PSoC4/Slider.c **** 		newRegisterValue = *Slider_prtSelTbl[Slider_SHIELD_PORT_NUMBER];
1294:.\Generated_Source\PSoC4/Slider.c ****         newRegisterValue &= ~(Slider_CSD_HSIOM_MASK << ((uint32)Slider_SHIELD_PIN_NUMBER * Slider_H
1295:.\Generated_Source\PSoC4/Slider.c ****         newRegisterValue |= (Slider_CSD_SHIELD_PORT_MODE << ((uint32)Slider_SHIELD_PIN_NUMBER * Sli
1296:.\Generated_Source\PSoC4/Slider.c ****         *Slider_prtSelTbl[Slider_SHIELD_PORT_NUMBER] = newRegisterValue;
1297:.\Generated_Source\PSoC4/Slider.c **** 	#endif /* (0u != Slider_IS_SHIELD_ENABLE) */	
1298:.\Generated_Source\PSoC4/Slider.c **** }
1299:.\Generated_Source\PSoC4/Slider.c **** 
1300:.\Generated_Source\PSoC4/Slider.c **** 
1301:.\Generated_Source\PSoC4/Slider.c **** /*******************************************************************************
1302:.\Generated_Source\PSoC4/Slider.c **** * Function Name: Slider_SetPinDriveMode
1303:.\Generated_Source\PSoC4/Slider.c **** ********************************************************************************
1304:.\Generated_Source\PSoC4/Slider.c **** *
1305:.\Generated_Source\PSoC4/Slider.c **** * Summary:
1306:.\Generated_Source\PSoC4/Slider.c **** * This API sets the drive mode for the appropriate port/pin.
1307:.\Generated_Source\PSoC4/Slider.c **** *
1308:.\Generated_Source\PSoC4/Slider.c **** * Parameters:
1309:.\Generated_Source\PSoC4/Slider.c **** *  driveMode:  Drive mode definition.
1310:.\Generated_Source\PSoC4/Slider.c **** *  portNumber: contains port number (0, 1, 2).
1311:.\Generated_Source\PSoC4/Slider.c **** *  pinNumber: contains pin number (0, 1, 2, ... , 7).
1312:.\Generated_Source\PSoC4/Slider.c **** *
1313:.\Generated_Source\PSoC4/Slider.c **** * Return:
1314:.\Generated_Source\PSoC4/Slider.c **** *  None
1315:.\Generated_Source\PSoC4/Slider.c **** *
1316:.\Generated_Source\PSoC4/Slider.c **** * Global Variables:
1317:.\Generated_Source\PSoC4/Slider.c **** *  Slider_prtSelTbl[] - Contains pointers to the HSIOM 
1318:.\Generated_Source\PSoC4/Slider.c **** *  registers for each port. 
1319:.\Generated_Source\PSoC4/Slider.c **** *  Slider_prtCfgTb[] - Contains pointers to the port config 
1320:.\Generated_Source\PSoC4/Slider.c **** *  registers for each port.
1321:.\Generated_Source\PSoC4/Slider.c **** *
1322:.\Generated_Source\PSoC4/Slider.c **** * Side Effects: 
1323:.\Generated_Source\PSoC4/Slider.c **** *  This API is called only after CapSense component is stopped.
1324:.\Generated_Source\PSoC4/Slider.c **** *
1325:.\Generated_Source\PSoC4/Slider.c **** *******************************************************************************/
1326:.\Generated_Source\PSoC4/Slider.c **** void Slider_SetPinDriveMode(uint32 driveMode, uint32 pinNumber, uint32 portNumber)
1327:.\Generated_Source\PSoC4/Slider.c **** {	
ARM GAS  C:\Users\ELECTR~1\AppData\Local\Temp\ccbbDBvf.s 			page 35


 605              		.loc 1 1327 0
 606              		.cfi_startproc
 607              	.LVL73:
 608 0000 10B5     		push	{r4, lr}
 609              		.cfi_def_cfa_offset 8
 610              		.cfi_offset 4, -8
 611              		.cfi_offset 14, -4
1328:.\Generated_Source\PSoC4/Slider.c **** 	uint32  pinModeShift;
1329:.\Generated_Source\PSoC4/Slider.c **** 	uint32 newRegisterValue;
1330:.\Generated_Source\PSoC4/Slider.c **** 	
1331:.\Generated_Source\PSoC4/Slider.c **** 	pinModeShift  = pinNumber * Slider_PC_PIN_CFG_SIZE;
 612              		.loc 1 1331 0
 613 0002 4B00     		lsl	r3, r1, #1
 614 0004 5918     		add	r1, r3, r1
 615              	.LVL74:
1332:.\Generated_Source\PSoC4/Slider.c **** 	
1333:.\Generated_Source\PSoC4/Slider.c **** 	newRegisterValue = *Slider_prtCfgTbl[portNumber];
 616              		.loc 1 1333 0
 617 0006 9200     		lsl	r2, r2, #2
 618              	.LVL75:
 619 0008 054B     		ldr	r3, .L39
 620 000a 9A18     		add	r2, r3, r2
 621 000c 946A     		ldr	r4, [r2, #40]
 622 000e 2368     		ldr	r3, [r4]
 623              	.LVL76:
1334:.\Generated_Source\PSoC4/Slider.c **** 	newRegisterValue &= ~(Slider_CSD_PIN_MODE_MASK << pinModeShift);
 624              		.loc 1 1334 0
 625 0010 0722     		mov	r2, #7
 626 0012 8A40     		lsl	r2, r2, r1
 627 0014 9343     		bic	r3, r2
 628              	.LVL77:
1335:.\Generated_Source\PSoC4/Slider.c **** 	newRegisterValue |=  (uint32)((uint32)driveMode << pinModeShift);
 629              		.loc 1 1335 0
 630 0016 8840     		lsl	r0, r0, r1
 631              	.LVL78:
 632 0018 1843     		orr	r0, r3
 633              	.LVL79:
1336:.\Generated_Source\PSoC4/Slider.c ****     *Slider_prtCfgTbl[portNumber] =  newRegisterValue;
 634              		.loc 1 1336 0
 635 001a 2060     		str	r0, [r4]
1337:.\Generated_Source\PSoC4/Slider.c **** }
 636              		.loc 1 1337 0
 637              		@ sp needed
 638 001c 10BD     		pop	{r4, pc}
 639              	.L40:
 640 001e C046     		.align	2
 641              	.L39:
 642 0020 00000000 		.word	.LANCHOR2
 643              		.cfi_endproc
 644              	.LFE54:
 645              		.size	Slider_SetPinDriveMode, .-Slider_SetPinDriveMode
 646              		.section	.text.Slider_SetDriveModeAllPins,"ax",%progbits
 647              		.align	2
 648              		.global	Slider_SetDriveModeAllPins
 649              		.code	16
 650              		.thumb_func
 651              		.type	Slider_SetDriveModeAllPins, %function
ARM GAS  C:\Users\ELECTR~1\AppData\Local\Temp\ccbbDBvf.s 			page 36


 652              	Slider_SetDriveModeAllPins:
 653              	.LFB52:
1202:.\Generated_Source\PSoC4/Slider.c **** 	uint8 curSensor;
 654              		.loc 1 1202 0
 655              		.cfi_startproc
 656              	.LVL80:
 657 0000 38B5     		push	{r3, r4, r5, lr}
 658              		.cfi_def_cfa_offset 16
 659              		.cfi_offset 3, -16
 660              		.cfi_offset 4, -12
 661              		.cfi_offset 5, -8
 662              		.cfi_offset 14, -4
 663 0002 051C     		mov	r5, r0
 664              	.LVL81:
1211:.\Generated_Source\PSoC4/Slider.c **** 	{	
 665              		.loc 1 1211 0
 666 0004 0024     		mov	r4, #0
 667 0006 08E0     		b	.L42
 668              	.LVL82:
 669              	.L43:
1233:.\Generated_Source\PSoC4/Slider.c **** 			pinNumberTmp = Slider_pinShiftTbl[curSensor];
 670              		.loc 1 1233 0 discriminator 3
 671 0008 084B     		ldr	r3, .L44
 672 000a 1A5D     		ldrb	r2, [r3, r4]
 673              	.LVL83:
1234:.\Generated_Source\PSoC4/Slider.c **** 		#endif  /* Slider_IS_COMPLEX_SCANSLOTS */
 674              		.loc 1 1234 0 discriminator 3
 675 000c 1B19     		add	r3, r3, r4
 676 000e 197A     		ldrb	r1, [r3, #8]
 677              	.LVL84:
1237:.\Generated_Source\PSoC4/Slider.c **** 	}
 678              		.loc 1 1237 0 discriminator 3
 679 0010 281C     		mov	r0, r5
 680 0012 FFF7FEFF 		bl	Slider_SetPinDriveMode
 681              	.LVL85:
1211:.\Generated_Source\PSoC4/Slider.c **** 	{	
 682              		.loc 1 1211 0 discriminator 3
 683 0016 0134     		add	r4, r4, #1
 684              	.LVL86:
 685 0018 E4B2     		uxtb	r4, r4
 686              	.LVL87:
 687              	.L42:
1211:.\Generated_Source\PSoC4/Slider.c **** 	{	
 688              		.loc 1 1211 0 is_stmt 0 discriminator 1
 689 001a 042C     		cmp	r4, #4
 690 001c F4D9     		bls	.L43
1240:.\Generated_Source\PSoC4/Slider.c **** 	
 691              		.loc 1 1240 0 is_stmt 1
 692 001e 281C     		mov	r0, r5
 693 0020 0021     		mov	r1, #0
 694 0022 0422     		mov	r2, #4
 695 0024 FFF7FEFF 		bl	Slider_SetPinDriveMode
 696              	.LVL88:
1249:.\Generated_Source\PSoC4/Slider.c **** 
 697              		.loc 1 1249 0
 698              		@ sp needed
 699              	.LVL89:
ARM GAS  C:\Users\ELECTR~1\AppData\Local\Temp\ccbbDBvf.s 			page 37


 700              	.LVL90:
 701 0028 38BD     		pop	{r3, r4, r5, pc}
 702              	.L45:
 703 002a C046     		.align	2
 704              	.L44:
 705 002c 00000000 		.word	.LANCHOR2
 706              		.cfi_endproc
 707              	.LFE52:
 708              		.size	Slider_SetDriveModeAllPins, .-Slider_SetDriveModeAllPins
 709              		.section	.text.Slider_RestoreDriveModeAllPins,"ax",%progbits
 710              		.align	2
 711              		.global	Slider_RestoreDriveModeAllPins
 712              		.code	16
 713              		.thumb_func
 714              		.type	Slider_RestoreDriveModeAllPins, %function
 715              	Slider_RestoreDriveModeAllPins:
 716              	.LFB53:
1275:.\Generated_Source\PSoC4/Slider.c **** 	uint32 newRegisterValue;
 717              		.loc 1 1275 0
 718              		.cfi_startproc
 719 0000 08B5     		push	{r3, lr}
 720              		.cfi_def_cfa_offset 8
 721              		.cfi_offset 3, -8
 722              		.cfi_offset 14, -4
1278:.\Generated_Source\PSoC4/Slider.c **** 	
 723              		.loc 1 1278 0
 724 0002 0020     		mov	r0, #0
 725 0004 FFF7FEFF 		bl	Slider_SetDriveModeAllPins
 726              	.LVL91:
1280:.\Generated_Source\PSoC4/Slider.c ****     newRegisterValue &= ~(Slider_CSD_CMOD_CONNECTION_MASK);
 727              		.loc 1 1280 0
 728 0008 0349     		ldr	r1, .L47
 729 000a 0B68     		ldr	r3, [r1]
 730              	.LVL92:
1281:.\Generated_Source\PSoC4/Slider.c ****     newRegisterValue |= Slider_CSD_CMOD_TO_AMUXBUS_A;
 731              		.loc 1 1281 0
 732 000c 0F22     		mov	r2, #15
 733 000e 9343     		bic	r3, r2
 734              	.LVL93:
1282:.\Generated_Source\PSoC4/Slider.c ****     Slider_CMOD_CONNECTION_REG = newRegisterValue;
 735              		.loc 1 1282 0
 736 0010 093A     		sub	r2, r2, #9
 737 0012 1343     		orr	r3, r2
 738              	.LVL94:
1283:.\Generated_Source\PSoC4/Slider.c **** 	
 739              		.loc 1 1283 0
 740 0014 0B60     		str	r3, [r1]
1298:.\Generated_Source\PSoC4/Slider.c **** 
 741              		.loc 1 1298 0
 742              		@ sp needed
 743 0016 08BD     		pop	{r3, pc}
 744              	.L48:
 745              		.align	2
 746              	.L47:
 747 0018 00040240 		.word	1073873920
 748              		.cfi_endproc
 749              	.LFE53:
ARM GAS  C:\Users\ELECTR~1\AppData\Local\Temp\ccbbDBvf.s 			page 38


 750              		.size	Slider_RestoreDriveModeAllPins, .-Slider_RestoreDriveModeAllPins
 751              		.section	.text.Slider_EnableShieldElectrode,"ax",%progbits
 752              		.align	2
 753              		.global	Slider_EnableShieldElectrode
 754              		.code	16
 755              		.thumb_func
 756              		.type	Slider_EnableShieldElectrode, %function
 757              	Slider_EnableShieldElectrode:
 758              	.LFB57:
1338:.\Generated_Source\PSoC4/Slider.c **** 
1339:.\Generated_Source\PSoC4/Slider.c **** 
1340:.\Generated_Source\PSoC4/Slider.c **** /*******************************************************************************
1341:.\Generated_Source\PSoC4/Slider.c **** * Function Name: Slider_PreScan
1342:.\Generated_Source\PSoC4/Slider.c **** ********************************************************************************
1343:.\Generated_Source\PSoC4/Slider.c **** *
1344:.\Generated_Source\PSoC4/Slider.c **** * Summary:
1345:.\Generated_Source\PSoC4/Slider.c **** *  Sets required settings, enables a sensor, removes Vref from AMUX and starts the 
1346:.\Generated_Source\PSoC4/Slider.c **** *  scanning process of the sensor.
1347:.\Generated_Source\PSoC4/Slider.c **** *
1348:.\Generated_Source\PSoC4/Slider.c **** * Parameters:
1349:.\Generated_Source\PSoC4/Slider.c **** *  sensor:  Sensor number.
1350:.\Generated_Source\PSoC4/Slider.c **** *
1351:.\Generated_Source\PSoC4/Slider.c **** * Return:
1352:.\Generated_Source\PSoC4/Slider.c **** *  None
1353:.\Generated_Source\PSoC4/Slider.c **** *
1354:.\Generated_Source\PSoC4/Slider.c **** * Global Variables:
1355:.\Generated_Source\PSoC4/Slider.c **** * Slider_widgetNumber[] - This array contains numbers of widgets for each sensor.
1356:.\Generated_Source\PSoC4/Slider.c **** * Slider_widgetResolution[] - Contains the widget resolution.
1357:.\Generated_Source\PSoC4/Slider.c **** *
1358:.\Generated_Source\PSoC4/Slider.c **** * Side Effects: 
1359:.\Generated_Source\PSoC4/Slider.c **** *  None
1360:.\Generated_Source\PSoC4/Slider.c **** *
1361:.\Generated_Source\PSoC4/Slider.c **** *******************************************************************************/
1362:.\Generated_Source\PSoC4/Slider.c **** void Slider_PreScan(uint32 sensor)
1363:.\Generated_Source\PSoC4/Slider.c **** {
1364:.\Generated_Source\PSoC4/Slider.c ****     uint8 widget;
1365:.\Generated_Source\PSoC4/Slider.c ****     uint8 interruptState;
1366:.\Generated_Source\PSoC4/Slider.c **** 	uint32 newRegValue;
1367:.\Generated_Source\PSoC4/Slider.c **** 	uint32 counterResolution;
1368:.\Generated_Source\PSoC4/Slider.c **** 	
1369:.\Generated_Source\PSoC4/Slider.c **** 	#if(Slider_PRS_OPTIONS == Slider__PRS_AUTO)
1370:.\Generated_Source\PSoC4/Slider.c **** 		uint8 senseClkDivMath;
1371:.\Generated_Source\PSoC4/Slider.c **** 		uint8 sampleClkDivMath;
1372:.\Generated_Source\PSoC4/Slider.c **** 	#endif /* (Slider_PRS_OPTIONS == Slider__PRS_AUTO) */	
1373:.\Generated_Source\PSoC4/Slider.c **** 	
1374:.\Generated_Source\PSoC4/Slider.c **** 	#if ((Slider_TUNING_METHOD == Slider__TUNING_AUTO) &&\
1375:.\Generated_Source\PSoC4/Slider.c **** 		 (0 != Slider_IS_OVERSAMPLING_EN))
1376:.\Generated_Source\PSoC4/Slider.c **** 		uint32 oversamplingFactor;
1377:.\Generated_Source\PSoC4/Slider.c **** 	#endif /* ((Slider_TUNING_METHOD == Slider__TUNING_AUTO) &&\
1378:.\Generated_Source\PSoC4/Slider.c **** 	           (0 != Slider_IS_OVERSAMPLING_EN)) */
1379:.\Generated_Source\PSoC4/Slider.c **** 
1380:.\Generated_Source\PSoC4/Slider.c ****     /* Define widget sensor belongs to */
1381:.\Generated_Source\PSoC4/Slider.c ****     widget = Slider_widgetNumber[sensor];
1382:.\Generated_Source\PSoC4/Slider.c **** 
1383:.\Generated_Source\PSoC4/Slider.c **** 	/* Recalculate Counter Resolution to MSB 16 bits */
1384:.\Generated_Source\PSoC4/Slider.c **** 	counterResolution = Slider_widgetResolution[widget];
1385:.\Generated_Source\PSoC4/Slider.c **** 	
ARM GAS  C:\Users\ELECTR~1\AppData\Local\Temp\ccbbDBvf.s 			page 39


1386:.\Generated_Source\PSoC4/Slider.c **** 	#if ((Slider_TUNING_METHOD == Slider__TUNING_AUTO) &&\
1387:.\Generated_Source\PSoC4/Slider.c **** 		 (0 != Slider_IS_OVERSAMPLING_EN))
1388:.\Generated_Source\PSoC4/Slider.c **** 	    oversamplingFactor = Slider_GetBitValue(scanSpeedTbl, sensor);
1389:.\Generated_Source\PSoC4/Slider.c **** 
1390:.\Generated_Source\PSoC4/Slider.c **** 		if(counterResolution < Slider_RESOLUTION_16_BITS)
1391:.\Generated_Source\PSoC4/Slider.c **** 		{
1392:.\Generated_Source\PSoC4/Slider.c **** 			counterResolution <<= oversamplingFactor;
1393:.\Generated_Source\PSoC4/Slider.c **** 			counterResolution |= (uint32)(Slider_RESOLUTION_8_BITS);
1394:.\Generated_Source\PSoC4/Slider.c **** 		}
1395:.\Generated_Source\PSoC4/Slider.c **** 	#endif /* ((Slider_TUNING_METHOD == Slider__TUNING_AUTO) &&\
1396:.\Generated_Source\PSoC4/Slider.c **** 	           (0 != Slider_IS_OVERSAMPLING_EN)) */
1397:.\Generated_Source\PSoC4/Slider.c **** 	
1398:.\Generated_Source\PSoC4/Slider.c **** 	#if (0u != Slider_IS_M0S8PERI_BLOCK)
1399:.\Generated_Source\PSoC4/Slider.c **** 		Slider_SenseClk_Stop();
1400:.\Generated_Source\PSoC4/Slider.c **** 		Slider_SampleClk_Stop();
1401:.\Generated_Source\PSoC4/Slider.c **** 	#endif /* (0u != Slider_IS_M0S8PERI_BLOCK) */
1402:.\Generated_Source\PSoC4/Slider.c **** 
1403:.\Generated_Source\PSoC4/Slider.c **** 	#if (0u != Slider_MULTIPLE_FREQUENCY_SET)
1404:.\Generated_Source\PSoC4/Slider.c **** 		Slider_SampleClk_SetDividerValue((uint16)Slider_sampleClkDividerVal[sensor]);
1405:.\Generated_Source\PSoC4/Slider.c **** 		Slider_SenseClk_SetDividerValue((uint16)Slider_senseClkDividerVal[sensor]);
1406:.\Generated_Source\PSoC4/Slider.c **** 	#else
1407:.\Generated_Source\PSoC4/Slider.c **** 		Slider_SampleClk_SetDividerValue((uint16)Slider_sampleClkDividerVal);
1408:.\Generated_Source\PSoC4/Slider.c **** 		Slider_SenseClk_SetDividerValue((uint16)Slider_senseClkDividerVal);
1409:.\Generated_Source\PSoC4/Slider.c **** 	#endif /* (0u != Slider_MULTIPLE_FREQUENCY_SET) */
1410:.\Generated_Source\PSoC4/Slider.c **** 
1411:.\Generated_Source\PSoC4/Slider.c **** 	#if (0u != Slider_IS_M0S8PERI_BLOCK)
1412:.\Generated_Source\PSoC4/Slider.c **** 		Slider_SampleClk_Start();
1413:.\Generated_Source\PSoC4/Slider.c **** 		Slider_SenseClk_StartEx(Slider_SampleClk__DIV_ID);
1414:.\Generated_Source\PSoC4/Slider.c **** 		
1415:.\Generated_Source\PSoC4/Slider.c **** 		#if(Slider_PRS_OPTIONS == Slider__PRS_NONE)
1416:.\Generated_Source\PSoC4/Slider.c **** 			CyIntDisable(Slider_ISR_NUMBER);
1417:.\Generated_Source\PSoC4/Slider.c **** 			Slider_CSD_CNT_REG = Slider_ONE_CYCLE;
1418:.\Generated_Source\PSoC4/Slider.c **** 			while(0u != (Slider_CSD_CNT_REG & Slider_RESOLUTION_16_BITS))
1419:.\Generated_Source\PSoC4/Slider.c **** 			{
1420:.\Generated_Source\PSoC4/Slider.c **** 			/* Wait until scanning is complete */ 
1421:.\Generated_Source\PSoC4/Slider.c **** 			}
1422:.\Generated_Source\PSoC4/Slider.c **** 			Slider_CSD_INTR_REG = 1u;
1423:.\Generated_Source\PSoC4/Slider.c **** 			CyIntClearPending(Slider_ISR_NUMBER);
1424:.\Generated_Source\PSoC4/Slider.c **** 			CyIntEnable(Slider_ISR_NUMBER); 
1425:.\Generated_Source\PSoC4/Slider.c **** 		#endif /* Slider_PRS_OPTIONS == Slider__PRS_NONE */
1426:.\Generated_Source\PSoC4/Slider.c **** 	#endif /* (0u != Slider_IS_M0S8PERI_BLOCK) */
1427:.\Generated_Source\PSoC4/Slider.c **** 
1428:.\Generated_Source\PSoC4/Slider.c **** #if(Slider_PRS_OPTIONS != Slider__PRS_NONE)
1429:.\Generated_Source\PSoC4/Slider.c **** 
1430:.\Generated_Source\PSoC4/Slider.c **** 	#if(Slider_TUNING_METHOD == Slider__TUNING_AUTO)
1431:.\Generated_Source\PSoC4/Slider.c **** 		if(Slider_prescalersTuningDone != 0u)
1432:.\Generated_Source\PSoC4/Slider.c **** 		{
1433:.\Generated_Source\PSoC4/Slider.c **** 	#endif /* (Slider_TUNING_METHOD == Slider__TUNING_AUTO) */
1434:.\Generated_Source\PSoC4/Slider.c **** 			
1435:.\Generated_Source\PSoC4/Slider.c **** 			CyIntDisable(Slider_ISR_NUMBER);
1436:.\Generated_Source\PSoC4/Slider.c **** 			
1437:.\Generated_Source\PSoC4/Slider.c **** 			newRegValue = Slider_CSD_CFG_REG;
1438:.\Generated_Source\PSoC4/Slider.c **** 			newRegValue |= Slider_CSD_CFG_PRS_SELECT;
1439:.\Generated_Source\PSoC4/Slider.c **** 			
1440:.\Generated_Source\PSoC4/Slider.c **** 			#if(Slider_PRS_OPTIONS == Slider__PRS_AUTO)
1441:.\Generated_Source\PSoC4/Slider.c **** 				
1442:.\Generated_Source\PSoC4/Slider.c **** 				newRegValue &= ~(Slider_PRS_MODE_MASK);
ARM GAS  C:\Users\ELECTR~1\AppData\Local\Temp\ccbbDBvf.s 			page 40


1443:.\Generated_Source\PSoC4/Slider.c **** 				
1444:.\Generated_Source\PSoC4/Slider.c **** 				#if (0u != Slider_MULTIPLE_FREQUENCY_SET)
1445:.\Generated_Source\PSoC4/Slider.c **** 					senseClkDivMath = Slider_senseClkDividerVal[sensor];
1446:.\Generated_Source\PSoC4/Slider.c **** 					sampleClkDivMath = Slider_sampleClkDividerVal[sensor];
1447:.\Generated_Source\PSoC4/Slider.c **** 				#else
1448:.\Generated_Source\PSoC4/Slider.c **** 					senseClkDivMath = Slider_senseClkDividerVal;
1449:.\Generated_Source\PSoC4/Slider.c **** 					sampleClkDivMath = Slider_sampleClkDividerVal;
1450:.\Generated_Source\PSoC4/Slider.c **** 				#endif /* ( Slider_MULTIPLE_FREQUENCY_SET) */
1451:.\Generated_Source\PSoC4/Slider.c **** 				
1452:.\Generated_Source\PSoC4/Slider.c **** 				#if(0u == Slider_IS_M0S8PERI_BLOCK)
1453:.\Generated_Source\PSoC4/Slider.c **** 					senseClkDivMath *= sampleClkDivMath;
1454:.\Generated_Source\PSoC4/Slider.c **** 				#endif /* (0u == Slider_IS_M0S8PERI_BLOCK) */	
1455:.\Generated_Source\PSoC4/Slider.c **** 				
1456:.\Generated_Source\PSoC4/Slider.c **** 				if((senseClkDivMath * Slider_RESOLUTION_12_BITS) <
1457:.\Generated_Source\PSoC4/Slider.c **** 				   (sampleClkDivMath * Slider_widgetResolution[widget]))
1458:.\Generated_Source\PSoC4/Slider.c **** 				{
1459:.\Generated_Source\PSoC4/Slider.c **** 					newRegValue |= Slider_CSD_PRS_12_BIT;
1460:.\Generated_Source\PSoC4/Slider.c **** 				}
1461:.\Generated_Source\PSoC4/Slider.c **** 			#endif /* (Slider_PRS_OPTIONS == Slider__PRS_AUTO) */
1462:.\Generated_Source\PSoC4/Slider.c **** 			
1463:.\Generated_Source\PSoC4/Slider.c **** 			Slider_CSD_CFG_REG = newRegValue;
1464:.\Generated_Source\PSoC4/Slider.c **** 			
1465:.\Generated_Source\PSoC4/Slider.c **** 			CyIntEnable(Slider_ISR_NUMBER);
1466:.\Generated_Source\PSoC4/Slider.c **** 			
1467:.\Generated_Source\PSoC4/Slider.c **** 	#if(Slider_TUNING_METHOD == Slider__TUNING_AUTO)	
1468:.\Generated_Source\PSoC4/Slider.c **** 		}
1469:.\Generated_Source\PSoC4/Slider.c **** 	#endif /* (Slider_PRS_OPTIONS != Slider__PRS_NONE) */
1470:.\Generated_Source\PSoC4/Slider.c **** 
1471:.\Generated_Source\PSoC4/Slider.c **** #endif /* (Slider_PRS_OPTIONS == Slider__PRS_NONE) */
1472:.\Generated_Source\PSoC4/Slider.c **** 	
1473:.\Generated_Source\PSoC4/Slider.c **** 	/* Set Idac Value */
1474:.\Generated_Source\PSoC4/Slider.c **** 	CyIntDisable(Slider_ISR_NUMBER);
1475:.\Generated_Source\PSoC4/Slider.c ****     newRegValue = Slider_CSD_IDAC_REG;
1476:.\Generated_Source\PSoC4/Slider.c ****  
1477:.\Generated_Source\PSoC4/Slider.c **** #if (Slider_IDAC_CNT == 1u)    
1478:.\Generated_Source\PSoC4/Slider.c **** 	newRegValue &= ~(Slider_CSD_IDAC1_DATA_MASK);
1479:.\Generated_Source\PSoC4/Slider.c **** 	newRegValue |= Slider_modulationIDAC[sensor];
1480:.\Generated_Source\PSoC4/Slider.c **** #else
1481:.\Generated_Source\PSoC4/Slider.c **** 	newRegValue &= ~(Slider_CSD_IDAC1_DATA_MASK | Slider_CSD_IDAC2_DATA_MASK);
1482:.\Generated_Source\PSoC4/Slider.c **** 	newRegValue |= (Slider_modulationIDAC[sensor] | 
1483:.\Generated_Source\PSoC4/Slider.c **** 							(uint32)((uint32)Slider_compensationIDAC[sensor] <<
1484:.\Generated_Source\PSoC4/Slider.c **** 							Slider_CSD_IDAC2_DATA_OFFSET));                               
1485:.\Generated_Source\PSoC4/Slider.c **** #endif /* (Slider_IDAC_CNT == 1u) */
1486:.\Generated_Source\PSoC4/Slider.c **** 	
1487:.\Generated_Source\PSoC4/Slider.c **** 	Slider_CSD_IDAC_REG = newRegValue;
1488:.\Generated_Source\PSoC4/Slider.c **** 
1489:.\Generated_Source\PSoC4/Slider.c **** #if(Slider_CMOD_PREGARGE_OPTION == Slider__CAPPRIOBUF)
1490:.\Generated_Source\PSoC4/Slider.c **** 	newRegValue = Slider_CMOD_CONNECTION_REG;
1491:.\Generated_Source\PSoC4/Slider.c **** 	newRegValue &= ~(Slider_CSD_CMOD_CONNECTION_MASK);
1492:.\Generated_Source\PSoC4/Slider.c **** 	newRegValue |= Slider_CSD_CMOD_TO_AMUXBUS_A;
1493:.\Generated_Source\PSoC4/Slider.c **** 	Slider_CMOD_CONNECTION_REG = newRegValue;
1494:.\Generated_Source\PSoC4/Slider.c **** 	
1495:.\Generated_Source\PSoC4/Slider.c **** 	newRegValue = Slider_CMOD_PORT_PC_REG;
1496:.\Generated_Source\PSoC4/Slider.c **** 	newRegValue &= ~(Slider_CSD_CMOD_PC_MASK);
1497:.\Generated_Source\PSoC4/Slider.c **** 	newRegValue |= Slider_CMOD_PC_HIGH_Z_MODE;
1498:.\Generated_Source\PSoC4/Slider.c **** 	Slider_CMOD_PORT_PC_REG = newRegValue;
1499:.\Generated_Source\PSoC4/Slider.c **** #endif /* (Slider_CMOD_PREGARGE_OPTION == Slider__CAPPRIOBUF) */
ARM GAS  C:\Users\ELECTR~1\AppData\Local\Temp\ccbbDBvf.s 			page 41


1500:.\Generated_Source\PSoC4/Slider.c **** 
1501:.\Generated_Source\PSoC4/Slider.c ****     /* Disconnect Vref Buffer from AMUX */
1502:.\Generated_Source\PSoC4/Slider.c **** 	newRegValue = Slider_CSD_CFG_REG;
1503:.\Generated_Source\PSoC4/Slider.c **** 	newRegValue &= ~(Slider_PRECHARGE_CONFIG_MASK);
1504:.\Generated_Source\PSoC4/Slider.c **** 	newRegValue |= Slider_CTANK_PRECHARGE_CONFIG;
1505:.\Generated_Source\PSoC4/Slider.c **** 	
1506:.\Generated_Source\PSoC4/Slider.c **** 	CyIntEnable(Slider_ISR_NUMBER);
1507:.\Generated_Source\PSoC4/Slider.c **** 	
1508:.\Generated_Source\PSoC4/Slider.c ****     /* Enable Sensor */
1509:.\Generated_Source\PSoC4/Slider.c ****     Slider_EnableScanSlot(sensor);
1510:.\Generated_Source\PSoC4/Slider.c ****     
1511:.\Generated_Source\PSoC4/Slider.c **** 	interruptState = CyEnterCriticalSection();
1512:.\Generated_Source\PSoC4/Slider.c **** 	Slider_CSD_CFG_REG = newRegValue;
1513:.\Generated_Source\PSoC4/Slider.c **** 	
1514:.\Generated_Source\PSoC4/Slider.c **** 	/* `#START Slider_PreSettlingDelay_Debug` */
1515:.\Generated_Source\PSoC4/Slider.c **** 
1516:.\Generated_Source\PSoC4/Slider.c **** 	/* `#END` */
1517:.\Generated_Source\PSoC4/Slider.c **** 	
1518:.\Generated_Source\PSoC4/Slider.c **** 	CyDelayCycles(Slider_GLITCH_ELIMINATION_CYCLES);
1519:.\Generated_Source\PSoC4/Slider.c **** 	
1520:.\Generated_Source\PSoC4/Slider.c **** 	/* `#START Slider_PreScan_Debug` */
1521:.\Generated_Source\PSoC4/Slider.c **** 
1522:.\Generated_Source\PSoC4/Slider.c **** 	/* `#END` */
1523:.\Generated_Source\PSoC4/Slider.c **** 	
1524:.\Generated_Source\PSoC4/Slider.c ****     Slider_CSD_CNT_REG = counterResolution;
1525:.\Generated_Source\PSoC4/Slider.c ****     CyExitCriticalSection(interruptState);
1526:.\Generated_Source\PSoC4/Slider.c **** }
1527:.\Generated_Source\PSoC4/Slider.c **** 
1528:.\Generated_Source\PSoC4/Slider.c **** 
1529:.\Generated_Source\PSoC4/Slider.c **** /*******************************************************************************
1530:.\Generated_Source\PSoC4/Slider.c **** * Function Name: Slider_PostScan
1531:.\Generated_Source\PSoC4/Slider.c **** ********************************************************************************
1532:.\Generated_Source\PSoC4/Slider.c **** *
1533:.\Generated_Source\PSoC4/Slider.c **** * Summary:
1534:.\Generated_Source\PSoC4/Slider.c **** *  Stores the results of measurement in the Slider_sensorRaw[] array,
1535:.\Generated_Source\PSoC4/Slider.c **** *  sets the scanning sensor in the non-sampling state, turns off Idac(Current Source IDAC),
1536:.\Generated_Source\PSoC4/Slider.c **** *  disconnects the IDAC(Sink mode), and applies Vref on AMUX.
1537:.\Generated_Source\PSoC4/Slider.c **** *
1538:.\Generated_Source\PSoC4/Slider.c **** * Parameters:
1539:.\Generated_Source\PSoC4/Slider.c **** *  sensor:  Sensor number.
1540:.\Generated_Source\PSoC4/Slider.c **** *
1541:.\Generated_Source\PSoC4/Slider.c **** * Return:
1542:.\Generated_Source\PSoC4/Slider.c **** *  None
1543:.\Generated_Source\PSoC4/Slider.c **** *
1544:.\Generated_Source\PSoC4/Slider.c **** * Global Variables:
1545:.\Generated_Source\PSoC4/Slider.c **** *  Slider_sensorRaw[] - used to store sensors raw data.
1546:.\Generated_Source\PSoC4/Slider.c **** *
1547:.\Generated_Source\PSoC4/Slider.c **** * Side Effects: 
1548:.\Generated_Source\PSoC4/Slider.c **** *  None
1549:.\Generated_Source\PSoC4/Slider.c **** *
1550:.\Generated_Source\PSoC4/Slider.c **** *******************************************************************************/
1551:.\Generated_Source\PSoC4/Slider.c **** void Slider_PostScan(uint32 sensor)
1552:.\Generated_Source\PSoC4/Slider.c **** {	
1553:.\Generated_Source\PSoC4/Slider.c **** 	uint32 newRegValue;
1554:.\Generated_Source\PSoC4/Slider.c **** #if ((Slider_TUNING_METHOD == Slider__TUNING_AUTO) &&\
1555:.\Generated_Source\PSoC4/Slider.c **** 	 (0 != Slider_IS_OVERSAMPLING_EN))
1556:.\Generated_Source\PSoC4/Slider.c ****     uint32 oversamplingFactor;
ARM GAS  C:\Users\ELECTR~1\AppData\Local\Temp\ccbbDBvf.s 			page 42


1557:.\Generated_Source\PSoC4/Slider.c ****     uint32 widget;
1558:.\Generated_Source\PSoC4/Slider.c **** #endif /* ((Slider_TUNING_METHOD == Slider__TUNING_AUTO) &&\
1559:.\Generated_Source\PSoC4/Slider.c **** 		   (0 != Slider_IS_OVERSAMPLING_EN)) */	
1560:.\Generated_Source\PSoC4/Slider.c **** 
1561:.\Generated_Source\PSoC4/Slider.c **** 	/* `#START Slider_PostScan_Debug` */
1562:.\Generated_Source\PSoC4/Slider.c **** 
1563:.\Generated_Source\PSoC4/Slider.c **** 	/* `#END` */
1564:.\Generated_Source\PSoC4/Slider.c **** 
1565:.\Generated_Source\PSoC4/Slider.c **** 
1566:.\Generated_Source\PSoC4/Slider.c ****     /* Read SlotResult from Raw Counter */
1567:.\Generated_Source\PSoC4/Slider.c ****     Slider_sensorRaw[sensor]  = (uint16)Slider_CSD_CNT_REG;
1568:.\Generated_Source\PSoC4/Slider.c **** 	
1569:.\Generated_Source\PSoC4/Slider.c **** #if ((Slider_TUNING_METHOD == Slider__TUNING_AUTO) &&\
1570:.\Generated_Source\PSoC4/Slider.c **** 	 (0 != Slider_IS_OVERSAMPLING_EN))
1571:.\Generated_Source\PSoC4/Slider.c **** 	widget = Slider_widgetNumber[sensor];
1572:.\Generated_Source\PSoC4/Slider.c **** 	if(Slider_widgetResolution[widget] < Slider_RESOLUTION_16_BITS)
1573:.\Generated_Source\PSoC4/Slider.c **** 	{
1574:.\Generated_Source\PSoC4/Slider.c **** 		oversamplingFactor = Slider_GetBitValue(scanSpeedTbl, sensor);
1575:.\Generated_Source\PSoC4/Slider.c **** 		Slider_sensorRaw[sensor] >>= oversamplingFactor;
1576:.\Generated_Source\PSoC4/Slider.c **** 	}
1577:.\Generated_Source\PSoC4/Slider.c **** #endif /* ((Slider_TUNING_METHOD == Slider__TUNING_AUTO) &&\
1578:.\Generated_Source\PSoC4/Slider.c **** 		   (0 != Slider_IS_OVERSAMPLING_EN)) */
1579:.\Generated_Source\PSoC4/Slider.c **** 
1580:.\Generated_Source\PSoC4/Slider.c ****     /* Disable Sensor */
1581:.\Generated_Source\PSoC4/Slider.c ****     Slider_DisableScanSlot(sensor);
1582:.\Generated_Source\PSoC4/Slider.c **** 
1583:.\Generated_Source\PSoC4/Slider.c **** 	CyIntDisable(Slider_ISR_NUMBER);
1584:.\Generated_Source\PSoC4/Slider.c **** 	
1585:.\Generated_Source\PSoC4/Slider.c **** #if(Slider_CMOD_PREGARGE_OPTION == Slider__CAPPRIOBUF)
1586:.\Generated_Source\PSoC4/Slider.c **** 	newRegValue = Slider_CMOD_CONNECTION_REG;
1587:.\Generated_Source\PSoC4/Slider.c **** 	newRegValue &= ~(Slider_CSD_CMOD_CONNECTION_MASK);
1588:.\Generated_Source\PSoC4/Slider.c **** 	newRegValue |= Slider_CSD_CMOD_TO_AMUXBUS_B;
1589:.\Generated_Source\PSoC4/Slider.c **** 	Slider_CMOD_CONNECTION_REG = newRegValue;
1590:.\Generated_Source\PSoC4/Slider.c **** 	
1591:.\Generated_Source\PSoC4/Slider.c **** 	newRegValue = Slider_CMOD_PORT_PC_REG;
1592:.\Generated_Source\PSoC4/Slider.c **** 	newRegValue &= ~(Slider_CSD_CMOD_PC_MASK);
1593:.\Generated_Source\PSoC4/Slider.c **** 	newRegValue |= Slider_CMOD_PC_STRONG_MODE;
1594:.\Generated_Source\PSoC4/Slider.c **** 	Slider_CMOD_PORT_PC_REG = newRegValue;
1595:.\Generated_Source\PSoC4/Slider.c **** 		
1596:.\Generated_Source\PSoC4/Slider.c **** 	newRegValue = Slider_CMOD_PORT_DR_REG;
1597:.\Generated_Source\PSoC4/Slider.c ****     newRegValue &= ~(Slider_CMOD_DR_MASK);
1598:.\Generated_Source\PSoC4/Slider.c **** 	newRegValue |= Slider_CMOD_DR_CONFIG;
1599:.\Generated_Source\PSoC4/Slider.c ****     Slider_CMOD_PORT_DR_REG = newRegValue;    
1600:.\Generated_Source\PSoC4/Slider.c **** #endif /* (Slider_CMOD_PREGARGE_OPTION == Slider__CAPPRIOBUF) */
1601:.\Generated_Source\PSoC4/Slider.c **** 	
1602:.\Generated_Source\PSoC4/Slider.c **** 	/* Connect Vref Buffer to AMUX bus  */
1603:.\Generated_Source\PSoC4/Slider.c **** 	newRegValue = Slider_CSD_CFG_REG;
1604:.\Generated_Source\PSoC4/Slider.c **** 	newRegValue &= ~(Slider_PRECHARGE_CONFIG_MASK);
1605:.\Generated_Source\PSoC4/Slider.c **** 	newRegValue |= Slider_CMOD_PRECHARGE_CONFIG;
1606:.\Generated_Source\PSoC4/Slider.c **** 	Slider_CSD_CFG_REG = newRegValue;
1607:.\Generated_Source\PSoC4/Slider.c **** 
1608:.\Generated_Source\PSoC4/Slider.c **** 	/* Set Idac Value = 0 */
1609:.\Generated_Source\PSoC4/Slider.c **** #if (Slider_IDAC_CNT == 1u)   
1610:.\Generated_Source\PSoC4/Slider.c **** 	Slider_CSD_IDAC_REG &= ~(Slider_CSD_IDAC1_DATA_MASK);
1611:.\Generated_Source\PSoC4/Slider.c **** #else
1612:.\Generated_Source\PSoC4/Slider.c **** 	Slider_CSD_IDAC_REG &= ~(Slider_CSD_IDAC1_DATA_MASK | Slider_CSD_IDAC2_DATA_MASK);                
1613:.\Generated_Source\PSoC4/Slider.c **** #endif /* (Slider_IDAC_CNT == 1u) */
ARM GAS  C:\Users\ELECTR~1\AppData\Local\Temp\ccbbDBvf.s 			page 43


1614:.\Generated_Source\PSoC4/Slider.c **** 
1615:.\Generated_Source\PSoC4/Slider.c **** 	CyIntEnable(Slider_ISR_NUMBER);
1616:.\Generated_Source\PSoC4/Slider.c **** }
1617:.\Generated_Source\PSoC4/Slider.c **** 
1618:.\Generated_Source\PSoC4/Slider.c **** 
1619:.\Generated_Source\PSoC4/Slider.c **** /*******************************************************************************
1620:.\Generated_Source\PSoC4/Slider.c **** * Function Name: Slider_EnableShieldElectrode
1621:.\Generated_Source\PSoC4/Slider.c **** ********************************************************************************
1622:.\Generated_Source\PSoC4/Slider.c **** *
1623:.\Generated_Source\PSoC4/Slider.c **** * Summary:
1624:.\Generated_Source\PSoC4/Slider.c **** *  This API enables or disables the shield electrode on a specified port pin.
1625:.\Generated_Source\PSoC4/Slider.c **** *
1626:.\Generated_Source\PSoC4/Slider.c **** * Parameters:
1627:.\Generated_Source\PSoC4/Slider.c **** *  portNumber: contains the shield electrode port number (0, 1, 2).
1628:.\Generated_Source\PSoC4/Slider.c **** *  pinNumber: contains the shield electrode pin number (0, 1, 2, ... , 7).
1629:.\Generated_Source\PSoC4/Slider.c **** *
1630:.\Generated_Source\PSoC4/Slider.c **** * Return:
1631:.\Generated_Source\PSoC4/Slider.c **** *  None
1632:.\Generated_Source\PSoC4/Slider.c **** *
1633:.\Generated_Source\PSoC4/Slider.c **** * Global Variables:
1634:.\Generated_Source\PSoC4/Slider.c **** *  Slider_prtCfgTbl[] - Contains pointers to the port config registers for each port.
1635:.\Generated_Source\PSoC4/Slider.c **** *  Slider_prtSelTbl[] - Contains pointers to the HSIOM registers for each port.
1636:.\Generated_Source\PSoC4/Slider.c **** *
1637:.\Generated_Source\PSoC4/Slider.c **** * Side Effects: 
1638:.\Generated_Source\PSoC4/Slider.c **** *  None
1639:.\Generated_Source\PSoC4/Slider.c **** *
1640:.\Generated_Source\PSoC4/Slider.c **** *******************************************************************************/
1641:.\Generated_Source\PSoC4/Slider.c **** void Slider_EnableShieldElectrode(uint32 pinNumber, uint32 portNumber)
1642:.\Generated_Source\PSoC4/Slider.c **** {
 759              		.loc 1 1642 0
 760              		.cfi_startproc
 761              	.LVL95:
 762 0000 30B5     		push	{r4, r5, lr}
 763              		.cfi_def_cfa_offset 12
 764              		.cfi_offset 4, -12
 765              		.cfi_offset 5, -8
 766              		.cfi_offset 14, -4
1643:.\Generated_Source\PSoC4/Slider.c **** 	uint32 newRegValue;
1644:.\Generated_Source\PSoC4/Slider.c **** 	
1645:.\Generated_Source\PSoC4/Slider.c **** 	*Slider_prtCfgTbl[portNumber] &= ~(Slider_CSD_PIN_MODE_MASK << (pinNumber * Slider_PC_PIN_CFG_SIZE
 767              		.loc 1 1645 0
 768 0002 8900     		lsl	r1, r1, #2
 769              	.LVL96:
 770 0004 0A4B     		ldr	r3, .L50
 771 0006 5918     		add	r1, r3, r1
 772 0008 8D6A     		ldr	r5, [r1, #40]
 773 000a 2B68     		ldr	r3, [r5]
 774 000c 4200     		lsl	r2, r0, #1
 775 000e 1218     		add	r2, r2, r0
 776 0010 0724     		mov	r4, #7
 777 0012 9440     		lsl	r4, r4, r2
 778 0014 A343     		bic	r3, r4
 779 0016 2B60     		str	r3, [r5]
1646:.\Generated_Source\PSoC4/Slider.c **** 	newRegValue = *Slider_prtSelTbl[portNumber];
 780              		.loc 1 1646 0
 781 0018 0969     		ldr	r1, [r1, #16]
 782 001a 0B68     		ldr	r3, [r1]
ARM GAS  C:\Users\ELECTR~1\AppData\Local\Temp\ccbbDBvf.s 			page 44


 783              	.LVL97:
1647:.\Generated_Source\PSoC4/Slider.c ****     newRegValue &= ~(Slider_CSD_HSIOM_MASK << (pinNumber * Slider_HSIOM_PIN_CFG_SIZE));
 784              		.loc 1 1647 0
 785 001c 8000     		lsl	r0, r0, #2
 786              	.LVL98:
 787 001e 0F22     		mov	r2, #15
 788 0020 8240     		lsl	r2, r2, r0
 789 0022 9343     		bic	r3, r2
 790              	.LVL99:
1648:.\Generated_Source\PSoC4/Slider.c ****     newRegValue |= (Slider_CSD_SHIELD_PORT_MODE << (pinNumber * Slider_HSIOM_PIN_CFG_SIZE));
 791              		.loc 1 1648 0
 792 0024 0522     		mov	r2, #5
 793 0026 8240     		lsl	r2, r2, r0
 794 0028 101C     		mov	r0, r2
 795 002a 1843     		orr	r0, r3
 796              	.LVL100:
1649:.\Generated_Source\PSoC4/Slider.c ****     *Slider_prtSelTbl[portNumber] = newRegValue;
 797              		.loc 1 1649 0
 798 002c 0860     		str	r0, [r1]
1650:.\Generated_Source\PSoC4/Slider.c **** }
 799              		.loc 1 1650 0
 800              		@ sp needed
 801 002e 30BD     		pop	{r4, r5, pc}
 802              	.L51:
 803              		.align	2
 804              	.L50:
 805 0030 00000000 		.word	.LANCHOR2
 806              		.cfi_endproc
 807              	.LFE57:
 808              		.size	Slider_EnableShieldElectrode, .-Slider_EnableShieldElectrode
 809              		.section	.text.Slider_SetShieldDelay,"ax",%progbits
 810              		.align	2
 811              		.global	Slider_SetShieldDelay
 812              		.code	16
 813              		.thumb_func
 814              		.type	Slider_SetShieldDelay, %function
 815              	Slider_SetShieldDelay:
 816              	.LFB58:
1651:.\Generated_Source\PSoC4/Slider.c **** 
1652:.\Generated_Source\PSoC4/Slider.c **** 
1653:.\Generated_Source\PSoC4/Slider.c **** /*******************************************************************************
1654:.\Generated_Source\PSoC4/Slider.c **** * Function Name: Slider_SetShieldDelay
1655:.\Generated_Source\PSoC4/Slider.c **** ********************************************************************************
1656:.\Generated_Source\PSoC4/Slider.c **** *
1657:.\Generated_Source\PSoC4/Slider.c **** * Summary:
1658:.\Generated_Source\PSoC4/Slider.c **** *  This API sets a shield delay.
1659:.\Generated_Source\PSoC4/Slider.c **** *
1660:.\Generated_Source\PSoC4/Slider.c **** * Parameters:
1661:.\Generated_Source\PSoC4/Slider.c **** *  delay:  shield delay value:
1662:.\Generated_Source\PSoC4/Slider.c **** *                               0 - no delay
1663:.\Generated_Source\PSoC4/Slider.c **** *                               1 - 1 cycle delay
1664:.\Generated_Source\PSoC4/Slider.c **** *                               2 - 2 cycles delay
1665:.\Generated_Source\PSoC4/Slider.c **** *
1666:.\Generated_Source\PSoC4/Slider.c **** * Return:
1667:.\Generated_Source\PSoC4/Slider.c **** *  None
1668:.\Generated_Source\PSoC4/Slider.c **** *
1669:.\Generated_Source\PSoC4/Slider.c **** * Global Variables:
ARM GAS  C:\Users\ELECTR~1\AppData\Local\Temp\ccbbDBvf.s 			page 45


1670:.\Generated_Source\PSoC4/Slider.c **** *  None
1671:.\Generated_Source\PSoC4/Slider.c **** *
1672:.\Generated_Source\PSoC4/Slider.c **** * Side Effects: 
1673:.\Generated_Source\PSoC4/Slider.c **** *  None
1674:.\Generated_Source\PSoC4/Slider.c **** *
1675:.\Generated_Source\PSoC4/Slider.c **** *******************************************************************************/
1676:.\Generated_Source\PSoC4/Slider.c **** void Slider_SetShieldDelay(uint32 delay)
1677:.\Generated_Source\PSoC4/Slider.c **** {
 817              		.loc 1 1677 0
 818              		.cfi_startproc
 819              	.LVL101:
1678:.\Generated_Source\PSoC4/Slider.c ****     uint32 newRegValue;
1679:.\Generated_Source\PSoC4/Slider.c ****     
1680:.\Generated_Source\PSoC4/Slider.c ****     delay &= 0x03u;
 820              		.loc 1 1680 0
 821 0000 0323     		mov	r3, #3
 822 0002 1840     		and	r0, r3
 823              	.LVL102:
1681:.\Generated_Source\PSoC4/Slider.c ****     
1682:.\Generated_Source\PSoC4/Slider.c ****     newRegValue = Slider_CSD_CFG_REG;
 824              		.loc 1 1682 0
 825 0004 024B     		ldr	r3, .L53
 826 0006 1A68     		ldr	r2, [r3]
 827              	.LVL103:
1683:.\Generated_Source\PSoC4/Slider.c ****     newRegValue &= (uint32)(~(uint32)Slider_SHIELD_DELAY);    
1684:.\Generated_Source\PSoC4/Slider.c ****     newRegValue |= (delay << Slider_CSD_CFG_SHIELD_DELAY_POS);    
 828              		.loc 1 1684 0
 829 0008 4002     		lsl	r0, r0, #9
 830              	.LVL104:
 831 000a 1043     		orr	r0, r2
 832              	.LVL105:
1685:.\Generated_Source\PSoC4/Slider.c ****     Slider_CSD_CFG_REG = newRegValue;
 833              		.loc 1 1685 0
 834 000c 1860     		str	r0, [r3]
1686:.\Generated_Source\PSoC4/Slider.c **** }
 835              		.loc 1 1686 0
 836              		@ sp needed
 837 000e 7047     		bx	lr
 838              	.L54:
 839              		.align	2
 840              	.L53:
 841 0010 04002840 		.word	1076363268
 842              		.cfi_endproc
 843              	.LFE58:
 844              		.size	Slider_SetShieldDelay, .-Slider_SetShieldDelay
 845              		.section	.text.Slider_Init,"ax",%progbits
 846              		.align	2
 847              		.global	Slider_Init
 848              		.code	16
 849              		.thumb_func
 850              		.type	Slider_Init, %function
 851              	Slider_Init:
 852              	.LFB35:
 195:.\Generated_Source\PSoC4/Slider.c **** 	uint32 curSensor;
 853              		.loc 1 195 0
 854              		.cfi_startproc
 855 0000 08B5     		push	{r3, lr}
ARM GAS  C:\Users\ELECTR~1\AppData\Local\Temp\ccbbDBvf.s 			page 46


 856              		.cfi_def_cfa_offset 8
 857              		.cfi_offset 3, -8
 858              		.cfi_offset 14, -4
 859              	.LVL106:
 226:.\Generated_Source\PSoC4/Slider.c **** 	{
 860              		.loc 1 226 0
 861 0002 0023     		mov	r3, #0
 862 0004 03E0     		b	.L56
 863              	.LVL107:
 864              	.L57:
 228:.\Generated_Source\PSoC4/Slider.c **** 	}
 865              		.loc 1 228 0 discriminator 3
 866 0006 0021     		mov	r1, #0
 867 0008 064A     		ldr	r2, .L58
 868 000a D154     		strb	r1, [r2, r3]
 226:.\Generated_Source\PSoC4/Slider.c **** 	{
 869              		.loc 1 226 0 discriminator 3
 870 000c 0133     		add	r3, r3, #1
 871              	.LVL108:
 872              	.L56:
 226:.\Generated_Source\PSoC4/Slider.c **** 	{
 873              		.loc 1 226 0 is_stmt 0 discriminator 1
 874 000e 042B     		cmp	r3, #4
 875 0010 F9D9     		bls	.L57
 231:.\Generated_Source\PSoC4/Slider.c ****     Slider_SetShieldDelay(Slider_SHIELD_DELAY );
 876              		.loc 1 231 0 is_stmt 1
 877 0012 FFF7FEFF 		bl	Slider_CsdHwBlockInit
 878              	.LVL109:
 232:.\Generated_Source\PSoC4/Slider.c **** 	
 879              		.loc 1 232 0
 880 0016 0020     		mov	r0, #0
 881 0018 FFF7FEFF 		bl	Slider_SetShieldDelay
 882              	.LVL110:
 235:.\Generated_Source\PSoC4/Slider.c **** }
 883              		.loc 1 235 0
 884 001c FFF7FEFF 		bl	Slider_ClearSensors
 885              	.LVL111:
 236:.\Generated_Source\PSoC4/Slider.c **** 
 886              		.loc 1 236 0
 887              		@ sp needed
 888 0020 08BD     		pop	{r3, pc}
 889              	.L59:
 890 0022 C046     		.align	2
 891              	.L58:
 892 0024 00000000 		.word	Slider_unscannedSnsDriveMode
 893              		.cfi_endproc
 894              	.LFE35:
 895              		.size	Slider_Init, .-Slider_Init
 896              		.section	.text.Slider_Start,"ax",%progbits
 897              		.align	2
 898              		.global	Slider_Start
 899              		.code	16
 900              		.thumb_func
 901              		.type	Slider_Start, %function
 902              	Slider_Start:
 903              	.LFB38:
 404:.\Generated_Source\PSoC4/Slider.c **** 
ARM GAS  C:\Users\ELECTR~1\AppData\Local\Temp\ccbbDBvf.s 			page 47


 904              		.loc 1 404 0
 905              		.cfi_startproc
 906 0000 08B5     		push	{r3, lr}
 907              		.cfi_def_cfa_offset 8
 908              		.cfi_offset 3, -8
 909              		.cfi_offset 14, -4
 414:.\Generated_Source\PSoC4/Slider.c ****     {
 910              		.loc 1 414 0
 911 0002 0B4B     		ldr	r3, .L62
 912 0004 9B7B     		ldrb	r3, [r3, #14]
 913 0006 002B     		cmp	r3, #0
 914 0008 04D1     		bne	.L61
 416:.\Generated_Source\PSoC4/Slider.c ****         Slider_initVar = 1u;
 915              		.loc 1 416 0
 916 000a FFF7FEFF 		bl	Slider_Init
 917              	.LVL112:
 417:.\Generated_Source\PSoC4/Slider.c ****     }
 918              		.loc 1 417 0
 919 000e 0122     		mov	r2, #1
 920 0010 074B     		ldr	r3, .L62
 921 0012 9A73     		strb	r2, [r3, #14]
 922              	.L61:
 419:.\Generated_Source\PSoC4/Slider.c **** 	
 923              		.loc 1 419 0
 924 0014 FFF7FEFF 		bl	Slider_Enable
 925              	.LVL113:
 424:.\Generated_Source\PSoC4/Slider.c **** 	        Slider_lowLevelTuningDone = 1u;
 926              		.loc 1 424 0
 927 0018 FFF7FEFF 		bl	Slider_AutoTune
 928              	.LVL114:
 425:.\Generated_Source\PSoC4/Slider.c **** 		#endif /* (0u != Slider_CSHL_API_GENERATE) */
 929              		.loc 1 425 0
 930 001c 0122     		mov	r2, #1
 931 001e 044B     		ldr	r3, .L62
 932 0020 DA73     		strb	r2, [r3, #15]
 468:.\Generated_Source\PSoC4/Slider.c **** }
 933              		.loc 1 468 0
 934 0022 044A     		ldr	r2, .L62+4
 935 0024 1368     		ldr	r3, [r2]
 936 0026 8021     		mov	r1, #128
 937 0028 C903     		lsl	r1, r1, #15
 938 002a 0B43     		orr	r3, r1
 939 002c 1360     		str	r3, [r2]
 469:.\Generated_Source\PSoC4/Slider.c **** 
 940              		.loc 1 469 0
 941              		@ sp needed
 942 002e 08BD     		pop	{r3, pc}
 943              	.L63:
 944              		.align	2
 945              	.L62:
 946 0030 00000000 		.word	.LANCHOR0
 947 0034 04002840 		.word	1076363268
 948              		.cfi_endproc
 949              	.LFE38:
 950              		.size	Slider_Start, .-Slider_Start
 951              		.section	.text.Slider_ReadCurrentScanningSensor,"ax",%progbits
 952              		.align	2
ARM GAS  C:\Users\ELECTR~1\AppData\Local\Temp\ccbbDBvf.s 			page 48


 953              		.global	Slider_ReadCurrentScanningSensor
 954              		.code	16
 955              		.thumb_func
 956              		.type	Slider_ReadCurrentScanningSensor, %function
 957              	Slider_ReadCurrentScanningSensor:
 958              	.LFB59:
1687:.\Generated_Source\PSoC4/Slider.c **** 
1688:.\Generated_Source\PSoC4/Slider.c **** 
1689:.\Generated_Source\PSoC4/Slider.c **** /*******************************************************************************
1690:.\Generated_Source\PSoC4/Slider.c **** * Function Name: Slider_ReadCurrentScanningSensor
1691:.\Generated_Source\PSoC4/Slider.c **** ********************************************************************************
1692:.\Generated_Source\PSoC4/Slider.c **** *
1693:.\Generated_Source\PSoC4/Slider.c **** * Summary:
1694:.\Generated_Source\PSoC4/Slider.c **** *  This API returns scanning sensor number when sensor scan is in progress. 
1695:.\Generated_Source\PSoC4/Slider.c **** *  When sensor scan is completed the API returns 
1696:.\Generated_Source\PSoC4/Slider.c **** *  $INSTANCE_NAME`_NOT_SENSOR (0xFFFFFFFF) (when no sensor is scanned).
1697:.\Generated_Source\PSoC4/Slider.c **** *
1698:.\Generated_Source\PSoC4/Slider.c **** * Parameters:
1699:.\Generated_Source\PSoC4/Slider.c **** *	None.
1700:.\Generated_Source\PSoC4/Slider.c **** *
1701:.\Generated_Source\PSoC4/Slider.c **** * Return:
1702:.\Generated_Source\PSoC4/Slider.c **** *  Returns Sensor number if sensor is being scanned and 
1703:.\Generated_Source\PSoC4/Slider.c **** *  $INSTANCE_NAME`_NOT_SENSOR (0xFFFFFFFF) if scanning is complete.
1704:.\Generated_Source\PSoC4/Slider.c **** *
1705:.\Generated_Source\PSoC4/Slider.c **** * Global Variables:
1706:.\Generated_Source\PSoC4/Slider.c **** *  Slider_sensorIndex - the sensor number is being scanned.
1707:.\Generated_Source\PSoC4/Slider.c **** *
1708:.\Generated_Source\PSoC4/Slider.c **** * Side Effects: 
1709:.\Generated_Source\PSoC4/Slider.c **** *  None
1710:.\Generated_Source\PSoC4/Slider.c **** *
1711:.\Generated_Source\PSoC4/Slider.c **** *******************************************************************************/
1712:.\Generated_Source\PSoC4/Slider.c **** uint32 Slider_ReadCurrentScanningSensor(void)
1713:.\Generated_Source\PSoC4/Slider.c **** {
 959              		.loc 1 1713 0
 960              		.cfi_startproc
1714:.\Generated_Source\PSoC4/Slider.c ****     return ((uint32)(( 0u != (Slider_csdStatusVar & Slider_SW_STS_BUSY)) ? 
 961              		.loc 1 1714 0
 962 0000 054B     		ldr	r3, .L67
 963 0002 1B78     		ldrb	r3, [r3]
 964 0004 DB07     		lsl	r3, r3, #31
 965 0006 03D5     		bpl	.L66
 966              		.loc 1 1714 0 is_stmt 0 discriminator 1
 967 0008 034B     		ldr	r3, .L67
 968 000a 187C     		ldrb	r0, [r3, #16]
 969 000c C0B2     		uxtb	r0, r0
 970 000e 01E0     		b	.L65
 971              	.L66:
 972              		.loc 1 1714 0
 973 0010 0120     		mov	r0, #1
 974 0012 4042     		neg	r0, r0
 975              	.L65:
1715:.\Generated_Source\PSoC4/Slider.c ****                      Slider_sensorIndex : Slider_NOT_SENSOR));
1716:.\Generated_Source\PSoC4/Slider.c **** }
 976              		.loc 1 1716 0 is_stmt 1 discriminator 4
 977              		@ sp needed
 978 0014 7047     		bx	lr
 979              	.L68:
ARM GAS  C:\Users\ELECTR~1\AppData\Local\Temp\ccbbDBvf.s 			page 49


 980 0016 C046     		.align	2
 981              	.L67:
 982 0018 00000000 		.word	.LANCHOR0
 983              		.cfi_endproc
 984              	.LFE59:
 985              		.size	Slider_ReadCurrentScanningSensor, .-Slider_ReadCurrentScanningSensor
 986              		.section	.text.Slider_GetBitValue,"ax",%progbits
 987              		.align	2
 988              		.global	Slider_GetBitValue
 989              		.code	16
 990              		.thumb_func
 991              		.type	Slider_GetBitValue, %function
 992              	Slider_GetBitValue:
 993              	.LFB60:
1717:.\Generated_Source\PSoC4/Slider.c **** 
1718:.\Generated_Source\PSoC4/Slider.c **** 
1719:.\Generated_Source\PSoC4/Slider.c **** /*******************************************************************************
1720:.\Generated_Source\PSoC4/Slider.c **** * Function Name: Slider_GetBitValue
1721:.\Generated_Source\PSoC4/Slider.c **** ********************************************************************************
1722:.\Generated_Source\PSoC4/Slider.c **** *
1723:.\Generated_Source\PSoC4/Slider.c **** * Summary:
1724:.\Generated_Source\PSoC4/Slider.c **** *  The API returns a bit status of the bit in the table array which contains the masks.
1725:.\Generated_Source\PSoC4/Slider.c **** * 
1726:.\Generated_Source\PSoC4/Slider.c **** * Parameters:
1727:.\Generated_Source\PSoC4/Slider.c **** *  table[] - array with bit masks.
1728:.\Generated_Source\PSoC4/Slider.c **** *  position - position of bit in the table[] array.
1729:.\Generated_Source\PSoC4/Slider.c **** *
1730:.\Generated_Source\PSoC4/Slider.c **** * Return:
1731:.\Generated_Source\PSoC4/Slider.c **** *  0 - bit is not set; 1 - bit is set.
1732:.\Generated_Source\PSoC4/Slider.c **** *
1733:.\Generated_Source\PSoC4/Slider.c **** * Global Variables:
1734:.\Generated_Source\PSoC4/Slider.c **** *  None
1735:.\Generated_Source\PSoC4/Slider.c **** *
1736:.\Generated_Source\PSoC4/Slider.c **** * Side Effects:
1737:.\Generated_Source\PSoC4/Slider.c **** *  None
1738:.\Generated_Source\PSoC4/Slider.c **** *
1739:.\Generated_Source\PSoC4/Slider.c **** *******************************************************************************/
1740:.\Generated_Source\PSoC4/Slider.c **** uint32 Slider_GetBitValue(const uint8 table[], uint32 position)
1741:.\Generated_Source\PSoC4/Slider.c **** {
 994              		.loc 1 1741 0
 995              		.cfi_startproc
 996              	.LVL115:
1742:.\Generated_Source\PSoC4/Slider.c ****     uint32 offset;
1743:.\Generated_Source\PSoC4/Slider.c **** 	uint8 enMask;
1744:.\Generated_Source\PSoC4/Slider.c **** 	
1745:.\Generated_Source\PSoC4/Slider.c **** 	/* position is divided by 8 to calculate the element of the 
1746:.\Generated_Source\PSoC4/Slider.c **** 	   table[] array that contains the enable bit 
1747:.\Generated_Source\PSoC4/Slider.c **** 	   for an appropriate sensor.
1748:.\Generated_Source\PSoC4/Slider.c **** 	*/
1749:.\Generated_Source\PSoC4/Slider.c **** 	offset = (position >> 3u);
 997              		.loc 1 1749 0
 998 0000 CA08     		lsr	r2, r1, #3
 999              	.LVL116:
1750:.\Generated_Source\PSoC4/Slider.c **** 	
1751:.\Generated_Source\PSoC4/Slider.c **** 	/* The enMask calculation for the appropriate sensor. Operation (position & 0x07u) 
1752:.\Generated_Source\PSoC4/Slider.c **** 	   intends to calculate the enable bit offset for the 8-bit element of the 
1753:.\Generated_Source\PSoC4/Slider.c **** 	   table[] array.
ARM GAS  C:\Users\ELECTR~1\AppData\Local\Temp\ccbbDBvf.s 			page 50


1754:.\Generated_Source\PSoC4/Slider.c **** 	*/
1755:.\Generated_Source\PSoC4/Slider.c **** 	enMask = 0x01u << (position & 0x07u);
 1000              		.loc 1 1755 0
 1001 0002 0723     		mov	r3, #7
 1002 0004 1940     		and	r1, r3
 1003              	.LVL117:
 1004 0006 063B     		sub	r3, r3, #6
 1005 0008 8B40     		lsl	r3, r3, r1
 1006 000a 191C     		mov	r1, r3
 1007              	.LVL118:
1756:.\Generated_Source\PSoC4/Slider.c ****     
1757:.\Generated_Source\PSoC4/Slider.c ****     return ((0u !=(table[offset] & enMask)) ? 1Lu : 0Lu);
 1008              		.loc 1 1757 0
 1009 000c 835C     		ldrb	r3, [r0, r2]
 1010 000e 1942     		tst	r1, r3
 1011 0010 01D0     		beq	.L71
 1012 0012 0120     		mov	r0, #1
 1013              	.LVL119:
 1014 0014 00E0     		b	.L70
 1015              	.LVL120:
 1016              	.L71:
 1017 0016 0020     		mov	r0, #0
 1018              	.LVL121:
 1019              	.L70:
1758:.\Generated_Source\PSoC4/Slider.c **** }
 1020              		.loc 1 1758 0 discriminator 4
 1021              		@ sp needed
 1022 0018 7047     		bx	lr
 1023              		.cfi_endproc
 1024              	.LFE60:
 1025              		.size	Slider_GetBitValue, .-Slider_GetBitValue
 1026 001a C046     		.section	.text.Slider_FindNextSensor,"ax",%progbits
 1027              		.align	2
 1028              		.global	Slider_FindNextSensor
 1029              		.code	16
 1030              		.thumb_func
 1031              		.type	Slider_FindNextSensor, %function
 1032              	Slider_FindNextSensor:
 1033              	.LFB40:
 534:.\Generated_Source\PSoC4/Slider.c ****     uint32 enableFlag;
 1034              		.loc 1 534 0
 1035              		.cfi_startproc
 1036              	.LVL122:
 1037 0000 10B5     		push	{r4, lr}
 1038              		.cfi_def_cfa_offset 8
 1039              		.cfi_offset 4, -8
 1040              		.cfi_offset 14, -4
 1041 0002 041C     		mov	r4, r0
 1042              	.LVL123:
 1043              	.L74:
 541:.\Generated_Source\PSoC4/Slider.c ****         if(snsIndex == Slider_TOTAL_SENSOR_COUNT)
 1044              		.loc 1 541 0
 1045 0004 0134     		add	r4, r4, #1
 1046              	.LVL124:
 1047 0006 E4B2     		uxtb	r4, r4
 1048              	.LVL125:
 542:.\Generated_Source\PSoC4/Slider.c ****         {
ARM GAS  C:\Users\ELECTR~1\AppData\Local\Temp\ccbbDBvf.s 			page 51


 1049              		.loc 1 542 0
 1050 0008 052C     		cmp	r4, #5
 1051 000a 06D0     		beq	.L73
 546:.\Generated_Source\PSoC4/Slider.c ****     }    
 1052              		.loc 1 546 0
 1053 000c 0448     		ldr	r0, .L75
 1054 000e 0430     		add	r0, r0, #4
 1055 0010 211C     		mov	r1, r4
 1056 0012 FFF7FEFF 		bl	Slider_GetBitValue
 1057              	.LVL126:
 548:.\Generated_Source\PSoC4/Slider.c ****     
 1058              		.loc 1 548 0
 1059 0016 0028     		cmp	r0, #0
 1060 0018 F4D0     		beq	.L74
 1061              	.LVL127:
 1062              	.L73:
 551:.\Generated_Source\PSoC4/Slider.c **** 
 1063              		.loc 1 551 0
 1064 001a 201C     		mov	r0, r4
 1065              		@ sp needed
 1066              	.LVL128:
 1067 001c 10BD     		pop	{r4, pc}
 1068              	.L76:
 1069 001e C046     		.align	2
 1070              	.L75:
 1071 0020 00000000 		.word	.LANCHOR1
 1072              		.cfi_endproc
 1073              	.LFE40:
 1074              		.size	Slider_FindNextSensor, .-Slider_FindNextSensor
 1075              		.section	.text.Slider_PreScan,"ax",%progbits
 1076              		.align	2
 1077              		.global	Slider_PreScan
 1078              		.code	16
 1079              		.thumb_func
 1080              		.type	Slider_PreScan, %function
 1081              	Slider_PreScan:
 1082              	.LFB55:
1363:.\Generated_Source\PSoC4/Slider.c ****     uint8 widget;
 1083              		.loc 1 1363 0
 1084              		.cfi_startproc
 1085              	.LVL129:
 1086 0000 F8B5     		push	{r3, r4, r5, r6, r7, lr}
 1087              		.cfi_def_cfa_offset 24
 1088              		.cfi_offset 3, -24
 1089              		.cfi_offset 4, -20
 1090              		.cfi_offset 5, -16
 1091              		.cfi_offset 6, -12
 1092              		.cfi_offset 7, -8
 1093              		.cfi_offset 14, -4
 1094 0002 041C     		mov	r4, r0
1381:.\Generated_Source\PSoC4/Slider.c **** 
 1095              		.loc 1 1381 0
 1096 0004 324B     		ldr	r3, .L80
 1097 0006 5833     		add	r3, r3, #88
 1098 0008 1B5C     		ldrb	r3, [r3, r0]
 1099              	.LVL130:
1384:.\Generated_Source\PSoC4/Slider.c **** 	
ARM GAS  C:\Users\ELECTR~1\AppData\Local\Temp\ccbbDBvf.s 			page 52


 1100              		.loc 1 1384 0
 1101 000a 9B00     		lsl	r3, r3, #2
 1102              	.LVL131:
 1103 000c 314A     		ldr	r2, .L80+4
 1104 000e 9E58     		ldr	r6, [r3, r2]
 1105              	.LVL132:
1388:.\Generated_Source\PSoC4/Slider.c **** 
 1106              		.loc 1 1388 0
 1107 0010 3148     		ldr	r0, .L80+8
 1108              	.LVL133:
 1109 0012 211C     		mov	r1, r4
 1110 0014 FFF7FEFF 		bl	Slider_GetBitValue
 1111              	.LVL134:
1390:.\Generated_Source\PSoC4/Slider.c **** 		{
 1112              		.loc 1 1390 0
 1113 0018 304B     		ldr	r3, .L80+12
 1114 001a 9E42     		cmp	r6, r3
 1115 001c 03D8     		bhi	.L78
1392:.\Generated_Source\PSoC4/Slider.c **** 			counterResolution |= (uint32)(Slider_RESOLUTION_8_BITS);
 1116              		.loc 1 1392 0
 1117 001e 8640     		lsl	r6, r6, r0
 1118              	.LVL135:
1393:.\Generated_Source\PSoC4/Slider.c **** 		}
 1119              		.loc 1 1393 0
 1120 0020 FF20     		mov	r0, #255
 1121              	.LVL136:
 1122 0022 0004     		lsl	r0, r0, #16
 1123 0024 0643     		orr	r6, r0
 1124              	.LVL137:
 1125              	.L78:
1399:.\Generated_Source\PSoC4/Slider.c **** 		Slider_SampleClk_Stop();
 1126              		.loc 1 1399 0
 1127 0026 FFF7FEFF 		bl	Slider_SenseClk_Stop
 1128              	.LVL138:
1400:.\Generated_Source\PSoC4/Slider.c **** 	#endif /* (0u != Slider_IS_M0S8PERI_BLOCK) */
 1129              		.loc 1 1400 0
 1130 002a FFF7FEFF 		bl	Slider_SampleClk_Stop
 1131              	.LVL139:
1404:.\Generated_Source\PSoC4/Slider.c **** 		Slider_SenseClk_SetDividerValue((uint16)Slider_senseClkDividerVal[sensor]);
 1132              		.loc 1 1404 0
 1133 002e 2C4B     		ldr	r3, .L80+16
 1134 0030 185D     		ldrb	r0, [r3, r4]
 1135 0032 0138     		sub	r0, r0, #1
 1136 0034 80B2     		uxth	r0, r0
 1137 0036 0021     		mov	r1, #0
 1138 0038 FFF7FEFF 		bl	Slider_SampleClk_SetFractionalDividerRegister
 1139              	.LVL140:
1405:.\Generated_Source\PSoC4/Slider.c **** 	#else
 1140              		.loc 1 1405 0
 1141 003c 294B     		ldr	r3, .L80+20
 1142 003e 185D     		ldrb	r0, [r3, r4]
 1143 0040 0138     		sub	r0, r0, #1
 1144 0042 80B2     		uxth	r0, r0
 1145 0044 0021     		mov	r1, #0
 1146 0046 FFF7FEFF 		bl	Slider_SenseClk_SetFractionalDividerRegister
 1147              	.LVL141:
1412:.\Generated_Source\PSoC4/Slider.c **** 		Slider_SenseClk_StartEx(Slider_SampleClk__DIV_ID);
ARM GAS  C:\Users\ELECTR~1\AppData\Local\Temp\ccbbDBvf.s 			page 53


 1148              		.loc 1 1412 0
 1149 004a FF20     		mov	r0, #255
 1150 004c FFF7FEFF 		bl	Slider_SampleClk_StartEx
 1151              	.LVL142:
1413:.\Generated_Source\PSoC4/Slider.c **** 		
 1152              		.loc 1 1413 0
 1153 0050 4020     		mov	r0, #64
 1154 0052 FFF7FEFF 		bl	Slider_SenseClk_StartEx
 1155              	.LVL143:
1416:.\Generated_Source\PSoC4/Slider.c **** 			Slider_CSD_CNT_REG = Slider_ONE_CYCLE;
 1156              		.loc 1 1416 0
 1157 0056 1020     		mov	r0, #16
 1158 0058 FFF7FEFF 		bl	CyIntDisable
 1159              	.LVL144:
1417:.\Generated_Source\PSoC4/Slider.c **** 			while(0u != (Slider_CSD_CNT_REG & Slider_RESOLUTION_16_BITS))
 1160              		.loc 1 1417 0
 1161 005c 8022     		mov	r2, #128
 1162 005e 5202     		lsl	r2, r2, #9
 1163 0060 214B     		ldr	r3, .L80+24
 1164 0062 1A60     		str	r2, [r3]
 1165              	.L79:
1418:.\Generated_Source\PSoC4/Slider.c **** 			{
 1166              		.loc 1 1418 0 discriminator 1
 1167 0064 204B     		ldr	r3, .L80+24
 1168 0066 1B68     		ldr	r3, [r3]
 1169 0068 1B0C     		lsr	r3, r3, #16
 1170 006a FBD1     		bne	.L79
1422:.\Generated_Source\PSoC4/Slider.c **** 			CyIntClearPending(Slider_ISR_NUMBER);
 1171              		.loc 1 1422 0
 1172 006c 0122     		mov	r2, #1
 1173 006e 1F4B     		ldr	r3, .L80+28
 1174 0070 1A60     		str	r2, [r3]
1423:.\Generated_Source\PSoC4/Slider.c **** 			CyIntEnable(Slider_ISR_NUMBER); 
 1175              		.loc 1 1423 0
 1176 0072 1020     		mov	r0, #16
 1177 0074 FFF7FEFF 		bl	CyIntClearPending
 1178              	.LVL145:
1424:.\Generated_Source\PSoC4/Slider.c **** 		#endif /* Slider_PRS_OPTIONS == Slider__PRS_NONE */
 1179              		.loc 1 1424 0
 1180 0078 1020     		mov	r0, #16
 1181 007a FFF7FEFF 		bl	CyIntEnable
 1182              	.LVL146:
1474:.\Generated_Source\PSoC4/Slider.c ****     newRegValue = Slider_CSD_IDAC_REG;
 1183              		.loc 1 1474 0
 1184 007e 1020     		mov	r0, #16
 1185 0080 FFF7FEFF 		bl	CyIntDisable
 1186              	.LVL147:
1475:.\Generated_Source\PSoC4/Slider.c ****  
 1187              		.loc 1 1475 0
 1188 0084 1A49     		ldr	r1, .L80+32
 1189 0086 0A68     		ldr	r2, [r1]
 1190              	.LVL148:
1481:.\Generated_Source\PSoC4/Slider.c **** 	newRegValue |= (Slider_modulationIDAC[sensor] | 
 1191              		.loc 1 1481 0
 1192 0088 1A4B     		ldr	r3, .L80+36
 1193 008a 1A40     		and	r2, r3
 1194              	.LVL149:
ARM GAS  C:\Users\ELECTR~1\AppData\Local\Temp\ccbbDBvf.s 			page 54


1482:.\Generated_Source\PSoC4/Slider.c **** 							(uint32)((uint32)Slider_compensationIDAC[sensor] <<
 1195              		.loc 1 1482 0
 1196 008c 1A4B     		ldr	r3, .L80+40
 1197 008e 185D     		ldrb	r0, [r3, r4]
1483:.\Generated_Source\PSoC4/Slider.c **** 							Slider_CSD_IDAC2_DATA_OFFSET));                               
 1198              		.loc 1 1483 0
 1199 0090 1A4B     		ldr	r3, .L80+44
 1200 0092 1B5D     		ldrb	r3, [r3, r4]
 1201 0094 1B04     		lsl	r3, r3, #16
1482:.\Generated_Source\PSoC4/Slider.c **** 							(uint32)((uint32)Slider_compensationIDAC[sensor] <<
 1202              		.loc 1 1482 0
 1203 0096 0343     		orr	r3, r0
 1204 0098 1343     		orr	r3, r2
 1205              	.LVL150:
1487:.\Generated_Source\PSoC4/Slider.c **** 
 1206              		.loc 1 1487 0
 1207 009a 0B60     		str	r3, [r1]
1502:.\Generated_Source\PSoC4/Slider.c **** 	newRegValue &= ~(Slider_PRECHARGE_CONFIG_MASK);
 1208              		.loc 1 1502 0
 1209 009c 184F     		ldr	r7, .L80+48
 1210 009e 3D68     		ldr	r5, [r7]
 1211              	.LVL151:
1503:.\Generated_Source\PSoC4/Slider.c **** 	newRegValue |= Slider_CTANK_PRECHARGE_CONFIG;
 1212              		.loc 1 1503 0
 1213 00a0 184B     		ldr	r3, .L80+52
 1214 00a2 1D40     		and	r5, r3
 1215              	.LVL152:
1504:.\Generated_Source\PSoC4/Slider.c **** 	
 1216              		.loc 1 1504 0
 1217 00a4 184B     		ldr	r3, .L80+56
 1218 00a6 1D43     		orr	r5, r3
 1219              	.LVL153:
1506:.\Generated_Source\PSoC4/Slider.c **** 	
 1220              		.loc 1 1506 0
 1221 00a8 1020     		mov	r0, #16
 1222 00aa FFF7FEFF 		bl	CyIntEnable
 1223              	.LVL154:
1509:.\Generated_Source\PSoC4/Slider.c ****     
 1224              		.loc 1 1509 0
 1225 00ae 201C     		mov	r0, r4
 1226 00b0 FFF7FEFF 		bl	Slider_EnableSensor
 1227              	.LVL155:
1511:.\Generated_Source\PSoC4/Slider.c **** 	Slider_CSD_CFG_REG = newRegValue;
 1228              		.loc 1 1511 0
 1229 00b4 FFF7FEFF 		bl	CyEnterCriticalSection
 1230              	.LVL156:
 1231 00b8 041C     		mov	r4, r0
 1232              	.LVL157:
1512:.\Generated_Source\PSoC4/Slider.c **** 	
 1233              		.loc 1 1512 0
 1234 00ba 3D60     		str	r5, [r7]
1518:.\Generated_Source\PSoC4/Slider.c **** 	
 1235              		.loc 1 1518 0
 1236 00bc 0020     		mov	r0, #0
 1237 00be FFF7FEFF 		bl	CyDelayCycles
 1238              	.LVL158:
1524:.\Generated_Source\PSoC4/Slider.c ****     CyExitCriticalSection(interruptState);
ARM GAS  C:\Users\ELECTR~1\AppData\Local\Temp\ccbbDBvf.s 			page 55


 1239              		.loc 1 1524 0
 1240 00c2 094B     		ldr	r3, .L80+24
 1241 00c4 1E60     		str	r6, [r3]
1525:.\Generated_Source\PSoC4/Slider.c **** }
 1242              		.loc 1 1525 0
 1243 00c6 201C     		mov	r0, r4
 1244 00c8 FFF7FEFF 		bl	CyExitCriticalSection
 1245              	.LVL159:
1526:.\Generated_Source\PSoC4/Slider.c **** 
 1246              		.loc 1 1526 0
 1247              		@ sp needed
 1248              	.LVL160:
 1249              	.LVL161:
 1250              	.LVL162:
 1251 00cc F8BD     		pop	{r3, r4, r5, r6, r7, pc}
 1252              	.L81:
 1253 00ce C046     		.align	2
 1254              	.L80:
 1255 00d0 00000000 		.word	.LANCHOR2
 1256 00d4 00000000 		.word	.LANCHOR1
 1257 00d8 00000000 		.word	scanSpeedTbl
 1258 00dc FFFFFEFF 		.word	-65537
 1259 00e0 00000000 		.word	Slider_sampleClkDividerVal
 1260 00e4 00000000 		.word	Slider_senseClkDividerVal
 1261 00e8 0C002840 		.word	1076363276
 1262 00ec 14002840 		.word	1076363284
 1263 00f0 08002840 		.word	1076363272
 1264 00f4 00FF80FF 		.word	-8323328
 1265 00f8 00000000 		.word	Slider_modulationIDAC
 1266 00fc 00000000 		.word	Slider_compensationIDAC
 1267 0100 04002840 		.word	1076363268
 1268 0104 FF1FDFFF 		.word	-2154497
 1269 0108 20E02000 		.word	2154528
 1270              		.cfi_endproc
 1271              	.LFE55:
 1272              		.size	Slider_PreScan, .-Slider_PreScan
 1273              		.section	.text.Slider_ScanSensor,"ax",%progbits
 1274              		.align	2
 1275              		.global	Slider_ScanSensor
 1276              		.code	16
 1277              		.thumb_func
 1278              		.type	Slider_ScanSensor, %function
 1279              	Slider_ScanSensor:
 1280              	.LFB41:
 582:.\Generated_Source\PSoC4/Slider.c ****     /* Clears status/control variable and set sensorIndex */
 1281              		.loc 1 582 0
 1282              		.cfi_startproc
 1283              	.LVL163:
 1284 0000 08B5     		push	{r3, lr}
 1285              		.cfi_def_cfa_offset 8
 1286              		.cfi_offset 3, -8
 1287              		.cfi_offset 14, -4
 584:.\Generated_Source\PSoC4/Slider.c ****     Slider_sensorIndex = (uint8)sensor;
 1288              		.loc 1 584 0
 1289 0002 054B     		ldr	r3, .L83
 1290 0004 0022     		mov	r2, #0
 1291 0006 1A70     		strb	r2, [r3]
ARM GAS  C:\Users\ELECTR~1\AppData\Local\Temp\ccbbDBvf.s 			page 56


 585:.\Generated_Source\PSoC4/Slider.c ****     
 1292              		.loc 1 585 0
 1293 0008 C2B2     		uxtb	r2, r0
 1294 000a 1A74     		strb	r2, [r3, #16]
 588:.\Generated_Source\PSoC4/Slider.c ****     Slider_PreScan(sensor);
 1295              		.loc 1 588 0
 1296 000c 8122     		mov	r2, #129
 1297 000e 1A70     		strb	r2, [r3]
 589:.\Generated_Source\PSoC4/Slider.c **** }
 1298              		.loc 1 589 0
 1299 0010 FFF7FEFF 		bl	Slider_PreScan
 1300              	.LVL164:
 590:.\Generated_Source\PSoC4/Slider.c **** 
 1301              		.loc 1 590 0
 1302              		@ sp needed
 1303 0014 08BD     		pop	{r3, pc}
 1304              	.L84:
 1305 0016 C046     		.align	2
 1306              	.L83:
 1307 0018 00000000 		.word	.LANCHOR0
 1308              		.cfi_endproc
 1309              	.LFE41:
 1310              		.size	Slider_ScanSensor, .-Slider_ScanSensor
 1311              		.section	.text.Slider_ScanEnabledWidgets,"ax",%progbits
 1312              		.align	2
 1313              		.global	Slider_ScanEnabledWidgets
 1314              		.code	16
 1315              		.thumb_func
 1316              		.type	Slider_ScanEnabledWidgets, %function
 1317              	Slider_ScanEnabledWidgets:
 1318              	.LFB43:
 706:.\Generated_Source\PSoC4/Slider.c ****     /* Clears status/control variable and set sensorIndex */
 1319              		.loc 1 706 0
 1320              		.cfi_startproc
 1321 0000 10B5     		push	{r4, lr}
 1322              		.cfi_def_cfa_offset 8
 1323              		.cfi_offset 4, -8
 1324              		.cfi_offset 14, -4
 708:.\Generated_Source\PSoC4/Slider.c ****     Slider_sensorIndex = 0xFFu;
 1325              		.loc 1 708 0
 1326 0002 0B4C     		ldr	r4, .L87
 1327 0004 0023     		mov	r3, #0
 1328 0006 2370     		strb	r3, [r4]
 709:.\Generated_Source\PSoC4/Slider.c ****     
 1329              		.loc 1 709 0
 1330 0008 FF33     		add	r3, r3, #255
 1331 000a 2374     		strb	r3, [r4, #16]
 712:.\Generated_Source\PSoC4/Slider.c **** 
 1332              		.loc 1 712 0
 1333 000c 207C     		ldrb	r0, [r4, #16]
 1334 000e C0B2     		uxtb	r0, r0
 1335 0010 FFF7FEFF 		bl	Slider_FindNextSensor
 1336              	.LVL165:
 1337 0014 2074     		strb	r0, [r4, #16]
 715:.\Generated_Source\PSoC4/Slider.c ****     {
 1338              		.loc 1 715 0
 1339 0016 237C     		ldrb	r3, [r4, #16]
ARM GAS  C:\Users\ELECTR~1\AppData\Local\Temp\ccbbDBvf.s 			page 57


 1340 0018 DBB2     		uxtb	r3, r3
 1341 001a 042B     		cmp	r3, #4
 1342 001c 07D8     		bhi	.L85
 717:.\Generated_Source\PSoC4/Slider.c ****         Slider_PreScan((uint32)Slider_sensorIndex);
 1343              		.loc 1 717 0
 1344 001e 2178     		ldrb	r1, [r4]
 1345 0020 0122     		mov	r2, #1
 1346 0022 0A43     		orr	r2, r1
 1347 0024 2270     		strb	r2, [r4]
 718:.\Generated_Source\PSoC4/Slider.c ****     }
 1348              		.loc 1 718 0
 1349 0026 207C     		ldrb	r0, [r4, #16]
 1350 0028 C0B2     		uxtb	r0, r0
 1351 002a FFF7FEFF 		bl	Slider_PreScan
 1352              	.LVL166:
 1353              	.L85:
 720:.\Generated_Source\PSoC4/Slider.c **** 
 1354              		.loc 1 720 0
 1355              		@ sp needed
 1356 002e 10BD     		pop	{r4, pc}
 1357              	.L88:
 1358              		.align	2
 1359              	.L87:
 1360 0030 00000000 		.word	.LANCHOR0
 1361              		.cfi_endproc
 1362              	.LFE43:
 1363              		.size	Slider_ScanEnabledWidgets, .-Slider_ScanEnabledWidgets
 1364              		.section	.text.Slider_PostScan,"ax",%progbits
 1365              		.align	2
 1366              		.global	Slider_PostScan
 1367              		.code	16
 1368              		.thumb_func
 1369              		.type	Slider_PostScan, %function
 1370              	Slider_PostScan:
 1371              	.LFB56:
1552:.\Generated_Source\PSoC4/Slider.c **** 	uint32 newRegValue;
 1372              		.loc 1 1552 0
 1373              		.cfi_startproc
 1374              	.LVL167:
 1375 0000 38B5     		push	{r3, r4, r5, lr}
 1376              		.cfi_def_cfa_offset 16
 1377              		.cfi_offset 3, -16
 1378              		.cfi_offset 4, -12
 1379              		.cfi_offset 5, -8
 1380              		.cfi_offset 14, -4
 1381 0002 051C     		mov	r5, r0
1567:.\Generated_Source\PSoC4/Slider.c **** 	
 1382              		.loc 1 1567 0
 1383 0004 174B     		ldr	r3, .L91
 1384 0006 1C68     		ldr	r4, [r3]
 1385 0008 A4B2     		uxth	r4, r4
 1386 000a 4300     		lsl	r3, r0, #1
 1387 000c 164A     		ldr	r2, .L91+4
 1388 000e D318     		add	r3, r2, r3
 1389 0010 9C80     		strh	r4, [r3, #4]
1571:.\Generated_Source\PSoC4/Slider.c **** 	if(Slider_widgetResolution[widget] < Slider_RESOLUTION_16_BITS)
 1390              		.loc 1 1571 0
ARM GAS  C:\Users\ELECTR~1\AppData\Local\Temp\ccbbDBvf.s 			page 58


 1391 0012 164B     		ldr	r3, .L91+8
 1392 0014 5833     		add	r3, r3, #88
 1393 0016 1B5C     		ldrb	r3, [r3, r0]
 1394              	.LVL168:
1572:.\Generated_Source\PSoC4/Slider.c **** 	{
 1395              		.loc 1 1572 0
 1396 0018 9B00     		lsl	r3, r3, #2
 1397              	.LVL169:
 1398 001a 154A     		ldr	r2, .L91+12
 1399 001c 9A58     		ldr	r2, [r3, r2]
 1400 001e 154B     		ldr	r3, .L91+16
 1401 0020 9A42     		cmp	r2, r3
 1402 0022 08D8     		bhi	.L90
1574:.\Generated_Source\PSoC4/Slider.c **** 		Slider_sensorRaw[sensor] >>= oversamplingFactor;
 1403              		.loc 1 1574 0
 1404 0024 1448     		ldr	r0, .L91+20
 1405              	.LVL170:
 1406 0026 291C     		mov	r1, r5
 1407 0028 FFF7FEFF 		bl	Slider_GetBitValue
 1408              	.LVL171:
1575:.\Generated_Source\PSoC4/Slider.c **** 	}
 1409              		.loc 1 1575 0
 1410 002c 6B00     		lsl	r3, r5, #1
 1411 002e 0E4A     		ldr	r2, .L91+4
 1412 0030 D318     		add	r3, r2, r3
 1413 0032 0441     		asr	r4, r4, r0
 1414 0034 9C80     		strh	r4, [r3, #4]
 1415              	.LVL172:
 1416              	.L90:
1581:.\Generated_Source\PSoC4/Slider.c **** 
 1417              		.loc 1 1581 0
 1418 0036 281C     		mov	r0, r5
 1419 0038 FFF7FEFF 		bl	Slider_DisableSensor
 1420              	.LVL173:
1583:.\Generated_Source\PSoC4/Slider.c **** 	
 1421              		.loc 1 1583 0
 1422 003c 1020     		mov	r0, #16
 1423 003e FFF7FEFF 		bl	CyIntDisable
 1424              	.LVL174:
1603:.\Generated_Source\PSoC4/Slider.c **** 	newRegValue &= ~(Slider_PRECHARGE_CONFIG_MASK);
 1425              		.loc 1 1603 0
 1426 0042 0E4A     		ldr	r2, .L91+24
 1427 0044 1168     		ldr	r1, [r2]
 1428              	.LVL175:
1604:.\Generated_Source\PSoC4/Slider.c **** 	newRegValue |= Slider_CMOD_PRECHARGE_CONFIG;
 1429              		.loc 1 1604 0
 1430 0046 0E4B     		ldr	r3, .L91+28
 1431 0048 0B40     		and	r3, r1
 1432              	.LVL176:
1605:.\Generated_Source\PSoC4/Slider.c **** 	Slider_CSD_CFG_REG = newRegValue;
 1433              		.loc 1 1605 0
 1434 004a A021     		mov	r1, #160
 1435 004c 0902     		lsl	r1, r1, #8
 1436 004e 0B43     		orr	r3, r1
 1437              	.LVL177:
1606:.\Generated_Source\PSoC4/Slider.c **** 
 1438              		.loc 1 1606 0
ARM GAS  C:\Users\ELECTR~1\AppData\Local\Temp\ccbbDBvf.s 			page 59


 1439 0050 1360     		str	r3, [r2]
1612:.\Generated_Source\PSoC4/Slider.c **** #endif /* (Slider_IDAC_CNT == 1u) */
 1440              		.loc 1 1612 0
 1441 0052 0C4A     		ldr	r2, .L91+32
 1442 0054 1168     		ldr	r1, [r2]
 1443 0056 0C4B     		ldr	r3, .L91+36
 1444              	.LVL178:
 1445 0058 0B40     		and	r3, r1
 1446 005a 1360     		str	r3, [r2]
 1447              	.LVL179:
1615:.\Generated_Source\PSoC4/Slider.c **** }
 1448              		.loc 1 1615 0
 1449 005c 1020     		mov	r0, #16
 1450 005e FFF7FEFF 		bl	CyIntEnable
 1451              	.LVL180:
1616:.\Generated_Source\PSoC4/Slider.c **** 
 1452              		.loc 1 1616 0
 1453              		@ sp needed
 1454              	.LVL181:
 1455 0062 38BD     		pop	{r3, r4, r5, pc}
 1456              	.L92:
 1457              		.align	2
 1458              	.L91:
 1459 0064 0C002840 		.word	1076363276
 1460 0068 00000000 		.word	.LANCHOR0
 1461 006c 00000000 		.word	.LANCHOR2
 1462 0070 00000000 		.word	.LANCHOR1
 1463 0074 FFFFFEFF 		.word	-65537
 1464 0078 00000000 		.word	scanSpeedTbl
 1465 007c 04002840 		.word	1076363268
 1466 0080 FF1FDFFF 		.word	-2154497
 1467 0084 08002840 		.word	1076363272
 1468 0088 00FF80FF 		.word	-8323328
 1469              		.cfi_endproc
 1470              	.LFE56:
 1471              		.size	Slider_PostScan, .-Slider_PostScan
 1472              		.section	.text.Slider_SetBitValue,"ax",%progbits
 1473              		.align	2
 1474              		.global	Slider_SetBitValue
 1475              		.code	16
 1476              		.thumb_func
 1477              		.type	Slider_SetBitValue, %function
 1478              	Slider_SetBitValue:
 1479              	.LFB61:
1759:.\Generated_Source\PSoC4/Slider.c **** 
1760:.\Generated_Source\PSoC4/Slider.c **** 
1761:.\Generated_Source\PSoC4/Slider.c **** /*******************************************************************************
1762:.\Generated_Source\PSoC4/Slider.c **** * Function Name: Slider_SetBitValue
1763:.\Generated_Source\PSoC4/Slider.c **** ********************************************************************************
1764:.\Generated_Source\PSoC4/Slider.c **** *
1765:.\Generated_Source\PSoC4/Slider.c **** * Summary:
1766:.\Generated_Source\PSoC4/Slider.c **** *  The API sets a bit status of the bit in the table array which contains masks.
1767:.\Generated_Source\PSoC4/Slider.c **** * 
1768:.\Generated_Source\PSoC4/Slider.c **** * Parameters:
1769:.\Generated_Source\PSoC4/Slider.c **** *  table[] - array with bit masks.
1770:.\Generated_Source\PSoC4/Slider.c **** *  position - position of bit in the table[] array.
1771:.\Generated_Source\PSoC4/Slider.c **** *  value: 0 - bit is not set; 1 - bit is set.
ARM GAS  C:\Users\ELECTR~1\AppData\Local\Temp\ccbbDBvf.s 			page 60


1772:.\Generated_Source\PSoC4/Slider.c **** *
1773:.\Generated_Source\PSoC4/Slider.c **** * Return:
1774:.\Generated_Source\PSoC4/Slider.c **** *  None
1775:.\Generated_Source\PSoC4/Slider.c **** *
1776:.\Generated_Source\PSoC4/Slider.c **** * Global Variables:
1777:.\Generated_Source\PSoC4/Slider.c **** *  None
1778:.\Generated_Source\PSoC4/Slider.c **** *
1779:.\Generated_Source\PSoC4/Slider.c **** * Side Effects:
1780:.\Generated_Source\PSoC4/Slider.c **** *  None
1781:.\Generated_Source\PSoC4/Slider.c **** *
1782:.\Generated_Source\PSoC4/Slider.c **** *******************************************************************************/
1783:.\Generated_Source\PSoC4/Slider.c **** void Slider_SetBitValue(uint8 table[], uint32 position, uint32 value)
1784:.\Generated_Source\PSoC4/Slider.c **** {
 1480              		.loc 1 1784 0
 1481              		.cfi_startproc
 1482              	.LVL182:
 1483 0000 10B5     		push	{r4, lr}
 1484              		.cfi_def_cfa_offset 8
 1485              		.cfi_offset 4, -8
 1486              		.cfi_offset 14, -4
1785:.\Generated_Source\PSoC4/Slider.c ****     uint32 offset;
1786:.\Generated_Source\PSoC4/Slider.c **** 	uint8 enMask;
1787:.\Generated_Source\PSoC4/Slider.c **** 	
1788:.\Generated_Source\PSoC4/Slider.c **** 	/* position is divided by 8 to calculate the element of the 
1789:.\Generated_Source\PSoC4/Slider.c **** 	   table[] array that contains the enable bit 
1790:.\Generated_Source\PSoC4/Slider.c **** 	   for an appropriate sensor.
1791:.\Generated_Source\PSoC4/Slider.c **** 	*/
1792:.\Generated_Source\PSoC4/Slider.c **** 	offset = (position >> 3u);
 1487              		.loc 1 1792 0
 1488 0002 CC08     		lsr	r4, r1, #3
 1489              	.LVL183:
1793:.\Generated_Source\PSoC4/Slider.c **** 	
1794:.\Generated_Source\PSoC4/Slider.c **** 	/* The enMask calculation for the appropriate sensor. Operation (position & 0x07u) 
1795:.\Generated_Source\PSoC4/Slider.c **** 	   intends to calculate the enable bit offset for the 8-bit element of the 
1796:.\Generated_Source\PSoC4/Slider.c **** 	   table[] array.
1797:.\Generated_Source\PSoC4/Slider.c **** 	*/
1798:.\Generated_Source\PSoC4/Slider.c **** 	enMask = 0x01u << (position & 0x07u);
 1490              		.loc 1 1798 0
 1491 0004 0723     		mov	r3, #7
 1492 0006 1940     		and	r1, r3
 1493              	.LVL184:
 1494 0008 063B     		sub	r3, r3, #6
 1495 000a 8B40     		lsl	r3, r3, r1
 1496 000c D9B2     		uxtb	r1, r3
 1497              	.LVL185:
1799:.\Generated_Source\PSoC4/Slider.c **** 	
1800:.\Generated_Source\PSoC4/Slider.c **** 	if(0u != value)
 1498              		.loc 1 1800 0
 1499 000e 002A     		cmp	r2, #0
 1500 0010 04D0     		beq	.L94
1801:.\Generated_Source\PSoC4/Slider.c **** 	{
1802:.\Generated_Source\PSoC4/Slider.c **** 		table[offset] |= enMask;
 1501              		.loc 1 1802 0
 1502 0012 0419     		add	r4, r0, r4
 1503              	.LVL186:
 1504 0014 2378     		ldrb	r3, [r4]
 1505 0016 1943     		orr	r1, r3
ARM GAS  C:\Users\ELECTR~1\AppData\Local\Temp\ccbbDBvf.s 			page 61


 1506              	.LVL187:
 1507 0018 2170     		strb	r1, [r4]
 1508 001a 03E0     		b	.L93
 1509              	.LVL188:
 1510              	.L94:
1803:.\Generated_Source\PSoC4/Slider.c **** 	}
1804:.\Generated_Source\PSoC4/Slider.c **** 	else
1805:.\Generated_Source\PSoC4/Slider.c **** 	{
1806:.\Generated_Source\PSoC4/Slider.c **** 		table[offset] &= (uint8)~(enMask);
 1511              		.loc 1 1806 0
 1512 001c 0419     		add	r4, r0, r4
 1513              	.LVL189:
 1514 001e 2378     		ldrb	r3, [r4]
 1515 0020 8B43     		bic	r3, r1
 1516 0022 2370     		strb	r3, [r4]
 1517              	.LVL190:
 1518              	.L93:
1807:.\Generated_Source\PSoC4/Slider.c **** 	}
1808:.\Generated_Source\PSoC4/Slider.c **** }
 1519              		.loc 1 1808 0
 1520              		@ sp needed
 1521 0024 10BD     		pop	{r4, pc}
 1522              		.cfi_endproc
 1523              	.LFE61:
 1524              		.size	Slider_SetBitValue, .-Slider_SetBitValue
 1525 0026 C046     		.section	.text.Slider_ScanWidget,"ax",%progbits
 1526              		.align	2
 1527              		.global	Slider_ScanWidget
 1528              		.code	16
 1529              		.thumb_func
 1530              		.type	Slider_ScanWidget, %function
 1531              	Slider_ScanWidget:
 1532              	.LFB42:
 621:.\Generated_Source\PSoC4/Slider.c ****     uint32 sensorsPerWidget;
 1533              		.loc 1 621 0
 1534              		.cfi_startproc
 1535              	.LVL191:
 1536 0000 38B5     		push	{r3, r4, r5, lr}
 1537              		.cfi_def_cfa_offset 16
 1538              		.cfi_offset 3, -16
 1539              		.cfi_offset 4, -12
 1540              		.cfi_offset 5, -8
 1541              		.cfi_offset 14, -4
 627:.\Generated_Source\PSoC4/Slider.c **** 	
 1542              		.loc 1 627 0
 1543 0002 1D4B     		ldr	r3, .L106
 1544 0004 1D5C     		ldrb	r5, [r3, r0]
 1545 0006 1D4B     		ldr	r3, .L106+4
 1546 0008 1D74     		strb	r5, [r3, #16]
 630:.\Generated_Source\PSoC4/Slider.c **** 	
 1547              		.loc 1 630 0
 1548 000a 1D4B     		ldr	r3, .L106+8
 1549 000c 1B5C     		ldrb	r3, [r3, r0]
 1550              	.LVL192:
 633:.\Generated_Source\PSoC4/Slider.c **** 	{
 1551              		.loc 1 633 0
 1552 000e 002B     		cmp	r3, #0
ARM GAS  C:\Users\ELECTR~1\AppData\Local\Temp\ccbbDBvf.s 			page 62


 1553 0010 00D1     		bne	.L97
 635:.\Generated_Source\PSoC4/Slider.c **** 	}
 1554              		.loc 1 635 0
 1555 0012 0133     		add	r3, r3, #1
 1556              	.LVL193:
 1557              	.L97:
 639:.\Generated_Source\PSoC4/Slider.c **** 
 1558              		.loc 1 639 0
 1559 0014 ED18     		add	r5, r5, r3
 1560 0016 013D     		sub	r5, r5, #1
 1561              	.LVL194:
 642:.\Generated_Source\PSoC4/Slider.c **** 	{
 1562              		.loc 1 642 0
 1563 0018 0023     		mov	r3, #0
 1564              	.LVL195:
 1565 001a 05E0     		b	.L98
 1566              	.LVL196:
 1567              	.L99:
 645:.\Generated_Source\PSoC4/Slider.c **** 	}
 1568              		.loc 1 645 0 discriminator 3
 1569 001c 194A     		ldr	r2, .L106+12
 1570 001e D218     		add	r2, r2, r3
 1571 0020 1179     		ldrb	r1, [r2, #4]
 1572 0022 194A     		ldr	r2, .L106+16
 1573 0024 D154     		strb	r1, [r2, r3]
 642:.\Generated_Source\PSoC4/Slider.c **** 	{
 1574              		.loc 1 642 0 discriminator 3
 1575 0026 0133     		add	r3, r3, #1
 1576              	.LVL197:
 1577              	.L98:
 642:.\Generated_Source\PSoC4/Slider.c **** 	{
 1578              		.loc 1 642 0 is_stmt 0 discriminator 1
 1579 0028 002B     		cmp	r3, #0
 1580 002a F7D0     		beq	.L99
 1581 002c 0024     		mov	r4, #0
 1582 002e 14E0     		b	.L100
 1583              	.LVL198:
 1584              	.L103:
 652:.\Generated_Source\PSoC4/Slider.c **** 		{
 1585              		.loc 1 652 0 is_stmt 1
 1586 0030 124B     		ldr	r3, .L106+4
 1587 0032 1B7C     		ldrb	r3, [r3, #16]
 1588 0034 DBB2     		uxtb	r3, r3
 1589 0036 A342     		cmp	r3, r4
 1590 0038 08D8     		bhi	.L101
 652:.\Generated_Source\PSoC4/Slider.c **** 		{
 1591              		.loc 1 652 0 is_stmt 0 discriminator 1
 1592 003a AC42     		cmp	r4, r5
 1593 003c 06D8     		bhi	.L101
 655:.\Generated_Source\PSoC4/Slider.c **** 		}
 1594              		.loc 1 655 0 is_stmt 1
 1595 003e 1148     		ldr	r0, .L106+12
 1596 0040 0430     		add	r0, r0, #4
 1597 0042 211C     		mov	r1, r4
 1598 0044 0122     		mov	r2, #1
 1599 0046 FFF7FEFF 		bl	Slider_SetBitValue
 1600              	.LVL199:
ARM GAS  C:\Users\ELECTR~1\AppData\Local\Temp\ccbbDBvf.s 			page 63


 1601 004a 05E0     		b	.L102
 1602              	.L101:
 660:.\Generated_Source\PSoC4/Slider.c **** 		}
 1603              		.loc 1 660 0
 1604 004c 0D48     		ldr	r0, .L106+12
 1605 004e 0430     		add	r0, r0, #4
 1606 0050 211C     		mov	r1, r4
 1607 0052 0022     		mov	r2, #0
 1608 0054 FFF7FEFF 		bl	Slider_SetBitValue
 1609              	.LVL200:
 1610              	.L102:
 649:.\Generated_Source\PSoC4/Slider.c **** 	{
 1611              		.loc 1 649 0 discriminator 2
 1612 0058 0134     		add	r4, r4, #1
 1613              	.LVL201:
 1614              	.L100:
 649:.\Generated_Source\PSoC4/Slider.c **** 	{
 1615              		.loc 1 649 0 is_stmt 0 discriminator 1
 1616 005a 042C     		cmp	r4, #4
 1617 005c E8D9     		bls	.L103
 665:.\Generated_Source\PSoC4/Slider.c ****     {
 1618              		.loc 1 665 0 is_stmt 1
 1619 005e 074B     		ldr	r3, .L106+4
 1620 0060 1B7C     		ldrb	r3, [r3, #16]
 1621 0062 DBB2     		uxtb	r3, r3
 1622 0064 042B     		cmp	r3, #4
 1623 0066 06D8     		bhi	.L96
 668:.\Generated_Source\PSoC4/Slider.c **** 		/* Scan first sensor of widget*/ 
 1624              		.loc 1 668 0
 1625 0068 044B     		ldr	r3, .L106+4
 1626 006a 4122     		mov	r2, #65
 1627 006c 1A70     		strb	r2, [r3]
 670:.\Generated_Source\PSoC4/Slider.c ****     }
 1628              		.loc 1 670 0
 1629 006e 187C     		ldrb	r0, [r3, #16]
 1630 0070 C0B2     		uxtb	r0, r0
 1631 0072 FFF7FEFF 		bl	Slider_PreScan
 1632              	.LVL202:
 1633              	.L96:
 672:.\Generated_Source\PSoC4/Slider.c **** #endif /* (0u != Slider_CSHL_API_GENERATE) */
 1634              		.loc 1 672 0
 1635              		@ sp needed
 1636              	.LVL203:
 1637              	.LVL204:
 1638 0076 38BD     		pop	{r3, r4, r5, pc}
 1639              	.L107:
 1640              		.align	2
 1641              	.L106:
 1642 0078 00000000 		.word	Slider_rawDataIndex
 1643 007c 00000000 		.word	.LANCHOR0
 1644 0080 00000000 		.word	Slider_numberOfSensors
 1645 0084 00000000 		.word	.LANCHOR1
 1646 0088 00000000 		.word	Slider_sensorEnableMaskBackup
 1647              		.cfi_endproc
 1648              	.LFE42:
 1649              		.size	Slider_ScanWidget, .-Slider_ScanWidget
 1650              		.section	.text.Slider_GetSenseClkDivider,"ax",%progbits
ARM GAS  C:\Users\ELECTR~1\AppData\Local\Temp\ccbbDBvf.s 			page 64


 1651              		.align	2
 1652              		.global	Slider_GetSenseClkDivider
 1653              		.code	16
 1654              		.thumb_func
 1655              		.type	Slider_GetSenseClkDivider, %function
 1656              	Slider_GetSenseClkDivider:
 1657              	.LFB62:
1809:.\Generated_Source\PSoC4/Slider.c **** 
1810:.\Generated_Source\PSoC4/Slider.c **** 
1811:.\Generated_Source\PSoC4/Slider.c **** 
1812:.\Generated_Source\PSoC4/Slider.c **** /*******************************************************************************
1813:.\Generated_Source\PSoC4/Slider.c **** * Function Name: Slider_GetSenseClkDivider
1814:.\Generated_Source\PSoC4/Slider.c **** ********************************************************************************
1815:.\Generated_Source\PSoC4/Slider.c **** *
1816:.\Generated_Source\PSoC4/Slider.c **** * Summary:
1817:.\Generated_Source\PSoC4/Slider.c **** *  This API returns a value of the sense clock divider for the  sensor.
1818:.\Generated_Source\PSoC4/Slider.c **** *
1819:.\Generated_Source\PSoC4/Slider.c **** * Parameters:
1820:.\Generated_Source\PSoC4/Slider.c **** *  sensor: sensor index. The index value can be 
1821:.\Generated_Source\PSoC4/Slider.c **** *  from 0 to (Slider_TOTAL_SENSOR_COUNT-1).
1822:.\Generated_Source\PSoC4/Slider.c **** *
1823:.\Generated_Source\PSoC4/Slider.c **** * Return:
1824:.\Generated_Source\PSoC4/Slider.c **** *  This API returns the sense clock divider of the sensor. 
1825:.\Generated_Source\PSoC4/Slider.c **** *
1826:.\Generated_Source\PSoC4/Slider.c **** * Global Variables:
1827:.\Generated_Source\PSoC4/Slider.c **** *  Slider_senseClkDividerVal[] - stores the sense clock divider values.
1828:.\Generated_Source\PSoC4/Slider.c **** * 
1829:.\Generated_Source\PSoC4/Slider.c **** * Side Effects:
1830:.\Generated_Source\PSoC4/Slider.c **** *  None
1831:.\Generated_Source\PSoC4/Slider.c **** *
1832:.\Generated_Source\PSoC4/Slider.c **** *******************************************************************************/
1833:.\Generated_Source\PSoC4/Slider.c **** uint32 Slider_GetSenseClkDivider(uint32 sensor)
1834:.\Generated_Source\PSoC4/Slider.c **** {
 1658              		.loc 1 1834 0
 1659              		.cfi_startproc
 1660              	.LVL205:
1835:.\Generated_Source\PSoC4/Slider.c **** 	#if(0u != Slider_MULTIPLE_FREQUENCY_SET)
1836:.\Generated_Source\PSoC4/Slider.c **** 		return((uint32)Slider_senseClkDividerVal[sensor]);
 1661              		.loc 1 1836 0
 1662 0000 014B     		ldr	r3, .L109
 1663 0002 185C     		ldrb	r0, [r3, r0]
 1664              	.LVL206:
1837:.\Generated_Source\PSoC4/Slider.c **** 	#else
1838:.\Generated_Source\PSoC4/Slider.c **** 		return((uint32)Slider_senseClkDividerVal);
1839:.\Generated_Source\PSoC4/Slider.c **** 	#endif /* (0u != Slider_MULTIPLE_FREQUENCY_SET) */
1840:.\Generated_Source\PSoC4/Slider.c **** }
 1665              		.loc 1 1840 0
 1666              		@ sp needed
 1667 0004 7047     		bx	lr
 1668              	.L110:
 1669 0006 C046     		.align	2
 1670              	.L109:
 1671 0008 00000000 		.word	Slider_senseClkDividerVal
 1672              		.cfi_endproc
 1673              	.LFE62:
 1674              		.size	Slider_GetSenseClkDivider, .-Slider_GetSenseClkDivider
 1675              		.section	.text.Slider_SetSenseClkDivider,"ax",%progbits
ARM GAS  C:\Users\ELECTR~1\AppData\Local\Temp\ccbbDBvf.s 			page 65


 1676              		.align	2
 1677              		.global	Slider_SetSenseClkDivider
 1678              		.code	16
 1679              		.thumb_func
 1680              		.type	Slider_SetSenseClkDivider, %function
 1681              	Slider_SetSenseClkDivider:
 1682              	.LFB63:
1841:.\Generated_Source\PSoC4/Slider.c **** 
1842:.\Generated_Source\PSoC4/Slider.c **** #if (Slider_TUNING_METHOD != Slider__TUNING_NONE)
1843:.\Generated_Source\PSoC4/Slider.c **** 	/*******************************************************************************
1844:.\Generated_Source\PSoC4/Slider.c **** 	* Function Name: Slider_SetSenseClkDivider
1845:.\Generated_Source\PSoC4/Slider.c **** 	********************************************************************************
1846:.\Generated_Source\PSoC4/Slider.c **** 	*
1847:.\Generated_Source\PSoC4/Slider.c **** 	* Summary:
1848:.\Generated_Source\PSoC4/Slider.c **** 	*  This API sets a value of the sense clock divider for the  sensor. 
1849:.\Generated_Source\PSoC4/Slider.c **** 	*
1850:.\Generated_Source\PSoC4/Slider.c **** 	* Parameters:
1851:.\Generated_Source\PSoC4/Slider.c **** 	*  sensor:  Sensor index.
1852:.\Generated_Source\PSoC4/Slider.c **** 	*  senseClk: represents the sense clock value.
1853:.\Generated_Source\PSoC4/Slider.c **** 	*
1854:.\Generated_Source\PSoC4/Slider.c **** 	* Return:
1855:.\Generated_Source\PSoC4/Slider.c **** 	*  None.
1856:.\Generated_Source\PSoC4/Slider.c **** 	*
1857:.\Generated_Source\PSoC4/Slider.c **** 	* Global Variables:
1858:.\Generated_Source\PSoC4/Slider.c **** 	*  Slider_senseClkDividerVal[] - stores the sense clock divider values.
1859:.\Generated_Source\PSoC4/Slider.c **** 	* 
1860:.\Generated_Source\PSoC4/Slider.c **** 	* Side Effects:
1861:.\Generated_Source\PSoC4/Slider.c **** 	*  None
1862:.\Generated_Source\PSoC4/Slider.c **** 	*
1863:.\Generated_Source\PSoC4/Slider.c **** 	*******************************************************************************/
1864:.\Generated_Source\PSoC4/Slider.c **** 	void Slider_SetSenseClkDivider(uint32 sensor, uint32 senseClk)
1865:.\Generated_Source\PSoC4/Slider.c **** 	{
 1683              		.loc 1 1865 0
 1684              		.cfi_startproc
 1685              	.LVL207:
1866:.\Generated_Source\PSoC4/Slider.c **** 		#if(0u != Slider_MULTIPLE_FREQUENCY_SET)
1867:.\Generated_Source\PSoC4/Slider.c **** 			Slider_senseClkDividerVal[sensor] = (uint8)senseClk;
 1686              		.loc 1 1867 0
 1687 0000 014B     		ldr	r3, .L112
 1688 0002 1954     		strb	r1, [r3, r0]
1868:.\Generated_Source\PSoC4/Slider.c **** 		#else
1869:.\Generated_Source\PSoC4/Slider.c **** 			Slider_senseClkDividerVal = (uint8)senseClk;
1870:.\Generated_Source\PSoC4/Slider.c **** 		#endif /* (0u != Slider_MULTIPLE_FREQUENCY_SET) */
1871:.\Generated_Source\PSoC4/Slider.c **** 	}
 1689              		.loc 1 1871 0
 1690              		@ sp needed
 1691 0004 7047     		bx	lr
 1692              	.L113:
 1693 0006 C046     		.align	2
 1694              	.L112:
 1695 0008 00000000 		.word	Slider_senseClkDividerVal
 1696              		.cfi_endproc
 1697              	.LFE63:
 1698              		.size	Slider_SetSenseClkDivider, .-Slider_SetSenseClkDivider
 1699              		.section	.text.Slider_GetModulatorClkDivider,"ax",%progbits
 1700              		.align	2
 1701              		.global	Slider_GetModulatorClkDivider
ARM GAS  C:\Users\ELECTR~1\AppData\Local\Temp\ccbbDBvf.s 			page 66


 1702              		.code	16
 1703              		.thumb_func
 1704              		.type	Slider_GetModulatorClkDivider, %function
 1705              	Slider_GetModulatorClkDivider:
 1706              	.LFB64:
1872:.\Generated_Source\PSoC4/Slider.c **** #endif /* (Slider_TUNING_METHOD != Slider__TUNING_NONE) */
1873:.\Generated_Source\PSoC4/Slider.c **** 
1874:.\Generated_Source\PSoC4/Slider.c **** 
1875:.\Generated_Source\PSoC4/Slider.c **** /*******************************************************************************
1876:.\Generated_Source\PSoC4/Slider.c **** * Function Name: Slider_GetModulatorClkDivider
1877:.\Generated_Source\PSoC4/Slider.c **** ********************************************************************************
1878:.\Generated_Source\PSoC4/Slider.c **** *
1879:.\Generated_Source\PSoC4/Slider.c **** * Summary:
1880:.\Generated_Source\PSoC4/Slider.c **** *  This API returns a value of the modulator sample clock divider for the  sensor.
1881:.\Generated_Source\PSoC4/Slider.c **** *
1882:.\Generated_Source\PSoC4/Slider.c **** * Parameters:
1883:.\Generated_Source\PSoC4/Slider.c **** *  sensor: sensor index. The value of index can be 
1884:.\Generated_Source\PSoC4/Slider.c **** *  from 0 to (Slider_TOTAL_SENSOR_COUNT-1).
1885:.\Generated_Source\PSoC4/Slider.c **** *
1886:.\Generated_Source\PSoC4/Slider.c **** * Return:
1887:.\Generated_Source\PSoC4/Slider.c **** *  This API returns the modulator sample clock divider for the  sensor.
1888:.\Generated_Source\PSoC4/Slider.c **** *
1889:.\Generated_Source\PSoC4/Slider.c **** * Global Variables:
1890:.\Generated_Source\PSoC4/Slider.c **** *  Slider_sampleClkDividerVal[] - stores the modulator sample divider values.
1891:.\Generated_Source\PSoC4/Slider.c **** * 
1892:.\Generated_Source\PSoC4/Slider.c **** * Side Effects:
1893:.\Generated_Source\PSoC4/Slider.c **** *  None
1894:.\Generated_Source\PSoC4/Slider.c **** *
1895:.\Generated_Source\PSoC4/Slider.c **** *******************************************************************************/
1896:.\Generated_Source\PSoC4/Slider.c **** uint32 Slider_GetModulatorClkDivider(uint32 sensor)
1897:.\Generated_Source\PSoC4/Slider.c **** {
 1707              		.loc 1 1897 0
 1708              		.cfi_startproc
 1709              	.LVL208:
1898:.\Generated_Source\PSoC4/Slider.c **** 	#if(0u != Slider_MULTIPLE_FREQUENCY_SET)
1899:.\Generated_Source\PSoC4/Slider.c **** 		return((uint32)Slider_sampleClkDividerVal[sensor]);
 1710              		.loc 1 1899 0
 1711 0000 014B     		ldr	r3, .L115
 1712 0002 185C     		ldrb	r0, [r3, r0]
 1713              	.LVL209:
1900:.\Generated_Source\PSoC4/Slider.c **** 	#else
1901:.\Generated_Source\PSoC4/Slider.c **** 		return((uint32)Slider_sampleClkDividerVal);
1902:.\Generated_Source\PSoC4/Slider.c **** 	#endif /* (0u != Slider_MULTIPLE_FREQUENCY_SET) */
1903:.\Generated_Source\PSoC4/Slider.c **** }
 1714              		.loc 1 1903 0
 1715              		@ sp needed
 1716 0004 7047     		bx	lr
 1717              	.L116:
 1718 0006 C046     		.align	2
 1719              	.L115:
 1720 0008 00000000 		.word	Slider_sampleClkDividerVal
 1721              		.cfi_endproc
 1722              	.LFE64:
 1723              		.size	Slider_GetModulatorClkDivider, .-Slider_GetModulatorClkDivider
 1724              		.section	.text.Slider_SetModulatorClkDivider,"ax",%progbits
 1725              		.align	2
 1726              		.global	Slider_SetModulatorClkDivider
ARM GAS  C:\Users\ELECTR~1\AppData\Local\Temp\ccbbDBvf.s 			page 67


 1727              		.code	16
 1728              		.thumb_func
 1729              		.type	Slider_SetModulatorClkDivider, %function
 1730              	Slider_SetModulatorClkDivider:
 1731              	.LFB65:
1904:.\Generated_Source\PSoC4/Slider.c **** 
1905:.\Generated_Source\PSoC4/Slider.c **** #if (Slider_TUNING_METHOD != Slider__TUNING_NONE)
1906:.\Generated_Source\PSoC4/Slider.c **** 	/*******************************************************************************
1907:.\Generated_Source\PSoC4/Slider.c **** 	* Function Name: Slider_SetModulatorClkDivider
1908:.\Generated_Source\PSoC4/Slider.c **** 	********************************************************************************
1909:.\Generated_Source\PSoC4/Slider.c **** 	*
1910:.\Generated_Source\PSoC4/Slider.c **** 	* Summary:
1911:.\Generated_Source\PSoC4/Slider.c **** 	*  This API sets a value of the modulator sample clock divider for the  sensor.
1912:.\Generated_Source\PSoC4/Slider.c **** 	*
1913:.\Generated_Source\PSoC4/Slider.c **** 	* Parameters:
1914:.\Generated_Source\PSoC4/Slider.c **** 	*  sensor:  Sensor index.
1915:.\Generated_Source\PSoC4/Slider.c **** 	*  modulatorClk: represents the modulator sample clock value.
1916:.\Generated_Source\PSoC4/Slider.c **** 	*
1917:.\Generated_Source\PSoC4/Slider.c **** 	* Return:
1918:.\Generated_Source\PSoC4/Slider.c **** 	*  None.
1919:.\Generated_Source\PSoC4/Slider.c **** 	*
1920:.\Generated_Source\PSoC4/Slider.c **** 	* Global Variables:
1921:.\Generated_Source\PSoC4/Slider.c **** 	*  Slider_sampleClkDividerVal[] - stores the modulator sample divider values.
1922:.\Generated_Source\PSoC4/Slider.c **** 	* 
1923:.\Generated_Source\PSoC4/Slider.c **** 	* Side Effects:
1924:.\Generated_Source\PSoC4/Slider.c **** 	*  None
1925:.\Generated_Source\PSoC4/Slider.c **** 	*
1926:.\Generated_Source\PSoC4/Slider.c **** 	*******************************************************************************/
1927:.\Generated_Source\PSoC4/Slider.c **** 	void Slider_SetModulatorClkDivider(uint32 sensor, uint32 modulatorClk)
1928:.\Generated_Source\PSoC4/Slider.c **** 	{
 1732              		.loc 1 1928 0
 1733              		.cfi_startproc
 1734              	.LVL210:
1929:.\Generated_Source\PSoC4/Slider.c **** 		#if(0u != Slider_MULTIPLE_FREQUENCY_SET)
1930:.\Generated_Source\PSoC4/Slider.c **** 			Slider_sampleClkDividerVal[sensor] = (uint8)modulatorClk;
 1735              		.loc 1 1930 0
 1736 0000 014B     		ldr	r3, .L118
 1737 0002 1954     		strb	r1, [r3, r0]
1931:.\Generated_Source\PSoC4/Slider.c **** 		#else
1932:.\Generated_Source\PSoC4/Slider.c **** 			Slider_sampleClkDividerVal = (uint8)modulatorClk;
1933:.\Generated_Source\PSoC4/Slider.c **** 		#endif /* (0u != Slider_MULTIPLE_FREQUENCY_SET) */
1934:.\Generated_Source\PSoC4/Slider.c **** 	}
 1738              		.loc 1 1934 0
 1739              		@ sp needed
 1740 0004 7047     		bx	lr
 1741              	.L119:
 1742 0006 C046     		.align	2
 1743              	.L118:
 1744 0008 00000000 		.word	Slider_sampleClkDividerVal
 1745              		.cfi_endproc
 1746              	.LFE65:
 1747              		.size	Slider_SetModulatorClkDivider, .-Slider_SetModulatorClkDivider
 1748              		.section	.text.Slider_GetModulationIDAC,"ax",%progbits
 1749              		.align	2
 1750              		.global	Slider_GetModulationIDAC
 1751              		.code	16
 1752              		.thumb_func
ARM GAS  C:\Users\ELECTR~1\AppData\Local\Temp\ccbbDBvf.s 			page 68


 1753              		.type	Slider_GetModulationIDAC, %function
 1754              	Slider_GetModulationIDAC:
 1755              	.LFB66:
1935:.\Generated_Source\PSoC4/Slider.c **** #endif /* (Slider_TUNING_METHOD != Slider__TUNING_NONE) */
1936:.\Generated_Source\PSoC4/Slider.c **** 
1937:.\Generated_Source\PSoC4/Slider.c **** /*******************************************************************************
1938:.\Generated_Source\PSoC4/Slider.c **** * Function Name: Slider_GetModulationIDAC
1939:.\Generated_Source\PSoC4/Slider.c **** ********************************************************************************
1940:.\Generated_Source\PSoC4/Slider.c **** *
1941:.\Generated_Source\PSoC4/Slider.c **** * Summary:
1942:.\Generated_Source\PSoC4/Slider.c **** *  This API returns a value of the modulation IDAC for the  sensor.
1943:.\Generated_Source\PSoC4/Slider.c **** *
1944:.\Generated_Source\PSoC4/Slider.c **** * Parameters:
1945:.\Generated_Source\PSoC4/Slider.c **** *  sensor: sensor index. The index value can be 
1946:.\Generated_Source\PSoC4/Slider.c **** *  from 0 to (Slider_TOTAL_SENSOR_COUNT-1).
1947:.\Generated_Source\PSoC4/Slider.c **** *
1948:.\Generated_Source\PSoC4/Slider.c **** * Return:
1949:.\Generated_Source\PSoC4/Slider.c **** *  This API returns the modulation IDAC of the sensor. 
1950:.\Generated_Source\PSoC4/Slider.c **** *
1951:.\Generated_Source\PSoC4/Slider.c **** * Global Variables:
1952:.\Generated_Source\PSoC4/Slider.c **** *  Slider_modulationIDAC[] - stores modulation IDAC values.
1953:.\Generated_Source\PSoC4/Slider.c **** * 
1954:.\Generated_Source\PSoC4/Slider.c **** * Side Effects:
1955:.\Generated_Source\PSoC4/Slider.c **** *  None
1956:.\Generated_Source\PSoC4/Slider.c **** *
1957:.\Generated_Source\PSoC4/Slider.c **** *******************************************************************************/
1958:.\Generated_Source\PSoC4/Slider.c **** uint32 Slider_GetModulationIDAC(uint32 sensor)
1959:.\Generated_Source\PSoC4/Slider.c **** {
 1756              		.loc 1 1959 0
 1757              		.cfi_startproc
 1758              	.LVL211:
1960:.\Generated_Source\PSoC4/Slider.c **** 		return((uint32)Slider_modulationIDAC[sensor]);
 1759              		.loc 1 1960 0
 1760 0000 014B     		ldr	r3, .L121
 1761 0002 185C     		ldrb	r0, [r3, r0]
 1762              	.LVL212:
1961:.\Generated_Source\PSoC4/Slider.c **** }
 1763              		.loc 1 1961 0
 1764              		@ sp needed
 1765 0004 7047     		bx	lr
 1766              	.L122:
 1767 0006 C046     		.align	2
 1768              	.L121:
 1769 0008 00000000 		.word	Slider_modulationIDAC
 1770              		.cfi_endproc
 1771              	.LFE66:
 1772              		.size	Slider_GetModulationIDAC, .-Slider_GetModulationIDAC
 1773              		.section	.text.Slider_SetModulationIDAC,"ax",%progbits
 1774              		.align	2
 1775              		.global	Slider_SetModulationIDAC
 1776              		.code	16
 1777              		.thumb_func
 1778              		.type	Slider_SetModulationIDAC, %function
 1779              	Slider_SetModulationIDAC:
 1780              	.LFB67:
1962:.\Generated_Source\PSoC4/Slider.c **** 
1963:.\Generated_Source\PSoC4/Slider.c **** #if (Slider_TUNING_METHOD != Slider__TUNING_NONE)
ARM GAS  C:\Users\ELECTR~1\AppData\Local\Temp\ccbbDBvf.s 			page 69


1964:.\Generated_Source\PSoC4/Slider.c **** 	/*******************************************************************************
1965:.\Generated_Source\PSoC4/Slider.c **** 	* Function Name: Slider_SetModulationIDAC
1966:.\Generated_Source\PSoC4/Slider.c **** 	********************************************************************************
1967:.\Generated_Source\PSoC4/Slider.c **** 	*
1968:.\Generated_Source\PSoC4/Slider.c **** 	* Summary:
1969:.\Generated_Source\PSoC4/Slider.c **** 	*  This API sets a value of the modulation IDAC for the  sensor.
1970:.\Generated_Source\PSoC4/Slider.c **** 	*
1971:.\Generated_Source\PSoC4/Slider.c **** 	* Parameters:
1972:.\Generated_Source\PSoC4/Slider.c **** 	*  sensor:  Sensor index.
1973:.\Generated_Source\PSoC4/Slider.c **** 	*  compIdacValue: represents the modulation IDAC data register value.
1974:.\Generated_Source\PSoC4/Slider.c **** 	*
1975:.\Generated_Source\PSoC4/Slider.c **** 	* Return:
1976:.\Generated_Source\PSoC4/Slider.c **** 	*  None.
1977:.\Generated_Source\PSoC4/Slider.c **** 	*
1978:.\Generated_Source\PSoC4/Slider.c **** 	* Global Variables:
1979:.\Generated_Source\PSoC4/Slider.c **** 	*  Slider_modulationIDAC[] - array with modulation IDAC values
1980:.\Generated_Source\PSoC4/Slider.c **** 	* 
1981:.\Generated_Source\PSoC4/Slider.c **** 	* Side Effects:
1982:.\Generated_Source\PSoC4/Slider.c **** 	*  None
1983:.\Generated_Source\PSoC4/Slider.c **** 	*
1984:.\Generated_Source\PSoC4/Slider.c **** 	*******************************************************************************/
1985:.\Generated_Source\PSoC4/Slider.c **** 	void Slider_SetModulationIDAC(uint32 sensor, uint32 modIdacValue)
1986:.\Generated_Source\PSoC4/Slider.c **** 	{
 1781              		.loc 1 1986 0
 1782              		.cfi_startproc
 1783              	.LVL213:
1987:.\Generated_Source\PSoC4/Slider.c **** 		Slider_modulationIDAC[sensor] = (uint8)modIdacValue;
 1784              		.loc 1 1987 0
 1785 0000 014B     		ldr	r3, .L124
 1786 0002 1954     		strb	r1, [r3, r0]
1988:.\Generated_Source\PSoC4/Slider.c **** 	}
 1787              		.loc 1 1988 0
 1788              		@ sp needed
 1789 0004 7047     		bx	lr
 1790              	.L125:
 1791 0006 C046     		.align	2
 1792              	.L124:
 1793 0008 00000000 		.word	Slider_modulationIDAC
 1794              		.cfi_endproc
 1795              	.LFE67:
 1796              		.size	Slider_SetModulationIDAC, .-Slider_SetModulationIDAC
 1797              		.section	.text.Slider_GetCompensationIDAC,"ax",%progbits
 1798              		.align	2
 1799              		.global	Slider_GetCompensationIDAC
 1800              		.code	16
 1801              		.thumb_func
 1802              		.type	Slider_GetCompensationIDAC, %function
 1803              	Slider_GetCompensationIDAC:
 1804              	.LFB68:
1989:.\Generated_Source\PSoC4/Slider.c **** #endif /* (Slider_TUNING_METHOD != Slider__TUNING_NONE) */
1990:.\Generated_Source\PSoC4/Slider.c **** 
1991:.\Generated_Source\PSoC4/Slider.c **** 
1992:.\Generated_Source\PSoC4/Slider.c **** #if(Slider_IDAC_CNT > 1u)
1993:.\Generated_Source\PSoC4/Slider.c **** 	/*******************************************************************************
1994:.\Generated_Source\PSoC4/Slider.c **** 	* Function Name: Slider_GetCompensationIDAC
1995:.\Generated_Source\PSoC4/Slider.c **** 	********************************************************************************
1996:.\Generated_Source\PSoC4/Slider.c **** 	*
ARM GAS  C:\Users\ELECTR~1\AppData\Local\Temp\ccbbDBvf.s 			page 70


1997:.\Generated_Source\PSoC4/Slider.c **** 	* Summary:
1998:.\Generated_Source\PSoC4/Slider.c **** 	*  This API returns a value of the compensation IDAC for the  sensor.
1999:.\Generated_Source\PSoC4/Slider.c **** 	*
2000:.\Generated_Source\PSoC4/Slider.c **** 	* Parameters:
2001:.\Generated_Source\PSoC4/Slider.c **** 	*  sensor: sensor index. The index value can be 
2002:.\Generated_Source\PSoC4/Slider.c **** 	*  from 0 to (Slider_TOTAL_SENSOR_COUNT-1).
2003:.\Generated_Source\PSoC4/Slider.c **** 	*
2004:.\Generated_Source\PSoC4/Slider.c **** 	* Return:
2005:.\Generated_Source\PSoC4/Slider.c **** 	*  This API returns the compensation IDAC of the sensor. 
2006:.\Generated_Source\PSoC4/Slider.c **** 	*
2007:.\Generated_Source\PSoC4/Slider.c **** 	* Global Variables:
2008:.\Generated_Source\PSoC4/Slider.c **** 	*  Slider_compensationIDAC[] - stores the compensation IDAC values.
2009:.\Generated_Source\PSoC4/Slider.c **** 	* 
2010:.\Generated_Source\PSoC4/Slider.c **** 	* Side Effects:
2011:.\Generated_Source\PSoC4/Slider.c **** 	*  None
2012:.\Generated_Source\PSoC4/Slider.c **** 	*
2013:.\Generated_Source\PSoC4/Slider.c **** 	*******************************************************************************/
2014:.\Generated_Source\PSoC4/Slider.c **** 	uint32 Slider_GetCompensationIDAC(uint32 sensor)
2015:.\Generated_Source\PSoC4/Slider.c **** 	{
 1805              		.loc 1 2015 0
 1806              		.cfi_startproc
 1807              	.LVL214:
2016:.\Generated_Source\PSoC4/Slider.c **** 		return((uint32)Slider_compensationIDAC[sensor]);
 1808              		.loc 1 2016 0
 1809 0000 014B     		ldr	r3, .L127
 1810 0002 185C     		ldrb	r0, [r3, r0]
 1811              	.LVL215:
2017:.\Generated_Source\PSoC4/Slider.c **** 	}
 1812              		.loc 1 2017 0
 1813              		@ sp needed
 1814 0004 7047     		bx	lr
 1815              	.L128:
 1816 0006 C046     		.align	2
 1817              	.L127:
 1818 0008 00000000 		.word	Slider_compensationIDAC
 1819              		.cfi_endproc
 1820              	.LFE68:
 1821              		.size	Slider_GetCompensationIDAC, .-Slider_GetCompensationIDAC
 1822              		.section	.text.Slider_SetCompensationIDAC,"ax",%progbits
 1823              		.align	2
 1824              		.global	Slider_SetCompensationIDAC
 1825              		.code	16
 1826              		.thumb_func
 1827              		.type	Slider_SetCompensationIDAC, %function
 1828              	Slider_SetCompensationIDAC:
 1829              	.LFB69:
2018:.\Generated_Source\PSoC4/Slider.c **** #endif /* (Slider_IDAC_CNT > 1u) */
2019:.\Generated_Source\PSoC4/Slider.c **** 
2020:.\Generated_Source\PSoC4/Slider.c **** 
2021:.\Generated_Source\PSoC4/Slider.c **** #if((Slider_TUNING_METHOD != Slider__TUNING_NONE) && (Slider_IDAC_CNT > 1u))
2022:.\Generated_Source\PSoC4/Slider.c **** 	/*******************************************************************************
2023:.\Generated_Source\PSoC4/Slider.c **** 	* Function Name: Slider_SetCompensationIDAC
2024:.\Generated_Source\PSoC4/Slider.c **** 	********************************************************************************
2025:.\Generated_Source\PSoC4/Slider.c **** 	*
2026:.\Generated_Source\PSoC4/Slider.c **** 	* Summary:
2027:.\Generated_Source\PSoC4/Slider.c **** 	*  This API sets a value of compensation IDAC for the  sensor.
2028:.\Generated_Source\PSoC4/Slider.c **** 	*
ARM GAS  C:\Users\ELECTR~1\AppData\Local\Temp\ccbbDBvf.s 			page 71


2029:.\Generated_Source\PSoC4/Slider.c **** 	* Parameters:
2030:.\Generated_Source\PSoC4/Slider.c **** 	*  sensor:  Sensor index.
2031:.\Generated_Source\PSoC4/Slider.c **** 	*  compIdacValue: represents the compensation IDAC data register value.
2032:.\Generated_Source\PSoC4/Slider.c **** 	*
2033:.\Generated_Source\PSoC4/Slider.c **** 	* Return:
2034:.\Generated_Source\PSoC4/Slider.c **** 	*  None.
2035:.\Generated_Source\PSoC4/Slider.c **** 	*
2036:.\Generated_Source\PSoC4/Slider.c **** 	* Global Variables:
2037:.\Generated_Source\PSoC4/Slider.c **** 	*  Slider_compensationIDAC[] - an array with compensation IDAC values
2038:.\Generated_Source\PSoC4/Slider.c **** 	* 
2039:.\Generated_Source\PSoC4/Slider.c **** 	* Side Effects:
2040:.\Generated_Source\PSoC4/Slider.c **** 	*  None
2041:.\Generated_Source\PSoC4/Slider.c **** 	*
2042:.\Generated_Source\PSoC4/Slider.c **** 	*******************************************************************************/
2043:.\Generated_Source\PSoC4/Slider.c **** 	void Slider_SetCompensationIDAC(uint32 sensor, uint32 compIdacValue)
2044:.\Generated_Source\PSoC4/Slider.c **** 	{
 1830              		.loc 1 2044 0
 1831              		.cfi_startproc
 1832              	.LVL216:
2045:.\Generated_Source\PSoC4/Slider.c **** 		Slider_compensationIDAC[sensor] = (uint8)compIdacValue;
 1833              		.loc 1 2045 0
 1834 0000 014B     		ldr	r3, .L130
 1835 0002 1954     		strb	r1, [r3, r0]
2046:.\Generated_Source\PSoC4/Slider.c **** 	}
 1836              		.loc 1 2046 0
 1837              		@ sp needed
 1838 0004 7047     		bx	lr
 1839              	.L131:
 1840 0006 C046     		.align	2
 1841              	.L130:
 1842 0008 00000000 		.word	Slider_compensationIDAC
 1843              		.cfi_endproc
 1844              	.LFE69:
 1845              		.size	Slider_SetCompensationIDAC, .-Slider_SetCompensationIDAC
 1846              		.section	.text.Slider_GetIDACRange,"ax",%progbits
 1847              		.align	2
 1848              		.global	Slider_GetIDACRange
 1849              		.code	16
 1850              		.thumb_func
 1851              		.type	Slider_GetIDACRange, %function
 1852              	Slider_GetIDACRange:
 1853              	.LFB70:
2047:.\Generated_Source\PSoC4/Slider.c **** #endif /* ((Slider_TUNING_METHOD != Slider__TUNING_NONE) && (Slider_IDAC_CNT > 1u)) */
2048:.\Generated_Source\PSoC4/Slider.c **** 
2049:.\Generated_Source\PSoC4/Slider.c **** /*******************************************************************************
2050:.\Generated_Source\PSoC4/Slider.c **** * Function Name: Slider_GetIDACRange
2051:.\Generated_Source\PSoC4/Slider.c **** ********************************************************************************
2052:.\Generated_Source\PSoC4/Slider.c **** *
2053:.\Generated_Source\PSoC4/Slider.c **** * Summary:
2054:.\Generated_Source\PSoC4/Slider.c **** *  This API returns a value that indicates the IDAC range used by the 
2055:.\Generated_Source\PSoC4/Slider.c **** *  component to scan sensors. The IDAC range is common for all the sensors.
2056:.\Generated_Source\PSoC4/Slider.c **** *
2057:.\Generated_Source\PSoC4/Slider.c **** * Parameters:
2058:.\Generated_Source\PSoC4/Slider.c **** *  None
2059:.\Generated_Source\PSoC4/Slider.c **** *
2060:.\Generated_Source\PSoC4/Slider.c **** * Return:
2061:.\Generated_Source\PSoC4/Slider.c **** *  This API Returns a value that indicates the IDAC range:
ARM GAS  C:\Users\ELECTR~1\AppData\Local\Temp\ccbbDBvf.s 			page 72


2062:.\Generated_Source\PSoC4/Slider.c **** *      0 - IDAC range set to 4x
2063:.\Generated_Source\PSoC4/Slider.c **** *      1 - IDAC range set to 8x
2064:.\Generated_Source\PSoC4/Slider.c **** *
2065:.\Generated_Source\PSoC4/Slider.c **** * Global Variables:
2066:.\Generated_Source\PSoC4/Slider.c **** *  None
2067:.\Generated_Source\PSoC4/Slider.c **** * 
2068:.\Generated_Source\PSoC4/Slider.c **** * Side Effects:
2069:.\Generated_Source\PSoC4/Slider.c **** *  None
2070:.\Generated_Source\PSoC4/Slider.c **** *
2071:.\Generated_Source\PSoC4/Slider.c **** *******************************************************************************/
2072:.\Generated_Source\PSoC4/Slider.c **** uint32 Slider_GetIDACRange(void)
2073:.\Generated_Source\PSoC4/Slider.c **** {
 1854              		.loc 1 2073 0
 1855              		.cfi_startproc
2074:.\Generated_Source\PSoC4/Slider.c **** 	return((0u != (Slider_CSD_IDAC_REG & Slider_CSD_IDAC1_RANGE_8X)) ? 1uL : 0uL);
 1856              		.loc 1 2074 0
 1857 0000 034B     		ldr	r3, .L134
 1858 0002 1868     		ldr	r0, [r3]
 1859 0004 8023     		mov	r3, #128
 1860 0006 DB00     		lsl	r3, r3, #3
 1861 0008 1840     		and	r0, r3
 1862 000a 00D0     		beq	.L133
 1863 000c 0120     		mov	r0, #1
 1864              	.L133:
2075:.\Generated_Source\PSoC4/Slider.c **** }
 1865              		.loc 1 2075 0 discriminator 4
 1866              		@ sp needed
 1867 000e 7047     		bx	lr
 1868              	.L135:
 1869              		.align	2
 1870              	.L134:
 1871 0010 08002840 		.word	1076363272
 1872              		.cfi_endproc
 1873              	.LFE70:
 1874              		.size	Slider_GetIDACRange, .-Slider_GetIDACRange
 1875              		.section	.text.Slider_SetIDACRange,"ax",%progbits
 1876              		.align	2
 1877              		.global	Slider_SetIDACRange
 1878              		.code	16
 1879              		.thumb_func
 1880              		.type	Slider_SetIDACRange, %function
 1881              	Slider_SetIDACRange:
 1882              	.LFB71:
2076:.\Generated_Source\PSoC4/Slider.c **** 
2077:.\Generated_Source\PSoC4/Slider.c **** #if (Slider_TUNING_METHOD != Slider__TUNING_NONE)
2078:.\Generated_Source\PSoC4/Slider.c **** 	/*******************************************************************************
2079:.\Generated_Source\PSoC4/Slider.c **** 	* Function Name: Slider_SetIDACRange
2080:.\Generated_Source\PSoC4/Slider.c **** 	********************************************************************************
2081:.\Generated_Source\PSoC4/Slider.c **** 	*
2082:.\Generated_Source\PSoC4/Slider.c **** 	* Summary:
2083:.\Generated_Source\PSoC4/Slider.c **** 	*  This API sets the IDAC range to the 4x (1.2uA/bit) or 8x (2.4uA/bit) mode.
2084:.\Generated_Source\PSoC4/Slider.c ****     *  The IDAC range is common for all the sensors and common for the modulation and 
2085:.\Generated_Source\PSoC4/Slider.c **** 	*  compensation IDACs.
2086:.\Generated_Source\PSoC4/Slider.c **** 	*
2087:.\Generated_Source\PSoC4/Slider.c **** 	* Parameters:
2088:.\Generated_Source\PSoC4/Slider.c **** 	*  iDacRange:  represents value for IDAC range 
2089:.\Generated_Source\PSoC4/Slider.c **** 	*  0 -  IDAC range set to 4x (1.2uA/bit)
ARM GAS  C:\Users\ELECTR~1\AppData\Local\Temp\ccbbDBvf.s 			page 73


2090:.\Generated_Source\PSoC4/Slider.c **** 	*  1 or >1 - IDAC range set to 8x (2.4uA/bit)
2091:.\Generated_Source\PSoC4/Slider.c **** 	*
2092:.\Generated_Source\PSoC4/Slider.c **** 	* Return:
2093:.\Generated_Source\PSoC4/Slider.c **** 	*  None.
2094:.\Generated_Source\PSoC4/Slider.c **** 	*
2095:.\Generated_Source\PSoC4/Slider.c **** 	* Global Variables:
2096:.\Generated_Source\PSoC4/Slider.c **** 	*  None
2097:.\Generated_Source\PSoC4/Slider.c **** 	* 
2098:.\Generated_Source\PSoC4/Slider.c **** 	* Side Effects:
2099:.\Generated_Source\PSoC4/Slider.c **** 	*  None
2100:.\Generated_Source\PSoC4/Slider.c **** 	*
2101:.\Generated_Source\PSoC4/Slider.c **** 	*******************************************************************************/
2102:.\Generated_Source\PSoC4/Slider.c **** 	void Slider_SetIDACRange(uint32 iDacRange)
2103:.\Generated_Source\PSoC4/Slider.c **** 	{
 1883              		.loc 1 2103 0
 1884              		.cfi_startproc
 1885              	.LVL217:
2104:.\Generated_Source\PSoC4/Slider.c **** 	    if(iDacRange != 0u)
 1886              		.loc 1 2104 0
 1887 0000 0028     		cmp	r0, #0
 1888 0002 05D0     		beq	.L137
2105:.\Generated_Source\PSoC4/Slider.c **** 		{
2106:.\Generated_Source\PSoC4/Slider.c **** 		    /*  IDAC range = 8x (2.4uA/bit) */ 
2107:.\Generated_Source\PSoC4/Slider.c **** 		    Slider_CSD_IDAC_REG |= (Slider_CSD_IDAC1_RANGE_8X |\
 1889              		.loc 1 2107 0
 1890 0004 054A     		ldr	r2, .L139
 1891 0006 1368     		ldr	r3, [r2]
 1892 0008 0549     		ldr	r1, .L139+4
 1893 000a 0B43     		orr	r3, r1
 1894 000c 1360     		str	r3, [r2]
 1895 000e 04E0     		b	.L136
 1896              	.L137:
2108:.\Generated_Source\PSoC4/Slider.c **** 											  Slider_CSD_IDAC2_RANGE_8X);
2109:.\Generated_Source\PSoC4/Slider.c **** 		}
2110:.\Generated_Source\PSoC4/Slider.c **** 		else
2111:.\Generated_Source\PSoC4/Slider.c **** 		{
2112:.\Generated_Source\PSoC4/Slider.c **** 		    /*  IDAC range = 4x (1.2uA/bit) */ 
2113:.\Generated_Source\PSoC4/Slider.c **** 		    /*  IDAC range = 8x (2.4uA/bit) */ 
2114:.\Generated_Source\PSoC4/Slider.c **** 		    Slider_CSD_IDAC_REG &= ~(Slider_CSD_IDAC1_RANGE_8X |\
 1897              		.loc 1 2114 0
 1898 0010 024A     		ldr	r2, .L139
 1899 0012 1168     		ldr	r1, [r2]
 1900 0014 034B     		ldr	r3, .L139+8
 1901 0016 0B40     		and	r3, r1
 1902 0018 1360     		str	r3, [r2]
 1903              	.L136:
2115:.\Generated_Source\PSoC4/Slider.c **** 											   Slider_CSD_IDAC2_RANGE_8X);
2116:.\Generated_Source\PSoC4/Slider.c **** 		}
2117:.\Generated_Source\PSoC4/Slider.c **** 	}
 1904              		.loc 1 2117 0
 1905              		@ sp needed
 1906 001a 7047     		bx	lr
 1907              	.L140:
 1908              		.align	2
 1909              	.L139:
 1910 001c 08002840 		.word	1076363272
 1911 0020 00040004 		.word	67109888
ARM GAS  C:\Users\ELECTR~1\AppData\Local\Temp\ccbbDBvf.s 			page 74


 1912 0024 FFFBFFFB 		.word	-67109889
 1913              		.cfi_endproc
 1914              	.LFE71:
 1915              		.size	Slider_SetIDACRange, .-Slider_SetIDACRange
 1916              		.section	.text.Slider_GetSensorRaw,"ax",%progbits
 1917              		.align	2
 1918              		.global	Slider_GetSensorRaw
 1919              		.code	16
 1920              		.thumb_func
 1921              		.type	Slider_GetSensorRaw, %function
 1922              	Slider_GetSensorRaw:
 1923              	.LFB72:
2118:.\Generated_Source\PSoC4/Slider.c **** #endif /* (Slider_TUNING_METHOD != Slider__TUNING_NONE) */
2119:.\Generated_Source\PSoC4/Slider.c **** 
2120:.\Generated_Source\PSoC4/Slider.c **** 
2121:.\Generated_Source\PSoC4/Slider.c **** #if((0u != Slider_AUTOCALIBRATION_ENABLE) || (Slider_TUNING_METHOD == Slider__TUNING_AUTO))
2122:.\Generated_Source\PSoC4/Slider.c **** 	/*******************************************************************************
2123:.\Generated_Source\PSoC4/Slider.c **** 	* Function Name: Slider_GetSensorRaw
2124:.\Generated_Source\PSoC4/Slider.c **** 	********************************************************************************
2125:.\Generated_Source\PSoC4/Slider.c **** 	*
2126:.\Generated_Source\PSoC4/Slider.c **** 	* Summary:
2127:.\Generated_Source\PSoC4/Slider.c **** 	*  The API updates and gets uprated raw data from the sensor.
2128:.\Generated_Source\PSoC4/Slider.c **** 	*
2129:.\Generated_Source\PSoC4/Slider.c **** 	* Parameters:
2130:.\Generated_Source\PSoC4/Slider.c **** 	*  sensor - Sensor number.
2131:.\Generated_Source\PSoC4/Slider.c **** 	*
2132:.\Generated_Source\PSoC4/Slider.c **** 	* Return:
2133:.\Generated_Source\PSoC4/Slider.c **** 	*  Returns the current raw data value for a defined sensor number.
2134:.\Generated_Source\PSoC4/Slider.c **** 	*
2135:.\Generated_Source\PSoC4/Slider.c **** 	* Global Variables:
2136:.\Generated_Source\PSoC4/Slider.c **** 	*  None
2137:.\Generated_Source\PSoC4/Slider.c **** 	*
2138:.\Generated_Source\PSoC4/Slider.c **** 	* Side Effects:
2139:.\Generated_Source\PSoC4/Slider.c **** 	*  None
2140:.\Generated_Source\PSoC4/Slider.c **** 	*
2141:.\Generated_Source\PSoC4/Slider.c **** 	*******************************************************************************/
2142:.\Generated_Source\PSoC4/Slider.c **** 	uint16  Slider_GetSensorRaw(uint32 sensor)
2143:.\Generated_Source\PSoC4/Slider.c **** 	{
 1924              		.loc 1 2143 0
 1925              		.cfi_startproc
 1926              	.LVL218:
 1927 0000 70B5     		push	{r4, r5, r6, lr}
 1928              		.cfi_def_cfa_offset 16
 1929              		.cfi_offset 4, -16
 1930              		.cfi_offset 5, -12
 1931              		.cfi_offset 6, -8
 1932              		.cfi_offset 14, -4
 1933 0002 061C     		mov	r6, r0
 1934              	.LVL219:
2144:.\Generated_Source\PSoC4/Slider.c **** 		uint32 curSample;
2145:.\Generated_Source\PSoC4/Slider.c **** 		uint32 avgVal = 0u;
 1935              		.loc 1 2145 0
 1936 0004 0024     		mov	r4, #0
2146:.\Generated_Source\PSoC4/Slider.c **** 		
2147:.\Generated_Source\PSoC4/Slider.c **** 		for(curSample = 0u; curSample < Slider_AVG_SAMPLES_NUM; curSample++)
 1937              		.loc 1 2147 0
 1938 0006 0025     		mov	r5, #0
ARM GAS  C:\Users\ELECTR~1\AppData\Local\Temp\ccbbDBvf.s 			page 75


 1939 0008 0BE0     		b	.L142
 1940              	.LVL220:
 1941              	.L144:
2148:.\Generated_Source\PSoC4/Slider.c **** 		{
2149:.\Generated_Source\PSoC4/Slider.c **** 	    
2150:.\Generated_Source\PSoC4/Slider.c **** 			Slider_ScanSensor((uint32)sensor);
 1942              		.loc 1 2150 0
 1943 000a 301C     		mov	r0, r6
 1944 000c FFF7FEFF 		bl	Slider_ScanSensor
 1945              	.LVL221:
 1946              	.L143:
2151:.\Generated_Source\PSoC4/Slider.c **** 		    while(Slider_IsBusy() == 1u)
 1947              		.loc 1 2151 0 discriminator 1
 1948 0010 FFF7FEFF 		bl	Slider_IsBusy
 1949              	.LVL222:
 1950 0014 0128     		cmp	r0, #1
 1951 0016 FBD0     		beq	.L143
2152:.\Generated_Source\PSoC4/Slider.c **** 			{
2153:.\Generated_Source\PSoC4/Slider.c **** 				/* Wait while sensor is busy */
2154:.\Generated_Source\PSoC4/Slider.c **** 			}
2155:.\Generated_Source\PSoC4/Slider.c **** 			avgVal += Slider_ReadSensorRaw((uint32)sensor);
 1952              		.loc 1 2155 0 discriminator 2
 1953 0018 301C     		mov	r0, r6
 1954 001a FFF7FEFF 		bl	Slider_ReadSensorRaw
 1955              	.LVL223:
 1956 001e 2418     		add	r4, r4, r0
 1957              	.LVL224:
2147:.\Generated_Source\PSoC4/Slider.c **** 		{
 1958              		.loc 1 2147 0 discriminator 2
 1959 0020 0135     		add	r5, r5, #1
 1960              	.LVL225:
 1961              	.L142:
2147:.\Generated_Source\PSoC4/Slider.c **** 		{
 1962              		.loc 1 2147 0 is_stmt 0 discriminator 1
 1963 0022 002D     		cmp	r5, #0
 1964 0024 F1D0     		beq	.L144
2156:.\Generated_Source\PSoC4/Slider.c **** 		}
2157:.\Generated_Source\PSoC4/Slider.c **** 	    
2158:.\Generated_Source\PSoC4/Slider.c **** 	    return((uint16)(avgVal / Slider_AVG_SAMPLES_NUM));
 1965              		.loc 1 2158 0 is_stmt 1
 1966 0026 A0B2     		uxth	r0, r4
2159:.\Generated_Source\PSoC4/Slider.c **** 	}
 1967              		.loc 1 2159 0
 1968              		@ sp needed
 1969              	.LVL226:
 1970              	.LVL227:
 1971              	.LVL228:
 1972 0028 70BD     		pop	{r4, r5, r6, pc}
 1973              		.cfi_endproc
 1974              	.LFE72:
 1975              		.size	Slider_GetSensorRaw, .-Slider_GetSensorRaw
 1976 002a C046     		.section	.text.Slider_SetUnscannedSensorState,"ax",%progbits
 1977              		.align	2
 1978              		.global	Slider_SetUnscannedSensorState
 1979              		.code	16
 1980              		.thumb_func
 1981              		.type	Slider_SetUnscannedSensorState, %function
ARM GAS  C:\Users\ELECTR~1\AppData\Local\Temp\ccbbDBvf.s 			page 76


 1982              	Slider_SetUnscannedSensorState:
 1983              	.LFB73:
2160:.\Generated_Source\PSoC4/Slider.c **** #endif /* ((0u != Slider_AUTOCALIBRATION_ENABLE) && (Slider_TUNING_METHOD == Slider__TUNING_AUTO)) 
2161:.\Generated_Source\PSoC4/Slider.c **** 
2162:.\Generated_Source\PSoC4/Slider.c **** 
2163:.\Generated_Source\PSoC4/Slider.c **** #if((0u != Slider_AUTOCALIBRATION_ENABLE) && (Slider_TUNING_METHOD != Slider__TUNING_AUTO))
2164:.\Generated_Source\PSoC4/Slider.c **** 	/*******************************************************************************
2165:.\Generated_Source\PSoC4/Slider.c **** 	* Function Name: Slider_CalibrateSensor
2166:.\Generated_Source\PSoC4/Slider.c **** 	********************************************************************************
2167:.\Generated_Source\PSoC4/Slider.c **** 	*
2168:.\Generated_Source\PSoC4/Slider.c **** 	* Summary:
2169:.\Generated_Source\PSoC4/Slider.c **** 	*  Computes the one sensor IDAC value, which provides the raw signal on
2170:.\Generated_Source\PSoC4/Slider.c **** 	*  a specified level, with a specified prescaler, speed, and resolution.
2171:.\Generated_Source\PSoC4/Slider.c **** 	*
2172:.\Generated_Source\PSoC4/Slider.c **** 	* Parameters:
2173:.\Generated_Source\PSoC4/Slider.c **** 	*  sensor - Sensor Number.
2174:.\Generated_Source\PSoC4/Slider.c **** 	*
2175:.\Generated_Source\PSoC4/Slider.c **** 	*  rawLevel -  Raw data level which should be reached during the calibration
