ARM GAS  C:\Users\ELECTR~1\AppData\Local\Temp\ccbbDBvf.s 			page 1


   1              		.cpu cortex-m0
   2              		.fpu softvfp
   3              		.eabi_attribute 20, 1
   4              		.eabi_attribute 21, 1
   5              		.eabi_attribute 23, 3
   6              		.eabi_attribute 24, 1
   7              		.eabi_attribute 25, 1
   8              		.eabi_attribute 26, 1
   9              		.eabi_attribute 30, 1
  10              		.eabi_attribute 34, 0
  11              		.eabi_attribute 18, 4
  12              		.code	16
  13              		.file	"Slider.c"
  14              		.text
  15              	.Ltext0:
  16              		.cfi_sections	.debug_frame
  17              		.section	.text.Slider_CsdHwBlockInit,"ax",%progbits
  18              		.align	2
  19              		.global	Slider_CsdHwBlockInit
  20              		.code	16
  21              		.thumb_func
  22              		.type	Slider_CsdHwBlockInit, %function
  23              	Slider_CsdHwBlockInit:
  24              	.LFB36:
  25              		.file 1 ".\\Generated_Source\\PSoC4\\Slider.c"
   1:.\Generated_Source\PSoC4/Slider.c **** /*******************************************************************************
   2:.\Generated_Source\PSoC4/Slider.c **** * File Name: Slider.c
   3:.\Generated_Source\PSoC4/Slider.c **** * Version 2.20
   4:.\Generated_Source\PSoC4/Slider.c **** *
   5:.\Generated_Source\PSoC4/Slider.c **** * Description:
   6:.\Generated_Source\PSoC4/Slider.c **** *  This file provides the source code for scanning APIs for the CapSense CSD 
   7:.\Generated_Source\PSoC4/Slider.c **** *  component.
   8:.\Generated_Source\PSoC4/Slider.c **** *
   9:.\Generated_Source\PSoC4/Slider.c **** * Note:
  10:.\Generated_Source\PSoC4/Slider.c **** *
  11:.\Generated_Source\PSoC4/Slider.c **** ********************************************************************************
  12:.\Generated_Source\PSoC4/Slider.c **** * Copyright 2014, Cypress Semiconductor Corporation.  All rights reserved.
  13:.\Generated_Source\PSoC4/Slider.c **** * You may use this file only in accordance with the license, terms, conditions,
  14:.\Generated_Source\PSoC4/Slider.c **** * disclaimers, and limitations in the end user license agreement accompanying
  15:.\Generated_Source\PSoC4/Slider.c **** * the software package with which this file was provided.
  16:.\Generated_Source\PSoC4/Slider.c **** *******************************************************************************/
  17:.\Generated_Source\PSoC4/Slider.c **** 
  18:.\Generated_Source\PSoC4/Slider.c **** #include "Slider.h"
  19:.\Generated_Source\PSoC4/Slider.c **** #include "Slider_PVT.h"
  20:.\Generated_Source\PSoC4/Slider.c **** #include "cypins.h"
  21:.\Generated_Source\PSoC4/Slider.c **** 
  22:.\Generated_Source\PSoC4/Slider.c **** #if(0u != Slider_CSHL_API_GENERATE)
  23:.\Generated_Source\PSoC4/Slider.c **** 	#include "Slider_CSHL.h"
  24:.\Generated_Source\PSoC4/Slider.c **** #endif /* (0u != Slider_CSHL_API_GENERATE) */
  25:.\Generated_Source\PSoC4/Slider.c **** 
  26:.\Generated_Source\PSoC4/Slider.c **** /* This definition is intended to prevent unexpected linker error. 
  27:.\Generated_Source\PSoC4/Slider.c ****    For more details please see the IAR Technical Note 49981 */
  28:.\Generated_Source\PSoC4/Slider.c **** #if defined(__ICCARM__)
  29:.\Generated_Source\PSoC4/Slider.c **** 	extern void Slider_EnableSensor(uint32 sensor);
  30:.\Generated_Source\PSoC4/Slider.c **** 	extern void Slider_DisableSensor(uint32 sensor);
  31:.\Generated_Source\PSoC4/Slider.c **** #endif /* (__ICCARM__) */	
  32:.\Generated_Source\PSoC4/Slider.c **** 
ARM GAS  C:\Users\ELECTR~1\AppData\Local\Temp\ccbbDBvf.s 			page 2


  33:.\Generated_Source\PSoC4/Slider.c **** /* SmartSense functions */
  34:.\Generated_Source\PSoC4/Slider.c **** #if (Slider_TUNING_METHOD == Slider__TUNING_AUTO)
  35:.\Generated_Source\PSoC4/Slider.c ****     uint8 Slider_lowLevelTuningDone = 0u;
  36:.\Generated_Source\PSoC4/Slider.c **** 	uint8 scanSpeedTbl[((Slider_TOTAL_SENSOR_COUNT - 1u) / 8u) + 1u];
  37:.\Generated_Source\PSoC4/Slider.c **** #endif /* (Slider_TUNING_METHOD == Slider__TUNING_AUTO) */
  38:.\Generated_Source\PSoC4/Slider.c **** 
  39:.\Generated_Source\PSoC4/Slider.c **** #if(Slider_PRS_OPTIONS != Slider__PRS_NONE)
  40:.\Generated_Source\PSoC4/Slider.c **** 	uint8 Slider_prescalersTuningDone = 0u;
  41:.\Generated_Source\PSoC4/Slider.c **** #endif /* (Slider_PRS_OPTIONS == Slider__PRS_NONE) */
  42:.\Generated_Source\PSoC4/Slider.c ****             
  43:.\Generated_Source\PSoC4/Slider.c **** /* Global software variables */
  44:.\Generated_Source\PSoC4/Slider.c **** volatile uint8 Slider_csdStatusVar = 0u;   /* CapSense CSD status, variable */
  45:.\Generated_Source\PSoC4/Slider.c **** volatile uint8 Slider_sensorIndex = 0u;    /* Index of scannig sensor */
  46:.\Generated_Source\PSoC4/Slider.c **** 
  47:.\Generated_Source\PSoC4/Slider.c **** /* Global array of Raw Counts */
  48:.\Generated_Source\PSoC4/Slider.c **** uint16 Slider_sensorRaw[Slider_TOTAL_SENSOR_COUNT] = {0u};
  49:.\Generated_Source\PSoC4/Slider.c **** 
  50:.\Generated_Source\PSoC4/Slider.c **** /* Backup variables for trim registers*/
  51:.\Generated_Source\PSoC4/Slider.c **** #if (Slider_IDAC1_POLARITY == Slider__IDAC_SINK)
  52:.\Generated_Source\PSoC4/Slider.c **** 	uint8 Slider_csdTrim2;   
  53:.\Generated_Source\PSoC4/Slider.c **** #else
  54:.\Generated_Source\PSoC4/Slider.c ****     uint8 Slider_csdTrim1;	
  55:.\Generated_Source\PSoC4/Slider.c **** #endif /* (Slider_IDAC1_POLARITY == Slider__IDAC_SINK) */
  56:.\Generated_Source\PSoC4/Slider.c **** 
  57:.\Generated_Source\PSoC4/Slider.c **** /* Global array of un-scanned sensors state */
  58:.\Generated_Source\PSoC4/Slider.c **** uint8 Slider_unscannedSnsDriveMode[Slider_TOTAL_SENSOR_COUNT];
  59:.\Generated_Source\PSoC4/Slider.c **** 
  60:.\Generated_Source\PSoC4/Slider.c **** /* Backup array for Slider_sensorEnableMask */
  61:.\Generated_Source\PSoC4/Slider.c **** uint8 Slider_sensorEnableMaskBackup[(((Slider_TOTAL_SENSOR_COUNT - 1u) / 8u) + 1u)];
  62:.\Generated_Source\PSoC4/Slider.c **** 
  63:.\Generated_Source\PSoC4/Slider.c **** /* Configured constants and arrays by Customizer */
  64:.\Generated_Source\PSoC4/Slider.c **** uint8 Slider_sensorEnableMask[(((Slider_TOTAL_SENSOR_COUNT - 1u) / 8u) + 1u)] = {
  65:.\Generated_Source\PSoC4/Slider.c **** 0x1Fu, };
  66:.\Generated_Source\PSoC4/Slider.c **** 
  67:.\Generated_Source\PSoC4/Slider.c **** reg32 * Slider_pcTable[] = {
  68:.\Generated_Source\PSoC4/Slider.c ****     (reg32 *)Slider_Sns__LinearSlider0_e0__LS__PC, 
  69:.\Generated_Source\PSoC4/Slider.c ****     (reg32 *)Slider_Sns__LinearSlider0_e1__LS__PC, 
  70:.\Generated_Source\PSoC4/Slider.c ****     (reg32 *)Slider_Sns__LinearSlider0_e2__LS__PC, 
  71:.\Generated_Source\PSoC4/Slider.c ****     (reg32 *)Slider_Sns__LinearSlider0_e3__LS__PC, 
  72:.\Generated_Source\PSoC4/Slider.c ****     (reg32 *)Slider_Sns__LinearSlider0_e4__LS__PC, 
  73:.\Generated_Source\PSoC4/Slider.c **** };
  74:.\Generated_Source\PSoC4/Slider.c **** 
  75:.\Generated_Source\PSoC4/Slider.c **** const uint8 Slider_portTable[] = {
  76:.\Generated_Source\PSoC4/Slider.c ****     Slider_Sns__LinearSlider0_e0__LS__PORT, 
  77:.\Generated_Source\PSoC4/Slider.c ****     Slider_Sns__LinearSlider0_e1__LS__PORT, 
  78:.\Generated_Source\PSoC4/Slider.c ****     Slider_Sns__LinearSlider0_e2__LS__PORT, 
  79:.\Generated_Source\PSoC4/Slider.c ****     Slider_Sns__LinearSlider0_e3__LS__PORT, 
  80:.\Generated_Source\PSoC4/Slider.c ****     Slider_Sns__LinearSlider0_e4__LS__PORT, 
  81:.\Generated_Source\PSoC4/Slider.c **** };
  82:.\Generated_Source\PSoC4/Slider.c **** 
  83:.\Generated_Source\PSoC4/Slider.c **** const uint32 Slider_maskTable[] = {
  84:.\Generated_Source\PSoC4/Slider.c ****     Slider_Sns__LinearSlider0_e0__LS__MASK, 
  85:.\Generated_Source\PSoC4/Slider.c ****     Slider_Sns__LinearSlider0_e1__LS__MASK, 
  86:.\Generated_Source\PSoC4/Slider.c ****     Slider_Sns__LinearSlider0_e2__LS__MASK, 
  87:.\Generated_Source\PSoC4/Slider.c ****     Slider_Sns__LinearSlider0_e3__LS__MASK, 
  88:.\Generated_Source\PSoC4/Slider.c ****     Slider_Sns__LinearSlider0_e4__LS__MASK, 
  89:.\Generated_Source\PSoC4/Slider.c **** };
ARM GAS  C:\Users\ELECTR~1\AppData\Local\Temp\ccbbDBvf.s 			page 3


  90:.\Generated_Source\PSoC4/Slider.c **** 
  91:.\Generated_Source\PSoC4/Slider.c **** const uint8 Slider_pinShiftTbl[] = {
  92:.\Generated_Source\PSoC4/Slider.c ****     (uint8) Slider_Sns__LinearSlider0_e0__LS__SHIFT, 
  93:.\Generated_Source\PSoC4/Slider.c ****     (uint8) Slider_Sns__LinearSlider0_e1__LS__SHIFT, 
  94:.\Generated_Source\PSoC4/Slider.c ****     (uint8) Slider_Sns__LinearSlider0_e2__LS__SHIFT, 
  95:.\Generated_Source\PSoC4/Slider.c ****     (uint8) Slider_Sns__LinearSlider0_e3__LS__SHIFT, 
  96:.\Generated_Source\PSoC4/Slider.c ****     (uint8) Slider_Sns__LinearSlider0_e4__LS__SHIFT, 
  97:.\Generated_Source\PSoC4/Slider.c **** };
  98:.\Generated_Source\PSoC4/Slider.c **** 
  99:.\Generated_Source\PSoC4/Slider.c **** uint8 Slider_modulationIDAC[Slider_TOTAL_SENSOR_COUNT];
 100:.\Generated_Source\PSoC4/Slider.c **** uint8 Slider_compensationIDAC[Slider_TOTAL_SENSOR_COUNT];
 101:.\Generated_Source\PSoC4/Slider.c **** 
 102:.\Generated_Source\PSoC4/Slider.c **** uint32 Slider_widgetResolution[Slider_RESOLUTIONS_TBL_SIZE] = {
 103:.\Generated_Source\PSoC4/Slider.c ****     Slider_RESOLUTION_12_BITS,
 104:.\Generated_Source\PSoC4/Slider.c **** };
 105:.\Generated_Source\PSoC4/Slider.c **** 
 106:.\Generated_Source\PSoC4/Slider.c **** uint8 Slider_senseClkDividerVal[Slider_TOTAL_SCANSLOT_COUNT];
 107:.\Generated_Source\PSoC4/Slider.c **** uint8 Slider_sampleClkDividerVal[Slider_TOTAL_SCANSLOT_COUNT];
 108:.\Generated_Source\PSoC4/Slider.c **** 
 109:.\Generated_Source\PSoC4/Slider.c **** const uint8 Slider_widgetNumber[Slider_TOTAL_SENSOR_COUNT] = {
 110:.\Generated_Source\PSoC4/Slider.c ****     0u, 0u, 0u, 0u, 0u, /* LinearSlider0__LS */
 111:.\Generated_Source\PSoC4/Slider.c **** };
 112:.\Generated_Source\PSoC4/Slider.c **** 
 113:.\Generated_Source\PSoC4/Slider.c **** 
 114:.\Generated_Source\PSoC4/Slider.c **** 
 115:.\Generated_Source\PSoC4/Slider.c **** reg32* const Slider_prtSelTbl[] = {
 116:.\Generated_Source\PSoC4/Slider.c **** /* CY_PSOC4_4000 is default*/
 117:.\Generated_Source\PSoC4/Slider.c **** 	((reg32 *) CYREG_HSIOM_PORT_SEL0),
 118:.\Generated_Source\PSoC4/Slider.c **** 	((reg32 *) CYREG_HSIOM_PORT_SEL1),
 119:.\Generated_Source\PSoC4/Slider.c **** 	((reg32 *) CYREG_HSIOM_PORT_SEL2),
 120:.\Generated_Source\PSoC4/Slider.c **** 	((reg32 *) CYREG_HSIOM_PORT_SEL3),
 121:.\Generated_Source\PSoC4/Slider.c **** #if (Slider_CFG_REG_TBL_SIZE == 5u)
 122:.\Generated_Source\PSoC4/Slider.c **** 	((reg32 *) CYREG_HSIOM_PORT_SEL4)
 123:.\Generated_Source\PSoC4/Slider.c **** #elif(Slider_CFG_REG_TBL_SIZE == 6u)
 124:.\Generated_Source\PSoC4/Slider.c **** 	((reg32 *) CYREG_HSIOM_PORT_SEL4),
 125:.\Generated_Source\PSoC4/Slider.c **** 	((reg32 *) CYREG_HSIOM_PORT_SEL5)
 126:.\Generated_Source\PSoC4/Slider.c **** #elif(Slider_CFG_REG_TBL_SIZE == 8u)
 127:.\Generated_Source\PSoC4/Slider.c **** 	((reg32 *) CYREG_HSIOM_PORT_SEL4),
 128:.\Generated_Source\PSoC4/Slider.c **** 	((reg32 *) CYREG_HSIOM_PORT_SEL5),
 129:.\Generated_Source\PSoC4/Slider.c **** 	((reg32 *) CYREG_HSIOM_PORT_SEL6),
 130:.\Generated_Source\PSoC4/Slider.c **** 	((reg32 *) CYREG_HSIOM_PORT_SEL7)
 131:.\Generated_Source\PSoC4/Slider.c **** #endif /* (CY_PSOC4_4200) */
 132:.\Generated_Source\PSoC4/Slider.c **** };
 133:.\Generated_Source\PSoC4/Slider.c **** 
 134:.\Generated_Source\PSoC4/Slider.c **** reg32* const Slider_prtCfgTbl[] = {
 135:.\Generated_Source\PSoC4/Slider.c **** /* CY_PSOC4_4000 is default*/
 136:.\Generated_Source\PSoC4/Slider.c **** 	((reg32 *) CYREG_GPIO_PRT0_PC),
 137:.\Generated_Source\PSoC4/Slider.c **** 	((reg32 *) CYREG_GPIO_PRT1_PC),
 138:.\Generated_Source\PSoC4/Slider.c **** 	((reg32 *) CYREG_GPIO_PRT2_PC),
 139:.\Generated_Source\PSoC4/Slider.c **** 	((reg32 *) CYREG_GPIO_PRT3_PC),
 140:.\Generated_Source\PSoC4/Slider.c **** #if (Slider_CFG_REG_TBL_SIZE == 5u)
 141:.\Generated_Source\PSoC4/Slider.c **** 	((reg32 *) CYREG_GPIO_PRT4_PC)
 142:.\Generated_Source\PSoC4/Slider.c **** #elif(Slider_CFG_REG_TBL_SIZE == 6u)
 143:.\Generated_Source\PSoC4/Slider.c **** 	((reg32 *) CYREG_GPIO_PRT4_PC),
 144:.\Generated_Source\PSoC4/Slider.c **** 	((reg32 *) CYREG_GPIO_PRT5_PC)
 145:.\Generated_Source\PSoC4/Slider.c **** #elif(Slider_CFG_REG_TBL_SIZE == 8u)
 146:.\Generated_Source\PSoC4/Slider.c **** 	((reg32 *) CYREG_GPIO_PRT4_PC),
ARM GAS  C:\Users\ELECTR~1\AppData\Local\Temp\ccbbDBvf.s 			page 4


 147:.\Generated_Source\PSoC4/Slider.c **** 	((reg32 *) CYREG_GPIO_PRT5_PC),
 148:.\Generated_Source\PSoC4/Slider.c **** 	((reg32 *) CYREG_GPIO_PRT6_PC),
 149:.\Generated_Source\PSoC4/Slider.c **** 	((reg32 *) CYREG_GPIO_PRT7_PC)
 150:.\Generated_Source\PSoC4/Slider.c **** #endif /* (CY_PSOC4_4200) */	
 151:.\Generated_Source\PSoC4/Slider.c **** };
 152:.\Generated_Source\PSoC4/Slider.c **** 
 153:.\Generated_Source\PSoC4/Slider.c **** reg32* const Slider_prtDRTbl[] = {
 154:.\Generated_Source\PSoC4/Slider.c **** /* CY_PSOC4_4000 is default*/
 155:.\Generated_Source\PSoC4/Slider.c **** 	((reg32 *) CYREG_GPIO_PRT0_DR),
 156:.\Generated_Source\PSoC4/Slider.c **** 	((reg32 *) CYREG_GPIO_PRT1_DR),
 157:.\Generated_Source\PSoC4/Slider.c **** 	((reg32 *) CYREG_GPIO_PRT2_DR),
 158:.\Generated_Source\PSoC4/Slider.c **** 	((reg32 *) CYREG_GPIO_PRT3_DR),
 159:.\Generated_Source\PSoC4/Slider.c **** #if (Slider_CFG_REG_TBL_SIZE == 5u)
 160:.\Generated_Source\PSoC4/Slider.c **** 	((reg32 *) CYREG_GPIO_PRT4_DR)
 161:.\Generated_Source\PSoC4/Slider.c **** #elif(Slider_CFG_REG_TBL_SIZE == 6u)
 162:.\Generated_Source\PSoC4/Slider.c **** 	((reg32 *) CYREG_GPIO_PRT4_DR),
 163:.\Generated_Source\PSoC4/Slider.c **** 	((reg32 *) CYREG_GPIO_PRT5_DR),
 164:.\Generated_Source\PSoC4/Slider.c **** #elif(Slider_CFG_REG_TBL_SIZE == 8u)
 165:.\Generated_Source\PSoC4/Slider.c **** 	((reg32 *) CYREG_GPIO_PRT4_DR),
 166:.\Generated_Source\PSoC4/Slider.c **** 	((reg32 *) CYREG_GPIO_PRT5_DR),
 167:.\Generated_Source\PSoC4/Slider.c **** 	((reg32 *) CYREG_GPIO_PRT6_DR),
 168:.\Generated_Source\PSoC4/Slider.c **** 	((reg32 *) CYREG_GPIO_PRT7_DR),
 169:.\Generated_Source\PSoC4/Slider.c **** #endif /* (CY_PSOC4_4200) */	
 170:.\Generated_Source\PSoC4/Slider.c **** };
 171:.\Generated_Source\PSoC4/Slider.c ****     
 172:.\Generated_Source\PSoC4/Slider.c **** 
 173:.\Generated_Source\PSoC4/Slider.c **** /*******************************************************************************
 174:.\Generated_Source\PSoC4/Slider.c **** * Function Name: Slider_Init
 175:.\Generated_Source\PSoC4/Slider.c **** ********************************************************************************
 176:.\Generated_Source\PSoC4/Slider.c **** *
 177:.\Generated_Source\PSoC4/Slider.c **** * Summary:
 178:.\Generated_Source\PSoC4/Slider.c **** *  API initializes default CapSense configuration provided by the customizer that defines 
 179:.\Generated_Source\PSoC4/Slider.c **** *  the mode of component operations and resets all the sensors to an inactive state.
 180:.\Generated_Source\PSoC4/Slider.c **** *
 181:.\Generated_Source\PSoC4/Slider.c **** * Parameters:
 182:.\Generated_Source\PSoC4/Slider.c **** *  None
 183:.\Generated_Source\PSoC4/Slider.c **** *
 184:.\Generated_Source\PSoC4/Slider.c **** * Return:
 185:.\Generated_Source\PSoC4/Slider.c **** *  None
 186:.\Generated_Source\PSoC4/Slider.c **** *
 187:.\Generated_Source\PSoC4/Slider.c **** * Global Variables:
 188:.\Generated_Source\PSoC4/Slider.c **** *  Slider_immunityIndex - defines immunity level.
 189:.\Generated_Source\PSoC4/Slider.c **** *
 190:.\Generated_Source\PSoC4/Slider.c **** * Side Effects:
 191:.\Generated_Source\PSoC4/Slider.c **** *  None
 192:.\Generated_Source\PSoC4/Slider.c **** * 
 193:.\Generated_Source\PSoC4/Slider.c **** *******************************************************************************/
 194:.\Generated_Source\PSoC4/Slider.c **** void Slider_Init(void)
 195:.\Generated_Source\PSoC4/Slider.c **** {   
 196:.\Generated_Source\PSoC4/Slider.c **** 	uint32 curSensor;
 197:.\Generated_Source\PSoC4/Slider.c **** 	
 198:.\Generated_Source\PSoC4/Slider.c **** 	#if(Slider_IS_SHIELD_ENABLE)
 199:.\Generated_Source\PSoC4/Slider.c **** 		
 200:.\Generated_Source\PSoC4/Slider.c **** 		#if((Slider_CSH_TANK_PREGARGE_OPTION == Slider__CAPPRIOBUF) || (0u != Slider_CSH_TANK_ENABLE))
 201:.\Generated_Source\PSoC4/Slider.c **** 			uint32 newRegValue;
 202:.\Generated_Source\PSoC4/Slider.c **** 			
 203:.\Generated_Source\PSoC4/Slider.c **** 			newRegValue = Slider_CTANK_CONNECTION_REG;
ARM GAS  C:\Users\ELECTR~1\AppData\Local\Temp\ccbbDBvf.s 			page 5


 204:.\Generated_Source\PSoC4/Slider.c **** 	        newRegValue &= ~(Slider_CSD_CTANK_CONNECTION_MASK);
 205:.\Generated_Source\PSoC4/Slider.c **** 			newRegValue |= Slider_CSD_CTANK_TO_AMUXBUS_B;
 206:.\Generated_Source\PSoC4/Slider.c **** 	        Slider_CTANK_CONNECTION_REG = newRegValue;
 207:.\Generated_Source\PSoC4/Slider.c **** 			
 208:.\Generated_Source\PSoC4/Slider.c **** 			#if(Slider_CSH_TANK_PREGARGE_OPTION == Slider__CAPPRIOBUF)
 209:.\Generated_Source\PSoC4/Slider.c **** 				newRegValue = Slider_CTANK_PORT_PC_REG;
 210:.\Generated_Source\PSoC4/Slider.c **** 		        newRegValue &= ~(Slider_CSD_CTANK_PC_MASK);
 211:.\Generated_Source\PSoC4/Slider.c **** 				newRegValue |= Slider_CTANK_PC_STRONG_MODE;
 212:.\Generated_Source\PSoC4/Slider.c **** 		        Slider_CTANK_PORT_PC_REG = newRegValue;
 213:.\Generated_Source\PSoC4/Slider.c **** 				
 214:.\Generated_Source\PSoC4/Slider.c **** 				newRegValue = Slider_CTANK_PORT_DR_REG;
 215:.\Generated_Source\PSoC4/Slider.c **** 		        newRegValue &= ~(Slider_CTANK_DR_MASK);
 216:.\Generated_Source\PSoC4/Slider.c **** 				newRegValue |= Slider_CTANK_DR_CONFIG;
 217:.\Generated_Source\PSoC4/Slider.c **** 		        Slider_CTANK_PORT_DR_REG = newRegValue;
 218:.\Generated_Source\PSoC4/Slider.c **** 			#endif /* (Slider_CSH_TANK_PREGARGE_OPTION == Slider__CAPPRIOBUF) */
 219:.\Generated_Source\PSoC4/Slider.c **** 	        
 220:.\Generated_Source\PSoC4/Slider.c **** 		#endif /* ((Slider_CSH_TANK_PREGARGE_OPTION == Slider__CAPPRIOBUF) || (Slider_CSH_TANK_ENABLE)) *
 221:.\Generated_Source\PSoC4/Slider.c **** 		
 222:.\Generated_Source\PSoC4/Slider.c **** 		Slider_EnableShieldElectrode((uint32)Slider_SHIELD_PIN_NUMBER, (uint32)Slider_SHIELD_PORT_NUMBER)
 223:.\Generated_Source\PSoC4/Slider.c **** 		
 224:.\Generated_Source\PSoC4/Slider.c **** 	#endif /* (Slider_IS_SHIELD_ENABLE) */
 225:.\Generated_Source\PSoC4/Slider.c **** 	
 226:.\Generated_Source\PSoC4/Slider.c **** 	for(curSensor = 0u; curSensor < Slider_TOTAL_SENSOR_COUNT; curSensor++)
 227:.\Generated_Source\PSoC4/Slider.c **** 	{
 228:.\Generated_Source\PSoC4/Slider.c **** 		Slider_unscannedSnsDriveMode[curSensor] = Slider_CONNECT_INACTIVE_SNS;
 229:.\Generated_Source\PSoC4/Slider.c **** 	}
 230:.\Generated_Source\PSoC4/Slider.c ****     
 231:.\Generated_Source\PSoC4/Slider.c **** 	Slider_CsdHwBlockInit();
 232:.\Generated_Source\PSoC4/Slider.c ****     Slider_SetShieldDelay(Slider_SHIELD_DELAY );
 233:.\Generated_Source\PSoC4/Slider.c **** 	
 234:.\Generated_Source\PSoC4/Slider.c **** 	/* Clear all sensors */
 235:.\Generated_Source\PSoC4/Slider.c ****     Slider_ClearSensors();
 236:.\Generated_Source\PSoC4/Slider.c **** }
 237:.\Generated_Source\PSoC4/Slider.c **** 
 238:.\Generated_Source\PSoC4/Slider.c **** /*******************************************************************************
 239:.\Generated_Source\PSoC4/Slider.c **** * Function Name: Slider_CsdHwBlockInit
 240:.\Generated_Source\PSoC4/Slider.c **** ********************************************************************************
 241:.\Generated_Source\PSoC4/Slider.c **** *
 242:.\Generated_Source\PSoC4/Slider.c **** * Summary:
 243:.\Generated_Source\PSoC4/Slider.c **** *  Initialises the hardware parameters of the CSD block 
 244:.\Generated_Source\PSoC4/Slider.c **** *
 245:.\Generated_Source\PSoC4/Slider.c **** * Parameters:
 246:.\Generated_Source\PSoC4/Slider.c **** *  None
 247:.\Generated_Source\PSoC4/Slider.c **** *
 248:.\Generated_Source\PSoC4/Slider.c **** * Return:
 249:.\Generated_Source\PSoC4/Slider.c **** *  None
 250:.\Generated_Source\PSoC4/Slider.c **** *
 251:.\Generated_Source\PSoC4/Slider.c **** * Global Variables:
 252:.\Generated_Source\PSoC4/Slider.c **** *  Slider_csdTrim1 - Contains IDAC trim register value for Sourcing Mode.
 253:.\Generated_Source\PSoC4/Slider.c **** *  Slider_csdTrim2 - Contains IDAC trim register value for Sinking Mode.
 254:.\Generated_Source\PSoC4/Slider.c **** *
 255:.\Generated_Source\PSoC4/Slider.c **** * Side Effects:
 256:.\Generated_Source\PSoC4/Slider.c **** *  None
 257:.\Generated_Source\PSoC4/Slider.c **** * 
 258:.\Generated_Source\PSoC4/Slider.c **** *******************************************************************************/
 259:.\Generated_Source\PSoC4/Slider.c **** void Slider_CsdHwBlockInit(void)
 260:.\Generated_Source\PSoC4/Slider.c **** {
ARM GAS  C:\Users\ELECTR~1\AppData\Local\Temp\ccbbDBvf.s 			page 6


  26              		.loc 1 260 0
  27              		.cfi_startproc
  28 0000 38B5     		push	{r3, r4, r5, lr}
  29              		.cfi_def_cfa_offset 16
  30              		.cfi_offset 3, -16
  31              		.cfi_offset 4, -12
  32              		.cfi_offset 5, -8
  33              		.cfi_offset 14, -4
 261:.\Generated_Source\PSoC4/Slider.c **** 	uint32 newRegValue;
 262:.\Generated_Source\PSoC4/Slider.c **** 	
 263:.\Generated_Source\PSoC4/Slider.c **** 	    /* Set trim registers for CSD Mode */
 264:.\Generated_Source\PSoC4/Slider.c ****     #if (Slider_IDAC1_POLARITY == Slider__IDAC_SINK)
 265:.\Generated_Source\PSoC4/Slider.c **** 		/* iDAC1 Sinking Mode */ 
 266:.\Generated_Source\PSoC4/Slider.c **** 		Slider_csdTrim2 = (uint8)Slider_CSD_TRIM2_REG;
 267:.\Generated_Source\PSoC4/Slider.c **** 		newRegValue = Slider_csdTrim2;
 268:.\Generated_Source\PSoC4/Slider.c **** 		newRegValue &= Slider_CSD_IDAC1_TRIM_MASK;
 269:.\Generated_Source\PSoC4/Slider.c **** 		newRegValue |= (uint32)((uint32)Slider_SFLASH_CSD_TRIM2_REG & (uint32)Slider_CSFLASH_TRIM_IDAC1_M
 270:.\Generated_Source\PSoC4/Slider.c **** 		
 271:.\Generated_Source\PSoC4/Slider.c **** 		#if (Slider_IDAC_CNT == 2u)
 272:.\Generated_Source\PSoC4/Slider.c **** 		    /* iDAC2 Sinking Mode */ 
 273:.\Generated_Source\PSoC4/Slider.c **** 			newRegValue &= Slider_CSD_IDAC2_TRIM_MASK;
 274:.\Generated_Source\PSoC4/Slider.c **** 			newRegValue |= (uint32)((uint32)Slider_SFLASH_CSD_TRIM2_REG & (uint32)Slider_CSFLASH_TRIM_IDAC2_
 275:.\Generated_Source\PSoC4/Slider.c **** 		#endif /* (Slider_IDAC_CNT == 2u) */
 276:.\Generated_Source\PSoC4/Slider.c **** 		Slider_CSD_TRIM2_REG = newRegValue;
 277:.\Generated_Source\PSoC4/Slider.c ****     #else   
 278:.\Generated_Source\PSoC4/Slider.c **** 		/* iDAC1 Sourcing Mode */ 
 279:.\Generated_Source\PSoC4/Slider.c **** 		Slider_csdTrim1 = (uint8)Slider_CSD_TRIM1_REG;
  34              		.loc 1 279 0
  35 0002 164C     		ldr	r4, .L2
  36 0004 2368     		ldr	r3, [r4]
  37 0006 DBB2     		uxtb	r3, r3
  38 0008 154A     		ldr	r2, .L2+4
  39 000a 1370     		strb	r3, [r2]
  40              	.LVL0:
 280:.\Generated_Source\PSoC4/Slider.c **** 		newRegValue = Slider_csdTrim1;
 281:.\Generated_Source\PSoC4/Slider.c **** 		newRegValue &= Slider_CSD_IDAC1_TRIM_MASK;
  41              		.loc 1 281 0
  42 000c 0F20     		mov	r0, #15
  43 000e 8343     		bic	r3, r0
  44              	.LVL1:
  45 0010 191C     		mov	r1, r3
  46              	.LVL2:
 282:.\Generated_Source\PSoC4/Slider.c **** 		newRegValue |= (uint32)((uint32)Slider_SFLASH_CSD_TRIM1_REG & (uint32)Slider_CSFLASH_TRIM_IDAC1_M
  47              		.loc 1 282 0
  48 0012 144D     		ldr	r5, .L2+8
  49 0014 2A78     		ldrb	r2, [r5]
  50 0016 0F23     		mov	r3, #15
  51 0018 1340     		and	r3, r2
  52 001a 0B43     		orr	r3, r1
  53              	.LVL3:
 283:.\Generated_Source\PSoC4/Slider.c **** 		#if (Slider_IDAC_CNT == 2u)
 284:.\Generated_Source\PSoC4/Slider.c **** 		     /* iDAC2 Sourcing Mode */ 
 285:.\Generated_Source\PSoC4/Slider.c **** 			newRegValue &= Slider_CSD_IDAC2_TRIM_MASK;
  54              		.loc 1 285 0
  55 001c F022     		mov	r2, #240
  56 001e 9343     		bic	r3, r2
  57              	.LVL4:
ARM GAS  C:\Users\ELECTR~1\AppData\Local\Temp\ccbbDBvf.s 			page 7


  58 0020 1A1C     		mov	r2, r3
  59              	.LVL5:
 286:.\Generated_Source\PSoC4/Slider.c **** 			newRegValue |= (uint32)((uint32)Slider_SFLASH_CSD_TRIM1_REG & (uint32)Slider_CSFLASH_TRIM_IDAC2_
  60              		.loc 1 286 0
  61 0022 2B78     		ldrb	r3, [r5]
  62 0024 8343     		bic	r3, r0
  63 0026 1343     		orr	r3, r2
  64              	.LVL6:
 287:.\Generated_Source\PSoC4/Slider.c **** 		#endif		
 288:.\Generated_Source\PSoC4/Slider.c **** 		Slider_CSD_TRIM1_REG = newRegValue;
  65              		.loc 1 288 0
  66 0028 2360     		str	r3, [r4]
 289:.\Generated_Source\PSoC4/Slider.c ****     #endif /* (Slider_IDAC1_POLARITY == Slider__IDAC_SINK) */
 290:.\Generated_Source\PSoC4/Slider.c **** 	
 291:.\Generated_Source\PSoC4/Slider.c **** 	/* Configure CSD and IDAC */
 292:.\Generated_Source\PSoC4/Slider.c **** 	#if (Slider_IDAC_CNT > 1u)
 293:.\Generated_Source\PSoC4/Slider.c **** 		Slider_CSD_IDAC_REG = Slider_DEFAULT_CSD_IDAC_CONFIG;
  67              		.loc 1 293 0
  68 002a 0F4A     		ldr	r2, .L2+12
  69 002c 0F4B     		ldr	r3, .L2+16
  70              	.LVL7:
  71 002e 1A60     		str	r2, [r3]
  72              	.LVL8:
 294:.\Generated_Source\PSoC4/Slider.c **** 		Slider_CSD_CFG_REG = Slider_DEFAULT_CSD_CONFIG;
  73              		.loc 1 294 0
  74 0030 0F4A     		ldr	r2, .L2+20
  75 0032 104B     		ldr	r3, .L2+24
  76 0034 1A60     		str	r2, [r3]
 295:.\Generated_Source\PSoC4/Slider.c **** 	#else
 296:.\Generated_Source\PSoC4/Slider.c **** 		Slider_CSD_IDAC_REG &= ~(Slider_CSD_IDAC1_MODE_MASK  | Slider_CSD_IDAC1_DATA_MASK);
 297:.\Generated_Source\PSoC4/Slider.c **** 		Slider_CSD_IDAC_REG |= Slider_DEFAULT_CSD_IDAC_CONFIG;
 298:.\Generated_Source\PSoC4/Slider.c **** 		
 299:.\Generated_Source\PSoC4/Slider.c **** 		Slider_CSD_CFG_REG &= ~(Slider_CSD_CONFIG_MASK);
 300:.\Generated_Source\PSoC4/Slider.c **** 		Slider_CSD_CFG_REG |= (Slider_DEFAULT_CSD_CONFIG);
 301:.\Generated_Source\PSoC4/Slider.c **** 	#endif /* (Slider_IDAC_CNT > 1u) */
 302:.\Generated_Source\PSoC4/Slider.c **** 	
 303:.\Generated_Source\PSoC4/Slider.c **** 	
 304:.\Generated_Source\PSoC4/Slider.c **** 	/* Connect Cmod to AMUX bus */ 
 305:.\Generated_Source\PSoC4/Slider.c **** 	newRegValue = Slider_CMOD_CONNECTION_REG; 
  77              		.loc 1 305 0
  78 0036 1049     		ldr	r1, .L2+28
  79 0038 0B68     		ldr	r3, [r1]
  80              	.LVL9:
 306:.\Generated_Source\PSoC4/Slider.c ****     newRegValue &= ~(Slider_CSD_CMOD_CONNECTION_MASK);
  81              		.loc 1 306 0
  82 003a 8343     		bic	r3, r0
  83              	.LVL10:
 307:.\Generated_Source\PSoC4/Slider.c ****     newRegValue |= Slider_CSD_CMOD_TO_AMUXBUS_A;
  84              		.loc 1 307 0
  85 003c 0622     		mov	r2, #6
  86 003e 1343     		orr	r3, r2
  87              	.LVL11:
 308:.\Generated_Source\PSoC4/Slider.c ****     Slider_CMOD_CONNECTION_REG = newRegValue;
  88              		.loc 1 308 0
  89 0040 0B60     		str	r3, [r1]
 309:.\Generated_Source\PSoC4/Slider.c **** 	
 310:.\Generated_Source\PSoC4/Slider.c **** 	/* Configure Dead Band PWM if it is enabled */
ARM GAS  C:\Users\ELECTR~1\AppData\Local\Temp\ccbbDBvf.s 			page 8


 311:.\Generated_Source\PSoC4/Slider.c **** 	#if(Slider_CSD_4B_PWM_MODE != Slider__PWM_OFF)
 312:.\Generated_Source\PSoC4/Slider.c **** 		Slider_CSD_4B_PWM_REG = Slider_DEFAULT_CSD_4B_PWM_CONFIG;
 313:.\Generated_Source\PSoC4/Slider.c **** 	#endif /* (Slider_CSD_4B_PWM_MODE != Slider__PWM_OFF) */
 314:.\Generated_Source\PSoC4/Slider.c **** 
 315:.\Generated_Source\PSoC4/Slider.c **** 	/* Setup ISR */
 316:.\Generated_Source\PSoC4/Slider.c **** 	CyIntDisable(Slider_ISR_NUMBER);
  90              		.loc 1 316 0
  91 0042 0130     		add	r0, r0, #1
  92 0044 FFF7FEFF 		bl	CyIntDisable
  93              	.LVL12:
 317:.\Generated_Source\PSoC4/Slider.c **** 	#if !defined(CY_EXTERNAL_INTERRUPT_CONFIG)		
 318:.\Generated_Source\PSoC4/Slider.c **** 	    (void)CyIntSetVector(Slider_ISR_NUMBER, &Slider_ISR);
  94              		.loc 1 318 0
  95 0048 1020     		mov	r0, #16
  96 004a 0C49     		ldr	r1, .L2+32
  97 004c FFF7FEFF 		bl	CyIntSetVector
  98              	.LVL13:
 319:.\Generated_Source\PSoC4/Slider.c **** 	    CyIntSetPriority(Slider_ISR_NUMBER, Slider_ISR_PRIORITY);
  99              		.loc 1 319 0
 100 0050 1020     		mov	r0, #16
 101 0052 0321     		mov	r1, #3
 102 0054 FFF7FEFF 		bl	CyIntSetPriority
 103              	.LVL14:
 320:.\Generated_Source\PSoC4/Slider.c **** 	#endif /* (CY_EXTERNAL_INTERRUPT_CONFIG) */
 321:.\Generated_Source\PSoC4/Slider.c **** }
 104              		.loc 1 321 0
 105              		@ sp needed
 106 0058 38BD     		pop	{r3, r4, r5, pc}
 107              	.L3:
 108 005a C046     		.align	2
 109              	.L2:
 110 005c 00FF2840 		.word	1076428544
 111 0060 00000000 		.word	Slider_csdTrim1
 112 0064 62F1FF0F 		.word	268431714
 113 0068 00020001 		.word	16777728
 114 006c 08002840 		.word	1076363272
 115 0070 0008A001 		.word	27265024
 116 0074 04002840 		.word	1076363268
 117 0078 00040240 		.word	1073873920
 118 007c 00000000 		.word	Slider_ISR
 119              		.cfi_endproc
 120              	.LFE36:
 121              		.size	Slider_CsdHwBlockInit, .-Slider_CsdHwBlockInit
 122              		.section	.text.Slider_Enable,"ax",%progbits
 123              		.align	2
 124              		.global	Slider_Enable
 125              		.code	16
 126              		.thumb_func
 127              		.type	Slider_Enable, %function
 128              	Slider_Enable:
 129              	.LFB37:
 322:.\Generated_Source\PSoC4/Slider.c **** 
 323:.\Generated_Source\PSoC4/Slider.c **** 
 324:.\Generated_Source\PSoC4/Slider.c **** /*******************************************************************************
 325:.\Generated_Source\PSoC4/Slider.c **** * Function Name: Slider_Enable
 326:.\Generated_Source\PSoC4/Slider.c **** ********************************************************************************
 327:.\Generated_Source\PSoC4/Slider.c **** *
ARM GAS  C:\Users\ELECTR~1\AppData\Local\Temp\ccbbDBvf.s 			page 9


 328:.\Generated_Source\PSoC4/Slider.c **** * Summary:
 329:.\Generated_Source\PSoC4/Slider.c **** *  Enables the CSD block and related resources to an active mode.
 330:.\Generated_Source\PSoC4/Slider.c **** *
 331:.\Generated_Source\PSoC4/Slider.c **** * Parameters:
 332:.\Generated_Source\PSoC4/Slider.c **** *  None
 333:.\Generated_Source\PSoC4/Slider.c **** *
 334:.\Generated_Source\PSoC4/Slider.c **** * Return:
 335:.\Generated_Source\PSoC4/Slider.c **** *  None
 336:.\Generated_Source\PSoC4/Slider.c **** *
 337:.\Generated_Source\PSoC4/Slider.c **** * Global Variables:
 338:.\Generated_Source\PSoC4/Slider.c **** *  None.
 339:.\Generated_Source\PSoC4/Slider.c **** *
 340:.\Generated_Source\PSoC4/Slider.c **** * Side Effects:
 341:.\Generated_Source\PSoC4/Slider.c **** *  None
 342:.\Generated_Source\PSoC4/Slider.c **** * 
 343:.\Generated_Source\PSoC4/Slider.c **** *******************************************************************************/
 344:.\Generated_Source\PSoC4/Slider.c **** void Slider_Enable(void)
 345:.\Generated_Source\PSoC4/Slider.c **** {
 130              		.loc 1 345 0
 131              		.cfi_startproc
 132 0000 08B5     		push	{r3, lr}
 133              		.cfi_def_cfa_offset 8
 134              		.cfi_offset 3, -8
 135              		.cfi_offset 14, -4
 346:.\Generated_Source\PSoC4/Slider.c ****     uint32 newRegValue;
 347:.\Generated_Source\PSoC4/Slider.c ****     
 348:.\Generated_Source\PSoC4/Slider.c ****     /* Enable Clocks */
 349:.\Generated_Source\PSoC4/Slider.c **** 	Slider_SenseClk_Stop();
 136              		.loc 1 349 0
 137 0002 FFF7FEFF 		bl	Slider_SenseClk_Stop
 138              	.LVL15:
 350:.\Generated_Source\PSoC4/Slider.c **** 	Slider_SampleClk_Stop();
 139              		.loc 1 350 0
 140 0006 FFF7FEFF 		bl	Slider_SampleClk_Stop
 141              	.LVL16:
 351:.\Generated_Source\PSoC4/Slider.c **** 	
 352:.\Generated_Source\PSoC4/Slider.c **** 	Slider_SampleClk_SetDividerValue((uint16)Slider_INITIAL_CLK_DIVIDER);
 142              		.loc 1 352 0
 143 000a 0020     		mov	r0, #0
 144 000c 0021     		mov	r1, #0
 145 000e FFF7FEFF 		bl	Slider_SampleClk_SetFractionalDividerRegister
 146              	.LVL17:
 353:.\Generated_Source\PSoC4/Slider.c **** 	Slider_SenseClk_SetDividerValue((uint16)Slider_INITIAL_CLK_DIVIDER);
 147              		.loc 1 353 0
 148 0012 0020     		mov	r0, #0
 149 0014 0021     		mov	r1, #0
 150 0016 FFF7FEFF 		bl	Slider_SenseClk_SetFractionalDividerRegister
 151              	.LVL18:
 354:.\Generated_Source\PSoC4/Slider.c **** 	
 355:.\Generated_Source\PSoC4/Slider.c **** 	#if (0u == Slider_IS_M0S8PERI_BLOCK)
 356:.\Generated_Source\PSoC4/Slider.c **** 		Slider_SenseClk_Start();
 357:.\Generated_Source\PSoC4/Slider.c **** 		Slider_SampleClk_Start();
 358:.\Generated_Source\PSoC4/Slider.c **** 	#else
 359:.\Generated_Source\PSoC4/Slider.c **** 		Slider_SampleClk_Start();
 152              		.loc 1 359 0
 153 001a FF20     		mov	r0, #255
 154 001c FFF7FEFF 		bl	Slider_SampleClk_StartEx
ARM GAS  C:\Users\ELECTR~1\AppData\Local\Temp\ccbbDBvf.s 			page 10


 155              	.LVL19:
 360:.\Generated_Source\PSoC4/Slider.c **** 		Slider_SenseClk_StartEx(Slider_SampleClk__DIV_ID);
 156              		.loc 1 360 0
 157 0020 4020     		mov	r0, #64
 158 0022 FFF7FEFF 		bl	Slider_SenseClk_StartEx
 159              	.LVL20:
 361:.\Generated_Source\PSoC4/Slider.c **** 	#endif /* (0u == Slider_IS_M0S8PERI_BLOCK) */
 362:.\Generated_Source\PSoC4/Slider.c **** 	
 363:.\Generated_Source\PSoC4/Slider.c **** 	/* Enable the CSD block */
 364:.\Generated_Source\PSoC4/Slider.c ****     newRegValue = Slider_CSD_CFG_REG;
 160              		.loc 1 364 0
 161 0026 044A     		ldr	r2, .L5
 162 0028 1368     		ldr	r3, [r2]
 163              	.LVL21:
 365:.\Generated_Source\PSoC4/Slider.c ****     newRegValue |= (Slider_CSD_CFG_ENABLE | Slider_CSD_CFG_SENSE_COMP_EN 
 164              		.loc 1 365 0
 165 002a 0449     		ldr	r1, .L5+4
 166 002c 0B43     		orr	r3, r1
 167              	.LVL22:
 366:.\Generated_Source\PSoC4/Slider.c ****                                                    | Slider_CSD_CFG_SENSE_EN);    
 367:.\Generated_Source\PSoC4/Slider.c ****     Slider_CSD_CFG_REG = newRegValue;
 168              		.loc 1 367 0
 169 002e 1360     		str	r3, [r2]
 368:.\Generated_Source\PSoC4/Slider.c **** 
 369:.\Generated_Source\PSoC4/Slider.c ****     /* Enable interrupt */
 370:.\Generated_Source\PSoC4/Slider.c ****     CyIntEnable(Slider_ISR_NUMBER);
 170              		.loc 1 370 0
 171 0030 1020     		mov	r0, #16
 172 0032 FFF7FEFF 		bl	CyIntEnable
 173              	.LVL23:
 371:.\Generated_Source\PSoC4/Slider.c **** }
 174              		.loc 1 371 0
 175              		@ sp needed
 176 0036 08BD     		pop	{r3, pc}
 177              	.L6:
 178              		.align	2
 179              	.L5:
 180 0038 04002840 		.word	1076363268
 181 003c 00100880 		.word	-2146955264
 182              		.cfi_endproc
 183              	.LFE37:
 184              		.size	Slider_Enable, .-Slider_Enable
 185              		.section	.text.Slider_Stop,"ax",%progbits
 186              		.align	2
 187              		.global	Slider_Stop
 188              		.code	16
 189              		.thumb_func
 190              		.type	Slider_Stop, %function
 191              	Slider_Stop:
 192              	.LFB39:
 372:.\Generated_Source\PSoC4/Slider.c **** 
 373:.\Generated_Source\PSoC4/Slider.c **** 
 374:.\Generated_Source\PSoC4/Slider.c **** /*******************************************************************************
 375:.\Generated_Source\PSoC4/Slider.c **** * Function Name: Slider_Start
 376:.\Generated_Source\PSoC4/Slider.c **** ********************************************************************************
 377:.\Generated_Source\PSoC4/Slider.c **** *
 378:.\Generated_Source\PSoC4/Slider.c **** * Summary:
ARM GAS  C:\Users\ELECTR~1\AppData\Local\Temp\ccbbDBvf.s 			page 11


 379:.\Generated_Source\PSoC4/Slider.c **** *  This is the preferred method to begin the component operation. CapSense_Start() 
 380:.\Generated_Source\PSoC4/Slider.c **** *  calls the CapSense_Init() function, and then calls the CapSense_Enable() 
 381:.\Generated_Source\PSoC4/Slider.c **** *  function. Initializes the registers and starts the CSD method of the CapSense 
 382:.\Generated_Source\PSoC4/Slider.c **** *  component. Resets all the sensors to an inactive state. Enables interrupts for 
 383:.\Generated_Source\PSoC4/Slider.c **** *  sensors scanning. When the SmartSense tuning mode is selected, the tuning procedure
 384:.\Generated_Source\PSoC4/Slider.c **** *  is applied for all the sensors. The CapSense_Start() routine must be called before 
 385:.\Generated_Source\PSoC4/Slider.c **** *  any other API routines.
 386:.\Generated_Source\PSoC4/Slider.c **** *
 387:.\Generated_Source\PSoC4/Slider.c **** * Parameters:
 388:.\Generated_Source\PSoC4/Slider.c **** *  None
 389:.\Generated_Source\PSoC4/Slider.c **** *
 390:.\Generated_Source\PSoC4/Slider.c **** * Return:
 391:.\Generated_Source\PSoC4/Slider.c **** *  None
 392:.\Generated_Source\PSoC4/Slider.c **** *
 393:.\Generated_Source\PSoC4/Slider.c **** * Global Variables:
 394:.\Generated_Source\PSoC4/Slider.c **** *   Slider_initVar - used to check the initial configuration, 
 395:.\Generated_Source\PSoC4/Slider.c **** *   modified on the first function call.
 396:.\Generated_Source\PSoC4/Slider.c **** *  Slider_lowLevelTuningDone - Used to notify the Tuner GUI that 
 397:.\Generated_Source\PSoC4/Slider.c **** *   tuning of the scanning parameters is done. 
 398:.\Generated_Source\PSoC4/Slider.c **** *
 399:.\Generated_Source\PSoC4/Slider.c **** * Side Effects:
 400:.\Generated_Source\PSoC4/Slider.c **** *  None
 401:.\Generated_Source\PSoC4/Slider.c **** * 
 402:.\Generated_Source\PSoC4/Slider.c **** *******************************************************************************/
 403:.\Generated_Source\PSoC4/Slider.c **** void Slider_Start(void)
 404:.\Generated_Source\PSoC4/Slider.c **** {
 405:.\Generated_Source\PSoC4/Slider.c **** 
 406:.\Generated_Source\PSoC4/Slider.c **** 	static uint8 Slider_initVar = 0u;
 407:.\Generated_Source\PSoC4/Slider.c **** 
 408:.\Generated_Source\PSoC4/Slider.c **** 	#if((0u != Slider_AUTOCALIBRATION_ENABLE) && (Slider_TUNING_METHOD != Slider__TUNING_AUTO))
 409:.\Generated_Source\PSoC4/Slider.c **** 		uint32 curSensor;
 410:.\Generated_Source\PSoC4/Slider.c **** 		uint32 rawLevel;
 411:.\Generated_Source\PSoC4/Slider.c **** 		uint32 widget;
 412:.\Generated_Source\PSoC4/Slider.c ****     #endif /* ((0u != Slider_AUTOCALIBRATION_ENABLE) && (Slider_TUNING_METHOD != Slider__TUNING_AUT
 413:.\Generated_Source\PSoC4/Slider.c **** 	
 414:.\Generated_Source\PSoC4/Slider.c ****     if (Slider_initVar == 0u)
 415:.\Generated_Source\PSoC4/Slider.c ****     {
 416:.\Generated_Source\PSoC4/Slider.c ****         Slider_Init();
 417:.\Generated_Source\PSoC4/Slider.c ****         Slider_initVar = 1u;
 418:.\Generated_Source\PSoC4/Slider.c ****     }
 419:.\Generated_Source\PSoC4/Slider.c ****     Slider_Enable();
 420:.\Generated_Source\PSoC4/Slider.c **** 	
 421:.\Generated_Source\PSoC4/Slider.c ****     /* AutoTunning start */
 422:.\Generated_Source\PSoC4/Slider.c ****     #if(Slider_TUNING_METHOD == Slider__TUNING_AUTO)
 423:.\Generated_Source\PSoC4/Slider.c **** 		#if(0u != Slider_CSHL_API_GENERATE)
 424:.\Generated_Source\PSoC4/Slider.c **** 	        Slider_AutoTune();
 425:.\Generated_Source\PSoC4/Slider.c **** 	        Slider_lowLevelTuningDone = 1u;
 426:.\Generated_Source\PSoC4/Slider.c **** 		#endif /* (0u != Slider_CSHL_API_GENERATE) */
 427:.\Generated_Source\PSoC4/Slider.c **** 	#else
 428:.\Generated_Source\PSoC4/Slider.c **** 		#if(0u != Slider_AUTOCALIBRATION_ENABLE)
 429:.\Generated_Source\PSoC4/Slider.c **** 			
 430:.\Generated_Source\PSoC4/Slider.c **** 			#if(Slider_IDAC_CNT > 1u)
 431:.\Generated_Source\PSoC4/Slider.c **** 				Slider_CSD_IDAC_REG &= ~(Slider_CSD_IDAC2_MODE_MASK);	
 432:.\Generated_Source\PSoC4/Slider.c **** 			#endif /* (Slider_IDAC_CNT > 1u) */
 433:.\Generated_Source\PSoC4/Slider.c **** 			
 434:.\Generated_Source\PSoC4/Slider.c **** 			for(curSensor = 0u; curSensor < Slider_TOTAL_SCANSLOT_COUNT; curSensor++)
 435:.\Generated_Source\PSoC4/Slider.c **** 			{
ARM GAS  C:\Users\ELECTR~1\AppData\Local\Temp\ccbbDBvf.s 			page 12


 436:.\Generated_Source\PSoC4/Slider.c **** 				widget = Slider_widgetNumber[curSensor];
 437:.\Generated_Source\PSoC4/Slider.c **** 				rawLevel = Slider_widgetResolution[widget] >> Slider_RESOLUTION_OFFSET;
 438:.\Generated_Source\PSoC4/Slider.c **** 				
 439:.\Generated_Source\PSoC4/Slider.c **** 				/* Calibration level should be equal to 85% from scanning resolution */
 440:.\Generated_Source\PSoC4/Slider.c **** 				rawLevel = (rawLevel * 85u) / 100u;
 441:.\Generated_Source\PSoC4/Slider.c **** 				
 442:.\Generated_Source\PSoC4/Slider.c **** 				Slider_CalibrateSensor(curSensor, rawLevel, Slider_modulationIDAC);
 443:.\Generated_Source\PSoC4/Slider.c **** 			}
 444:.\Generated_Source\PSoC4/Slider.c **** 
 445:.\Generated_Source\PSoC4/Slider.c **** 			#if(0u != Slider_TOTAL_CENTROIDS_COUNT) 
 446:.\Generated_Source\PSoC4/Slider.c **** 				Slider_NormalizeWidgets(Slider_END_OF_WIDGETS_INDEX, Slider_modulationIDAC);
 447:.\Generated_Source\PSoC4/Slider.c **** 			#endif /* (0u != Slider_TOTAL_CENTROIDS_COUNT)  */
 448:.\Generated_Source\PSoC4/Slider.c **** 
 449:.\Generated_Source\PSoC4/Slider.c **** 			#if(Slider_IDAC_CNT > 1u)
 450:.\Generated_Source\PSoC4/Slider.c **** 				for(curSensor = 0u; curSensor < Slider_TOTAL_SCANSLOT_COUNT; curSensor++)
 451:.\Generated_Source\PSoC4/Slider.c **** 			    {
 452:.\Generated_Source\PSoC4/Slider.c **** 					Slider_compensationIDAC[curSensor] = Slider_modulationIDAC[curSensor] / 2u;
 453:.\Generated_Source\PSoC4/Slider.c **** 					Slider_modulationIDAC[curSensor] = (Slider_modulationIDAC[curSensor] + 1u) / 2u;
 454:.\Generated_Source\PSoC4/Slider.c **** 			    }
 455:.\Generated_Source\PSoC4/Slider.c **** 				Slider_CSD_IDAC_REG |= Slider_CSD_IDAC2_MODE_FIXED;
 456:.\Generated_Source\PSoC4/Slider.c **** 			#endif /* (Slider_IDAC_CNT > 1u) */
 457:.\Generated_Source\PSoC4/Slider.c **** 			
 458:.\Generated_Source\PSoC4/Slider.c ****         #endif /* (0u != Slider_AUTOCALIBRATION_ENABLE) */ 
 459:.\Generated_Source\PSoC4/Slider.c **** 					
 460:.\Generated_Source\PSoC4/Slider.c ****     #endif /* ((Slider_TUNING_METHOD == Slider__TUNING_AUTO) */	
 461:.\Generated_Source\PSoC4/Slider.c **** 	
 462:.\Generated_Source\PSoC4/Slider.c **** 	/* Initialize Advanced Centroid */
 463:.\Generated_Source\PSoC4/Slider.c **** 	#if(Slider_TOTAL_TRACKPAD_GESTURES_COUNT > 0u)
 464:.\Generated_Source\PSoC4/Slider.c **** 		Slider_AdvancedCentroidInit();
 465:.\Generated_Source\PSoC4/Slider.c **** 	#endif /* (Slider_TOTAL_TRACKPAD_GESTURES_COUNT > 0u) */
 466:.\Generated_Source\PSoC4/Slider.c **** 	
 467:.\Generated_Source\PSoC4/Slider.c **** 	/* Connect sense comparator input to AMUXA */
 468:.\Generated_Source\PSoC4/Slider.c **** 	Slider_CSD_CFG_REG |= Slider_CSD_CFG_SENSE_INSEL;
 469:.\Generated_Source\PSoC4/Slider.c **** }
 470:.\Generated_Source\PSoC4/Slider.c **** 
 471:.\Generated_Source\PSoC4/Slider.c **** 
 472:.\Generated_Source\PSoC4/Slider.c **** /*******************************************************************************
 473:.\Generated_Source\PSoC4/Slider.c **** * Function Name: Slider_Stop
 474:.\Generated_Source\PSoC4/Slider.c **** ********************************************************************************
 475:.\Generated_Source\PSoC4/Slider.c **** *
 476:.\Generated_Source\PSoC4/Slider.c **** * Summary:
 477:.\Generated_Source\PSoC4/Slider.c **** *  Stops the sensor scanning, disables component interrupts, and resets all the 
 478:.\Generated_Source\PSoC4/Slider.c **** *  sensors to an inactive state. Disables the Active mode power template bits for
 479:.\Generated_Source\PSoC4/Slider.c **** *  the subcomponents used within CapSense.
 480:.\Generated_Source\PSoC4/Slider.c **** *
 481:.\Generated_Source\PSoC4/Slider.c **** * Parameters:
 482:.\Generated_Source\PSoC4/Slider.c **** *  None
 483:.\Generated_Source\PSoC4/Slider.c **** *
 484:.\Generated_Source\PSoC4/Slider.c **** * Return:
 485:.\Generated_Source\PSoC4/Slider.c **** *  None
 486:.\Generated_Source\PSoC4/Slider.c **** *
 487:.\Generated_Source\PSoC4/Slider.c **** * Global Variables:
 488:.\Generated_Source\PSoC4/Slider.c **** *  Slider_csdTrim1 - Contains the IDAC trim register value for the Sourcing Mode.
 489:.\Generated_Source\PSoC4/Slider.c **** *  Slider_csdTrim2 - Contains the IDAC trim register value for vSinking Mode.
 490:.\Generated_Source\PSoC4/Slider.c **** *
 491:.\Generated_Source\PSoC4/Slider.c **** * Side Effects:
 492:.\Generated_Source\PSoC4/Slider.c **** *  This function should be called after scans are completed.
ARM GAS  C:\Users\ELECTR~1\AppData\Local\Temp\ccbbDBvf.s 			page 13


 493:.\Generated_Source\PSoC4/Slider.c **** *
 494:.\Generated_Source\PSoC4/Slider.c **** *******************************************************************************/
 495:.\Generated_Source\PSoC4/Slider.c **** void Slider_Stop(void)
 496:.\Generated_Source\PSoC4/Slider.c **** {
 193              		.loc 1 496 0
 194              		.cfi_startproc
 195 0000 08B5     		push	{r3, lr}
 196              		.cfi_def_cfa_offset 8
 197              		.cfi_offset 3, -8
 198              		.cfi_offset 14, -4
 497:.\Generated_Source\PSoC4/Slider.c ****     /* Disable interrupt */
 498:.\Generated_Source\PSoC4/Slider.c ****     CyIntDisable(Slider_ISR_NUMBER);
 199              		.loc 1 498 0
 200 0002 1020     		mov	r0, #16
 201 0004 FFF7FEFF 		bl	CyIntDisable
 202              	.LVL24:
 499:.\Generated_Source\PSoC4/Slider.c **** 	
 500:.\Generated_Source\PSoC4/Slider.c **** 	Slider_CSD_CFG_REG &= ~(Slider_CSD_CFG_SENSE_COMP_EN | Slider_CSD_CFG_SENSE_EN);
 203              		.loc 1 500 0
 204 0008 064A     		ldr	r2, .L8
 205 000a 1168     		ldr	r1, [r2]
 206 000c 064B     		ldr	r3, .L8+4
 207 000e 0B40     		and	r3, r1
 208 0010 1360     		str	r3, [r2]
 501:.\Generated_Source\PSoC4/Slider.c **** 	
 502:.\Generated_Source\PSoC4/Slider.c **** 	#if(Slider_IDAC_CNT == 2u)
 503:.\Generated_Source\PSoC4/Slider.c **** 		Slider_CSD_CFG_REG &= ~(Slider_CSD_CFG_ENABLE);
 209              		.loc 1 503 0
 210 0012 1368     		ldr	r3, [r2]
 211 0014 5B00     		lsl	r3, r3, #1
 212 0016 5B08     		lsr	r3, r3, #1
 213 0018 1360     		str	r3, [r2]
 504:.\Generated_Source\PSoC4/Slider.c **** 	#endif /* (Slider_IDAC_CNT == 2u) */
 505:.\Generated_Source\PSoC4/Slider.c **** 
 506:.\Generated_Source\PSoC4/Slider.c ****     /* Disable the Clocks */
 507:.\Generated_Source\PSoC4/Slider.c ****     Slider_SenseClk_Stop();
 214              		.loc 1 507 0
 215 001a FFF7FEFF 		bl	Slider_SenseClk_Stop
 216              	.LVL25:
 508:.\Generated_Source\PSoC4/Slider.c ****     Slider_SampleClk_Stop();
 217              		.loc 1 508 0
 218 001e FFF7FEFF 		bl	Slider_SampleClk_Stop
 219              	.LVL26:
 509:.\Generated_Source\PSoC4/Slider.c **** }
 220              		.loc 1 509 0
 221              		@ sp needed
 222 0022 08BD     		pop	{r3, pc}
 223              	.L9:
 224              		.align	2
 225              	.L8:
 226 0024 04002840 		.word	1076363268
 227 0028 FFEFF7FF 		.word	-528385
 228              		.cfi_endproc
 229              	.LFE39:
 230              		.size	Slider_Stop, .-Slider_Stop
 231              		.section	.text.Slider_IsBusy,"ax",%progbits
 232              		.align	2
ARM GAS  C:\Users\ELECTR~1\AppData\Local\Temp\ccbbDBvf.s 			page 14


 233              		.global	Slider_IsBusy
 234              		.code	16
 235              		.thumb_func
 236              		.type	Slider_IsBusy, %function
 237              	Slider_IsBusy:
 238              	.LFB44:
 510:.\Generated_Source\PSoC4/Slider.c **** 
 511:.\Generated_Source\PSoC4/Slider.c **** 
 512:.\Generated_Source\PSoC4/Slider.c **** /*******************************************************************************
 513:.\Generated_Source\PSoC4/Slider.c **** * Function Name: Slider_FindNextSensor
 514:.\Generated_Source\PSoC4/Slider.c **** ********************************************************************************
 515:.\Generated_Source\PSoC4/Slider.c **** *
 516:.\Generated_Source\PSoC4/Slider.c **** * Summary:
 517:.\Generated_Source\PSoC4/Slider.c **** *  Finds the next sensor to scan. 
 518:.\Generated_Source\PSoC4/Slider.c **** *
 519:.\Generated_Source\PSoC4/Slider.c **** * Parameters:
 520:.\Generated_Source\PSoC4/Slider.c **** *  snsIndex:  Current index of sensor.
 521:.\Generated_Source\PSoC4/Slider.c **** *
 522:.\Generated_Source\PSoC4/Slider.c **** * Return:
 523:.\Generated_Source\PSoC4/Slider.c **** *  Returns the next sensor index to scan.
 524:.\Generated_Source\PSoC4/Slider.c **** *
 525:.\Generated_Source\PSoC4/Slider.c **** * Global Variables:
 526:.\Generated_Source\PSoC4/Slider.c **** *  Slider_sensorEnableMask[] - used to store bit masks of the enabled sensors.
 527:.\Generated_Source\PSoC4/Slider.c **** *
 528:.\Generated_Source\PSoC4/Slider.c **** * Side Effects:
 529:.\Generated_Source\PSoC4/Slider.c **** *  This function affects the  current scanning and should not
 530:.\Generated_Source\PSoC4/Slider.c **** *  be used outside the component.
 531:.\Generated_Source\PSoC4/Slider.c **** *
 532:.\Generated_Source\PSoC4/Slider.c **** *******************************************************************************/
 533:.\Generated_Source\PSoC4/Slider.c **** uint8 Slider_FindNextSensor(uint8 snsIndex)
 534:.\Generated_Source\PSoC4/Slider.c **** {
 535:.\Generated_Source\PSoC4/Slider.c ****     uint32 enableFlag;
 536:.\Generated_Source\PSoC4/Slider.c ****     
 537:.\Generated_Source\PSoC4/Slider.c ****     /* Check if sensor enabled */
 538:.\Generated_Source\PSoC4/Slider.c ****     do
 539:.\Generated_Source\PSoC4/Slider.c ****     {
 540:.\Generated_Source\PSoC4/Slider.c ****         /* Proceed with next sensor */
 541:.\Generated_Source\PSoC4/Slider.c ****         snsIndex++;
 542:.\Generated_Source\PSoC4/Slider.c ****         if(snsIndex == Slider_TOTAL_SENSOR_COUNT)
 543:.\Generated_Source\PSoC4/Slider.c ****         {
 544:.\Generated_Source\PSoC4/Slider.c ****             break;
 545:.\Generated_Source\PSoC4/Slider.c ****         }
 546:.\Generated_Source\PSoC4/Slider.c ****         enableFlag = Slider_GetBitValue(Slider_sensorEnableMask, (uint32)snsIndex);
 547:.\Generated_Source\PSoC4/Slider.c ****     }    
 548:.\Generated_Source\PSoC4/Slider.c ****     while(enableFlag == 0u);
 549:.\Generated_Source\PSoC4/Slider.c ****     
 550:.\Generated_Source\PSoC4/Slider.c ****     return ((uint8)snsIndex);
 551:.\Generated_Source\PSoC4/Slider.c **** }
 552:.\Generated_Source\PSoC4/Slider.c **** 
 553:.\Generated_Source\PSoC4/Slider.c **** 
 554:.\Generated_Source\PSoC4/Slider.c **** /*******************************************************************************
 555:.\Generated_Source\PSoC4/Slider.c **** * Function Name: Slider_ScanSensor
 556:.\Generated_Source\PSoC4/Slider.c **** ********************************************************************************
 557:.\Generated_Source\PSoC4/Slider.c **** *
 558:.\Generated_Source\PSoC4/Slider.c **** * Summary:
 559:.\Generated_Source\PSoC4/Slider.c **** *  Sets the scan settings and starts scanning a sensor. After scanning is complete,
 560:.\Generated_Source\PSoC4/Slider.c **** *  the ISR copies the measured sensor raw data to the global raw sensor array. 
ARM GAS  C:\Users\ELECTR~1\AppData\Local\Temp\ccbbDBvf.s 			page 15


 561:.\Generated_Source\PSoC4/Slider.c **** *  Use of the ISR ensures this function is non-blocking. 
 562:.\Generated_Source\PSoC4/Slider.c **** *  Each sensor has a unique number within the sensor array. 
 563:.\Generated_Source\PSoC4/Slider.c **** *  This number is assigned by the CapSense customizer in sequence.
 564:.\Generated_Source\PSoC4/Slider.c **** *
 565:.\Generated_Source\PSoC4/Slider.c **** * Parameters:
 566:.\Generated_Source\PSoC4/Slider.c **** *  sensor:  Sensor number.
 567:.\Generated_Source\PSoC4/Slider.c **** *
 568:.\Generated_Source\PSoC4/Slider.c **** * Return:
 569:.\Generated_Source\PSoC4/Slider.c **** *  None
 570:.\Generated_Source\PSoC4/Slider.c **** *
 571:.\Generated_Source\PSoC4/Slider.c **** * Global Variables:
 572:.\Generated_Source\PSoC4/Slider.c **** *  Slider_csdStatusVar - used to provide the status and mode of the scanning process. 
 573:.\Generated_Source\PSoC4/Slider.c **** *  Sets the busy status(scan in progress) and mode of scan as single scan.
 574:.\Generated_Source\PSoC4/Slider.c **** *  Slider_sensorIndex - used to store a sensor scanning sensor number.
 575:.\Generated_Source\PSoC4/Slider.c **** *  Sets to the provided sensor argument.
 576:.\Generated_Source\PSoC4/Slider.c **** *
 577:.\Generated_Source\PSoC4/Slider.c **** * Side Effects:
 578:.\Generated_Source\PSoC4/Slider.c **** *  None
 579:.\Generated_Source\PSoC4/Slider.c **** * 
 580:.\Generated_Source\PSoC4/Slider.c **** *******************************************************************************/
 581:.\Generated_Source\PSoC4/Slider.c **** void Slider_ScanSensor(uint32 sensor)
 582:.\Generated_Source\PSoC4/Slider.c **** {
 583:.\Generated_Source\PSoC4/Slider.c ****     /* Clears status/control variable and set sensorIndex */
 584:.\Generated_Source\PSoC4/Slider.c ****     Slider_csdStatusVar = 0u;
 585:.\Generated_Source\PSoC4/Slider.c ****     Slider_sensorIndex = (uint8)sensor;
 586:.\Generated_Source\PSoC4/Slider.c ****     
 587:.\Generated_Source\PSoC4/Slider.c ****     /* Start of sensor scan */
 588:.\Generated_Source\PSoC4/Slider.c ****     Slider_csdStatusVar = (Slider_SW_STS_BUSY | Slider_SW_CTRL_SINGLE_SCAN);
 589:.\Generated_Source\PSoC4/Slider.c ****     Slider_PreScan(sensor);
 590:.\Generated_Source\PSoC4/Slider.c **** }
 591:.\Generated_Source\PSoC4/Slider.c **** 
 592:.\Generated_Source\PSoC4/Slider.c **** 
 593:.\Generated_Source\PSoC4/Slider.c **** #if(0u != Slider_CSHL_API_GENERATE)
 594:.\Generated_Source\PSoC4/Slider.c **** /*******************************************************************************
 595:.\Generated_Source\PSoC4/Slider.c **** * Function Name: Slider_ScanWidget
 596:.\Generated_Source\PSoC4/Slider.c **** ********************************************************************************
 597:.\Generated_Source\PSoC4/Slider.c **** *
 598:.\Generated_Source\PSoC4/Slider.c **** * Summary:
 599:.\Generated_Source\PSoC4/Slider.c **** *  Sets the scan settings and starts scanning a widget.
 600:.\Generated_Source\PSoC4/Slider.c **** *
 601:.\Generated_Source\PSoC4/Slider.c **** * Parameters:
 602:.\Generated_Source\PSoC4/Slider.c **** *  uint32 widget: Widget number.
 603:.\Generated_Source\PSoC4/Slider.c **** *
 604:.\Generated_Source\PSoC4/Slider.c **** * Return:
 605:.\Generated_Source\PSoC4/Slider.c **** *  None
 606:.\Generated_Source\PSoC4/Slider.c **** *
 607:.\Generated_Source\PSoC4/Slider.c **** * Global Variables:
 608:.\Generated_Source\PSoC4/Slider.c **** *  Slider_csdStatusVar - used to provide the status and mode of the scanning process. 
 609:.\Generated_Source\PSoC4/Slider.c **** *  Sets the busy status(scan in progress) and clears the single scan mode.
 610:.\Generated_Source\PSoC4/Slider.c **** *  Slider_sensorIndex - used to store a sensor scanning sensor number.
 611:.\Generated_Source\PSoC4/Slider.c **** *  Sets to 0xFF and provided to function Slider_FindNextSensor or
 612:.\Generated_Source\PSoC4/Slider.c **** *  Slider_sensorEnableMask[] - used to store bit masks of the enabled sensors.
 613:.\Generated_Source\PSoC4/Slider.c **** *  Slider_sensorEnableMaskBackup[] - used to backup bit masks of the enabled
 614:.\Generated_Source\PSoC4/Slider.c **** *   sensors.
 615:.\Generated_Source\PSoC4/Slider.c **** *
 616:.\Generated_Source\PSoC4/Slider.c **** * Side Effects:
 617:.\Generated_Source\PSoC4/Slider.c **** *  None
ARM GAS  C:\Users\ELECTR~1\AppData\Local\Temp\ccbbDBvf.s 			page 16


 618:.\Generated_Source\PSoC4/Slider.c **** * 
 619:.\Generated_Source\PSoC4/Slider.c **** *******************************************************************************/
 620:.\Generated_Source\PSoC4/Slider.c **** void Slider_ScanWidget(uint32 widget)
 621:.\Generated_Source\PSoC4/Slider.c **** {
 622:.\Generated_Source\PSoC4/Slider.c ****     uint32 sensorsPerWidget;
 623:.\Generated_Source\PSoC4/Slider.c ****     uint32 lastSensor;
 624:.\Generated_Source\PSoC4/Slider.c ****     uint32 snsIndex;
 625:.\Generated_Source\PSoC4/Slider.c **** 
 626:.\Generated_Source\PSoC4/Slider.c **** 	/* Get first sensor in widget */
 627:.\Generated_Source\PSoC4/Slider.c **** 	Slider_sensorIndex = Slider_rawDataIndex[widget];
 628:.\Generated_Source\PSoC4/Slider.c **** 	
 629:.\Generated_Source\PSoC4/Slider.c **** 	/* Get number of sensors in widget */
 630:.\Generated_Source\PSoC4/Slider.c **** 	sensorsPerWidget = Slider_numberOfSensors[widget];
 631:.\Generated_Source\PSoC4/Slider.c **** 	
 632:.\Generated_Source\PSoC4/Slider.c **** 	/* Check if generic Sensor */
 633:.\Generated_Source\PSoC4/Slider.c **** 	if(sensorsPerWidget == 0u)
 634:.\Generated_Source\PSoC4/Slider.c **** 	{
 635:.\Generated_Source\PSoC4/Slider.c **** 		sensorsPerWidget = 1u;
 636:.\Generated_Source\PSoC4/Slider.c **** 	}
 637:.\Generated_Source\PSoC4/Slider.c **** 	
 638:.\Generated_Source\PSoC4/Slider.c **** 	/* Get last sensor in widget */
 639:.\Generated_Source\PSoC4/Slider.c **** 	lastSensor = (Slider_rawDataIndex[widget] + sensorsPerWidget) - 1u;
 640:.\Generated_Source\PSoC4/Slider.c **** 
 641:.\Generated_Source\PSoC4/Slider.c **** 	/* Backup sensorEnableMask array */
 642:.\Generated_Source\PSoC4/Slider.c **** 	for(snsIndex = 0u; snsIndex < Slider_TOTAL_SENSOR_MASK; snsIndex++)
 643:.\Generated_Source\PSoC4/Slider.c **** 	{
 644:.\Generated_Source\PSoC4/Slider.c **** 		/* Backup sensorEnableMask array */
 645:.\Generated_Source\PSoC4/Slider.c **** 		Slider_sensorEnableMaskBackup[snsIndex] = Slider_sensorEnableMask[snsIndex];
 646:.\Generated_Source\PSoC4/Slider.c **** 	}
 647:.\Generated_Source\PSoC4/Slider.c **** 
 648:.\Generated_Source\PSoC4/Slider.c **** 	/* Update sensorEnableMask to scan the sensors that belong to widget */
 649:.\Generated_Source\PSoC4/Slider.c **** 	for(snsIndex = 0u; snsIndex < Slider_TOTAL_SENSOR_COUNT; snsIndex++)
 650:.\Generated_Source\PSoC4/Slider.c **** 	{
 651:.\Generated_Source\PSoC4/Slider.c **** 		/* Update sensorEnableMask array bits to scan the widget only */ 
 652:.\Generated_Source\PSoC4/Slider.c **** 	    if((snsIndex >= Slider_sensorIndex) && (snsIndex <= lastSensor))
 653:.\Generated_Source\PSoC4/Slider.c **** 		{
 654:.\Generated_Source\PSoC4/Slider.c **** 		    /* Set sensor bit to scan */
 655:.\Generated_Source\PSoC4/Slider.c **** 			Slider_SetBitValue(Slider_sensorEnableMask, snsIndex, 1u);
 656:.\Generated_Source\PSoC4/Slider.c **** 		}
 657:.\Generated_Source\PSoC4/Slider.c **** 		else
 658:.\Generated_Source\PSoC4/Slider.c **** 		{
 659:.\Generated_Source\PSoC4/Slider.c **** 		    /* Reset sensor bit to do not scan */
 660:.\Generated_Source\PSoC4/Slider.c **** 		    Slider_SetBitValue(Slider_sensorEnableMask, snsIndex, 0u);
 661:.\Generated_Source\PSoC4/Slider.c **** 		}
 662:.\Generated_Source\PSoC4/Slider.c **** 	}
 663:.\Generated_Source\PSoC4/Slider.c **** 
 664:.\Generated_Source\PSoC4/Slider.c ****     /* Check end of scan condition */
 665:.\Generated_Source\PSoC4/Slider.c ****     if(Slider_sensorIndex < Slider_TOTAL_SENSOR_COUNT)
 666:.\Generated_Source\PSoC4/Slider.c ****     {
 667:.\Generated_Source\PSoC4/Slider.c **** 		/* Set widget busy bit in status/control variable*/ 
 668:.\Generated_Source\PSoC4/Slider.c **** 		Slider_csdStatusVar = (Slider_SW_STS_BUSY | Slider_SW_CTRL_WIDGET_SCAN);
 669:.\Generated_Source\PSoC4/Slider.c **** 		/* Scan first sensor of widget*/ 
 670:.\Generated_Source\PSoC4/Slider.c ****         Slider_PreScan((uint32)Slider_sensorIndex);
 671:.\Generated_Source\PSoC4/Slider.c ****     }
 672:.\Generated_Source\PSoC4/Slider.c **** }
 673:.\Generated_Source\PSoC4/Slider.c **** #endif /* (0u != Slider_CSHL_API_GENERATE) */
 674:.\Generated_Source\PSoC4/Slider.c **** 
ARM GAS  C:\Users\ELECTR~1\AppData\Local\Temp\ccbbDBvf.s 			page 17


 675:.\Generated_Source\PSoC4/Slider.c **** 
 676:.\Generated_Source\PSoC4/Slider.c **** /*******************************************************************************
 677:.\Generated_Source\PSoC4/Slider.c **** * Function Name: Slider_ScanEnableWidgets
 678:.\Generated_Source\PSoC4/Slider.c **** ********************************************************************************
 679:.\Generated_Source\PSoC4/Slider.c **** *
 680:.\Generated_Source\PSoC4/Slider.c **** * Summary:
 681:.\Generated_Source\PSoC4/Slider.c **** *  This is the preferred method to scan all of the enabled widgets. 
 682:.\Generated_Source\PSoC4/Slider.c **** *  The API starts scanning a sensor within the enabled widgets. 
 683:.\Generated_Source\PSoC4/Slider.c **** *  The ISR continues scanning the sensors until all the enabled widgets are scanned. 
 684:.\Generated_Source\PSoC4/Slider.c **** *  Use of the ISR ensures this function is non-blocking.
 685:.\Generated_Source\PSoC4/Slider.c **** *  All the widgets are enabled by default except proximity widgets. 
 686:.\Generated_Source\PSoC4/Slider.c **** *  The proximity widgets must be manually enabled as their long scan time 
 687:.\Generated_Source\PSoC4/Slider.c **** *  is incompatible with a fast response required of other widget types.
 688:.\Generated_Source\PSoC4/Slider.c **** *
 689:.\Generated_Source\PSoC4/Slider.c **** * Parameters:
 690:.\Generated_Source\PSoC4/Slider.c **** *  None
 691:.\Generated_Source\PSoC4/Slider.c **** *
 692:.\Generated_Source\PSoC4/Slider.c **** * Return:
 693:.\Generated_Source\PSoC4/Slider.c **** *  None
 694:.\Generated_Source\PSoC4/Slider.c **** *
 695:.\Generated_Source\PSoC4/Slider.c **** * Global Variables:
 696:.\Generated_Source\PSoC4/Slider.c **** *  Slider_csdStatusVar - used to provide the status and mode of the scanning process. 
 697:.\Generated_Source\PSoC4/Slider.c **** *  Sets the busy status(scan in progress) and clears the single scan mode.
 698:.\Generated_Source\PSoC4/Slider.c **** *  Slider_sensorIndex - used to store a sensor scanning sensor number.
 699:.\Generated_Source\PSoC4/Slider.c **** *  Sets to 0xFF and provided to function Slider_FindNextSensor or
 700:.\Generated_Source\PSoC4/Slider.c **** *
 701:.\Generated_Source\PSoC4/Slider.c **** * Side Effects:
 702:.\Generated_Source\PSoC4/Slider.c **** *  None
 703:.\Generated_Source\PSoC4/Slider.c **** * 
 704:.\Generated_Source\PSoC4/Slider.c **** *******************************************************************************/
 705:.\Generated_Source\PSoC4/Slider.c **** void Slider_ScanEnabledWidgets(void)
 706:.\Generated_Source\PSoC4/Slider.c **** {
 707:.\Generated_Source\PSoC4/Slider.c ****     /* Clears status/control variable and set sensorIndex */
 708:.\Generated_Source\PSoC4/Slider.c ****     Slider_csdStatusVar = 0u;
 709:.\Generated_Source\PSoC4/Slider.c ****     Slider_sensorIndex = 0xFFu;
 710:.\Generated_Source\PSoC4/Slider.c ****     
 711:.\Generated_Source\PSoC4/Slider.c ****     /* Find next sensor */
 712:.\Generated_Source\PSoC4/Slider.c ****     Slider_sensorIndex = (uint8)Slider_FindNextSensor(Slider_sensorIndex);
 713:.\Generated_Source\PSoC4/Slider.c **** 
 714:.\Generated_Source\PSoC4/Slider.c ****     /* Check end of scan condition */
 715:.\Generated_Source\PSoC4/Slider.c ****     if(Slider_sensorIndex < Slider_TOTAL_SENSOR_COUNT)
 716:.\Generated_Source\PSoC4/Slider.c ****     {
 717:.\Generated_Source\PSoC4/Slider.c ****         Slider_csdStatusVar |= Slider_SW_STS_BUSY;
 718:.\Generated_Source\PSoC4/Slider.c ****         Slider_PreScan((uint32)Slider_sensorIndex);
 719:.\Generated_Source\PSoC4/Slider.c ****     }
 720:.\Generated_Source\PSoC4/Slider.c **** }
 721:.\Generated_Source\PSoC4/Slider.c **** 
 722:.\Generated_Source\PSoC4/Slider.c **** 
 723:.\Generated_Source\PSoC4/Slider.c **** /*******************************************************************************
 724:.\Generated_Source\PSoC4/Slider.c **** * Function Name: Slider_IsBusy
 725:.\Generated_Source\PSoC4/Slider.c **** ********************************************************************************
 726:.\Generated_Source\PSoC4/Slider.c **** *
 727:.\Generated_Source\PSoC4/Slider.c **** * Summary:
 728:.\Generated_Source\PSoC4/Slider.c **** *  Returns the state of the CapSense component. 1 means that scanning in 
 729:.\Generated_Source\PSoC4/Slider.c **** *  progress and 0 means that scanning is complete.
 730:.\Generated_Source\PSoC4/Slider.c **** *
 731:.\Generated_Source\PSoC4/Slider.c **** * Parameters:
ARM GAS  C:\Users\ELECTR~1\AppData\Local\Temp\ccbbDBvf.s 			page 18


 732:.\Generated_Source\PSoC4/Slider.c **** *  None
 733:.\Generated_Source\PSoC4/Slider.c **** *
 734:.\Generated_Source\PSoC4/Slider.c **** * Return:
 735:.\Generated_Source\PSoC4/Slider.c **** *  Returns the state of scanning. 1 - scanning in progress, 0 - scanning 
 736:.\Generated_Source\PSoC4/Slider.c **** *  completed.
 737:.\Generated_Source\PSoC4/Slider.c **** *
 738:.\Generated_Source\PSoC4/Slider.c **** * Global Variables:
 739:.\Generated_Source\PSoC4/Slider.c **** *  Slider_csdStatusVar - used to provide the status and mode of the scanning process. 
 740:.\Generated_Source\PSoC4/Slider.c **** *  Checks the busy status.
 741:.\Generated_Source\PSoC4/Slider.c **** *
 742:.\Generated_Source\PSoC4/Slider.c **** * Side Effects:
 743:.\Generated_Source\PSoC4/Slider.c **** *  None
 744:.\Generated_Source\PSoC4/Slider.c **** * 
 745:.\Generated_Source\PSoC4/Slider.c **** *******************************************************************************/
 746:.\Generated_Source\PSoC4/Slider.c **** uint32 Slider_IsBusy(void)
 747:.\Generated_Source\PSoC4/Slider.c **** {
 239              		.loc 1 747 0
 240              		.cfi_startproc
 748:.\Generated_Source\PSoC4/Slider.c ****     return ((uint32)((0u != (Slider_csdStatusVar & Slider_SW_STS_BUSY)) ? 1u : 0u));
 241              		.loc 1 748 0
 242 0000 024B     		ldr	r3, .L11
 243 0002 1878     		ldrb	r0, [r3]
 244 0004 0123     		mov	r3, #1
 245 0006 1840     		and	r0, r3
 749:.\Generated_Source\PSoC4/Slider.c **** }
 246              		.loc 1 749 0
 247              		@ sp needed
 248 0008 7047     		bx	lr
 249              	.L12:
 250 000a C046     		.align	2
 251              	.L11:
 252 000c 00000000 		.word	.LANCHOR0
 253              		.cfi_endproc
 254              	.LFE44:
 255              		.size	Slider_IsBusy, .-Slider_IsBusy
 256              		.section	.text.Slider_ReadSensorRaw,"ax",%progbits
 257              		.align	2
 258              		.global	Slider_ReadSensorRaw
 259              		.code	16
 260              		.thumb_func
 261              		.type	Slider_ReadSensorRaw, %function
 262              	Slider_ReadSensorRaw:
 263              	.LFB45:
 750:.\Generated_Source\PSoC4/Slider.c **** 
 751:.\Generated_Source\PSoC4/Slider.c **** 
 752:.\Generated_Source\PSoC4/Slider.c **** /*******************************************************************************
 753:.\Generated_Source\PSoC4/Slider.c **** * Function Name: Slider_ReadSensorRaw
 754:.\Generated_Source\PSoC4/Slider.c **** ********************************************************************************
 755:.\Generated_Source\PSoC4/Slider.c **** *
 756:.\Generated_Source\PSoC4/Slider.c **** * Summary:
 757:.\Generated_Source\PSoC4/Slider.c **** *  Returns sensor raw data from the global CapSense_sensorRaw[ ] array. 
 758:.\Generated_Source\PSoC4/Slider.c **** *  Each scan sensor has a unique number within the sensor array. 
 759:.\Generated_Source\PSoC4/Slider.c **** *  This number is assigned by the CapSense customizer in sequence. 
 760:.\Generated_Source\PSoC4/Slider.c **** *  Raw data can be used to perform calculations outside of the CapSense 
 761:.\Generated_Source\PSoC4/Slider.c **** *  provided framework.
 762:.\Generated_Source\PSoC4/Slider.c **** *
 763:.\Generated_Source\PSoC4/Slider.c **** * Parameters:
ARM GAS  C:\Users\ELECTR~1\AppData\Local\Temp\ccbbDBvf.s 			page 19


 764:.\Generated_Source\PSoC4/Slider.c **** *  sensor:  Sensor number.
 765:.\Generated_Source\PSoC4/Slider.c **** *
 766:.\Generated_Source\PSoC4/Slider.c **** * Return:
 767:.\Generated_Source\PSoC4/Slider.c **** *  Returns the current raw data value for a defined sensor number.
 768:.\Generated_Source\PSoC4/Slider.c **** *
 769:.\Generated_Source\PSoC4/Slider.c **** * Global Variables:
 770:.\Generated_Source\PSoC4/Slider.c **** *  Slider_sensorRaw[] - used to store sensors raw data.
 771:.\Generated_Source\PSoC4/Slider.c **** *
 772:.\Generated_Source\PSoC4/Slider.c **** * Side Effects: 
 773:.\Generated_Source\PSoC4/Slider.c **** *  None
 774:.\Generated_Source\PSoC4/Slider.c **** *
 775:.\Generated_Source\PSoC4/Slider.c **** *******************************************************************************/
 776:.\Generated_Source\PSoC4/Slider.c **** uint16 Slider_ReadSensorRaw(uint32 sensor)
 777:.\Generated_Source\PSoC4/Slider.c **** {
 264              		.loc 1 777 0
 265              		.cfi_startproc
 266              	.LVL27:
 778:.\Generated_Source\PSoC4/Slider.c ****     return Slider_sensorRaw[sensor];
 267              		.loc 1 778 0
 268 0000 4000     		lsl	r0, r0, #1
 269              	.LVL28:
 270 0002 024B     		ldr	r3, .L14
 271 0004 1818     		add	r0, r3, r0
 272 0006 8088     		ldrh	r0, [r0, #4]
 779:.\Generated_Source\PSoC4/Slider.c **** }
 273              		.loc 1 779 0
 274              		@ sp needed
 275 0008 7047     		bx	lr
 276              	.L15:
 277 000a C046     		.align	2
 278              	.L14:
 279 000c 00000000 		.word	.LANCHOR0
 280              		.cfi_endproc
 281              	.LFE45:
 282              		.size	Slider_ReadSensorRaw, .-Slider_ReadSensorRaw
 283              		.section	.text.Slider_WriteSensorRaw,"ax",%progbits
 284              		.align	2
 285              		.global	Slider_WriteSensorRaw
 286              		.code	16
 287              		.thumb_func
 288              		.type	Slider_WriteSensorRaw, %function
 289              	Slider_WriteSensorRaw:
 290              	.LFB46:
 780:.\Generated_Source\PSoC4/Slider.c **** 
 781:.\Generated_Source\PSoC4/Slider.c **** 
 782:.\Generated_Source\PSoC4/Slider.c **** /*******************************************************************************
 783:.\Generated_Source\PSoC4/Slider.c **** * Function Name: Slider_WriteSensorRaw
 784:.\Generated_Source\PSoC4/Slider.c **** ********************************************************************************
 785:.\Generated_Source\PSoC4/Slider.c **** *
 786:.\Generated_Source\PSoC4/Slider.c **** * Summary:
 787:.\Generated_Source\PSoC4/Slider.c **** *  This API writes the raw count value passed as an argument to the sensor Raw count array.
 788:.\Generated_Source\PSoC4/Slider.c **** *
 789:.\Generated_Source\PSoC4/Slider.c **** * Parameters:
 790:.\Generated_Source\PSoC4/Slider.c **** *  sensor:  Sensor number.
 791:.\Generated_Source\PSoC4/Slider.c **** *  value: Raw count value.
 792:.\Generated_Source\PSoC4/Slider.c **** *
 793:.\Generated_Source\PSoC4/Slider.c **** * Global Variables:
ARM GAS  C:\Users\ELECTR~1\AppData\Local\Temp\ccbbDBvf.s 			page 20


 794:.\Generated_Source\PSoC4/Slider.c **** *  Slider_sensorRaw[] - used to store sensors raw data.
 795:.\Generated_Source\PSoC4/Slider.c **** *
 796:.\Generated_Source\PSoC4/Slider.c **** * Return:
 797:.\Generated_Source\PSoC4/Slider.c **** *  None
 798:.\Generated_Source\PSoC4/Slider.c **** *
 799:.\Generated_Source\PSoC4/Slider.c **** * Side Effects: 
 800:.\Generated_Source\PSoC4/Slider.c **** *  None
 801:.\Generated_Source\PSoC4/Slider.c **** *
 802:.\Generated_Source\PSoC4/Slider.c **** *******************************************************************************/
 803:.\Generated_Source\PSoC4/Slider.c **** void Slider_WriteSensorRaw(uint32 sensor, uint16 value)
 804:.\Generated_Source\PSoC4/Slider.c **** {
 291              		.loc 1 804 0
 292              		.cfi_startproc
 293              	.LVL29:
 805:.\Generated_Source\PSoC4/Slider.c **** 	Slider_sensorRaw[sensor] = value;
 294              		.loc 1 805 0
 295 0000 4000     		lsl	r0, r0, #1
 296              	.LVL30:
 297 0002 024B     		ldr	r3, .L17
 298 0004 1818     		add	r0, r3, r0
 299 0006 8180     		strh	r1, [r0, #4]
 806:.\Generated_Source\PSoC4/Slider.c **** }
 300              		.loc 1 806 0
 301              		@ sp needed
 302 0008 7047     		bx	lr
 303              	.L18:
 304 000a C046     		.align	2
 305              	.L17:
 306 000c 00000000 		.word	.LANCHOR0
 307              		.cfi_endproc
 308              	.LFE46:
 309              		.size	Slider_WriteSensorRaw, .-Slider_WriteSensorRaw
 310              		.section	.text.Slider_SetScanResolution,"ax",%progbits
 311              		.align	2
 312              		.global	Slider_SetScanResolution
 313              		.code	16
 314              		.thumb_func
 315              		.type	Slider_SetScanResolution, %function
 316              	Slider_SetScanResolution:
 317              	.LFB47:
 807:.\Generated_Source\PSoC4/Slider.c **** 
 808:.\Generated_Source\PSoC4/Slider.c **** 
 809:.\Generated_Source\PSoC4/Slider.c **** #if (Slider_TUNING_METHOD != Slider__TUNING_NONE)
 810:.\Generated_Source\PSoC4/Slider.c **** 	/*******************************************************************************
 811:.\Generated_Source\PSoC4/Slider.c **** 	* Function Name: Slider_SetScanResolution
 812:.\Generated_Source\PSoC4/Slider.c **** 	********************************************************************************
 813:.\Generated_Source\PSoC4/Slider.c **** 	*
 814:.\Generated_Source\PSoC4/Slider.c **** 	* Summary:
 815:.\Generated_Source\PSoC4/Slider.c **** 	*  Sets a value of the sensor scan resolution for a widget. 
 816:.\Generated_Source\PSoC4/Slider.c **** 	*  The MIN resolution can be set 8-bit. The MAX Resolution can be set 16 bit.
 817:.\Generated_Source\PSoC4/Slider.c **** 	*  This function is not available for the tuning mode "None".
 818:.\Generated_Source\PSoC4/Slider.c **** 	*
 819:.\Generated_Source\PSoC4/Slider.c **** 	* Parameters:
 820:.\Generated_Source\PSoC4/Slider.c **** 	*  widget:     Widget index.
 821:.\Generated_Source\PSoC4/Slider.c **** 	*  resolution: Represents the resolution value. The following defines which are available in the
 822:.\Generated_Source\PSoC4/Slider.c **** 	*			   Slider.h file should be used:
 823:.\Generated_Source\PSoC4/Slider.c **** 	*			   Slider_RESOLUTION_6_BITS
ARM GAS  C:\Users\ELECTR~1\AppData\Local\Temp\ccbbDBvf.s 			page 21


 824:.\Generated_Source\PSoC4/Slider.c **** 	*			   Slider_RESOLUTION_7_BITS
 825:.\Generated_Source\PSoC4/Slider.c **** 	*			   Slider_RESOLUTION_8_BITS
 826:.\Generated_Source\PSoC4/Slider.c **** 	*			   Slider_RESOLUTION_9_BITS
 827:.\Generated_Source\PSoC4/Slider.c **** 	*			   Slider_RESOLUTION_10_BITS
 828:.\Generated_Source\PSoC4/Slider.c **** 	*			   Slider_RESOLUTION_11_BITS
 829:.\Generated_Source\PSoC4/Slider.c **** 	*			   Slider_RESOLUTION_12_BITS
 830:.\Generated_Source\PSoC4/Slider.c **** 	*			   Slider_RESOLUTION_13_BITS
 831:.\Generated_Source\PSoC4/Slider.c **** 	*			   Slider_RESOLUTION_14_BITS
 832:.\Generated_Source\PSoC4/Slider.c **** 	*			   Slider_RESOLUTION_15_BITS
 833:.\Generated_Source\PSoC4/Slider.c **** 	*			   Slider_RESOLUTION_16_BITS
 834:.\Generated_Source\PSoC4/Slider.c **** 	*
 835:.\Generated_Source\PSoC4/Slider.c **** 	* Return:
 836:.\Generated_Source\PSoC4/Slider.c **** 	*  None
 837:.\Generated_Source\PSoC4/Slider.c **** 	*
 838:.\Generated_Source\PSoC4/Slider.c **** 	* Global Variables:
 839:.\Generated_Source\PSoC4/Slider.c **** 	*  Slider_widgetResolution[] - used to store scan resolution of each widget.
 840:.\Generated_Source\PSoC4/Slider.c **** 	*
 841:.\Generated_Source\PSoC4/Slider.c **** 	* Side Effects: 
 842:.\Generated_Source\PSoC4/Slider.c **** 	*  None
 843:.\Generated_Source\PSoC4/Slider.c **** 	*
 844:.\Generated_Source\PSoC4/Slider.c **** 	*******************************************************************************/
 845:.\Generated_Source\PSoC4/Slider.c **** 	void Slider_SetScanResolution(uint32 widget, uint32 resolution)
 846:.\Generated_Source\PSoC4/Slider.c **** 	{ 
 318              		.loc 1 846 0
 319              		.cfi_startproc
 320              	.LVL31:
 847:.\Generated_Source\PSoC4/Slider.c ****         Slider_widgetResolution[widget] = resolution;
 321              		.loc 1 847 0
 322 0000 8000     		lsl	r0, r0, #2
 323              	.LVL32:
 324 0002 014B     		ldr	r3, .L20
 325 0004 C150     		str	r1, [r0, r3]
 848:.\Generated_Source\PSoC4/Slider.c **** 	}
 326              		.loc 1 848 0
 327              		@ sp needed
 328 0006 7047     		bx	lr
 329              	.L21:
 330              		.align	2
 331              	.L20:
 332 0008 00000000 		.word	.LANCHOR1
 333              		.cfi_endproc
 334              	.LFE47:
 335              		.size	Slider_SetScanResolution, .-Slider_SetScanResolution
 336              		.section	.text.Slider_GetScanResolution,"ax",%progbits
 337              		.align	2
 338              		.global	Slider_GetScanResolution
 339              		.code	16
 340              		.thumb_func
 341              		.type	Slider_GetScanResolution, %function
 342              	Slider_GetScanResolution:
 343              	.LFB48:
 849:.\Generated_Source\PSoC4/Slider.c **** #endif /* (Slider_TUNING_METHOD != Slider__TUNING_NONE) */
 850:.\Generated_Source\PSoC4/Slider.c **** 
 851:.\Generated_Source\PSoC4/Slider.c **** 
 852:.\Generated_Source\PSoC4/Slider.c **** /*******************************************************************************
 853:.\Generated_Source\PSoC4/Slider.c **** * Function Name: Slider_GetScanResolution
 854:.\Generated_Source\PSoC4/Slider.c **** ********************************************************************************
ARM GAS  C:\Users\ELECTR~1\AppData\Local\Temp\ccbbDBvf.s 			page 22


 855:.\Generated_Source\PSoC4/Slider.c **** *
 856:.\Generated_Source\PSoC4/Slider.c **** * Summary:
 857:.\Generated_Source\PSoC4/Slider.c **** *  Returns the resolution value for the appropriate sensor.
 858:.\Generated_Source\PSoC4/Slider.c **** *  This function is not available for tuning mode "None".
 859:.\Generated_Source\PSoC4/Slider.c **** *
 860:.\Generated_Source\PSoC4/Slider.c **** * Parameters:
 861:.\Generated_Source\PSoC4/Slider.c **** *  widget:     Widget index.
 862:.\Generated_Source\PSoC4/Slider.c **** *
 863:.\Generated_Source\PSoC4/Slider.c **** * Return:
 864:.\Generated_Source\PSoC4/Slider.c **** *  resolution: Returns the resolution value for the appropriate sensor. 
 865:.\Generated_Source\PSoC4/Slider.c **** *              The resolution values are defined in the Slider.h file 
 866:.\Generated_Source\PSoC4/Slider.c **** *              The defines are encountered below:
 867:.\Generated_Source\PSoC4/Slider.c **** *			   Slider_RESOLUTION_6_BITS
 868:.\Generated_Source\PSoC4/Slider.c **** *			   Slider_RESOLUTION_7_BITS
 869:.\Generated_Source\PSoC4/Slider.c **** *			   Slider_RESOLUTION_8_BITS
 870:.\Generated_Source\PSoC4/Slider.c **** *			   Slider_RESOLUTION_9_BITS
 871:.\Generated_Source\PSoC4/Slider.c **** *			   Slider_RESOLUTION_10_BITS
 872:.\Generated_Source\PSoC4/Slider.c **** *			   Slider_RESOLUTION_11_BITS
 873:.\Generated_Source\PSoC4/Slider.c **** *			   Slider_RESOLUTION_12_BITS
 874:.\Generated_Source\PSoC4/Slider.c **** *			   Slider_RESOLUTION_13_BITS
 875:.\Generated_Source\PSoC4/Slider.c **** *			   Slider_RESOLUTION_14_BITS
 876:.\Generated_Source\PSoC4/Slider.c **** *			   Slider_RESOLUTION_15_BITS
 877:.\Generated_Source\PSoC4/Slider.c **** *			   Slider_RESOLUTION_16_BITS
 878:.\Generated_Source\PSoC4/Slider.c **** *
 879:.\Generated_Source\PSoC4/Slider.c **** * Global Variables:
 880:.\Generated_Source\PSoC4/Slider.c **** *  Slider_widgetResolution[] - used to store scan resolution of every widget.
 881:.\Generated_Source\PSoC4/Slider.c **** *
 882:.\Generated_Source\PSoC4/Slider.c **** * Side Effects: 
 883:.\Generated_Source\PSoC4/Slider.c **** *  None
 884:.\Generated_Source\PSoC4/Slider.c **** *
 885:.\Generated_Source\PSoC4/Slider.c **** *******************************************************************************/
 886:.\Generated_Source\PSoC4/Slider.c **** uint32 Slider_GetScanResolution(uint32 widget)
 887:.\Generated_Source\PSoC4/Slider.c **** {
 344              		.loc 1 887 0
 345              		.cfi_startproc
 346              	.LVL33:
 888:.\Generated_Source\PSoC4/Slider.c **** 	return(Slider_widgetResolution[widget]);
 347              		.loc 1 888 0
 348 0000 8000     		lsl	r0, r0, #2
 349              	.LVL34:
 350 0002 014B     		ldr	r3, .L23
 351 0004 C058     		ldr	r0, [r0, r3]
 889:.\Generated_Source\PSoC4/Slider.c **** }
 352              		.loc 1 889 0
 353              		@ sp needed
 354 0006 7047     		bx	lr
 355              	.L24:
 356              		.align	2
 357              	.L23:
 358 0008 00000000 		.word	.LANCHOR1
 359              		.cfi_endproc
 360              	.LFE48:
 361              		.size	Slider_GetScanResolution, .-Slider_GetScanResolution
 362              		.section	.text.Slider_EnableSensor,"ax",%progbits
 363              		.align	2
 364              		.global	Slider_EnableSensor
 365              		.code	16
ARM GAS  C:\Users\ELECTR~1\AppData\Local\Temp\ccbbDBvf.s 			page 23


 366              		.thumb_func
 367              		.type	Slider_EnableSensor, %function
 368              	Slider_EnableSensor:
 369              	.LFB50:
 890:.\Generated_Source\PSoC4/Slider.c **** 
 891:.\Generated_Source\PSoC4/Slider.c **** 
 892:.\Generated_Source\PSoC4/Slider.c **** /*******************************************************************************
 893:.\Generated_Source\PSoC4/Slider.c **** * Function Name: Slider_ClearSensors
 894:.\Generated_Source\PSoC4/Slider.c **** ********************************************************************************
 895:.\Generated_Source\PSoC4/Slider.c **** *
 896:.\Generated_Source\PSoC4/Slider.c **** * Summary:
 897:.\Generated_Source\PSoC4/Slider.c **** *  Resets all the sensors to the non-sampling state by sequentially disconnecting
 898:.\Generated_Source\PSoC4/Slider.c **** *  all the sensors from Analog MUX Bus and putting them to an inactive state.
 899:.\Generated_Source\PSoC4/Slider.c **** *
 900:.\Generated_Source\PSoC4/Slider.c **** * Parameters:
 901:.\Generated_Source\PSoC4/Slider.c **** *  None
 902:.\Generated_Source\PSoC4/Slider.c **** *
 903:.\Generated_Source\PSoC4/Slider.c **** * Return:
 904:.\Generated_Source\PSoC4/Slider.c **** *  None
 905:.\Generated_Source\PSoC4/Slider.c **** *
 906:.\Generated_Source\PSoC4/Slider.c **** * Global Variables:
 907:.\Generated_Source\PSoC4/Slider.c **** *  None
 908:.\Generated_Source\PSoC4/Slider.c **** *
 909:.\Generated_Source\PSoC4/Slider.c **** * Side Effects: 
 910:.\Generated_Source\PSoC4/Slider.c **** *  None
 911:.\Generated_Source\PSoC4/Slider.c **** *
 912:.\Generated_Source\PSoC4/Slider.c **** *******************************************************************************/
 913:.\Generated_Source\PSoC4/Slider.c **** void Slider_ClearSensors(void)
 914:.\Generated_Source\PSoC4/Slider.c **** {
 915:.\Generated_Source\PSoC4/Slider.c **** 	uint32 snsIndex;
 916:.\Generated_Source\PSoC4/Slider.c **** 	
 917:.\Generated_Source\PSoC4/Slider.c ****     for (snsIndex = 0u; snsIndex < Slider_TOTAL_SENSOR_COUNT; snsIndex++)
 918:.\Generated_Source\PSoC4/Slider.c ****     {
 919:.\Generated_Source\PSoC4/Slider.c ****         Slider_DisableScanSlot(snsIndex);
 920:.\Generated_Source\PSoC4/Slider.c ****     }
 921:.\Generated_Source\PSoC4/Slider.c **** }
 922:.\Generated_Source\PSoC4/Slider.c **** 
 923:.\Generated_Source\PSoC4/Slider.c **** 
 924:.\Generated_Source\PSoC4/Slider.c **** #if (Slider_IS_COMPLEX_SCANSLOTS)
 925:.\Generated_Source\PSoC4/Slider.c ****     /*******************************************************************************
 926:.\Generated_Source\PSoC4/Slider.c ****     * Function Name: Slider_EnableScanSlot
 927:.\Generated_Source\PSoC4/Slider.c ****     ********************************************************************************
 928:.\Generated_Source\PSoC4/Slider.c ****     *
 929:.\Generated_Source\PSoC4/Slider.c ****     * Summary:
 930:.\Generated_Source\PSoC4/Slider.c ****     *  Configures the selected slot to measure during the next measurement 
 931:.\Generated_Source\PSoC4/Slider.c ****     *  cycle. The corresponding pin/pins are set to Analog High-Z mode and 
 932:.\Generated_Source\PSoC4/Slider.c ****     *  connected to the Analog Mux Bus. This also enables the comparator function.
 933:.\Generated_Source\PSoC4/Slider.c ****     *
 934:.\Generated_Source\PSoC4/Slider.c ****     * Parameters:
 935:.\Generated_Source\PSoC4/Slider.c ****     *  slot:  Slot number.
 936:.\Generated_Source\PSoC4/Slider.c ****     *
 937:.\Generated_Source\PSoC4/Slider.c ****     * Return:
 938:.\Generated_Source\PSoC4/Slider.c ****     *  None
 939:.\Generated_Source\PSoC4/Slider.c ****     *
 940:.\Generated_Source\PSoC4/Slider.c ****     * Global Constants:
 941:.\Generated_Source\PSoC4/Slider.c ****     *  Slider_portTable[]  - used to store the port number that pin 
 942:.\Generated_Source\PSoC4/Slider.c ****     *  belongs to for each sensor.
ARM GAS  C:\Users\ELECTR~1\AppData\Local\Temp\ccbbDBvf.s 			page 24


 943:.\Generated_Source\PSoC4/Slider.c ****     *  Slider_maskTable[]  - used to store the pin within the port for 
 944:.\Generated_Source\PSoC4/Slider.c ****     *  each sensor.
 945:.\Generated_Source\PSoC4/Slider.c ****     *  Slider_indexTable[] - used to store indexes of complex sensors.
 946:.\Generated_Source\PSoC4/Slider.c ****     *  The offset and position in this array are stored in a port and mask table for 
 947:.\Generated_Source\PSoC4/Slider.c ****     *  complex sensors.
 948:.\Generated_Source\PSoC4/Slider.c ****     *  Bit 7 (msb) is used to define the sensor type: single or complex.
 949:.\Generated_Source\PSoC4/Slider.c ****     *
 950:.\Generated_Source\PSoC4/Slider.c **** 	* Side Effects: 
 951:.\Generated_Source\PSoC4/Slider.c **** 	*  None
 952:.\Generated_Source\PSoC4/Slider.c **** 	*
 953:.\Generated_Source\PSoC4/Slider.c ****     *******************************************************************************/
 954:.\Generated_Source\PSoC4/Slider.c ****     void Slider_EnableScanSlot(uint32 slot)
 955:.\Generated_Source\PSoC4/Slider.c ****     {
 956:.\Generated_Source\PSoC4/Slider.c ****         uint8 j;
 957:.\Generated_Source\PSoC4/Slider.c ****         uint8 snsNumber;
 958:.\Generated_Source\PSoC4/Slider.c ****         const uint8 *index;
 959:.\Generated_Source\PSoC4/Slider.c ****         /* Read sensor type: single or complex */
 960:.\Generated_Source\PSoC4/Slider.c ****         uint8 snsType = Slider_portTable[slot];
 961:.\Generated_Source\PSoC4/Slider.c **** 
 962:.\Generated_Source\PSoC4/Slider.c ****         /* Check if sensor is complex */
 963:.\Generated_Source\PSoC4/Slider.c ****         if ((snsType & Slider_COMPLEX_SS_FLAG) == 0u)
 964:.\Generated_Source\PSoC4/Slider.c ****         {
 965:.\Generated_Source\PSoC4/Slider.c ****             /* Enable sensor (single) */
 966:.\Generated_Source\PSoC4/Slider.c ****             Slider_EnableSensor(slot);
 967:.\Generated_Source\PSoC4/Slider.c ****         }
 968:.\Generated_Source\PSoC4/Slider.c ****         else
 969:.\Generated_Source\PSoC4/Slider.c ****         {
 970:.\Generated_Source\PSoC4/Slider.c ****             /* Enable complex sensor */
 971:.\Generated_Source\PSoC4/Slider.c ****             snsType &= ~Slider_COMPLEX_SS_FLAG;
 972:.\Generated_Source\PSoC4/Slider.c ****             index = &Slider_indexTable[snsType];
 973:.\Generated_Source\PSoC4/Slider.c ****             snsNumber = Slider_maskTable[slot];
 974:.\Generated_Source\PSoC4/Slider.c ****                         
 975:.\Generated_Source\PSoC4/Slider.c ****             for (j = 0u; j < snsNumber; j++)
 976:.\Generated_Source\PSoC4/Slider.c ****             {
 977:.\Generated_Source\PSoC4/Slider.c ****                 Slider_EnableSensor(index[j]);
 978:.\Generated_Source\PSoC4/Slider.c ****             }
 979:.\Generated_Source\PSoC4/Slider.c ****         }
 980:.\Generated_Source\PSoC4/Slider.c ****     }
 981:.\Generated_Source\PSoC4/Slider.c ****     
 982:.\Generated_Source\PSoC4/Slider.c ****     
 983:.\Generated_Source\PSoC4/Slider.c ****     /*******************************************************************************
 984:.\Generated_Source\PSoC4/Slider.c ****     * Function Name: Slider_DisableScanSlot
 985:.\Generated_Source\PSoC4/Slider.c ****     ********************************************************************************
 986:.\Generated_Source\PSoC4/Slider.c ****     *
 987:.\Generated_Source\PSoC4/Slider.c ****     * Summary:
 988:.\Generated_Source\PSoC4/Slider.c ****     *  Disables the selected slot. The corresponding pin/pins is/are disconnected 
 989:.\Generated_Source\PSoC4/Slider.c ****     *  from the Analog Mux Bus and connected to GND, High_Z or Shield electrode.
 990:.\Generated_Source\PSoC4/Slider.c ****     *
 991:.\Generated_Source\PSoC4/Slider.c ****     * Parameters:
 992:.\Generated_Source\PSoC4/Slider.c ****     *  slot:  Slot number.
 993:.\Generated_Source\PSoC4/Slider.c ****     *
 994:.\Generated_Source\PSoC4/Slider.c ****     * Return:
 995:.\Generated_Source\PSoC4/Slider.c ****     *  None
 996:.\Generated_Source\PSoC4/Slider.c ****     *
 997:.\Generated_Source\PSoC4/Slider.c ****     * Global Variables:
 998:.\Generated_Source\PSoC4/Slider.c ****     *  Slider_portTable[]  - used to store the port number that pin 
 999:.\Generated_Source\PSoC4/Slider.c ****     *  belongs to for each sensor.
ARM GAS  C:\Users\ELECTR~1\AppData\Local\Temp\ccbbDBvf.s 			page 25


1000:.\Generated_Source\PSoC4/Slider.c ****     *  Slider_maskTable[]  - used to store the pin within the port for 
1001:.\Generated_Source\PSoC4/Slider.c ****     *  each sensor.
1002:.\Generated_Source\PSoC4/Slider.c ****     *  Slider_indexTable[] - used to store indexes of complex sensors.
1003:.\Generated_Source\PSoC4/Slider.c ****     *  The offset and position in this array are stored in a port and mask table for 
1004:.\Generated_Source\PSoC4/Slider.c ****     *  complex sensors.
1005:.\Generated_Source\PSoC4/Slider.c ****     *  7bit(msb) is used to define the sensor type: single or complex.
1006:.\Generated_Source\PSoC4/Slider.c ****     *
1007:.\Generated_Source\PSoC4/Slider.c **** 	* Side Effects: 
1008:.\Generated_Source\PSoC4/Slider.c **** 	*  None
1009:.\Generated_Source\PSoC4/Slider.c **** 	*
1010:.\Generated_Source\PSoC4/Slider.c ****     *******************************************************************************/
1011:.\Generated_Source\PSoC4/Slider.c ****     void Slider_DisableScanSlot(uint32 slot)
1012:.\Generated_Source\PSoC4/Slider.c ****     {
1013:.\Generated_Source\PSoC4/Slider.c ****         uint8 j;
1014:.\Generated_Source\PSoC4/Slider.c ****         uint8 snsNumber;
1015:.\Generated_Source\PSoC4/Slider.c ****         const uint8 *index;
1016:.\Generated_Source\PSoC4/Slider.c **** 
1017:.\Generated_Source\PSoC4/Slider.c ****         /* Read sensor type: single or complex */
1018:.\Generated_Source\PSoC4/Slider.c ****         uint8 snsType = Slider_portTable[slot];
1019:.\Generated_Source\PSoC4/Slider.c ****         
1020:.\Generated_Source\PSoC4/Slider.c ****         /* Check if sensor is complex */
1021:.\Generated_Source\PSoC4/Slider.c ****         if ((snsType & Slider_COMPLEX_SS_FLAG) == 0u)
1022:.\Generated_Source\PSoC4/Slider.c ****         {
1023:.\Generated_Source\PSoC4/Slider.c ****             /* Disable sensor (single) */
1024:.\Generated_Source\PSoC4/Slider.c ****             Slider_DisableSensor(slot);
1025:.\Generated_Source\PSoC4/Slider.c ****         }
1026:.\Generated_Source\PSoC4/Slider.c ****         else
1027:.\Generated_Source\PSoC4/Slider.c ****         {
1028:.\Generated_Source\PSoC4/Slider.c ****             /* Disable complex sensor */
1029:.\Generated_Source\PSoC4/Slider.c ****             snsType &= ~Slider_COMPLEX_SS_FLAG;
1030:.\Generated_Source\PSoC4/Slider.c ****             index = &Slider_indexTable[snsType];
1031:.\Generated_Source\PSoC4/Slider.c ****             snsNumber = Slider_maskTable[slot];
1032:.\Generated_Source\PSoC4/Slider.c ****                         
1033:.\Generated_Source\PSoC4/Slider.c ****             for (j=0; j < snsNumber; j++)
1034:.\Generated_Source\PSoC4/Slider.c ****             {
1035:.\Generated_Source\PSoC4/Slider.c ****                 Slider_DisableSensor(index[j]);
1036:.\Generated_Source\PSoC4/Slider.c ****             }
1037:.\Generated_Source\PSoC4/Slider.c ****         } 
1038:.\Generated_Source\PSoC4/Slider.c ****     }
1039:.\Generated_Source\PSoC4/Slider.c **** #endif  /* Slider_IS_COMPLEX_SCANSLOTS */
1040:.\Generated_Source\PSoC4/Slider.c **** 
1041:.\Generated_Source\PSoC4/Slider.c **** 
1042:.\Generated_Source\PSoC4/Slider.c **** /*******************************************************************************
1043:.\Generated_Source\PSoC4/Slider.c **** * Function Name: Slider_EnableSensor
1044:.\Generated_Source\PSoC4/Slider.c **** ********************************************************************************
1045:.\Generated_Source\PSoC4/Slider.c **** *
1046:.\Generated_Source\PSoC4/Slider.c **** * Summary:
1047:.\Generated_Source\PSoC4/Slider.c **** *  Configures the selected sensor to measure during the next measurement cycle.
1048:.\Generated_Source\PSoC4/Slider.c **** *  The corresponding pins are set to Analog High-Z mode and connected to the
1049:.\Generated_Source\PSoC4/Slider.c **** *  Analog Mux Bus. This also enables the comparator function.
1050:.\Generated_Source\PSoC4/Slider.c **** *
1051:.\Generated_Source\PSoC4/Slider.c **** * Parameters:
1052:.\Generated_Source\PSoC4/Slider.c **** *  sensor:  Sensor number.
1053:.\Generated_Source\PSoC4/Slider.c **** *
1054:.\Generated_Source\PSoC4/Slider.c **** * Return:
1055:.\Generated_Source\PSoC4/Slider.c **** *  None
1056:.\Generated_Source\PSoC4/Slider.c **** *
ARM GAS  C:\Users\ELECTR~1\AppData\Local\Temp\ccbbDBvf.s 			page 26


1057:.\Generated_Source\PSoC4/Slider.c **** * Global Variables:
1058:.\Generated_Source\PSoC4/Slider.c **** *  Slider_portTable[] - used to store the port number that pin 
1059:.\Generated_Source\PSoC4/Slider.c **** *  belongs to for each sensor.
1060:.\Generated_Source\PSoC4/Slider.c **** *  Slider_pinShiftTbl[] - used to store position of pin that 
1061:.\Generated_Source\PSoC4/Slider.c **** *  configured as sensor in port. 
1062:.\Generated_Source\PSoC4/Slider.c **** *  Slider_prtSelTbl[] - Contains pointers to the HSIOM 
1063:.\Generated_Source\PSoC4/Slider.c **** *  registers for each port. 
1064:.\Generated_Source\PSoC4/Slider.c **** *  Slider_PrtCfgTb[] - Contains pointers to the port config 
1065:.\Generated_Source\PSoC4/Slider.c **** *  registers for each port.
1066:.\Generated_Source\PSoC4/Slider.c **** *
1067:.\Generated_Source\PSoC4/Slider.c **** * Side Effects: 
1068:.\Generated_Source\PSoC4/Slider.c **** *  None
1069:.\Generated_Source\PSoC4/Slider.c **** *
1070:.\Generated_Source\PSoC4/Slider.c **** *******************************************************************************/
1071:.\Generated_Source\PSoC4/Slider.c **** void Slider_EnableSensor(uint32 sensor)
1072:.\Generated_Source\PSoC4/Slider.c **** {
 370              		.loc 1 1072 0
 371              		.cfi_startproc
 372              	.LVL35:
 373 0000 F8B5     		push	{r3, r4, r5, r6, r7, lr}
 374              		.cfi_def_cfa_offset 24
 375              		.cfi_offset 3, -24
 376              		.cfi_offset 4, -20
 377              		.cfi_offset 5, -16
 378              		.cfi_offset 6, -12
 379              		.cfi_offset 7, -8
 380              		.cfi_offset 14, -4
1073:.\Generated_Source\PSoC4/Slider.c **** 	uint8  pinModeShift;
1074:.\Generated_Source\PSoC4/Slider.c ****     uint8  pinHSIOMShift;
1075:.\Generated_Source\PSoC4/Slider.c **** 	uint8 interruptState;
1076:.\Generated_Source\PSoC4/Slider.c **** 	uint32 newRegisterValue;
1077:.\Generated_Source\PSoC4/Slider.c ****     uint32 port;
1078:.\Generated_Source\PSoC4/Slider.c **** 	
1079:.\Generated_Source\PSoC4/Slider.c **** 	port = (uint32) Slider_portTable[sensor];
 381              		.loc 1 1079 0
 382 0002 104F     		ldr	r7, .L26
 383 0004 3C5C     		ldrb	r4, [r7, r0]
 384              	.LVL36:
1080:.\Generated_Source\PSoC4/Slider.c ****     pinModeShift = Slider_pinShiftTbl[sensor]  * Slider_PC_PIN_CFG_SIZE;
 385              		.loc 1 1080 0
 386 0006 3818     		add	r0, r7, r0
 387              	.LVL37:
 388 0008 027A     		ldrb	r2, [r0, #8]
 389 000a 5500     		lsl	r5, r2, #1
 390 000c 5519     		add	r5, r2, r5
 391 000e EDB2     		uxtb	r5, r5
 392              	.LVL38:
1081:.\Generated_Source\PSoC4/Slider.c ****     pinHSIOMShift = Slider_pinShiftTbl[sensor] * Slider_HSIOM_PIN_CFG_SIZE;
 393              		.loc 1 1081 0
 394 0010 9200     		lsl	r2, r2, #2
 395 0012 D6B2     		uxtb	r6, r2
 396              	.LVL39:
1082:.\Generated_Source\PSoC4/Slider.c **** 
1083:.\Generated_Source\PSoC4/Slider.c **** 	interruptState = CyEnterCriticalSection();
 397              		.loc 1 1083 0
 398 0014 FFF7FEFF 		bl	CyEnterCriticalSection
 399              	.LVL40:
ARM GAS  C:\Users\ELECTR~1\AppData\Local\Temp\ccbbDBvf.s 			page 27


1084:.\Generated_Source\PSoC4/Slider.c **** 	
1085:.\Generated_Source\PSoC4/Slider.c **** 	newRegisterValue = *Slider_prtSelTbl[port];
 400              		.loc 1 1085 0
 401 0018 A400     		lsl	r4, r4, #2
 402              	.LVL41:
 403 001a 3B19     		add	r3, r7, r4
 404 001c 1C69     		ldr	r4, [r3, #16]
 405 001e 2268     		ldr	r2, [r4]
 406              	.LVL42:
1086:.\Generated_Source\PSoC4/Slider.c **** 	newRegisterValue &= ~(Slider_CSD_HSIOM_MASK << pinHSIOMShift);
 407              		.loc 1 1086 0
 408 0020 0F21     		mov	r1, #15
 409 0022 B140     		lsl	r1, r1, r6
 410 0024 8A43     		bic	r2, r1
 411              	.LVL43:
 412 0026 111C     		mov	r1, r2
 413              	.LVL44:
1087:.\Generated_Source\PSoC4/Slider.c **** 	newRegisterValue |= (uint32)((uint32)Slider_CSD_SENSE_PORT_MODE << pinHSIOMShift);
 414              		.loc 1 1087 0
 415 0028 0422     		mov	r2, #4
 416 002a B240     		lsl	r2, r2, r6
 417 002c 0A43     		orr	r2, r1
 418              	.LVL45:
1088:.\Generated_Source\PSoC4/Slider.c ****    
1089:.\Generated_Source\PSoC4/Slider.c ****     *Slider_prtCfgTbl[port] &= (uint32)~((uint32)Slider_CSD_PIN_MODE_MASK << pinModeShift);
 419              		.loc 1 1089 0
 420 002e 9E6A     		ldr	r6, [r3, #40]
 421              	.LVL46:
 422 0030 3368     		ldr	r3, [r6]
 423 0032 0721     		mov	r1, #7
 424 0034 A940     		lsl	r1, r1, r5
 425 0036 8B43     		bic	r3, r1
 426 0038 3360     		str	r3, [r6]
1090:.\Generated_Source\PSoC4/Slider.c ****     *Slider_prtSelTbl[port] = newRegisterValue;
 427              		.loc 1 1090 0
 428 003a 2260     		str	r2, [r4]
1091:.\Generated_Source\PSoC4/Slider.c **** 	
1092:.\Generated_Source\PSoC4/Slider.c **** 	CyExitCriticalSection(interruptState);
 429              		.loc 1 1092 0
 430 003c FFF7FEFF 		bl	CyExitCriticalSection
 431              	.LVL47:
1093:.\Generated_Source\PSoC4/Slider.c **** }
 432              		.loc 1 1093 0
 433              		@ sp needed
 434              	.LVL48:
 435              	.LVL49:
 436 0040 F8BD     		pop	{r3, r4, r5, r6, r7, pc}
 437              	.L27:
 438 0042 C046     		.align	2
 439              	.L26:
 440 0044 00000000 		.word	.LANCHOR2
 441              		.cfi_endproc
 442              	.LFE50:
 443              		.size	Slider_EnableSensor, .-Slider_EnableSensor
 444              		.section	.text.Slider_DisableSensor,"ax",%progbits
 445              		.align	2
 446              		.global	Slider_DisableSensor
ARM GAS  C:\Users\ELECTR~1\AppData\Local\Temp\ccbbDBvf.s 			page 28


 447              		.code	16
 448              		.thumb_func
 449              		.type	Slider_DisableSensor, %function
 450              	Slider_DisableSensor:
 451              	.LFB51:
1094:.\Generated_Source\PSoC4/Slider.c **** 
1095:.\Generated_Source\PSoC4/Slider.c **** 
1096:.\Generated_Source\PSoC4/Slider.c **** /*******************************************************************************
1097:.\Generated_Source\PSoC4/Slider.c **** * Function Name: Slider_DisableSensor
1098:.\Generated_Source\PSoC4/Slider.c **** ********************************************************************************
1099:.\Generated_Source\PSoC4/Slider.c **** *
1100:.\Generated_Source\PSoC4/Slider.c **** * Summary:
1101:.\Generated_Source\PSoC4/Slider.c **** *  Disables the selected sensor. The corresponding pin is disconnected from the
1102:.\Generated_Source\PSoC4/Slider.c **** *  Analog Mux Bus and connected to GND, High_Z or Shield electrode.
1103:.\Generated_Source\PSoC4/Slider.c **** *
1104:.\Generated_Source\PSoC4/Slider.c **** * Parameters:
1105:.\Generated_Source\PSoC4/Slider.c **** *  sensor:  Sensor number
1106:.\Generated_Source\PSoC4/Slider.c **** *
1107:.\Generated_Source\PSoC4/Slider.c **** * Return:
1108:.\Generated_Source\PSoC4/Slider.c **** *  None
1109:.\Generated_Source\PSoC4/Slider.c **** *
1110:.\Generated_Source\PSoC4/Slider.c **** * Global Variables:
1111:.\Generated_Source\PSoC4/Slider.c **** *  Slider_portTable[] - used to store the port number that pin 
1112:.\Generated_Source\PSoC4/Slider.c **** *  belongs to for each sensor.
1113:.\Generated_Source\PSoC4/Slider.c **** *  Slider_pinShiftTbl[] - used to store position of pin that 
1114:.\Generated_Source\PSoC4/Slider.c **** *  configured as a sensor in the port. 
1115:.\Generated_Source\PSoC4/Slider.c **** *  Slider_prtSelTbl[] - Contains pointers to the HSIOM 
1116:.\Generated_Source\PSoC4/Slider.c **** *  registers for each port. 
1117:.\Generated_Source\PSoC4/Slider.c **** *  Slider_PrtCfgTb[] - Contains pointers to the port config 
1118:.\Generated_Source\PSoC4/Slider.c **** *  registers for each port.
1119:.\Generated_Source\PSoC4/Slider.c **** *
1120:.\Generated_Source\PSoC4/Slider.c **** * Side Effects: 
1121:.\Generated_Source\PSoC4/Slider.c **** *  None
1122:.\Generated_Source\PSoC4/Slider.c **** *
1123:.\Generated_Source\PSoC4/Slider.c **** *******************************************************************************/
1124:.\Generated_Source\PSoC4/Slider.c **** void Slider_DisableSensor(uint32 sensor)
1125:.\Generated_Source\PSoC4/Slider.c **** {
 452              		.loc 1 1125 0
 453              		.cfi_startproc
 454              	.LVL50:
 455 0000 F8B5     		push	{r3, r4, r5, r6, r7, lr}
 456              		.cfi_def_cfa_offset 24
 457              		.cfi_offset 3, -24
 458              		.cfi_offset 4, -20
 459              		.cfi_offset 5, -16
 460              		.cfi_offset 6, -12
 461              		.cfi_offset 7, -8
 462              		.cfi_offset 14, -4
1126:.\Generated_Source\PSoC4/Slider.c ****     uint8 interruptState;
1127:.\Generated_Source\PSoC4/Slider.c **** 	uint32 newRegisterValue;
1128:.\Generated_Source\PSoC4/Slider.c **** 	
1129:.\Generated_Source\PSoC4/Slider.c ****     uint32 port = (uint32) Slider_portTable[sensor];
 463              		.loc 1 1129 0
 464 0002 1949     		ldr	r1, .L33
 465 0004 0C5C     		ldrb	r4, [r1, r0]
 466              	.LVL51:
1130:.\Generated_Source\PSoC4/Slider.c ****     uint8  pinHSIOMShift = Slider_pinShiftTbl[sensor] * Slider_HSIOM_PIN_CFG_SIZE;
ARM GAS  C:\Users\ELECTR~1\AppData\Local\Temp\ccbbDBvf.s 			page 29


 467              		.loc 1 1130 0
 468 0006 0B18     		add	r3, r1, r0
 469 0008 1E7A     		ldrb	r6, [r3, #8]
 470 000a B200     		lsl	r2, r6, #2
 471 000c D2B2     		uxtb	r2, r2
 472              	.LVL52:
1131:.\Generated_Source\PSoC4/Slider.c ****     uint8  pinModeShift = Slider_pinShiftTbl[sensor]  * Slider_PC_PIN_CFG_SIZE;
 473              		.loc 1 1131 0
 474 000e 7500     		lsl	r5, r6, #1
 475 0010 7519     		add	r5, r6, r5
 476 0012 EDB2     		uxtb	r5, r5
 477              	.LVL53:
1132:.\Generated_Source\PSoC4/Slider.c **** 
1133:.\Generated_Source\PSoC4/Slider.c **** 	uint32 inactiveConnect = Slider_SNS_HIZANALOG_CONNECT;
1134:.\Generated_Source\PSoC4/Slider.c **** 	uint32 sensorState = Slider_unscannedSnsDriveMode[sensor];
 478              		.loc 1 1134 0
 479 0014 154B     		ldr	r3, .L33+4
 480 0016 185C     		ldrb	r0, [r3, r0]
 481              	.LVL54:
1135:.\Generated_Source\PSoC4/Slider.c **** 
1136:.\Generated_Source\PSoC4/Slider.c ****     *Slider_prtSelTbl[port] &= ~(Slider_CSD_HSIOM_MASK << pinHSIOMShift);
 482              		.loc 1 1136 0
 483 0018 A300     		lsl	r3, r4, #2
 484 001a CB18     		add	r3, r1, r3
 485 001c 1F69     		ldr	r7, [r3, #16]
 486 001e 3B68     		ldr	r3, [r7]
 487 0020 0F21     		mov	r1, #15
 488 0022 9140     		lsl	r1, r1, r2
 489 0024 8B43     		bic	r3, r1
 490 0026 3B60     		str	r3, [r7]
1137:.\Generated_Source\PSoC4/Slider.c **** 
1138:.\Generated_Source\PSoC4/Slider.c **** 	#if(Slider_IS_SHIELD_ENABLE != 0)
1139:.\Generated_Source\PSoC4/Slider.c **** 	if(sensorState != (uint32)Slider__SHIELD)
1140:.\Generated_Source\PSoC4/Slider.c **** 	{
1141:.\Generated_Source\PSoC4/Slider.c **** 	#else
1142:.\Generated_Source\PSoC4/Slider.c **** 	    /* Connected to Ground if shield is disabled */
1143:.\Generated_Source\PSoC4/Slider.c **** 	    if(sensorState == (uint32)Slider__SHIELD)
 491              		.loc 1 1143 0
 492 0028 0228     		cmp	r0, #2
 493 002a 00D1     		bne	.L29
1144:.\Generated_Source\PSoC4/Slider.c **** 		{
1145:.\Generated_Source\PSoC4/Slider.c **** 			sensorState = (uint32)Slider__GROUND;
 494              		.loc 1 1145 0
 495 002c 0020     		mov	r0, #0
 496              	.LVL55:
 497              	.L29:
1146:.\Generated_Source\PSoC4/Slider.c **** 		}
1147:.\Generated_Source\PSoC4/Slider.c **** 	#endif /* (Slider_IS_SHIELD_ENABLE) */
1148:.\Generated_Source\PSoC4/Slider.c **** 	    if(sensorState != (uint32)Slider__HIZ_ANALOG)
 498              		.loc 1 1148 0
 499 002e 0128     		cmp	r0, #1
 500 0030 01D1     		bne	.L32
1133:.\Generated_Source\PSoC4/Slider.c **** 	uint32 sensorState = Slider_unscannedSnsDriveMode[sensor];
 501              		.loc 1 1133 0
 502 0032 0027     		mov	r7, #0
 503 0034 00E0     		b	.L30
 504              	.L32:
ARM GAS  C:\Users\ELECTR~1\AppData\Local\Temp\ccbbDBvf.s 			page 30


1149:.\Generated_Source\PSoC4/Slider.c **** 		{   
1150:.\Generated_Source\PSoC4/Slider.c **** 		    /* Connected to Ground */
1151:.\Generated_Source\PSoC4/Slider.c **** 		    inactiveConnect = (uint32)Slider_SNS_GROUND_CONNECT;
 505              		.loc 1 1151 0
 506 0036 0627     		mov	r7, #6
 507              	.L30:
 508              	.LVL56:
1152:.\Generated_Source\PSoC4/Slider.c **** 		}
1153:.\Generated_Source\PSoC4/Slider.c **** 		
1154:.\Generated_Source\PSoC4/Slider.c ****         interruptState = CyEnterCriticalSection();
 509              		.loc 1 1154 0
 510 0038 FFF7FEFF 		bl	CyEnterCriticalSection
 511              	.LVL57:
1155:.\Generated_Source\PSoC4/Slider.c **** 
1156:.\Generated_Source\PSoC4/Slider.c ****         /* Set drive mode */
1157:.\Generated_Source\PSoC4/Slider.c ****     	newRegisterValue = *Slider_prtCfgTbl[port];
 512              		.loc 1 1157 0
 513 003c A400     		lsl	r4, r4, #2
 514              	.LVL58:
 515 003e 0A4B     		ldr	r3, .L33
 516              	.LVL59:
 517 0040 1C19     		add	r4, r3, r4
 518 0042 A16A     		ldr	r1, [r4, #40]
 519 0044 0B68     		ldr	r3, [r1]
 520              	.LVL60:
1158:.\Generated_Source\PSoC4/Slider.c ****     	newRegisterValue &= ~(Slider_CSD_PIN_MODE_MASK << pinModeShift);
 521              		.loc 1 1158 0
 522 0046 0722     		mov	r2, #7
 523 0048 AA40     		lsl	r2, r2, r5
 524 004a 9343     		bic	r3, r2
 525              	.LVL61:
 526 004c 1A1C     		mov	r2, r3
 527              	.LVL62:
1159:.\Generated_Source\PSoC4/Slider.c ****     	newRegisterValue |=  (uint32)(inactiveConnect << pinModeShift);
 528              		.loc 1 1159 0
 529 004e 3B1C     		mov	r3, r7
 530 0050 AB40     		lsl	r3, r3, r5
 531 0052 1343     		orr	r3, r2
 532              	.LVL63:
1160:.\Generated_Source\PSoC4/Slider.c ****         *Slider_prtCfgTbl[port] =  newRegisterValue;
 533              		.loc 1 1160 0
 534 0054 0B60     		str	r3, [r1]
1161:.\Generated_Source\PSoC4/Slider.c ****         
1162:.\Generated_Source\PSoC4/Slider.c ****         CyExitCriticalSection(interruptState);
 535              		.loc 1 1162 0
 536 0056 FFF7FEFF 		bl	CyExitCriticalSection
 537              	.LVL64:
1163:.\Generated_Source\PSoC4/Slider.c **** 
1164:.\Generated_Source\PSoC4/Slider.c ****     	*Slider_prtDRTbl[port]  &=  (uint32)~(uint32)((uint32)1u << Slider_pinShiftTbl[sensor]); 
 538              		.loc 1 1164 0
 539 005a 216C     		ldr	r1, [r4, #64]
 540 005c 0B68     		ldr	r3, [r1]
 541 005e 0122     		mov	r2, #1
 542 0060 B240     		lsl	r2, r2, r6
 543 0062 9343     		bic	r3, r2
 544 0064 0B60     		str	r3, [r1]
1165:.\Generated_Source\PSoC4/Slider.c **** 	#if(Slider_IS_SHIELD_ENABLE != 0)
ARM GAS  C:\Users\ELECTR~1\AppData\Local\Temp\ccbbDBvf.s 			page 31


1166:.\Generated_Source\PSoC4/Slider.c **** 	}
1167:.\Generated_Source\PSoC4/Slider.c **** 	else
1168:.\Generated_Source\PSoC4/Slider.c **** 	{
1169:.\Generated_Source\PSoC4/Slider.c **** 		/* Connect to Shield */
1170:.\Generated_Source\PSoC4/Slider.c **** 		*Slider_prtSelTbl[port] |= (Slider_CSD_SHIELD_PORT_MODE << pinHSIOMShift);
1171:.\Generated_Source\PSoC4/Slider.c **** 	}
1172:.\Generated_Source\PSoC4/Slider.c **** 	#endif /* (Slider_IS_SHIELD_ENABLE) */
1173:.\Generated_Source\PSoC4/Slider.c **** }
 545              		.loc 1 1173 0
 546              		@ sp needed
 547              	.LVL65:
 548              	.LVL66:
 549              	.LVL67:
 550 0066 F8BD     		pop	{r3, r4, r5, r6, r7, pc}
 551              	.L34:
 552              		.align	2
 553              	.L33:
 554 0068 00000000 		.word	.LANCHOR2
 555 006c 00000000 		.word	Slider_unscannedSnsDriveMode
 556              		.cfi_endproc
 557              	.LFE51:
 558              		.size	Slider_DisableSensor, .-Slider_DisableSensor
 559              		.section	.text.Slider_ClearSensors,"ax",%progbits
 560              		.align	2
 561              		.global	Slider_ClearSensors
 562              		.code	16
 563              		.thumb_func
 564              		.type	Slider_ClearSensors, %function
 565              	Slider_ClearSensors:
 566              	.LFB49:
 914:.\Generated_Source\PSoC4/Slider.c **** 	uint32 snsIndex;
 567              		.loc 1 914 0
 568              		.cfi_startproc
 569 0000 10B5     		push	{r4, lr}
 570              		.cfi_def_cfa_offset 8
 571              		.cfi_offset 4, -8
 572              		.cfi_offset 14, -4
 573              	.LVL68:
 917:.\Generated_Source\PSoC4/Slider.c ****     {
 574              		.loc 1 917 0
 575 0002 0024     		mov	r4, #0
 576 0004 03E0     		b	.L36
 577              	.LVL69:
 578              	.L37:
 919:.\Generated_Source\PSoC4/Slider.c ****     }
 579              		.loc 1 919 0 discriminator 3
 580 0006 201C     		mov	r0, r4
 581 0008 FFF7FEFF 		bl	Slider_DisableSensor
 582              	.LVL70:
 917:.\Generated_Source\PSoC4/Slider.c ****     {
 583              		.loc 1 917 0 discriminator 3
 584 000c 0134     		add	r4, r4, #1
 585              	.LVL71:
 586              	.L36:
 917:.\Generated_Source\PSoC4/Slider.c ****     {
 587              		.loc 1 917 0 is_stmt 0 discriminator 1
 588 000e 042C     		cmp	r4, #4
ARM GAS  C:\Users\ELECTR~1\AppData\Local\Temp\ccbbDBvf.s 			page 32


 589 0010 F9D9     		bls	.L37
 921:.\Generated_Source\PSoC4/Slider.c **** 
 590              		.loc 1 921 0 is_stmt 1
 591              		@ sp needed
 592              	.LVL72:
 593 0012 10BD     		pop	{r4, pc}
 594              		.cfi_endproc
 595              	.LFE49:
 596              		.size	Slider_ClearSensors, .-Slider_ClearSensors
 597              		.section	.text.Slider_SetPinDriveMode,"ax",%progbits
 598              		.align	2
 599              		.global	Slider_SetPinDriveMode
 600              		.code	16
 601              		.thumb_func
 602              		.type	Slider_SetPinDriveMode, %function
 603              	Slider_SetPinDriveMode:
 604              	.LFB54:
1174:.\Generated_Source\PSoC4/Slider.c **** 
1175:.\Generated_Source\PSoC4/Slider.c **** 
1176:.\Generated_Source\PSoC4/Slider.c **** /*******************************************************************************
1177:.\Generated_Source\PSoC4/Slider.c **** * Function Name: Slider_SetDriveModeAllPins
1178:.\Generated_Source\PSoC4/Slider.c **** ********************************************************************************
1179:.\Generated_Source\PSoC4/Slider.c **** *
1180:.\Generated_Source\PSoC4/Slider.c **** * Summary:
1181:.\Generated_Source\PSoC4/Slider.c **** * This API sets the drive mode of port pins used by the CapSense
1182:.\Generated_Source\PSoC4/Slider.c **** * component (sensors, guard, shield, shield tank and Cmod) to drive the 
1183:.\Generated_Source\PSoC4/Slider.c **** * mode specified by the argument.
1184:.\Generated_Source\PSoC4/Slider.c **** *
1185:.\Generated_Source\PSoC4/Slider.c **** * Parameters:
1186:.\Generated_Source\PSoC4/Slider.c **** *  driveMode:  Drive mode definition.
1187:.\Generated_Source\PSoC4/Slider.c **** *
1188:.\Generated_Source\PSoC4/Slider.c **** * Return:
1189:.\Generated_Source\PSoC4/Slider.c **** *  None
1190:.\Generated_Source\PSoC4/Slider.c **** *
1191:.\Generated_Source\PSoC4/Slider.c **** * Global Variables:
1192:.\Generated_Source\PSoC4/Slider.c **** *  Slider_portTable[] - used to store the port number that pin 
1193:.\Generated_Source\PSoC4/Slider.c **** *  belongs to for each sensor.
1194:.\Generated_Source\PSoC4/Slider.c **** *  Slider_pinShiftTbl[] - used to store position of pin that 
1195:.\Generated_Source\PSoC4/Slider.c **** *  configured as a sensor in the port. 
1196:.\Generated_Source\PSoC4/Slider.c **** *
1197:.\Generated_Source\PSoC4/Slider.c **** * Side Effects: 
1198:.\Generated_Source\PSoC4/Slider.c **** *  This API shall be called only after CapSense component is stopped.
1199:.\Generated_Source\PSoC4/Slider.c **** *
1200:.\Generated_Source\PSoC4/Slider.c **** *******************************************************************************/
1201:.\Generated_Source\PSoC4/Slider.c **** void Slider_SetDriveModeAllPins(uint32 driveMode)
1202:.\Generated_Source\PSoC4/Slider.c **** {
1203:.\Generated_Source\PSoC4/Slider.c **** 	uint8 curSensor;
1204:.\Generated_Source\PSoC4/Slider.c **** 	#if (Slider_IS_COMPLEX_SCANSLOTS)
1205:.\Generated_Source\PSoC4/Slider.c **** 		uint8 snsNumber;
1206:.\Generated_Source\PSoC4/Slider.c **** 		uint8 snsType;
1207:.\Generated_Source\PSoC4/Slider.c **** 	#endif  /* Slider_IS_COMPLEX_SCANSLOTS */
1208:.\Generated_Source\PSoC4/Slider.c **** 	uint32 prtNumberTmp;
1209:.\Generated_Source\PSoC4/Slider.c **** 	uint32 pinNumberTmp;
1210:.\Generated_Source\PSoC4/Slider.c **** 
1211:.\Generated_Source\PSoC4/Slider.c **** 	for(curSensor = 0u; curSensor < Slider_TOTAL_SENSOR_COUNT; curSensor++)
1212:.\Generated_Source\PSoC4/Slider.c **** 	{	
1213:.\Generated_Source\PSoC4/Slider.c **** 		#if (Slider_IS_COMPLEX_SCANSLOTS)
ARM GAS  C:\Users\ELECTR~1\AppData\Local\Temp\ccbbDBvf.s 			page 33


1214:.\Generated_Source\PSoC4/Slider.c **** 			/* Read sensor type: single or complex */
1215:.\Generated_Source\PSoC4/Slider.c **** 			snsType = Slider_portTable[curSensor];
1216:.\Generated_Source\PSoC4/Slider.c **** 		
1217:.\Generated_Source\PSoC4/Slider.c **** 			/* Check if sensor is complex */
1218:.\Generated_Source\PSoC4/Slider.c **** 			if ((snsType & Slider_COMPLEX_SS_FLAG) == 0u)
1219:.\Generated_Source\PSoC4/Slider.c **** 			{
1220:.\Generated_Source\PSoC4/Slider.c **** 				/* The sensor is not complex */
1221:.\Generated_Source\PSoC4/Slider.c **** 				snsNumber = curSensor;
1222:.\Generated_Source\PSoC4/Slider.c **** 			}
1223:.\Generated_Source\PSoC4/Slider.c **** 			else
1224:.\Generated_Source\PSoC4/Slider.c **** 			{
1225:.\Generated_Source\PSoC4/Slider.c **** 				/* Get dedicated sensor ID of the complex sensor */
1226:.\Generated_Source\PSoC4/Slider.c **** 				snsType &= ~Slider_COMPLEX_SS_FLAG;
1227:.\Generated_Source\PSoC4/Slider.c **** 				snsNumber = Slider_indexTable[snsType];
1228:.\Generated_Source\PSoC4/Slider.c **** 			}
1229:.\Generated_Source\PSoC4/Slider.c **** 
1230:.\Generated_Source\PSoC4/Slider.c **** 			prtNumberTmp = Slider_portTable[snsNumber];
1231:.\Generated_Source\PSoC4/Slider.c **** 			pinNumberTmp = Slider_pinShiftTbl[snsNumber];
1232:.\Generated_Source\PSoC4/Slider.c **** 		#else
1233:.\Generated_Source\PSoC4/Slider.c **** 			prtNumberTmp = Slider_portTable[curSensor];
1234:.\Generated_Source\PSoC4/Slider.c **** 			pinNumberTmp = Slider_pinShiftTbl[curSensor];
1235:.\Generated_Source\PSoC4/Slider.c **** 		#endif  /* Slider_IS_COMPLEX_SCANSLOTS */
1236:.\Generated_Source\PSoC4/Slider.c **** 	
1237:.\Generated_Source\PSoC4/Slider.c **** 		Slider_SetPinDriveMode(driveMode, pinNumberTmp, prtNumberTmp);
1238:.\Generated_Source\PSoC4/Slider.c **** 	}
1239:.\Generated_Source\PSoC4/Slider.c **** 	
1240:.\Generated_Source\PSoC4/Slider.c **** 	Slider_SetPinDriveMode(driveMode, (uint32)Slider_CMOD_PIN_NUMBER, (uint32)Slider_CMOD_PRT_NUMBER);
1241:.\Generated_Source\PSoC4/Slider.c **** 	
1242:.\Generated_Source\PSoC4/Slider.c **** 	#if(0u != Slider_CSH_TANK_ENABLE)
1243:.\Generated_Source\PSoC4/Slider.c **** 		Slider_SetPinDriveMode(driveMode, (uint32)Slider_CTANK_PIN_NUMBER, (uint32)Slider_CTANK_PRT_NUMBE
1244:.\Generated_Source\PSoC4/Slider.c **** 	#endif /* (0u != Slider_CSH_TANK_ENABLE) */	
1245:.\Generated_Source\PSoC4/Slider.c **** 	
1246:.\Generated_Source\PSoC4/Slider.c **** 	#if(0u != Slider_IS_SHIELD_ENABLE)
1247:.\Generated_Source\PSoC4/Slider.c **** 		Slider_SetPinDriveMode(driveMode, (uint32)Slider_SHIELD_PIN_NUMBER, (uint32)Slider_SHIELD_PORT_NU
1248:.\Generated_Source\PSoC4/Slider.c **** 	#endif /* (0u != Slider_IS_SHIELD_ENABLE) */	
1249:.\Generated_Source\PSoC4/Slider.c **** }
1250:.\Generated_Source\PSoC4/Slider.c **** 
1251:.\Generated_Source\PSoC4/Slider.c **** 
1252:.\Generated_Source\PSoC4/Slider.c **** /*******************************************************************************
1253:.\Generated_Source\PSoC4/Slider.c **** * Function Name: Slider_RestoreDriveModeAllPins
1254:.\Generated_Source\PSoC4/Slider.c **** ********************************************************************************
1255:.\Generated_Source\PSoC4/Slider.c **** *
1256:.\Generated_Source\PSoC4/Slider.c **** * Summary:
1257:.\Generated_Source\PSoC4/Slider.c **** *  This API restores the drive for all the CapSense port pins to the original
1258:.\Generated_Source\PSoC4/Slider.c **** *  state.
1259:.\Generated_Source\PSoC4/Slider.c **** *
1260:.\Generated_Source\PSoC4/Slider.c **** * Parameters:
1261:.\Generated_Source\PSoC4/Slider.c **** *  None
1262:.\Generated_Source\PSoC4/Slider.c **** *
1263:.\Generated_Source\PSoC4/Slider.c **** * Return:
1264:.\Generated_Source\PSoC4/Slider.c **** *  None
1265:.\Generated_Source\PSoC4/Slider.c **** *
1266:.\Generated_Source\PSoC4/Slider.c **** * Global Variables:
1267:.\Generated_Source\PSoC4/Slider.c **** *  Slider_prtSelTbl[] - Contains pointers to the HSIOM 
1268:.\Generated_Source\PSoC4/Slider.c **** *  registers for each port. 
1269:.\Generated_Source\PSoC4/Slider.c **** *
1270:.\Generated_Source\PSoC4/Slider.c **** * Side Effects: 
ARM GAS  C:\Users\ELECTR~1\AppData\Local\Temp\ccbbDBvf.s 			page 34


1271:.\Generated_Source\PSoC4/Slider.c **** *  This API is called only after the CapSense component is stopped.
1272:.\Generated_Source\PSoC4/Slider.c **** *
1273:.\Generated_Source\PSoC4/Slider.c **** *******************************************************************************/
1274:.\Generated_Source\PSoC4/Slider.c **** void Slider_RestoreDriveModeAllPins(void)
1275:.\Generated_Source\PSoC4/Slider.c **** {
1276:.\Generated_Source\PSoC4/Slider.c **** 	uint32 newRegisterValue;
1277:.\Generated_Source\PSoC4/Slider.c **** 	
1278:.\Generated_Source\PSoC4/Slider.c **** 	Slider_SetDriveModeAllPins(CY_SYS_PINS_DM_ALG_HIZ);
1279:.\Generated_Source\PSoC4/Slider.c **** 	
1280:.\Generated_Source\PSoC4/Slider.c **** 	newRegisterValue = Slider_CMOD_CONNECTION_REG; 
1281:.\Generated_Source\PSoC4/Slider.c ****     newRegisterValue &= ~(Slider_CSD_CMOD_CONNECTION_MASK);
1282:.\Generated_Source\PSoC4/Slider.c ****     newRegisterValue |= Slider_CSD_CMOD_TO_AMUXBUS_A;
1283:.\Generated_Source\PSoC4/Slider.c ****     Slider_CMOD_CONNECTION_REG = newRegisterValue;
1284:.\Generated_Source\PSoC4/Slider.c **** 	
1285:.\Generated_Source\PSoC4/Slider.c **** 	#if(0u != Slider_CSH_TANK_ENABLE)
1286:.\Generated_Source\PSoC4/Slider.c **** 		newRegisterValue = Slider_CTANK_CONNECTION_REG;
1287:.\Generated_Source\PSoC4/Slider.c ****         newRegisterValue &= ~(Slider_CSD_CTANK_CONNECTION_MASK);
1288:.\Generated_Source\PSoC4/Slider.c **** 		newRegisterValue |= Slider_CSD_CTANK_TO_AMUXBUS_B;
1289:.\Generated_Source\PSoC4/Slider.c ****         Slider_CTANK_CONNECTION_REG = newRegisterValue;
1290:.\Generated_Source\PSoC4/Slider.c **** 	#endif/* (0u != Slider_CSH_TANK_ENABLE) */
1291:.\Generated_Source\PSoC4/Slider.c **** 	
1292:.\Generated_Source\PSoC4/Slider.c **** 	#if(0u != Slider_IS_SHIELD_ENABLE)
1293:.\Generated_Source\PSoC4/Slider.c **** 		newRegisterValue = *Slider_prtSelTbl[Slider_SHIELD_PORT_NUMBER];
1294:.\Generated_Source\PSoC4/Slider.c ****         newRegisterValue &= ~(Slider_CSD_HSIOM_MASK << ((uint32)Slider_SHIELD_PIN_NUMBER * Slider_H
1295:.\Generated_Source\PSoC4/Slider.c ****         newRegisterValue |= (Slider_CSD_SHIELD_PORT_MODE << ((uint32)Slider_SHIELD_PIN_NUMBER * Sli
1296:.\Generated_Source\PSoC4/Slider.c ****         *Slider_prtSelTbl[Slider_SHIELD_PORT_NUMBER] = newRegisterValue;
1297:.\Generated_Source\PSoC4/Slider.c **** 	#endif /* (0u != Slider_IS_SHIELD_ENABLE) */	
1298:.\Generated_Source\PSoC4/Slider.c **** }
1299:.\Generated_Source\PSoC4/Slider.c **** 
1300:.\Generated_Source\PSoC4/Slider.c **** 
1301:.\Generated_Source\PSoC4/Slider.c **** /*******************************************************************************
1302:.\Generated_Source\PSoC4/Slider.c **** * Function Name: Slider_SetPinDriveMode
1303:.\Generated_Source\PSoC4/Slider.c **** ********************************************************************************
1304:.\Generated_Source\PSoC4/Slider.c **** *
1305:.\Generated_Source\PSoC4/Slider.c **** * Summary:
1306:.\Generated_Source\PSoC4/Slider.c **** * This API sets the drive mode for the appropriate port/pin.
1307:.\Generated_Source\PSoC4/Slider.c **** *
1308:.\Generated_Source\PSoC4/Slider.c **** * Parameters:
1309:.\Generated_Source\PSoC4/Slider.c **** *  driveMode:  Drive mode definition.
1310:.\Generated_Source\PSoC4/Slider.c **** *  portNumber: contains port number (0, 1, 2).
1311:.\Generated_Source\PSoC4/Slider.c **** *  pinNumber: contains pin number (0, 1, 2, ... , 7).
1312:.\Generated_Source\PSoC4/Slider.c **** *
1313:.\Generated_Source\PSoC4/Slider.c **** * Return:
1314:.\Generated_Source\PSoC4/Slider.c **** *  None
1315:.\Generated_Source\PSoC4/Slider.c **** *
1316:.\Generated_Source\PSoC4/Slider.c **** * Global Variables:
1317:.\Generated_Source\PSoC4/Slider.c **** *  Slider_prtSelTbl[] - Contains pointers to the HSIOM 
1318:.\Generated_Source\PSoC4/Slider.c **** *  registers for each port. 
1319:.\Generated_Source\PSoC4/Slider.c **** *  Slider_prtCfgTb[] - Contains pointers to the port config 
1320:.\Generated_Source\PSoC4/Slider.c **** *  registers for each port.
1321:.\Generated_Source\PSoC4/Slider.c **** *
1322:.\Generated_Source\PSoC4/Slider.c **** * Side Effects: 
1323:.\Generated_Source\PSoC4/Slider.c **** *  This API is called only after CapSense component is stopped.
1324:.\Generated_Source\PSoC4/Slider.c **** *
1325:.\Generated_Source\PSoC4/Slider.c **** *******************************************************************************/
1326:.\Generated_Source\PSoC4/Slider.c **** void Slider_SetPinDriveMode(uint32 driveMode, uint32 pinNumber, uint32 portNumber)
1327:.\Generated_Source\PSoC4/Slider.c **** {	
ARM GAS  C:\Users\ELECTR~1\AppData\Local\Temp\ccbbDBvf.s 			page 35


 605              		.loc 1 1327 0
 606              		.cfi_startproc
 607              	.LVL73:
 608 0000 10B5     		push	{r4, lr}
 609              		.cfi_def_cfa_offset 8
 610              		.cfi_offset 4, -8
 611              		.cfi_offset 14, -4
1328:.\Generated_Source\PSoC4/Slider.c **** 	uint32  pinModeShift;
1329:.\Generated_Source\PSoC4/Slider.c **** 	uint32 newRegisterValue;
1330:.\Generated_Source\PSoC4/Slider.c **** 	
1331:.\Generated_Source\PSoC4/Slider.c **** 	pinModeShift  = pinNumber * Slider_PC_PIN_CFG_SIZE;
 612              		.loc 1 1331 0
 613 0002 4B00     		lsl	r3, r1, #1
 614 0004 5918     		add	r1, r3, r1
 615              	.LVL74:
1332:.\Generated_Source\PSoC4/Slider.c **** 	
1333:.\Generated_Source\PSoC4/Slider.c **** 	newRegisterValue = *Slider_prtCfgTbl[portNumber];
 616              		.loc 1 1333 0
 617 0006 9200     		lsl	r2, r2, #2
 618              	.LVL75:
 619 0008 054B     		ldr	r3, .L39
 620 000a 9A18     		add	r2, r3, r2
 621 000c 946A     		ldr	r4, [r2, #40]
 622 000e 2368     		ldr	r3, [r4]
 623              	.LVL76:
1334:.\Generated_Source\PSoC4/Slider.c **** 	newRegisterValue &= ~(Slider_CSD_PIN_MODE_MASK << pinModeShift);
 624              		.loc 1 1334 0
 625 0010 0722     		mov	r2, #7
 626 0012 8A40     		lsl	r2, r2, r1
 627 0014 9343     		bic	r3, r2
 628              	.LVL77:
1335:.\Generated_Source\PSoC4/Slider.c **** 	newRegisterValue |=  (uint32)((uint32)driveMode << pinModeShift);
 629              		.loc 1 1335 0
 630 0016 8840     		lsl	r0, r0, r1
 631              	.LVL78:
 632 0018 1843     		orr	r0, r3
 633              	.LVL79:
1336:.\Generated_Source\PSoC4/Slider.c ****     *Slider_prtCfgTbl[portNumber] =  newRegisterValue;
 634              		.loc 1 1336 0
 635 001a 2060     		str	r0, [r4]
1337:.\Generated_Source\PSoC4/Slider.c **** }
 636              		.loc 1 1337 0
 637              		@ sp needed
 638 001c 10BD     		pop	{r4, pc}
 639              	.L40:
 640 001e C046     		.align	2
 641              	.L39:
 642 0020 00000000 		.word	.LANCHOR2
 643              		.cfi_endproc
 644              	.LFE54:
 645              		.size	Slider_SetPinDriveMode, .-Slider_SetPinDriveMode
 646              		.section	.text.Slider_SetDriveModeAllPins,"ax",%progbits
 647              		.align	2
 648              		.global	Slider_SetDriveModeAllPins
 649              		.code	16
 650              		.thumb_func
 651              		.type	Slider_SetDriveModeAllPins, %function
ARM GAS  C:\Users\ELECTR~1\AppData\Local\Temp\ccbbDBvf.s 			page 36


 652              	Slider_SetDriveModeAllPins:
 653              	.LFB52:
1202:.\Generated_Source\PSoC4/Slider.c **** 	uint8 curSensor;
 654              		.loc 1 1202 0
 655              		.cfi_startproc
 656              	.LVL80:
 657 0000 38B5     		push	{r3, r4, r5, lr}
 658              		.cfi_def_cfa_offset 16
 659              		.cfi_offset 3, -16
 660              		.cfi_offset 4, -12
 661              		.cfi_offset 5, -8
 662              		.cfi_offset 14, -4
 663 0002 051C     		mov	r5, r0
 664              	.LVL81:
1211:.\Generated_Source\PSoC4/Slider.c **** 	{	
 665              		.loc 1 1211 0
 666 0004 0024     		mov	r4, #0
 667 0006 08E0     		b	.L42
 668              	.LVL82:
 669              	.L43:
1233:.\Generated_Source\PSoC4/Slider.c **** 			pinNumberTmp = Slider_pinShiftTbl[curSensor];
 670              		.loc 1 1233 0 discriminator 3
 671 0008 084B     		ldr	r3, .L44
 672 000a 1A5D     		ldrb	r2, [r3, r4]
 673              	.LVL83:
1234:.\Generated_Source\PSoC4/Slider.c **** 		#endif  /* Slider_IS_COMPLEX_SCANSLOTS */
 674              		.loc 1 1234 0 discriminator 3
 675 000c 1B19     		add	r3, r3, r4
 676 000e 197A     		ldrb	r1, [r3, #8]
 677              	.LVL84:
1237:.\Generated_Source\PSoC4/Slider.c **** 	}
 678              		.loc 1 1237 0 discriminator 3
 679 0010 281C     		mov	r0, r5
 680 0012 FFF7FEFF 		bl	Slider_SetPinDriveMode
 681              	.LVL85:
1211:.\Generated_Source\PSoC4/Slider.c **** 	{	
 682              		.loc 1 1211 0 discriminator 3
 683 0016 0134     		add	r4, r4, #1
 684              	.LVL86:
 685 0018 E4B2     		uxtb	r4, r4
 686              	.LVL87:
 687              	.L42:
1211:.\Generated_Source\PSoC4/Slider.c **** 	{	
 688              		.loc 1 1211 0 is_stmt 0 discriminator 1
 689 001a 042C     		cmp	r4, #4
 690 001c F4D9     		bls	.L43
1240:.\Generated_Source\PSoC4/Slider.c **** 	
 691              		.loc 1 1240 0 is_stmt 1
 692 001e 281C     		mov	r0, r5
 693 0020 0021     		mov	r1, #0
 694 0022 0422     		mov	r2, #4
 695 0024 FFF7FEFF 		bl	Slider_SetPinDriveMode
 696              	.LVL88:
1249:.\Generated_Source\PSoC4/Slider.c **** 
 697              		.loc 1 1249 0
 698              		@ sp needed
 699              	.LVL89:
ARM GAS  C:\Users\ELECTR~1\AppData\Local\Temp\ccbbDBvf.s 			page 37


 700              	.LVL90:
 701 0028 38BD     		pop	{r3, r4, r5, pc}
 702              	.L45:
 703 002a C046     		.align	2
 704              	.L44:
 705 002c 00000000 		.word	.LANCHOR2
 706              		.cfi_endproc
 707              	.LFE52:
 708              		.size	Slider_SetDriveModeAllPins, .-Slider_SetDriveModeAllPins
 709              		.section	.text.Slider_RestoreDriveModeAllPins,"ax",%progbits
 710              		.align	2
 711              		.global	Slider_RestoreDriveModeAllPins
 712              		.code	16
 713              		.thumb_func
 714              		.type	Slider_RestoreDriveModeAllPins, %function
 715              	Slider_RestoreDriveModeAllPins:
 716              	.LFB53:
1275:.\Generated_Source\PSoC4/Slider.c **** 	uint32 newRegisterValue;
 717              		.loc 1 1275 0
 718              		.cfi_startproc
 719 0000 08B5     		push	{r3, lr}
 720              		.cfi_def_cfa_offset 8
 721              		.cfi_offset 3, -8
 722              		.cfi_offset 14, -4
1278:.\Generated_Source\PSoC4/Slider.c **** 	
 723              		.loc 1 1278 0
 724 0002 0020     		mov	r0, #0
 725 0004 FFF7FEFF 		bl	Slider_SetDriveModeAllPins
 726              	.LVL91:
1280:.\Generated_Source\PSoC4/Slider.c ****     newRegisterValue &= ~(Slider_CSD_CMOD_CONNECTION_MASK);
 727              		.loc 1 1280 0
 728 0008 0349     		ldr	r1, .L47
 729 000a 0B68     		ldr	r3, [r1]
 730              	.LVL92:
1281:.\Generated_Source\PSoC4/Slider.c ****     newRegisterValue |= Slider_CSD_CMOD_TO_AMUXBUS_A;
 731              		.loc 1 1281 0
 732 000c 0F22     		mov	r2, #15
 733 000e 9343     		bic	r3, r2
 734              	.LVL93:
1282:.\Generated_Source\PSoC4/Slider.c ****     Slider_CMOD_CONNECTION_REG = newRegisterValue;
 735              		.loc 1 1282 0
 736 0010 093A     		sub	r2, r2, #9
 737 0012 1343     		orr	r3, r2
 738              	.LVL94:
1283:.\Generated_Source\PSoC4/Slider.c **** 	
 739              		.loc 1 1283 0
 740 0014 0B60     		str	r3, [r1]
1298:.\Generated_Source\PSoC4/Slider.c **** 
 741              		.loc 1 1298 0
 742              		@ sp needed
 743 0016 08BD     		pop	{r3, pc}
 744              	.L48:
 745              		.align	2
 746              	.L47:
 747 0018 00040240 		.word	1073873920
 748              		.cfi_endproc
 749              	.LFE53:
ARM GAS  C:\Users\ELECTR~1\AppData\Local\Temp\ccbbDBvf.s 			page 38


 750              		.size	Slider_RestoreDriveModeAllPins, .-Slider_RestoreDriveModeAllPins
 751              		.section	.text.Slider_EnableShieldElectrode,"ax",%progbits
 752              		.align	2
 753              		.global	Slider_EnableShieldElectrode
 754              		.code	16
 755              		.thumb_func
 756              		.type	Slider_EnableShieldElectrode, %function
 757              	Slider_EnableShieldElectrode:
 758              	.LFB57:
1338:.\Generated_Source\PSoC4/Slider.c **** 
1339:.\Generated_Source\PSoC4/Slider.c **** 
1340:.\Generated_Source\PSoC4/Slider.c **** /*******************************************************************************
1341:.\Generated_Source\PSoC4/Slider.c **** * Function Name: Slider_PreScan
1342:.\Generated_Source\PSoC4/Slider.c **** ********************************************************************************
1343:.\Generated_Source\PSoC4/Slider.c **** *
1344:.\Generated_Source\PSoC4/Slider.c **** * Summary:
1345:.\Generated_Source\PSoC4/Slider.c **** *  Sets required settings, enables a sensor, removes Vref from AMUX and starts the 
1346:.\Generated_Source\PSoC4/Slider.c **** *  scanning process of the sensor.
1347:.\Generated_Source\PSoC4/Slider.c **** *
1348:.\Generated_Source\PSoC4/Slider.c **** * Parameters:
1349:.\Generated_Source\PSoC4/Slider.c **** *  sensor:  Sensor number.
1350:.\Generated_Source\PSoC4/Slider.c **** *
1351:.\Generated_Source\PSoC4/Slider.c **** * Return:
1352:.\Generated_Source\PSoC4/Slider.c **** *  None
1353:.\Generated_Source\PSoC4/Slider.c **** *
1354:.\Generated_Source\PSoC4/Slider.c **** * Global Variables:
1355:.\Generated_Source\PSoC4/Slider.c **** * Slider_widgetNumber[] - This array contains numbers of widgets for each sensor.
1356:.\Generated_Source\PSoC4/Slider.c **** * Slider_widgetResolution[] - Contains the widget resolution.
1357:.\Generated_Source\PSoC4/Slider.c **** *
1358:.\Generated_Source\PSoC4/Slider.c **** * Side Effects: 
1359:.\Generated_Source\PSoC4/Slider.c **** *  None
1360:.\Generated_Source\PSoC4/Slider.c **** *
1361:.\Generated_Source\PSoC4/Slider.c **** *******************************************************************************/
1362:.\Generated_Source\PSoC4/Slider.c **** void Slider_PreScan(uint32 sensor)
1363:.\Generated_Source\PSoC4/Slider.c **** {
1364:.\Generated_Source\PSoC4/Slider.c ****     uint8 widget;
1365:.\Generated_Source\PSoC4/Slider.c ****     uint8 interruptState;
1366:.\Generated_Source\PSoC4/Slider.c **** 	uint32 newRegValue;
1367:.\Generated_Source\PSoC4/Slider.c **** 	uint32 counterResolution;
1368:.\Generated_Source\PSoC4/Slider.c **** 	
1369:.\Generated_Source\PSoC4/Slider.c **** 	#if(Slider_PRS_OPTIONS == Slider__PRS_AUTO)
1370:.\Generated_Source\PSoC4/Slider.c **** 		uint8 senseClkDivMath;
1371:.\Generated_Source\PSoC4/Slider.c **** 		uint8 sampleClkDivMath;
1372:.\Generated_Source\PSoC4/Slider.c **** 	#endif /* (Slider_PRS_OPTIONS == Slider__PRS_AUTO) */	
1373:.\Generated_Source\PSoC4/Slider.c **** 	
1374:.\Generated_Source\PSoC4/Slider.c **** 	#if ((Slider_TUNING_METHOD == Slider__TUNING_AUTO) &&\
1375:.\Generated_Source\PSoC4/Slider.c **** 		 (0 != Slider_IS_OVERSAMPLING_EN))
1376:.\Generated_Source\PSoC4/Slider.c **** 		uint32 oversamplingFactor;
1377:.\Generated_Source\PSoC4/Slider.c **** 	#endif /* ((Slider_TUNING_METHOD == Slider__TUNING_AUTO) &&\
1378:.\Generated_Source\PSoC4/Slider.c **** 	           (0 != Slider_IS_OVERSAMPLING_EN)) */
1379:.\Generated_Source\PSoC4/Slider.c **** 
1380:.\Generated_Source\PSoC4/Slider.c ****     /* Define widget sensor belongs to */
1381:.\Generated_Source\PSoC4/Slider.c ****     widget = Slider_widgetNumber[sensor];
1382:.\Generated_Source\PSoC4/Slider.c **** 
1383:.\Generated_Source\PSoC4/Slider.c **** 	/* Recalculate Counter Resolution to MSB 16 bits */
1384:.\Generated_Source\PSoC4/Slider.c **** 	counterResolution = Slider_widgetResolution[widget];
1385:.\Generated_Source\PSoC4/Slider.c **** 	
ARM GAS  C:\Users\ELECTR~1\AppData\Local\Temp\ccbbDBvf.s 			page 39


1386:.\Generated_Source\PSoC4/Slider.c **** 	#if ((Slider_TUNING_METHOD == Slider__TUNING_AUTO) &&\
1387:.\Generated_Source\PSoC4/Slider.c **** 		 (0 != Slider_IS_OVERSAMPLING_EN))
1388:.\Generated_Source\PSoC4/Slider.c **** 	    oversamplingFactor = Slider_GetBitValue(scanSpeedTbl, sensor);
1389:.\Generated_Source\PSoC4/Slider.c **** 
1390:.\Generated_Source\PSoC4/Slider.c **** 		if(counterResolution < Slider_RESOLUTION_16_BITS)
1391:.\Generated_Source\PSoC4/Slider.c **** 		{
1392:.\Generated_Source\PSoC4/Slider.c **** 			counterResolution <<= oversamplingFactor;
1393:.\Generated_Source\PSoC4/Slider.c **** 			counterResolution |= (uint32)(Slider_RESOLUTION_8_BITS);
1394:.\Generated_Source\PSoC4/Slider.c **** 		}
1395:.\Generated_Source\PSoC4/Slider.c **** 	#endif /* ((Slider_TUNING_METHOD == Slider__TUNING_AUTO) &&\
1396:.\Generated_Source\PSoC4/Slider.c **** 	           (0 != Slider_IS_OVERSAMPLING_EN)) */
1397:.\Generated_Source\PSoC4/Slider.c **** 	
1398:.\Generated_Source\PSoC4/Slider.c **** 	#if (0u != Slider_IS_M0S8PERI_BLOCK)
1399:.\Generated_Source\PSoC4/Slider.c **** 		Slider_SenseClk_Stop();
1400:.\Generated_Source\PSoC4/Slider.c **** 		Slider_SampleClk_Stop();
1401:.\Generated_Source\PSoC4/Slider.c **** 	#endif /* (0u != Slider_IS_M0S8PERI_BLOCK) */
1402:.\Generated_Source\PSoC4/Slider.c **** 
1403:.\Generated_Source\PSoC4/Slider.c **** 	#if (0u != Slider_MULTIPLE_FREQUENCY_SET)
1404:.\Generated_Source\PSoC4/Slider.c **** 		Slider_SampleClk_SetDividerValue((uint16)Slider_sampleClkDividerVal[sensor]);
1405:.\Generated_Source\PSoC4/Slider.c **** 		Slider_SenseClk_SetDividerValue((uint16)Slider_senseClkDividerVal[sensor]);
1406:.\Generated_Source\PSoC4/Slider.c **** 	#else
1407:.\Generated_Source\PSoC4/Slider.c **** 		Slider_SampleClk_SetDividerValue((uint16)Slider_sampleClkDividerVal);
1408:.\Generated_Source\PSoC4/Slider.c **** 		Slider_SenseClk_SetDividerValue((uint16)Slider_senseClkDividerVal);
1409:.\Generated_Source\PSoC4/Slider.c **** 	#endif /* (0u != Slider_MULTIPLE_FREQUENCY_SET) */
1410:.\Generated_Source\PSoC4/Slider.c **** 
1411:.\Generated_Source\PSoC4/Slider.c **** 	#if (0u != Slider_IS_M0S8PERI_BLOCK)
1412:.\Generated_Source\PSoC4/Slider.c **** 		Slider_SampleClk_Start();
1413:.\Generated_Source\PSoC4/Slider.c **** 		Slider_SenseClk_StartEx(Slider_SampleClk__DIV_ID);
1414:.\Generated_Source\PSoC4/Slider.c **** 		
1415:.\Generated_Source\PSoC4/Slider.c **** 		#if(Slider_PRS_OPTIONS == Slider__PRS_NONE)
1416:.\Generated_Source\PSoC4/Slider.c **** 			CyIntDisable(Slider_ISR_NUMBER);
1417:.\Generated_Source\PSoC4/Slider.c **** 			Slider_CSD_CNT_REG = Slider_ONE_CYCLE;
1418:.\Generated_Source\PSoC4/Slider.c **** 			while(0u != (Slider_CSD_CNT_REG & Slider_RESOLUTION_16_BITS))
1419:.\Generated_Source\PSoC4/Slider.c **** 			{
1420:.\Generated_Source\PSoC4/Slider.c **** 			/* Wait until scanning is complete */ 
1421:.\Generated_Source\PSoC4/Slider.c **** 			}
1422:.\Generated_Source\PSoC4/Slider.c **** 			Slider_CSD_INTR_REG = 1u;
1423:.\Generated_Source\PSoC4/Slider.c **** 			CyIntClearPending(Slider_ISR_NUMBER);
1424:.\Generated_Source\PSoC4/Slider.c **** 			CyIntEnable(Slider_ISR_NUMBER); 
1425:.\Generated_Source\PSoC4/Slider.c **** 		#endif /* Slider_PRS_OPTIONS == Slider__PRS_NONE */
1426:.\Generated_Source\PSoC4/Slider.c **** 	#endif /* (0u != Slider_IS_M0S8PERI_BLOCK) */
1427:.\Generated_Source\PSoC4/Slider.c **** 
1428:.\Generated_Source\PSoC4/Slider.c **** #if(Slider_PRS_OPTIONS != Slider__PRS_NONE)
1429:.\Generated_Source\PSoC4/Slider.c **** 
1430:.\Generated_Source\PSoC4/Slider.c **** 	#if(Slider_TUNING_METHOD == Slider__TUNING_AUTO)
1431:.\Generated_Source\PSoC4/Slider.c **** 		if(Slider_prescalersTuningDone != 0u)
1432:.\Generated_Source\PSoC4/Slider.c **** 		{
1433:.\Generated_Source\PSoC4/Slider.c **** 	#endif /* (Slider_TUNING_METHOD == Slider__TUNING_AUTO) */
1434:.\Generated_Source\PSoC4/Slider.c **** 			
1435:.\Generated_Source\PSoC4/Slider.c **** 			CyIntDisable(Slider_ISR_NUMBER);
1436:.\Generated_Source\PSoC4/Slider.c **** 			
1437:.\Generated_Source\PSoC4/Slider.c **** 			newRegValue = Slider_CSD_CFG_REG;
1438:.\Generated_Source\PSoC4/Slider.c **** 			newRegValue |= Slider_CSD_CFG_PRS_SELECT;
1439:.\Generated_Source\PSoC4/Slider.c **** 			
1440:.\Generated_Source\PSoC4/Slider.c **** 			#if(Slider_PRS_OPTIONS == Slider__PRS_AUTO)
1441:.\Generated_Source\PSoC4/Slider.c **** 				
1442:.\Generated_Source\PSoC4/Slider.c **** 				newRegValue &= ~(Slider_PRS_MODE_MASK);
ARM GAS  C:\Users\ELECTR~1\AppData\Local\Temp\ccbbDBvf.s 			page 40


1443:.\Generated_Source\PSoC4/Slider.c **** 				
1444:.\Generated_Source\PSoC4/Slider.c **** 				#if (0u != Slider_MULTIPLE_FREQUENCY_SET)
1445:.\Generated_Source\PSoC4/Slider.c **** 					senseClkDivMath = Slider_senseClkDividerVal[sensor];
1446:.\Generated_Source\PSoC4/Slider.c **** 					sampleClkDivMath = Slider_sampleClkDividerVal[sensor];
1447:.\Generated_Source\PSoC4/Slider.c **** 				#else
1448:.\Generated_Source\PSoC4/Slider.c **** 					senseClkDivMath = Slider_senseClkDividerVal;
1449:.\Generated_Source\PSoC4/Slider.c **** 					sampleClkDivMath = Slider_sampleClkDividerVal;
1450:.\Generated_Source\PSoC4/Slider.c **** 				#endif /* ( Slider_MULTIPLE_FREQUENCY_SET) */
1451:.\Generated_Source\PSoC4/Slider.c **** 				
1452:.\Generated_Source\PSoC4/Slider.c **** 				#if(0u == Slider_IS_M0S8PERI_BLOCK)
1453:.\Generated_Source\PSoC4/Slider.c **** 					senseClkDivMath *= sampleClkDivMath;
1454:.\Generated_Source\PSoC4/Slider.c **** 				#endif /* (0u == Slider_IS_M0S8PERI_BLOCK) */	
1455:.\Generated_Source\PSoC4/Slider.c **** 				
1456:.\Generated_Source\PSoC4/Slider.c **** 				if((senseClkDivMath * Slider_RESOLUTION_12_BITS) <
1457:.\Generated_Source\PSoC4/Slider.c **** 				   (sampleClkDivMath * Slider_widgetResolution[widget]))
1458:.\Generated_Source\PSoC4/Slider.c **** 				{
1459:.\Generated_Source\PSoC4/Slider.c **** 					newRegValue |= Slider_CSD_PRS_12_BIT;
1460:.\Generated_Source\PSoC4/Slider.c **** 				}
1461:.\Generated_Source\PSoC4/Slider.c **** 			#endif /* (Slider_PRS_OPTIONS == Slider__PRS_AUTO) */
1462:.\Generated_Source\PSoC4/Slider.c **** 			
1463:.\Generated_Source\PSoC4/Slider.c **** 			Slider_CSD_CFG_REG = newRegValue;
1464:.\Generated_Source\PSoC4/Slider.c **** 			
1465:.\Generated_Source\PSoC4/Slider.c **** 			CyIntEnable(Slider_ISR_NUMBER);
1466:.\Generated_Source\PSoC4/Slider.c **** 			
1467:.\Generated_Source\PSoC4/Slider.c **** 	#if(Slider_TUNING_METHOD == Slider__TUNING_AUTO)	
1468:.\Generated_Source\PSoC4/Slider.c **** 		}
1469:.\Generated_Source\PSoC4/Slider.c **** 	#endif /* (Slider_PRS_OPTIONS != Slider__PRS_NONE) */
1470:.\Generated_Source\PSoC4/Slider.c **** 
1471:.\Generated_Source\PSoC4/Slider.c **** #endif /* (Slider_PRS_OPTIONS == Slider__PRS_NONE) */
1472:.\Generated_Source\PSoC4/Slider.c **** 	
1473:.\Generated_Source\PSoC4/Slider.c **** 	/* Set Idac Value */
1474:.\Generated_Source\PSoC4/Slider.c **** 	CyIntDisable(Slider_ISR_NUMBER);
1475:.\Generated_Source\PSoC4/Slider.c ****     newRegValue = Slider_CSD_IDAC_REG;
1476:.\Generated_Source\PSoC4/Slider.c ****  
1477:.\Generated_Source\PSoC4/Slider.c **** #if (Slider_IDAC_CNT == 1u)    
1478:.\Generated_Source\PSoC4/Slider.c **** 	newRegValue &= ~(Slider_CSD_IDAC1_DATA_MASK);
1479:.\Generated_Source\PSoC4/Slider.c **** 	newRegValue |= Slider_modulationIDAC[sensor];
1480:.\Generated_Source\PSoC4/Slider.c **** #else
1481:.\Generated_Source\PSoC4/Slider.c **** 	newRegValue &= ~(Slider_CSD_IDAC1_DATA_MASK | Slider_CSD_IDAC2_DATA_MASK);
1482:.\Generated_Source\PSoC4/Slider.c **** 	newRegValue |= (Slider_modulationIDAC[sensor] | 
1483:.\Generated_Source\PSoC4/Slider.c **** 							(uint32)((uint32)Slider_compensationIDAC[sensor] <<
1484:.\Generated_Source\PSoC4/Slider.c **** 							Slider_CSD_IDAC2_DATA_OFFSET));                               
1485:.\Generated_Source\PSoC4/Slider.c **** #endif /* (Slider_IDAC_CNT == 1u) */
1486:.\Generated_Source\PSoC4/Slider.c **** 	
1487:.\Generated_Source\PSoC4/Slider.c **** 	Slider_CSD_IDAC_REG = newRegValue;
1488:.\Generated_Source\PSoC4/Slider.c **** 
1489:.\Generated_Source\PSoC4/Slider.c **** #if(Slider_CMOD_PREGARGE_OPTION == Slider__CAPPRIOBUF)
1490:.\Generated_Source\PSoC4/Slider.c **** 	newRegValue = Slider_CMOD_CONNECTION_REG;
1491:.\Generated_Source\PSoC4/Slider.c **** 	newRegValue &= ~(Slider_CSD_CMOD_CONNECTION_MASK);
1492:.\Generated_Source\PSoC4/Slider.c **** 	newRegValue |= Slider_CSD_CMOD_TO_AMUXBUS_A;
1493:.\Generated_Source\PSoC4/Slider.c **** 	Slider_CMOD_CONNECTION_REG = newRegValue;
1494:.\Generated_Source\PSoC4/Slider.c **** 	
1495:.\Generated_Source\PSoC4/Slider.c **** 	newRegValue = Slider_CMOD_PORT_PC_REG;
1496:.\Generated_Source\PSoC4/Slider.c **** 	newRegValue &= ~(Slider_CSD_CMOD_PC_MASK);
1497:.\Generated_Source\PSoC4/Slider.c **** 	newRegValue |= Slider_CMOD_PC_HIGH_Z_MODE;
1498:.\Generated_Source\PSoC4/Slider.c **** 	Slider_CMOD_PORT_PC_REG = newRegValue;
1499:.\Generated_Source\PSoC4/Slider.c **** #endif /* (Slider_CMOD_PREGARGE_OPTION == Slider__CAPPRIOBUF) */
ARM GAS  C:\Users\ELECTR~1\AppData\Local\Temp\ccbbDBvf.s 			page 41


1500:.\Generated_Source\PSoC4/Slider.c **** 
1501:.\Generated_Source\PSoC4/Slider.c ****     /* Disconnect Vref Buffer from AMUX */
1502:.\Generated_Source\PSoC4/Slider.c **** 	newRegValue = Slider_CSD_CFG_REG;
1503:.\Generated_Source\PSoC4/Slider.c **** 	newRegValue &= ~(Slider_PRECHARGE_CONFIG_MASK);
1504:.\Generated_Source\PSoC4/Slider.c **** 	newRegValue |= Slider_CTANK_PRECHARGE_CONFIG;
1505:.\Generated_Source\PSoC4/Slider.c **** 	
1506:.\Generated_Source\PSoC4/Slider.c **** 	CyIntEnable(Slider_ISR_NUMBER);
1507:.\Generated_Source\PSoC4/Slider.c **** 	
1508:.\Generated_Source\PSoC4/Slider.c ****     /* Enable Sensor */
1509:.\Generated_Source\PSoC4/Slider.c ****     Slider_EnableScanSlot(sensor);
1510:.\Generated_Source\PSoC4/Slider.c ****     
1511:.\Generated_Source\PSoC4/Slider.c **** 	interruptState = CyEnterCriticalSection();
1512:.\Generated_Source\PSoC4/Slider.c **** 	Slider_CSD_CFG_REG = newRegValue;
1513:.\Generated_Source\PSoC4/Slider.c **** 	
1514:.\Generated_Source\PSoC4/Slider.c **** 	/* `#START Slider_PreSettlingDelay_Debug` */
1515:.\Generated_Source\PSoC4/Slider.c **** 
1516:.\Generated_Source\PSoC4/Slider.c **** 	/* `#END` */
1517:.\Generated_Source\PSoC4/Slider.c **** 	
1518:.\Generated_Source\PSoC4/Slider.c **** 	CyDelayCycles(Slider_GLITCH_ELIMINATION_CYCLES);
1519:.\Generated_Source\PSoC4/Slider.c **** 	
1520:.\Generated_Source\PSoC4/Slider.c **** 	/* `#START Slider_PreScan_Debug` */
1521:.\Generated_Source\PSoC4/Slider.c **** 
1522:.\Generated_Source\PSoC4/Slider.c **** 	/* `#END` */
1523:.\Generated_Source\PSoC4/Slider.c **** 	
1524:.\Generated_Source\PSoC4/Slider.c ****     Slider_CSD_CNT_REG = counterResolution;
1525:.\Generated_Source\PSoC4/Slider.c ****     CyExitCriticalSection(interruptState);
1526:.\Generated_Source\PSoC4/Slider.c **** }
1527:.\Generated_Source\PSoC4/Slider.c **** 
1528:.\Generated_Source\PSoC4/Slider.c **** 
1529:.\Generated_Source\PSoC4/Slider.c **** /*******************************************************************************
1530:.\Generated_Source\PSoC4/Slider.c **** * Function Name: Slider_PostScan
1531:.\Generated_Source\PSoC4/Slider.c **** ********************************************************************************
1532:.\Generated_Source\PSoC4/Slider.c **** *
1533:.\Generated_Source\PSoC4/Slider.c **** * Summary:
1534:.\Generated_Source\PSoC4/Slider.c **** *  Stores the results of measurement in the Slider_sensorRaw[] array,
1535:.\Generated_Source\PSoC4/Slider.c **** *  sets the scanning sensor in the non-sampling state, turns off Idac(Current Source IDAC),
1536:.\Generated_Source\PSoC4/Slider.c **** *  disconnects the IDAC(Sink mode), and applies Vref on AMUX.
1537:.\Generated_Source\PSoC4/Slider.c **** *
1538:.\Generated_Source\PSoC4/Slider.c **** * Parameters:
1539:.\Generated_Source\PSoC4/Slider.c **** *  sensor:  Sensor number.
1540:.\Generated_Source\PSoC4/Slider.c **** *
1541:.\Generated_Source\PSoC4/Slider.c **** * Return:
1542:.\Generated_Source\PSoC4/Slider.c **** *  None
1543:.\Generated_Source\PSoC4/Slider.c **** *
1544:.\Generated_Source\PSoC4/Slider.c **** * Global Variables:
1545:.\Generated_Source\PSoC4/Slider.c **** *  Slider_sensorRaw[] - used to store sensors raw data.
1546:.\Generated_Source\PSoC4/Slider.c **** *
1547:.\Generated_Source\PSoC4/Slider.c **** * Side Effects: 
1548:.\Generated_Source\PSoC4/Slider.c **** *  None
1549:.\Generated_Source\PSoC4/Slider.c **** *
1550:.\Generated_Source\PSoC4/Slider.c **** *******************************************************************************/
1551:.\Generated_Source\PSoC4/Slider.c **** void Slider_PostScan(uint32 sensor)
1552:.\Generated_Source\PSoC4/Slider.c **** {	
1553:.\Generated_Source\PSoC4/Slider.c **** 	uint32 newRegValue;
1554:.\Generated_Source\PSoC4/Slider.c **** #if ((Slider_TUNING_METHOD == Slider__TUNING_AUTO) &&\
1555:.\Generated_Source\PSoC4/Slider.c **** 	 (0 != Slider_IS_OVERSAMPLING_EN))
1556:.\Generated_Source\PSoC4/Slider.c ****     uint32 oversamplingFactor;
ARM GAS  C:\Users\ELECTR~1\AppData\Local\Temp\ccbbDBvf.s 			page 42


1557:.\Generated_Source\PSoC4/Slider.c ****     uint32 widget;
1558:.\Generated_Source\PSoC4/Slider.c **** #endif /* ((Slider_TUNING_METHOD == Slider__TUNING_AUTO) &&\
1559:.\Generated_Source\PSoC4/Slider.c **** 		   (0 != Slider_IS_OVERSAMPLING_EN)) */	
1560:.\Generated_Source\PSoC4/Slider.c **** 
1561:.\Generated_Source\PSoC4/Slider.c **** 	/* `#START Slider_PostScan_Debug` */
1562:.\Generated_Source\PSoC4/Slider.c **** 
1563:.\Generated_Source\PSoC4/Slider.c **** 	/* `#END` */
1564:.\Generated_Source\PSoC4/Slider.c **** 
1565:.\Generated_Source\PSoC4/Slider.c **** 
1566:.\Generated_Source\PSoC4/Slider.c ****     /* Read SlotResult from Raw Counter */
1567:.\Generated_Source\PSoC4/Slider.c ****     Slider_sensorRaw[sensor]  = (uint16)Slider_CSD_CNT_REG;
1568:.\Generated_Source\PSoC4/Slider.c **** 	
1569:.\Generated_Source\PSoC4/Slider.c **** #if ((Slider_TUNING_METHOD == Slider__TUNING_AUTO) &&\
1570:.\Generated_Source\PSoC4/Slider.c **** 	 (0 != Slider_IS_OVERSAMPLING_EN))
1571:.\Generated_Source\PSoC4/Slider.c **** 	widget = Slider_widgetNumber[sensor];
1572:.\Generated_Source\PSoC4/Slider.c **** 	if(Slider_widgetResolution[widget] < Slider_RESOLUTION_16_BITS)
1573:.\Generated_Source\PSoC4/Slider.c **** 	{
1574:.\Generated_Source\PSoC4/Slider.c **** 		oversamplingFactor = Slider_GetBitValue(scanSpeedTbl, sensor);
1575:.\Generated_Source\PSoC4/Slider.c **** 		Slider_sensorRaw[sensor] >>= oversamplingFactor;
1576:.\Generated_Source\PSoC4/Slider.c **** 	}
1577:.\Generated_Source\PSoC4/Slider.c **** #endif /* ((Slider_TUNING_METHOD == Slider__TUNING_AUTO) &&\
1578:.\Generated_Source\PSoC4/Slider.c **** 		   (0 != Slider_IS_OVERSAMPLING_EN)) */
1579:.\Generated_Source\PSoC4/Slider.c **** 
1580:.\Generated_Source\PSoC4/Slider.c ****     /* Disable Sensor */
1581:.\Generated_Source\PSoC4/Slider.c ****     Slider_DisableScanSlot(sensor);
1582:.\Generated_Source\PSoC4/Slider.c **** 
1583:.\Generated_Source\PSoC4/Slider.c **** 	CyIntDisable(Slider_ISR_NUMBER);
1584:.\Generated_Source\PSoC4/Slider.c **** 	
1585:.\Generated_Source\PSoC4/Slider.c **** #if(Slider_CMOD_PREGARGE_OPTION == Slider__CAPPRIOBUF)
1586:.\Generated_Source\PSoC4/Slider.c **** 	newRegValue = Slider_CMOD_CONNECTION_REG;
1587:.\Generated_Source\PSoC4/Slider.c **** 	newRegValue &= ~(Slider_CSD_CMOD_CONNECTION_MASK);
1588:.\Generated_Source\PSoC4/Slider.c **** 	newRegValue |= Slider_CSD_CMOD_TO_AMUXBUS_B;
1589:.\Generated_Source\PSoC4/Slider.c **** 	Slider_CMOD_CONNECTION_REG = newRegValue;
1590:.\Generated_Source\PSoC4/Slider.c **** 	
1591:.\Generated_Source\PSoC4/Slider.c **** 	newRegValue = Slider_CMOD_PORT_PC_REG;
1592:.\Generated_Source\PSoC4/Slider.c **** 	newRegValue &= ~(Slider_CSD_CMOD_PC_MASK);
1593:.\Generated_Source\PSoC4/Slider.c **** 	newRegValue |= Slider_CMOD_PC_STRONG_MODE;
1594:.\Generated_Source\PSoC4/Slider.c **** 	Slider_CMOD_PORT_PC_REG = newRegValue;
1595:.\Generated_Source\PSoC4/Slider.c **** 		
1596:.\Generated_Source\PSoC4/Slider.c **** 	newRegValue = Slider_CMOD_PORT_DR_REG;
1597:.\Generated_Source\PSoC4/Slider.c ****     newRegValue &= ~(Slider_CMOD_DR_MASK);
1598:.\Generated_Source\PSoC4/Slider.c **** 	newRegValue |= Slider_CMOD_DR_CONFIG;
1599:.\Generated_Source\PSoC4/Slider.c ****     Slider_CMOD_PORT_DR_REG = newRegValue;    
1600:.\Generated_Source\PSoC4/Slider.c **** #endif /* (Slider_CMOD_PREGARGE_OPTION == Slider__CAPPRIOBUF) */
1601:.\Generated_Source\PSoC4/Slider.c **** 	
1602:.\Generated_Source\PSoC4/Slider.c **** 	/* Connect Vref Buffer to AMUX bus  */
1603:.\Generated_Source\PSoC4/Slider.c **** 	newRegValue = Slider_CSD_CFG_REG;
1604:.\Generated_Source\PSoC4/Slider.c **** 	newRegValue &= ~(Slider_PRECHARGE_CONFIG_MASK);
1605:.\Generated_Source\PSoC4/Slider.c **** 	newRegValue |= Slider_CMOD_PRECHARGE_CONFIG;
1606:.\Generated_Source\PSoC4/Slider.c **** 	Slider_CSD_CFG_REG = newRegValue;
1607:.\Generated_Source\PSoC4/Slider.c **** 
1608:.\Generated_Source\PSoC4/Slider.c **** 	/* Set Idac Value = 0 */
1609:.\Generated_Source\PSoC4/Slider.c **** #if (Slider_IDAC_CNT == 1u)   
1610:.\Generated_Source\PSoC4/Slider.c **** 	Slider_CSD_IDAC_REG &= ~(Slider_CSD_IDAC1_DATA_MASK);
1611:.\Generated_Source\PSoC4/Slider.c **** #else
1612:.\Generated_Source\PSoC4/Slider.c **** 	Slider_CSD_IDAC_REG &= ~(Slider_CSD_IDAC1_DATA_MASK | Slider_CSD_IDAC2_DATA_MASK);                
1613:.\Generated_Source\PSoC4/Slider.c **** #endif /* (Slider_IDAC_CNT == 1u) */
ARM GAS  C:\Users\ELECTR~1\AppData\Local\Temp\ccbbDBvf.s 			page 43


1614:.\Generated_Source\PSoC4/Slider.c **** 
1615:.\Generated_Source\PSoC4/Slider.c **** 	CyIntEnable(Slider_ISR_NUMBER);
1616:.\Generated_Source\PSoC4/Slider.c **** }
1617:.\Generated_Source\PSoC4/Slider.c **** 
1618:.\Generated_Source\PSoC4/Slider.c **** 
1619:.\Generated_Source\PSoC4/Slider.c **** /*******************************************************************************
1620:.\Generated_Source\PSoC4/Slider.c **** * Function Name: Slider_EnableShieldElectrode
1621:.\Generated_Source\PSoC4/Slider.c **** ********************************************************************************
1622:.\Generated_Source\PSoC4/Slider.c **** *
1623:.\Generated_Source\PSoC4/Slider.c **** * Summary:
1624:.\Generated_Source\PSoC4/Slider.c **** *  This API enables or disables the shield electrode on a specified port pin.
1625:.\Generated_Source\PSoC4/Slider.c **** *
1626:.\Generated_Source\PSoC4/Slider.c **** * Parameters:
1627:.\Generated_Source\PSoC4/Slider.c **** *  portNumber: contains the shield electrode port number (0, 1, 2).
1628:.\Generated_Source\PSoC4/Slider.c **** *  pinNumber: contains the shield electrode pin number (0, 1, 2, ... , 7).
1629:.\Generated_Source\PSoC4/Slider.c **** *
1630:.\Generated_Source\PSoC4/Slider.c **** * Return:
1631:.\Generated_Source\PSoC4/Slider.c **** *  None
1632:.\Generated_Source\PSoC4/Slider.c **** *
1633:.\Generated_Source\PSoC4/Slider.c **** * Global Variables:
1634:.\Generated_Source\PSoC4/Slider.c **** *  Slider_prtCfgTbl[] - Contains pointers to the port config registers for each port.
1635:.\Generated_Source\PSoC4/Slider.c **** *  Slider_prtSelTbl[] - Contains pointers to the HSIOM registers for each port.
1636:.\Generated_Source\PSoC4/Slider.c **** *
1637:.\Generated_Source\PSoC4/Slider.c **** * Side Effects: 
1638:.\Generated_Source\PSoC4/Slider.c **** *  None
1639:.\Generated_Source\PSoC4/Slider.c **** *
1640:.\Generated_Source\PSoC4/Slider.c **** *******************************************************************************/
1641:.\Generated_Source\PSoC4/Slider.c **** void Slider_EnableShieldElectrode(uint32 pinNumber, uint32 portNumber)
1642:.\Generated_Source\PSoC4/Slider.c **** {
 759              		.loc 1 1642 0
 760              		.cfi_startproc
 761              	.LVL95:
 762 0000 30B5     		push	{r4, r5, lr}
 763              		.cfi_def_cfa_offset 12
 764              		.cfi_offset 4, -12
 765              		.cfi_offset 5, -8
 766              		.cfi_offset 14, -4
1643:.\Generated_Source\PSoC4/Slider.c **** 	uint32 newRegValue;
1644:.\Generated_Source\PSoC4/Slider.c **** 	
1645:.\Generated_Source\PSoC4/Slider.c **** 	*Slider_prtCfgTbl[portNumber] &= ~(Slider_CSD_PIN_MODE_MASK << (pinNumber * Slider_PC_PIN_CFG_SIZE
 767              		.loc 1 1645 0
 768 0002 8900     		lsl	r1, r1, #2
 769              	.LVL96:
 770 0004 0A4B     		ldr	r3, .L50
 771 0006 5918     		add	r1, r3, r1
 772 0008 8D6A     		ldr	r5, [r1, #40]
 773 000a 2B68     		ldr	r3, [r5]
 774 000c 4200     		lsl	r2, r0, #1
 775 000e 1218     		add	r2, r2, r0
 776 0010 0724     		mov	r4, #7
 777 0012 9440     		lsl	r4, r4, r2
 778 0014 A343     		bic	r3, r4
 779 0016 2B60     		str	r3, [r5]
1646:.\Generated_Source\PSoC4/Slider.c **** 	newRegValue = *Slider_prtSelTbl[portNumber];
 780              		.loc 1 1646 0
 781 0018 0969     		ldr	r1, [r1, #16]
 782 001a 0B68     		ldr	r3, [r1]
ARM GAS  C:\Users\ELECTR~1\AppData\Local\Temp\ccbbDBvf.s 			page 44


 783              	.LVL97:
1647:.\Generated_Source\PSoC4/Slider.c ****     newRegValue &= ~(Slider_CSD_HSIOM_MASK << (pinNumber * Slider_HSIOM_PIN_CFG_SIZE));
 784              		.loc 1 1647 0
 785 001c 8000     		lsl	r0, r0, #2
 786              	.LVL98:
 787 001e 0F22     		mov	r2, #15
 788 0020 8240     		lsl	r2, r2, r0
 789 0022 9343     		bic	r3, r2
 790              	.LVL99:
1648:.\Generated_Source\PSoC4/Slider.c ****     newRegValue |= (Slider_CSD_SHIELD_PORT_MODE << (pinNumber * Slider_HSIOM_PIN_CFG_SIZE));
 791              		.loc 1 1648 0
 792 0024 0522     		mov	r2, #5
 793 0026 8240     		lsl	r2, r2, r0
 794 0028 101C     		mov	r0, r2
 795 002a 1843     		orr	r0, r3
 796              	.LVL100:
1649:.\Generated_Source\PSoC4/Slider.c ****     *Slider_prtSelTbl[portNumber] = newRegValue;
 797              		.loc 1 1649 0
 798 002c 0860     		str	r0, [r1]
1650:.\Generated_Source\PSoC4/Slider.c **** }
 799              		.loc 1 1650 0
 800              		@ sp needed
 801 002e 30BD     		pop	{r4, r5, pc}
 802              	.L51:
 803              		.align	2
 804              	.L50:
 805 0030 00000000 		.word	.LANCHOR2
 806              		.cfi_endproc
 807              	.LFE57:
 808              		.size	Slider_EnableShieldElectrode, .-Slider_EnableShieldElectrode
 809              		.section	.text.Slider_SetShieldDelay,"ax",%progbits
 810              		.align	2
 811              		.global	Slider_SetShieldDelay
 812              		.code	16
 813              		.thumb_func
 814              		.type	Slider_SetShieldDelay, %function
 815              	Slider_SetShieldDelay:
 816              	.LFB58:
1651:.\Generated_Source\PSoC4/Slider.c **** 
1652:.\Generated_Source\PSoC4/Slider.c **** 
1653:.\Generated_Source\PSoC4/Slider.c **** /*******************************************************************************
1654:.\Generated_Source\PSoC4/Slider.c **** * Function Name: Slider_SetShieldDelay
1655:.\Generated_Source\PSoC4/Slider.c **** ********************************************************************************
1656:.\Generated_Source\PSoC4/Slider.c **** *
1657:.\Generated_Source\PSoC4/Slider.c **** * Summary:
1658:.\Generated_Source\PSoC4/Slider.c **** *  This API sets a shield delay.
1659:.\Generated_Source\PSoC4/Slider.c **** *
1660:.\Generated_Source\PSoC4/Slider.c **** * Parameters:
1661:.\Generated_Source\PSoC4/Slider.c **** *  delay:  shield delay value:
1662:.\Generated_Source\PSoC4/Slider.c **** *                               0 - no delay
1663:.\Generated_Source\PSoC4/Slider.c **** *                               1 - 1 cycle delay
1664:.\Generated_Source\PSoC4/Slider.c **** *                               2 - 2 cycles delay
1665:.\Generated_Source\PSoC4/Slider.c **** *
1666:.\Generated_Source\PSoC4/Slider.c **** * Return:
1667:.\Generated_Source\PSoC4/Slider.c **** *  None
1668:.\Generated_Source\PSoC4/Slider.c **** *
1669:.\Generated_Source\PSoC4/Slider.c **** * Global Variables:
ARM GAS  C:\Users\ELECTR~1\AppData\Local\Temp\ccbbDBvf.s 			page 45


1670:.\Generated_Source\PSoC4/Slider.c **** *  None
1671:.\Generated_Source\PSoC4/Slider.c **** *
1672:.\Generated_Source\PSoC4/Slider.c **** * Side Effects: 
1673:.\Generated_Source\PSoC4/Slider.c **** *  None
1674:.\Generated_Source\PSoC4/Slider.c **** *
1675:.\Generated_Source\PSoC4/Slider.c **** *******************************************************************************/
1676:.\Generated_Source\PSoC4/Slider.c **** void Slider_SetShieldDelay(uint32 delay)
1677:.\Generated_Source\PSoC4/Slider.c **** {
 817              		.loc 1 1677 0
 818              		.cfi_startproc
 819              	.LVL101:
1678:.\Generated_Source\PSoC4/Slider.c ****     uint32 newRegValue;
1679:.\Generated_Source\PSoC4/Slider.c ****     
1680:.\Generated_Source\PSoC4/Slider.c ****     delay &= 0x03u;
 820              		.loc 1 1680 0
 821 0000 0323     		mov	r3, #3
 822 0002 1840     		and	r0, r3
 823              	.LVL102:
1681:.\Generated_Source\PSoC4/Slider.c ****     
1682:.\Generated_Source\PSoC4/Slider.c ****     newRegValue = Slider_CSD_CFG_REG;
 824              		.loc 1 1682 0
 825 0004 024B     		ldr	r3, .L53
 826 0006 1A68     		ldr	r2, [r3]
 827              	.LVL103:
1683:.\Generated_Source\PSoC4/Slider.c ****     newRegValue &= (uint32)(~(uint32)Slider_SHIELD_DELAY);    
1684:.\Generated_Source\PSoC4/Slider.c ****     newRegValue |= (delay << Slider_CSD_CFG_SHIELD_DELAY_POS);    
 828              		.loc 1 1684 0
 829 0008 4002     		lsl	r0, r0, #9
 830              	.LVL104:
 831 000a 1043     		orr	r0, r2
 832              	.LVL105:
1685:.\Generated_Source\PSoC4/Slider.c ****     Slider_CSD_CFG_REG = newRegValue;
 833              		.loc 1 1685 0
 834 000c 1860     		str	r0, [r3]
1686:.\Generated_Source\PSoC4/Slider.c **** }
 835              		.loc 1 1686 0
 836              		@ sp needed
 837 000e 7047     		bx	lr
 838              	.L54:
 839              		.align	2
 840              	.L53:
 841 0010 04002840 		.word	1076363268
 842              		.cfi_endproc
 843              	.LFE58:
 844              		.size	Slider_SetShieldDelay, .-Slider_SetShieldDelay
 845              		.section	.text.Slider_Init,"ax",%progbits
 846              		.align	2
 847              		.global	Slider_Init
 848              		.code	16
 849              		.thumb_func
 850              		.type	Slider_Init, %function
 851              	Slider_Init:
 852              	.LFB35:
 195:.\Generated_Source\PSoC4/Slider.c **** 	uint32 curSensor;
 853              		.loc 1 195 0
 854              		.cfi_startproc
 855 0000 08B5     		push	{r3, lr}
ARM GAS  C:\Users\ELECTR~1\AppData\Local\Temp\ccbbDBvf.s 			page 46


 856              		.cfi_def_cfa_offset 8
 857              		.cfi_offset 3, -8
 858              		.cfi_offset 14, -4
 859              	.LVL106:
 226:.\Generated_Source\PSoC4/Slider.c **** 	{
 860              		.loc 1 226 0
 861 0002 0023     		mov	r3, #0
 862 0004 03E0     		b	.L56
 863              	.LVL107:
 864              	.L57:
 228:.\Generated_Source\PSoC4/Slider.c **** 	}
 865              		.loc 1 228 0 discriminator 3
 866 0006 0021     		mov	r1, #0
 867 0008 064A     		ldr	r2, .L58
 868 000a D154     		strb	r1, [r2, r3]
 226:.\Generated_Source\PSoC4/Slider.c **** 	{
 869              		.loc 1 226 0 discriminator 3
 870 000c 0133     		add	r3, r3, #1
 871              	.LVL108:
 872              	.L56:
 226:.\Generated_Source\PSoC4/Slider.c **** 	{
 873              		.loc 1 226 0 is_stmt 0 discriminator 1
 874 000e 042B     		cmp	r3, #4
 875 0010 F9D9     		bls	.L57
 231:.\Generated_Source\PSoC4/Slider.c ****     Slider_SetShieldDelay(Slider_SHIELD_DELAY );
 876              		.loc 1 231 0 is_stmt 1
 877 0012 FFF7FEFF 		bl	Slider_CsdHwBlockInit
 878              	.LVL109:
 232:.\Generated_Source\PSoC4/Slider.c **** 	
 879              		.loc 1 232 0
 880 0016 0020     		mov	r0, #0
 881 0018 FFF7FEFF 		bl	Slider_SetShieldDelay
 882              	.LVL110:
 235:.\Generated_Source\PSoC4/Slider.c **** }
 883              		.loc 1 235 0
 884 001c FFF7FEFF 		bl	Slider_ClearSensors
 885              	.LVL111:
 236:.\Generated_Source\PSoC4/Slider.c **** 
 886              		.loc 1 236 0
 887              		@ sp needed
 888 0020 08BD     		pop	{r3, pc}
 889              	.L59:
 890 0022 C046     		.align	2
 891              	.L58:
 892 0024 00000000 		.word	Slider_unscannedSnsDriveMode
 893              		.cfi_endproc
 894              	.LFE35:
 895              		.size	Slider_Init, .-Slider_Init
 896              		.section	.text.Slider_Start,"ax",%progbits
 897              		.align	2
 898              		.global	Slider_Start
 899              		.code	16
 900              		.thumb_func
 901              		.type	Slider_Start, %function
 902              	Slider_Start:
 903              	.LFB38:
 404:.\Generated_Source\PSoC4/Slider.c **** 
ARM GAS  C:\Users\ELECTR~1\AppData\Local\Temp\ccbbDBvf.s 			page 47


 904              		.loc 1 404 0
 905              		.cfi_startproc
 906 0000 08B5     		push	{r3, lr}
 907              		.cfi_def_cfa_offset 8
 908              		.cfi_offset 3, -8
 909              		.cfi_offset 14, -4
 414:.\Generated_Source\PSoC4/Slider.c ****     {
 910              		.loc 1 414 0
 911 0002 0B4B     		ldr	r3, .L62
 912 0004 9B7B     		ldrb	r3, [r3, #14]
 913 0006 002B     		cmp	r3, #0
 914 0008 04D1     		bne	.L61
 416:.\Generated_Source\PSoC4/Slider.c ****         Slider_initVar = 1u;
 915              		.loc 1 416 0
 916 000a FFF7FEFF 		bl	Slider_Init
 917              	.LVL112:
 417:.\Generated_Source\PSoC4/Slider.c ****     }
 918              		.loc 1 417 0
 919 000e 0122     		mov	r2, #1
 920 0010 074B     		ldr	r3, .L62
 921 0012 9A73     		strb	r2, [r3, #14]
 922              	.L61:
 419:.\Generated_Source\PSoC4/Slider.c **** 	
 923              		.loc 1 419 0
 924 0014 FFF7FEFF 		bl	Slider_Enable
 925              	.LVL113:
 424:.\Generated_Source\PSoC4/Slider.c **** 	        Slider_lowLevelTuningDone = 1u;
 926              		.loc 1 424 0
 927 0018 FFF7FEFF 		bl	Slider_AutoTune
 928              	.LVL114:
 425:.\Generated_Source\PSoC4/Slider.c **** 		#endif /* (0u != Slider_CSHL_API_GENERATE) */
 929              		.loc 1 425 0
 930 001c 0122     		mov	r2, #1
 931 001e 044B     		ldr	r3, .L62
 932 0020 DA73     		strb	r2, [r3, #15]
 468:.\Generated_Source\PSoC4/Slider.c **** }
 933              		.loc 1 468 0
 934 0022 044A     		ldr	r2, .L62+4
 935 0024 1368     		ldr	r3, [r2]
 936 0026 8021     		mov	r1, #128
 937 0028 C903     		lsl	r1, r1, #15
 938 002a 0B43     		orr	r3, r1
 939 002c 1360     		str	r3, [r2]
 469:.\Generated_Source\PSoC4/Slider.c **** 
 940              		.loc 1 469 0
 941              		@ sp needed
 942 002e 08BD     		pop	{r3, pc}
 943              	.L63:
 944              		.align	2
 945              	.L62:
 946 0030 00000000 		.word	.LANCHOR0
 947 0034 04002840 		.word	1076363268
 948              		.cfi_endproc
 949              	.LFE38:
 950              		.size	Slider_Start, .-Slider_Start
 951              		.section	.text.Slider_ReadCurrentScanningSensor,"ax",%progbits
 952              		.align	2
ARM GAS  C:\Users\ELECTR~1\AppData\Local\Temp\ccbbDBvf.s 			page 48


 953              		.global	Slider_ReadCurrentScanningSensor
 954              		.code	16
 955              		.thumb_func
 956              		.type	Slider_ReadCurrentScanningSensor, %function
 957              	Slider_ReadCurrentScanningSensor:
 958              	.LFB59:
1687:.\Generated_Source\PSoC4/Slider.c **** 
1688:.\Generated_Source\PSoC4/Slider.c **** 
1689:.\Generated_Source\PSoC4/Slider.c **** /*******************************************************************************
1690:.\Generated_Source\PSoC4/Slider.c **** * Function Name: Slider_ReadCurrentScanningSensor
1691:.\Generated_Source\PSoC4/Slider.c **** ********************************************************************************
1692:.\Generated_Source\PSoC4/Slider.c **** *
1693:.\Generated_Source\PSoC4/Slider.c **** * Summary:
1694:.\Generated_Source\PSoC4/Slider.c **** *  This API returns scanning sensor number when sensor scan is in progress. 
1695:.\Generated_Source\PSoC4/Slider.c **** *  When sensor scan is completed the API returns 
1696:.\Generated_Source\PSoC4/Slider.c **** *  $INSTANCE_NAME`_NOT_SENSOR (0xFFFFFFFF) (when no sensor is scanned).
1697:.\Generated_Source\PSoC4/Slider.c **** *
1698:.\Generated_Source\PSoC4/Slider.c **** * Parameters:
1699:.\Generated_Source\PSoC4/Slider.c **** *	None.
1700:.\Generated_Source\PSoC4/Slider.c **** *
1701:.\Generated_Source\PSoC4/Slider.c **** * Return:
1702:.\Generated_Source\PSoC4/Slider.c **** *  Returns Sensor number if sensor is being scanned and 
1703:.\Generated_Source\PSoC4/Slider.c **** *  $INSTANCE_NAME`_NOT_SENSOR (0xFFFFFFFF) if scanning is complete.
1704:.\Generated_Source\PSoC4/Slider.c **** *
1705:.\Generated_Source\PSoC4/Slider.c **** * Global Variables:
1706:.\Generated_Source\PSoC4/Slider.c **** *  Slider_sensorIndex - the sensor number is being scanned.
1707:.\Generated_Source\PSoC4/Slider.c **** *
1708:.\Generated_Source\PSoC4/Slider.c **** * Side Effects: 
1709:.\Generated_Source\PSoC4/Slider.c **** *  None
1710:.\Generated_Source\PSoC4/Slider.c **** *
1711:.\Generated_Source\PSoC4/Slider.c **** *******************************************************************************/
1712:.\Generated_Source\PSoC4/Slider.c **** uint32 Slider_ReadCurrentScanningSensor(void)
1713:.\Generated_Source\PSoC4/Slider.c **** {
 959              		.loc 1 1713 0
 960              		.cfi_startproc
1714:.\Generated_Source\PSoC4/Slider.c ****     return ((uint32)(( 0u != (Slider_csdStatusVar & Slider_SW_STS_BUSY)) ? 
 961              		.loc 1 1714 0
 962 0000 054B     		ldr	r3, .L67
 963 0002 1B78     		ldrb	r3, [r3]
 964 0004 DB07     		lsl	r3, r3, #31
 965 0006 03D5     		bpl	.L66
 966              		.loc 1 1714 0 is_stmt 0 discriminator 1
 967 0008 034B     		ldr	r3, .L67
 968 000a 187C     		ldrb	r0, [r3, #16]
 969 000c C0B2     		uxtb	r0, r0
 970 000e 01E0     		b	.L65
 971              	.L66:
 972              		.loc 1 1714 0
 973 0010 0120     		mov	r0, #1
 974 0012 4042     		neg	r0, r0
 975              	.L65:
1715:.\Generated_Source\PSoC4/Slider.c ****                      Slider_sensorIndex : Slider_NOT_SENSOR));
1716:.\Generated_Source\PSoC4/Slider.c **** }
 976              		.loc 1 1716 0 is_stmt 1 discriminator 4
 977              		@ sp needed
 978 0014 7047     		bx	lr
 979              	.L68:
ARM GAS  C:\Users\ELECTR~1\AppData\Local\Temp\ccbbDBvf.s 			page 49


 980 0016 C046     		.align	2
 981              	.L67:
 982 0018 00000000 		.word	.LANCHOR0
 983              		.cfi_endproc
 984              	.LFE59:
 985              		.size	Slider_ReadCurrentScanningSensor, .-Slider_ReadCurrentScanningSensor
 986              		.section	.text.Slider_GetBitValue,"ax",%progbits
 987              		.align	2
 988              		.global	Slider_GetBitValue
 989              		.code	16
 990              		.thumb_func
 991              		.type	Slider_GetBitValue, %function
 992              	Slider_GetBitValue:
 993              	.LFB60:
1717:.\Generated_Source\PSoC4/Slider.c **** 
1718:.\Generated_Source\PSoC4/Slider.c **** 
1719:.\Generated_Source\PSoC4/Slider.c **** /*******************************************************************************
1720:.\Generated_Source\PSoC4/Slider.c **** * Function Name: Slider_GetBitValue
1721:.\Generated_Source\PSoC4/Slider.c **** ********************************************************************************
1722:.\Generated_Source\PSoC4/Slider.c **** *
1723:.\Generated_Source\PSoC4/Slider.c **** * Summary:
1724:.\Generated_Source\PSoC4/Slider.c **** *  The API returns a bit status of the bit in the table array which contains the masks.
1725:.\Generated_Source\PSoC4/Slider.c **** * 
1726:.\Generated_Source\PSoC4/Slider.c **** * Parameters:
1727:.\Generated_Source\PSoC4/Slider.c **** *  table[] - array with bit masks.
1728:.\Generated_Source\PSoC4/Slider.c **** *  position - position of bit in the table[] array.
1729:.\Generated_Source\PSoC4/Slider.c **** *
1730:.\Generated_Source\PSoC4/Slider.c **** * Return:
1731:.\Generated_Source\PSoC4/Slider.c **** *  0 - bit is not set; 1 - bit is set.
1732:.\Generated_Source\PSoC4/Slider.c **** *
1733:.\Generated_Source\PSoC4/Slider.c **** * Global Variables:
1734:.\Generated_Source\PSoC4/Slider.c **** *  None
1735:.\Generated_Source\PSoC4/Slider.c **** *
1736:.\Generated_Source\PSoC4/Slider.c **** * Side Effects:
1737:.\Generated_Source\PSoC4/Slider.c **** *  None
1738:.\Generated_Source\PSoC4/Slider.c **** *
1739:.\Generated_Source\PSoC4/Slider.c **** *******************************************************************************/
1740:.\Generated_Source\PSoC4/Slider.c **** uint32 Slider_GetBitValue(const uint8 table[], uint32 position)
1741:.\Generated_Source\PSoC4/Slider.c **** {
 994              		.loc 1 1741 0
 995              		.cfi_startproc
 996              	.LVL115:
1742:.\Generated_Source\PSoC4/Slider.c ****     uint32 offset;
1743:.\Generated_Source\PSoC4/Slider.c **** 	uint8 enMask;
1744:.\Generated_Source\PSoC4/Slider.c **** 	
1745:.\Generated_Source\PSoC4/Slider.c **** 	/* position is divided by 8 to calculate the element of the 
1746:.\Generated_Source\PSoC4/Slider.c **** 	   table[] array that contains the enable bit 
1747:.\Generated_Source\PSoC4/Slider.c **** 	   for an appropriate sensor.
1748:.\Generated_Source\PSoC4/Slider.c **** 	*/
1749:.\Generated_Source\PSoC4/Slider.c **** 	offset = (position >> 3u);
 997              		.loc 1 1749 0
 998 0000 CA08     		lsr	r2, r1, #3
 999              	.LVL116:
1750:.\Generated_Source\PSoC4/Slider.c **** 	
1751:.\Generated_Source\PSoC4/Slider.c **** 	/* The enMask calculation for the appropriate sensor. Operation (position & 0x07u) 
1752:.\Generated_Source\PSoC4/Slider.c **** 	   intends to calculate the enable bit offset for the 8-bit element of the 
1753:.\Generated_Source\PSoC4/Slider.c **** 	   table[] array.
ARM GAS  C:\Users\ELECTR~1\AppData\Local\Temp\ccbbDBvf.s 			page 50


1754:.\Generated_Source\PSoC4/Slider.c **** 	*/
1755:.\Generated_Source\PSoC4/Slider.c **** 	enMask = 0x01u << (position & 0x07u);
 1000              		.loc 1 1755 0
 1001 0002 0723     		mov	r3, #7
 1002 0004 1940     		and	r1, r3
 1003              	.LVL117:
 1004 0006 063B     		sub	r3, r3, #6
 1005 0008 8B40     		lsl	r3, r3, r1
 1006 000a 191C     		mov	r1, r3
 1007              	.LVL118:
1756:.\Generated_Source\PSoC4/Slider.c ****     
1757:.\Generated_Source\PSoC4/Slider.c ****     return ((0u !=(table[offset] & enMask)) ? 1Lu : 0Lu);
 1008              		.loc 1 1757 0
 1009 000c 835C     		ldrb	r3, [r0, r2]
 1010 000e 1942     		tst	r1, r3
 1011 0010 01D0     		beq	.L71
 1012 0012 0120     		mov	r0, #1
 1013              	.LVL119:
 1014 0014 00E0     		b	.L70
 1015              	.LVL120:
 1016              	.L71:
 1017 0016 0020     		mov	r0, #0
 1018              	.LVL121:
 1019              	.L70:
1758:.\Generated_Source\PSoC4/Slider.c **** }
 1020              		.loc 1 1758 0 discriminator 4
 1021              		@ sp needed
 1022 0018 7047     		bx	lr
 1023              		.cfi_endproc
 1024              	.LFE60:
 1025              		.size	Slider_GetBitValue, .-Slider_GetBitValue
 1026 001a C046     		.section	.text.Slider_FindNextSensor,"ax",%progbits
 1027              		.align	2
 1028              		.global	Slider_FindNextSensor
 1029              		.code	16
 1030              		.thumb_func
 1031              		.type	Slider_FindNextSensor, %function
 1032              	Slider_FindNextSensor:
 1033              	.LFB40:
 534:.\Generated_Source\PSoC4/Slider.c ****     uint32 enableFlag;
 1034              		.loc 1 534 0
 1035              		.cfi_startproc
 1036              	.LVL122:
 1037 0000 10B5     		push	{r4, lr}
 1038              		.cfi_def_cfa_offset 8
 1039              		.cfi_offset 4, -8
 1040              		.cfi_offset 14, -4
 1041 0002 041C     		mov	r4, r0
 1042              	.LVL123:
 1043              	.L74:
 541:.\Generated_Source\PSoC4/Slider.c ****         if(snsIndex == Slider_TOTAL_SENSOR_COUNT)
 1044              		.loc 1 541 0
 1045 0004 0134     		add	r4, r4, #1
 1046              	.LVL124:
 1047 0006 E4B2     		uxtb	r4, r4
 1048              	.LVL125:
 542:.\Generated_Source\PSoC4/Slider.c ****         {
ARM GAS  C:\Users\ELECTR~1\AppData\Local\Temp\ccbbDBvf.s 			page 51


 1049              		.loc 1 542 0
 1050 0008 052C     		cmp	r4, #5
 1051 000a 06D0     		beq	.L73
 546:.\Generated_Source\PSoC4/Slider.c ****     }    
 1052              		.loc 1 546 0
 1053 000c 0448     		ldr	r0, .L75
 1054 000e 0430     		add	r0, r0, #4
 1055 0010 211C     		mov	r1, r4
 1056 0012 FFF7FEFF 		bl	Slider_GetBitValue
 1057              	.LVL126:
 548:.\Generated_Source\PSoC4/Slider.c ****     
 1058              		.loc 1 548 0
 1059 0016 0028     		cmp	r0, #0
 1060 0018 F4D0     		beq	.L74
 1061              	.LVL127:
 1062              	.L73:
 551:.\Generated_Source\PSoC4/Slider.c **** 
 1063              		.loc 1 551 0
 1064 001a 201C     		mov	r0, r4
 1065              		@ sp needed
 1066              	.LVL128:
 1067 001c 10BD     		pop	{r4, pc}
 1068              	.L76:
 1069 001e C046     		.align	2
 1070              	.L75:
 1071 0020 00000000 		.word	.LANCHOR1
 1072              		.cfi_endproc
 1073              	.LFE40:
 1074              		.size	Slider_FindNextSensor, .-Slider_FindNextSensor
 1075              		.section	.text.Slider_PreScan,"ax",%progbits
 1076              		.align	2
 1077              		.global	Slider_PreScan
 1078              		.code	16
 1079              		.thumb_func
 1080              		.type	Slider_PreScan, %function
 1081              	Slider_PreScan:
 1082              	.LFB55:
1363:.\Generated_Source\PSoC4/Slider.c ****     uint8 widget;
 1083              		.loc 1 1363 0
 1084              		.cfi_startproc
 1085              	.LVL129:
 1086 0000 F8B5     		push	{r3, r4, r5, r6, r7, lr}
 1087              		.cfi_def_cfa_offset 24
 1088              		.cfi_offset 3, -24
 1089              		.cfi_offset 4, -20
 1090              		.cfi_offset 5, -16
 1091              		.cfi_offset 6, -12
 1092              		.cfi_offset 7, -8
 1093              		.cfi_offset 14, -4
 1094 0002 041C     		mov	r4, r0
1381:.\Generated_Source\PSoC4/Slider.c **** 
 1095              		.loc 1 1381 0
 1096 0004 324B     		ldr	r3, .L80
 1097 0006 5833     		add	r3, r3, #88
 1098 0008 1B5C     		ldrb	r3, [r3, r0]
 1099              	.LVL130:
1384:.\Generated_Source\PSoC4/Slider.c **** 	
ARM GAS  C:\Users\ELECTR~1\AppData\Local\Temp\ccbbDBvf.s 			page 52


 1100              		.loc 1 1384 0
 1101 000a 9B00     		lsl	r3, r3, #2
 1102              	.LVL131:
 1103 000c 314A     		ldr	r2, .L80+4
 1104 000e 9E58     		ldr	r6, [r3, r2]
 1105              	.LVL132:
1388:.\Generated_Source\PSoC4/Slider.c **** 
 1106              		.loc 1 1388 0
 1107 0010 3148     		ldr	r0, .L80+8
 1108              	.LVL133:
 1109 0012 211C     		mov	r1, r4
 1110 0014 FFF7FEFF 		bl	Slider_GetBitValue
 1111              	.LVL134:
1390:.\Generated_Source\PSoC4/Slider.c **** 		{
 1112              		.loc 1 1390 0
 1113 0018 304B     		ldr	r3, .L80+12
 1114 001a 9E42     		cmp	r6, r3
 1115 001c 03D8     		bhi	.L78
1392:.\Generated_Source\PSoC4/Slider.c **** 			counterResolution |= (uint32)(Slider_RESOLUTION_8_BITS);
 1116              		.loc 1 1392 0
 1117 001e 8640     		lsl	r6, r6, r0
 1118              	.LVL135:
1393:.\Generated_Source\PSoC4/Slider.c **** 		}
 1119              		.loc 1 1393 0
 1120 0020 FF20     		mov	r0, #255
 1121              	.LVL136:
 1122 0022 0004     		lsl	r0, r0, #16
 1123 0024 0643     		orr	r6, r0
 1124              	.LVL137:
 1125              	.L78:
1399:.\Generated_Source\PSoC4/Slider.c **** 		Slider_SampleClk_Stop();
 1126              		.loc 1 1399 0
 1127 0026 FFF7FEFF 		bl	Slider_SenseClk_Stop
 1128              	.LVL138:
1400:.\Generated_Source\PSoC4/Slider.c **** 	#endif /* (0u != Slider_IS_M0S8PERI_BLOCK) */
 1129              		.loc 1 1400 0
 1130 002a FFF7FEFF 		bl	Slider_SampleClk_Stop
 1131              	.LVL139:
1404:.\Generated_Source\PSoC4/Slider.c **** 		Slider_SenseClk_SetDividerValue((uint16)Slider_senseClkDividerVal[sensor]);
 1132              		.loc 1 1404 0
 1133 002e 2C4B     		ldr	r3, .L80+16
 1134 0030 185D     		ldrb	r0, [r3, r4]
 1135 0032 0138     		sub	r0, r0, #1
 1136 0034 80B2     		uxth	r0, r0
 1137 0036 0021     		mov	r1, #0
 1138 0038 FFF7FEFF 		bl	Slider_SampleClk_SetFractionalDividerRegister
 1139              	.LVL140:
1405:.\Generated_Source\PSoC4/Slider.c **** 	#else
 1140              		.loc 1 1405 0
 1141 003c 294B     		ldr	r3, .L80+20
 1142 003e 185D     		ldrb	r0, [r3, r4]
 1143 0040 0138     		sub	r0, r0, #1
 1144 0042 80B2     		uxth	r0, r0
 1145 0044 0021     		mov	r1, #0
 1146 0046 FFF7FEFF 		bl	Slider_SenseClk_SetFractionalDividerRegister
 1147              	.LVL141:
1412:.\Generated_Source\PSoC4/Slider.c **** 		Slider_SenseClk_StartEx(Slider_SampleClk__DIV_ID);
ARM GAS  C:\Users\ELECTR~1\AppData\Local\Temp\ccbbDBvf.s 			page 53


 1148              		.loc 1 1412 0
 1149 004a FF20     		mov	r0, #255
 1150 004c FFF7FEFF 		bl	Slider_SampleClk_StartEx
 1151              	.LVL142:
1413:.\Generated_Source\PSoC4/Slider.c **** 		
 1152              		.loc 1 1413 0
 1153 0050 4020     		mov	r0, #64
 1154 0052 FFF7FEFF 		bl	Slider_SenseClk_StartEx
 1155              	.LVL143:
1416:.\Generated_Source\PSoC4/Slider.c **** 			Slider_CSD_CNT_REG = Slider_ONE_CYCLE;
 1156              		.loc 1 1416 0
 1157 0056 1020     		mov	r0, #16
 1158 0058 FFF7FEFF 		bl	CyIntDisable
 1159              	.LVL144:
1417:.\Generated_Source\PSoC4/Slider.c **** 			while(0u != (Slider_CSD_CNT_REG & Slider_RESOLUTION_16_BITS))
 1160              		.loc 1 1417 0
 1161 005c 8022     		mov	r2, #128
 1162 005e 5202     		lsl	r2, r2, #9
 1163 0060 214B     		ldr	r3, .L80+24
 1164 0062 1A60     		str	r2, [r3]
 1165              	.L79:
1418:.\Generated_Source\PSoC4/Slider.c **** 			{
 1166              		.loc 1 1418 0 discriminator 1
 1167 0064 204B     		ldr	r3, .L80+24
 1168 0066 1B68     		ldr	r3, [r3]
 1169 0068 1B0C     		lsr	r3, r3, #16
 1170 006a FBD1     		bne	.L79
1422:.\Generated_Source\PSoC4/Slider.c **** 			CyIntClearPending(Slider_ISR_NUMBER);
 1171              		.loc 1 1422 0
 1172 006c 0122     		mov	r2, #1
 1173 006e 1F4B     		ldr	r3, .L80+28
 1174 0070 1A60     		str	r2, [r3]
1423:.\Generated_Source\PSoC4/Slider.c **** 			CyIntEnable(Slider_ISR_NUMBER); 
 1175              		.loc 1 1423 0
 1176 0072 1020     		mov	r0, #16
 1177 0074 FFF7FEFF 		bl	CyIntClearPending
 1178              	.LVL145:
1424:.\Generated_Source\PSoC4/Slider.c **** 		#endif /* Slider_PRS_OPTIONS == Slider__PRS_NONE */
 1179              		.loc 1 1424 0
 1180 0078 1020     		mov	r0, #16
 1181 007a FFF7FEFF 		bl	CyIntEnable
 1182              	.LVL146:
1474:.\Generated_Source\PSoC4/Slider.c ****     newRegValue = Slider_CSD_IDAC_REG;
 1183              		.loc 1 1474 0
 1184 007e 1020     		mov	r0, #16
 1185 0080 FFF7FEFF 		bl	CyIntDisable
 1186              	.LVL147:
1475:.\Generated_Source\PSoC4/Slider.c ****  
 1187              		.loc 1 1475 0
 1188 0084 1A49     		ldr	r1, .L80+32
 1189 0086 0A68     		ldr	r2, [r1]
 1190              	.LVL148:
1481:.\Generated_Source\PSoC4/Slider.c **** 	newRegValue |= (Slider_modulationIDAC[sensor] | 
 1191              		.loc 1 1481 0
 1192 0088 1A4B     		ldr	r3, .L80+36
 1193 008a 1A40     		and	r2, r3
 1194              	.LVL149:
ARM GAS  C:\Users\ELECTR~1\AppData\Local\Temp\ccbbDBvf.s 			page 54


1482:.\Generated_Source\PSoC4/Slider.c **** 							(uint32)((uint32)Slider_compensationIDAC[sensor] <<
 1195              		.loc 1 1482 0
 1196 008c 1A4B     		ldr	r3, .L80+40
 1197 008e 185D     		ldrb	r0, [r3, r4]
1483:.\Generated_Source\PSoC4/Slider.c **** 							Slider_CSD_IDAC2_DATA_OFFSET));                               
 1198              		.loc 1 1483 0
 1199 0090 1A4B     		ldr	r3, .L80+44
 1200 0092 1B5D     		ldrb	r3, [r3, r4]
 1201 0094 1B04     		lsl	r3, r3, #16
1482:.\Generated_Source\PSoC4/Slider.c **** 							(uint32)((uint32)Slider_compensationIDAC[sensor] <<
 1202              		.loc 1 1482 0
 1203 0096 0343     		orr	r3, r0
 1204 0098 1343     		orr	r3, r2
 1205              	.LVL150:
1487:.\Generated_Source\PSoC4/Slider.c **** 
 1206              		.loc 1 1487 0
 1207 009a 0B60     		str	r3, [r1]
1502:.\Generated_Source\PSoC4/Slider.c **** 	newRegValue &= ~(Slider_PRECHARGE_CONFIG_MASK);
 1208              		.loc 1 1502 0
 1209 009c 184F     		ldr	r7, .L80+48
 1210 009e 3D68     		ldr	r5, [r7]
 1211              	.LVL151:
1503:.\Generated_Source\PSoC4/Slider.c **** 	newRegValue |= Slider_CTANK_PRECHARGE_CONFIG;
 1212              		.loc 1 1503 0
 1213 00a0 184B     		ldr	r3, .L80+52
 1214 00a2 1D40     		and	r5, r3
 1215              	.LVL152:
1504:.\Generated_Source\PSoC4/Slider.c **** 	
 1216              		.loc 1 1504 0
 1217 00a4 184B     		ldr	r3, .L80+56
 1218 00a6 1D43     		orr	r5, r3
 1219              	.LVL153:
1506:.\Generated_Source\PSoC4/Slider.c **** 	
 1220              		.loc 1 1506 0
 1221 00a8 1020     		mov	r0, #16
 1222 00aa FFF7FEFF 		bl	CyIntEnable
 1223              	.LVL154:
1509:.\Generated_Source\PSoC4/Slider.c ****     
 1224              		.loc 1 1509 0
 1225 00ae 201C     		mov	r0, r4
 1226 00b0 FFF7FEFF 		bl	Slider_EnableSensor
 1227              	.LVL155:
1511:.\Generated_Source\PSoC4/Slider.c **** 	Slider_CSD_CFG_REG = newRegValue;
 1228              		.loc 1 1511 0
 1229 00b4 FFF7FEFF 		bl	CyEnterCriticalSection
 1230              	.LVL156:
 1231 00b8 041C     		mov	r4, r0
 1232              	.LVL157:
1512:.\Generated_Source\PSoC4/Slider.c **** 	
 1233              		.loc 1 1512 0
 1234 00ba 3D60     		str	r5, [r7]
1518:.\Generated_Source\PSoC4/Slider.c **** 	
 1235              		.loc 1 1518 0
 1236 00bc 0020     		mov	r0, #0
 1237 00be FFF7FEFF 		bl	CyDelayCycles
 1238              	.LVL158:
1524:.\Generated_Source\PSoC4/Slider.c ****     CyExitCriticalSection(interruptState);
ARM GAS  C:\Users\ELECTR~1\AppData\Local\Temp\ccbbDBvf.s 			page 55


 1239              		.loc 1 1524 0
 1240 00c2 094B     		ldr	r3, .L80+24
 1241 00c4 1E60     		str	r6, [r3]
1525:.\Generated_Source\PSoC4/Slider.c **** }
 1242              		.loc 1 1525 0
 1243 00c6 201C     		mov	r0, r4
 1244 00c8 FFF7FEFF 		bl	CyExitCriticalSection
 1245              	.LVL159:
1526:.\Generated_Source\PSoC4/Slider.c **** 
 1246              		.loc 1 1526 0
 1247              		@ sp needed
 1248              	.LVL160:
 1249              	.LVL161:
 1250              	.LVL162:
 1251 00cc F8BD     		pop	{r3, r4, r5, r6, r7, pc}
 1252              	.L81:
 1253 00ce C046     		.align	2
 1254              	.L80:
 1255 00d0 00000000 		.word	.LANCHOR2
 1256 00d4 00000000 		.word	.LANCHOR1
 1257 00d8 00000000 		.word	scanSpeedTbl
 1258 00dc FFFFFEFF 		.word	-65537
 1259 00e0 00000000 		.word	Slider_sampleClkDividerVal
 1260 00e4 00000000 		.word	Slider_senseClkDividerVal
 1261 00e8 0C002840 		.word	1076363276
 1262 00ec 14002840 		.word	1076363284
 1263 00f0 08002840 		.word	1076363272
 1264 00f4 00FF80FF 		.word	-8323328
 1265 00f8 00000000 		.word	Slider_modulationIDAC
 1266 00fc 00000000 		.word	Slider_compensationIDAC
 1267 0100 04002840 		.word	1076363268
 1268 0104 FF1FDFFF 		.word	-2154497
 1269 0108 20E02000 		.word	2154528
 1270              		.cfi_endproc
 1271              	.LFE55:
 1272              		.size	Slider_PreScan, .-Slider_PreScan
 1273              		.section	.text.Slider_ScanSensor,"ax",%progbits
 1274              		.align	2
 1275              		.global	Slider_ScanSensor
 1276              		.code	16
 1277              		.thumb_func
 1278              		.type	Slider_ScanSensor, %function
 1279              	Slider_ScanSensor:
 1280              	.LFB41:
 582:.\Generated_Source\PSoC4/Slider.c ****     /* Clears status/control variable and set sensorIndex */
 1281              		.loc 1 582 0
 1282              		.cfi_startproc
 1283              	.LVL163:
 1284 0000 08B5     		push	{r3, lr}
 1285              		.cfi_def_cfa_offset 8
 1286              		.cfi_offset 3, -8
 1287              		.cfi_offset 14, -4
 584:.\Generated_Source\PSoC4/Slider.c ****     Slider_sensorIndex = (uint8)sensor;
 1288              		.loc 1 584 0
 1289 0002 054B     		ldr	r3, .L83
 1290 0004 0022     		mov	r2, #0
 1291 0006 1A70     		strb	r2, [r3]
ARM GAS  C:\Users\ELECTR~1\AppData\Local\Temp\ccbbDBvf.s 			page 56


 585:.\Generated_Source\PSoC4/Slider.c ****     
 1292              		.loc 1 585 0
 1293 0008 C2B2     		uxtb	r2, r0
 1294 000a 1A74     		strb	r2, [r3, #16]
 588:.\Generated_Source\PSoC4/Slider.c ****     Slider_PreScan(sensor);
 1295              		.loc 1 588 0
 1296 000c 8122     		mov	r2, #129
 1297 000e 1A70     		strb	r2, [r3]
 589:.\Generated_Source\PSoC4/Slider.c **** }
 1298              		.loc 1 589 0
 1299 0010 FFF7FEFF 		bl	Slider_PreScan
 1300              	.LVL164:
 590:.\Generated_Source\PSoC4/Slider.c **** 
 1301              		.loc 1 590 0
 1302              		@ sp needed
 1303 0014 08BD     		pop	{r3, pc}
 1304              	.L84:
 1305 0016 C046     		.align	2
 1306              	.L83:
 1307 0018 00000000 		.word	.LANCHOR0
 1308              		.cfi_endproc
 1309              	.LFE41:
 1310              		.size	Slider_ScanSensor, .-Slider_ScanSensor
 1311              		.section	.text.Slider_ScanEnabledWidgets,"ax",%progbits
 1312              		.align	2
 1313              		.global	Slider_ScanEnabledWidgets
 1314              		.code	16
 1315              		.thumb_func
 1316              		.type	Slider_ScanEnabledWidgets, %function
 1317              	Slider_ScanEnabledWidgets:
 1318              	.LFB43:
 706:.\Generated_Source\PSoC4/Slider.c ****     /* Clears status/control variable and set sensorIndex */
 1319              		.loc 1 706 0
 1320              		.cfi_startproc
 1321 0000 10B5     		push	{r4, lr}
 1322              		.cfi_def_cfa_offset 8
 1323              		.cfi_offset 4, -8
 1324              		.cfi_offset 14, -4
 708:.\Generated_Source\PSoC4/Slider.c ****     Slider_sensorIndex = 0xFFu;
 1325              		.loc 1 708 0
 1326 0002 0B4C     		ldr	r4, .L87
 1327 0004 0023     		mov	r3, #0
 1328 0006 2370     		strb	r3, [r4]
 709:.\Generated_Source\PSoC4/Slider.c ****     
 1329              		.loc 1 709 0
 1330 0008 FF33     		add	r3, r3, #255
 1331 000a 2374     		strb	r3, [r4, #16]
 712:.\Generated_Source\PSoC4/Slider.c **** 
 1332              		.loc 1 712 0
 1333 000c 207C     		ldrb	r0, [r4, #16]
 1334 000e C0B2     		uxtb	r0, r0
 1335 0010 FFF7FEFF 		bl	Slider_FindNextSensor
 1336              	.LVL165:
 1337 0014 2074     		strb	r0, [r4, #16]
 715:.\Generated_Source\PSoC4/Slider.c ****     {
 1338              		.loc 1 715 0
 1339 0016 237C     		ldrb	r3, [r4, #16]
ARM GAS  C:\Users\ELECTR~1\AppData\Local\Temp\ccbbDBvf.s 			page 57


 1340 0018 DBB2     		uxtb	r3, r3
 1341 001a 042B     		cmp	r3, #4
 1342 001c 07D8     		bhi	.L85
 717:.\Generated_Source\PSoC4/Slider.c ****         Slider_PreScan((uint32)Slider_sensorIndex);
 1343              		.loc 1 717 0
 1344 001e 2178     		ldrb	r1, [r4]
 1345 0020 0122     		mov	r2, #1
 1346 0022 0A43     		orr	r2, r1
 1347 0024 2270     		strb	r2, [r4]
 718:.\Generated_Source\PSoC4/Slider.c ****     }
 1348              		.loc 1 718 0
 1349 0026 207C     		ldrb	r0, [r4, #16]
 1350 0028 C0B2     		uxtb	r0, r0
 1351 002a FFF7FEFF 		bl	Slider_PreScan
 1352              	.LVL166:
 1353              	.L85:
 720:.\Generated_Source\PSoC4/Slider.c **** 
 1354              		.loc 1 720 0
 1355              		@ sp needed
 1356 002e 10BD     		pop	{r4, pc}
 1357              	.L88:
 1358              		.align	2
 1359              	.L87:
 1360 0030 00000000 		.word	.LANCHOR0
 1361              		.cfi_endproc
 1362              	.LFE43:
 1363              		.size	Slider_ScanEnabledWidgets, .-Slider_ScanEnabledWidgets
 1364              		.section	.text.Slider_PostScan,"ax",%progbits
 1365              		.align	2
 1366              		.global	Slider_PostScan
 1367              		.code	16
 1368              		.thumb_func
 1369              		.type	Slider_PostScan, %function
 1370              	Slider_PostScan:
 1371              	.LFB56:
1552:.\Generated_Source\PSoC4/Slider.c **** 	uint32 newRegValue;
 1372              		.loc 1 1552 0
 1373              		.cfi_startproc
 1374              	.LVL167:
 1375 0000 38B5     		push	{r3, r4, r5, lr}
 1376              		.cfi_def_cfa_offset 16
 1377              		.cfi_offset 3, -16
 1378              		.cfi_offset 4, -12
 1379              		.cfi_offset 5, -8
 1380              		.cfi_offset 14, -4
 1381 0002 051C     		mov	r5, r0
1567:.\Generated_Source\PSoC4/Slider.c **** 	
 1382              		.loc 1 1567 0
 1383 0004 174B     		ldr	r3, .L91
 1384 0006 1C68     		ldr	r4, [r3]
 1385 0008 A4B2     		uxth	r4, r4
 1386 000a 4300     		lsl	r3, r0, #1
 1387 000c 164A     		ldr	r2, .L91+4
 1388 000e D318     		add	r3, r2, r3
 1389 0010 9C80     		strh	r4, [r3, #4]
1571:.\Generated_Source\PSoC4/Slider.c **** 	if(Slider_widgetResolution[widget] < Slider_RESOLUTION_16_BITS)
 1390              		.loc 1 1571 0
ARM GAS  C:\Users\ELECTR~1\AppData\Local\Temp\ccbbDBvf.s 			page 58


 1391 0012 164B     		ldr	r3, .L91+8
 1392 0014 5833     		add	r3, r3, #88
 1393 0016 1B5C     		ldrb	r3, [r3, r0]
 1394              	.LVL168:
1572:.\Generated_Source\PSoC4/Slider.c **** 	{
 1395              		.loc 1 1572 0
 1396 0018 9B00     		lsl	r3, r3, #2
 1397              	.LVL169:
 1398 001a 154A     		ldr	r2, .L91+12
 1399 001c 9A58     		ldr	r2, [r3, r2]
 1400 001e 154B     		ldr	r3, .L91+16
 1401 0020 9A42     		cmp	r2, r3
 1402 0022 08D8     		bhi	.L90
1574:.\Generated_Source\PSoC4/Slider.c **** 		Slider_sensorRaw[sensor] >>= oversamplingFactor;
 1403              		.loc 1 1574 0
 1404 0024 1448     		ldr	r0, .L91+20
 1405              	.LVL170:
 1406 0026 291C     		mov	r1, r5
 1407 0028 FFF7FEFF 		bl	Slider_GetBitValue
 1408              	.LVL171:
1575:.\Generated_Source\PSoC4/Slider.c **** 	}
 1409              		.loc 1 1575 0
 1410 002c 6B00     		lsl	r3, r5, #1
 1411 002e 0E4A     		ldr	r2, .L91+4
 1412 0030 D318     		add	r3, r2, r3
 1413 0032 0441     		asr	r4, r4, r0
 1414 0034 9C80     		strh	r4, [r3, #4]
 1415              	.LVL172:
 1416              	.L90:
1581:.\Generated_Source\PSoC4/Slider.c **** 
 1417              		.loc 1 1581 0
 1418 0036 281C     		mov	r0, r5
 1419 0038 FFF7FEFF 		bl	Slider_DisableSensor
 1420              	.LVL173:
1583:.\Generated_Source\PSoC4/Slider.c **** 	
 1421              		.loc 1 1583 0
 1422 003c 1020     		mov	r0, #16
 1423 003e FFF7FEFF 		bl	CyIntDisable
 1424              	.LVL174:
1603:.\Generated_Source\PSoC4/Slider.c **** 	newRegValue &= ~(Slider_PRECHARGE_CONFIG_MASK);
 1425              		.loc 1 1603 0
 1426 0042 0E4A     		ldr	r2, .L91+24
 1427 0044 1168     		ldr	r1, [r2]
 1428              	.LVL175:
1604:.\Generated_Source\PSoC4/Slider.c **** 	newRegValue |= Slider_CMOD_PRECHARGE_CONFIG;
 1429              		.loc 1 1604 0
 1430 0046 0E4B     		ldr	r3, .L91+28
 1431 0048 0B40     		and	r3, r1
 1432              	.LVL176:
1605:.\Generated_Source\PSoC4/Slider.c **** 	Slider_CSD_CFG_REG = newRegValue;
 1433              		.loc 1 1605 0
 1434 004a A021     		mov	r1, #160
 1435 004c 0902     		lsl	r1, r1, #8
 1436 004e 0B43     		orr	r3, r1
 1437              	.LVL177:
1606:.\Generated_Source\PSoC4/Slider.c **** 
 1438              		.loc 1 1606 0
ARM GAS  C:\Users\ELECTR~1\AppData\Local\Temp\ccbbDBvf.s 			page 59


 1439 0050 1360     		str	r3, [r2]
1612:.\Generated_Source\PSoC4/Slider.c **** #endif /* (Slider_IDAC_CNT == 1u) */
 1440              		.loc 1 1612 0
 1441 0052 0C4A     		ldr	r2, .L91+32
 1442 0054 1168     		ldr	r1, [r2]
 1443 0056 0C4B     		ldr	r3, .L91+36
 1444              	.LVL178:
 1445 0058 0B40     		and	r3, r1
 1446 005a 1360     		str	r3, [r2]
 1447              	.LVL179:
1615:.\Generated_Source\PSoC4/Slider.c **** }
 1448              		.loc 1 1615 0
 1449 005c 1020     		mov	r0, #16
 1450 005e FFF7FEFF 		bl	CyIntEnable
 1451              	.LVL180:
1616:.\Generated_Source\PSoC4/Slider.c **** 
 1452              		.loc 1 1616 0
 1453              		@ sp needed
 1454              	.LVL181:
 1455 0062 38BD     		pop	{r3, r4, r5, pc}
 1456              	.L92:
 1457              		.align	2
 1458              	.L91:
 1459 0064 0C002840 		.word	1076363276
 1460 0068 00000000 		.word	.LANCHOR0
 1461 006c 00000000 		.word	.LANCHOR2
 1462 0070 00000000 		.word	.LANCHOR1
 1463 0074 FFFFFEFF 		.word	-65537
 1464 0078 00000000 		.word	scanSpeedTbl
 1465 007c 04002840 		.word	1076363268
 1466 0080 FF1FDFFF 		.word	-2154497
 1467 0084 08002840 		.word	1076363272
 1468 0088 00FF80FF 		.word	-8323328
 1469              		.cfi_endproc
 1470              	.LFE56:
 1471              		.size	Slider_PostScan, .-Slider_PostScan
 1472              		.section	.text.Slider_SetBitValue,"ax",%progbits
 1473              		.align	2
 1474              		.global	Slider_SetBitValue
 1475              		.code	16
 1476              		.thumb_func
 1477              		.type	Slider_SetBitValue, %function
 1478              	Slider_SetBitValue:
 1479              	.LFB61:
1759:.\Generated_Source\PSoC4/Slider.c **** 
1760:.\Generated_Source\PSoC4/Slider.c **** 
1761:.\Generated_Source\PSoC4/Slider.c **** /*******************************************************************************
1762:.\Generated_Source\PSoC4/Slider.c **** * Function Name: Slider_SetBitValue
1763:.\Generated_Source\PSoC4/Slider.c **** ********************************************************************************
1764:.\Generated_Source\PSoC4/Slider.c **** *
1765:.\Generated_Source\PSoC4/Slider.c **** * Summary:
1766:.\Generated_Source\PSoC4/Slider.c **** *  The API sets a bit status of the bit in the table array which contains masks.
1767:.\Generated_Source\PSoC4/Slider.c **** * 
1768:.\Generated_Source\PSoC4/Slider.c **** * Parameters:
1769:.\Generated_Source\PSoC4/Slider.c **** *  table[] - array with bit masks.
1770:.\Generated_Source\PSoC4/Slider.c **** *  position - position of bit in the table[] array.
1771:.\Generated_Source\PSoC4/Slider.c **** *  value: 0 - bit is not set; 1 - bit is set.
ARM GAS  C:\Users\ELECTR~1\AppData\Local\Temp\ccbbDBvf.s 			page 60


1772:.\Generated_Source\PSoC4/Slider.c **** *
1773:.\Generated_Source\PSoC4/Slider.c **** * Return:
1774:.\Generated_Source\PSoC4/Slider.c **** *  None
1775:.\Generated_Source\PSoC4/Slider.c **** *
1776:.\Generated_Source\PSoC4/Slider.c **** * Global Variables:
1777:.\Generated_Source\PSoC4/Slider.c **** *  None
1778:.\Generated_Source\PSoC4/Slider.c **** *
1779:.\Generated_Source\PSoC4/Slider.c **** * Side Effects:
1780:.\Generated_Source\PSoC4/Slider.c **** *  None
1781:.\Generated_Source\PSoC4/Slider.c **** *
1782:.\Generated_Source\PSoC4/Slider.c **** *******************************************************************************/
1783:.\Generated_Source\PSoC4/Slider.c **** void Slider_SetBitValue(uint8 table[], uint32 position, uint32 value)
1784:.\Generated_Source\PSoC4/Slider.c **** {
 1480              		.loc 1 1784 0
 1481              		.cfi_startproc
 1482              	.LVL182:
 1483 0000 10B5     		push	{r4, lr}
 1484              		.cfi_def_cfa_offset 8
 1485              		.cfi_offset 4, -8
 1486              		.cfi_offset 14, -4
1785:.\Generated_Source\PSoC4/Slider.c ****     uint32 offset;
1786:.\Generated_Source\PSoC4/Slider.c **** 	uint8 enMask;
1787:.\Generated_Source\PSoC4/Slider.c **** 	
1788:.\Generated_Source\PSoC4/Slider.c **** 	/* position is divided by 8 to calculate the element of the 
1789:.\Generated_Source\PSoC4/Slider.c **** 	   table[] array that contains the enable bit 
1790:.\Generated_Source\PSoC4/Slider.c **** 	   for an appropriate sensor.
1791:.\Generated_Source\PSoC4/Slider.c **** 	*/
1792:.\Generated_Source\PSoC4/Slider.c **** 	offset = (position >> 3u);
 1487              		.loc 1 1792 0
 1488 0002 CC08     		lsr	r4, r1, #3
 1489              	.LVL183:
1793:.\Generated_Source\PSoC4/Slider.c **** 	
1794:.\Generated_Source\PSoC4/Slider.c **** 	/* The enMask calculation for the appropriate sensor. Operation (position & 0x07u) 
1795:.\Generated_Source\PSoC4/Slider.c **** 	   intends to calculate the enable bit offset for the 8-bit element of the 
1796:.\Generated_Source\PSoC4/Slider.c **** 	   table[] array.
1797:.\Generated_Source\PSoC4/Slider.c **** 	*/
1798:.\Generated_Source\PSoC4/Slider.c **** 	enMask = 0x01u << (position & 0x07u);
 1490              		.loc 1 1798 0
 1491 0004 0723     		mov	r3, #7
 1492 0006 1940     		and	r1, r3
 1493              	.LVL184:
 1494 0008 063B     		sub	r3, r3, #6
 1495 000a 8B40     		lsl	r3, r3, r1
 1496 000c D9B2     		uxtb	r1, r3
 1497              	.LVL185:
1799:.\Generated_Source\PSoC4/Slider.c **** 	
1800:.\Generated_Source\PSoC4/Slider.c **** 	if(0u != value)
 1498              		.loc 1 1800 0
 1499 000e 002A     		cmp	r2, #0
 1500 0010 04D0     		beq	.L94
1801:.\Generated_Source\PSoC4/Slider.c **** 	{
1802:.\Generated_Source\PSoC4/Slider.c **** 		table[offset] |= enMask;
 1501              		.loc 1 1802 0
 1502 0012 0419     		add	r4, r0, r4
 1503              	.LVL186:
 1504 0014 2378     		ldrb	r3, [r4]
 1505 0016 1943     		orr	r1, r3
ARM GAS  C:\Users\ELECTR~1\AppData\Local\Temp\ccbbDBvf.s 			page 61


 1506              	.LVL187:
 1507 0018 2170     		strb	r1, [r4]
 1508 001a 03E0     		b	.L93
 1509              	.LVL188:
 1510              	.L94:
1803:.\Generated_Source\PSoC4/Slider.c **** 	}
1804:.\Generated_Source\PSoC4/Slider.c **** 	else
1805:.\Generated_Source\PSoC4/Slider.c **** 	{
1806:.\Generated_Source\PSoC4/Slider.c **** 		table[offset] &= (uint8)~(enMask);
 1511              		.loc 1 1806 0
 1512 001c 0419     		add	r4, r0, r4
 1513              	.LVL189:
 1514 001e 2378     		ldrb	r3, [r4]
 1515 0020 8B43     		bic	r3, r1
 1516 0022 2370     		strb	r3, [r4]
 1517              	.LVL190:
 1518              	.L93:
1807:.\Generated_Source\PSoC4/Slider.c **** 	}
1808:.\Generated_Source\PSoC4/Slider.c **** }
 1519              		.loc 1 1808 0
 1520              		@ sp needed
 1521 0024 10BD     		pop	{r4, pc}
 1522              		.cfi_endproc
 1523              	.LFE61:
 1524              		.size	Slider_SetBitValue, .-Slider_SetBitValue
 1525 0026 C046     		.section	.text.Slider_ScanWidget,"ax",%progbits
 1526              		.align	2
 1527              		.global	Slider_ScanWidget
 1528              		.code	16
 1529              		.thumb_func
 1530              		.type	Slider_ScanWidget, %function
 1531              	Slider_ScanWidget:
 1532              	.LFB42:
 621:.\Generated_Source\PSoC4/Slider.c ****     uint32 sensorsPerWidget;
 1533              		.loc 1 621 0
 1534              		.cfi_startproc
 1535              	.LVL191:
 1536 0000 38B5     		push	{r3, r4, r5, lr}
 1537              		.cfi_def_cfa_offset 16
 1538              		.cfi_offset 3, -16
 1539              		.cfi_offset 4, -12
 1540              		.cfi_offset 5, -8
 1541              		.cfi_offset 14, -4
 627:.\Generated_Source\PSoC4/Slider.c **** 	
 1542              		.loc 1 627 0
 1543 0002 1D4B     		ldr	r3, .L106
 1544 0004 1D5C     		ldrb	r5, [r3, r0]
 1545 0006 1D4B     		ldr	r3, .L106+4
 1546 0008 1D74     		strb	r5, [r3, #16]
 630:.\Generated_Source\PSoC4/Slider.c **** 	
 1547              		.loc 1 630 0
 1548 000a 1D4B     		ldr	r3, .L106+8
 1549 000c 1B5C     		ldrb	r3, [r3, r0]
 1550              	.LVL192:
 633:.\Generated_Source\PSoC4/Slider.c **** 	{
 1551              		.loc 1 633 0
 1552 000e 002B     		cmp	r3, #0
ARM GAS  C:\Users\ELECTR~1\AppData\Local\Temp\ccbbDBvf.s 			page 62


 1553 0010 00D1     		bne	.L97
 635:.\Generated_Source\PSoC4/Slider.c **** 	}
 1554              		.loc 1 635 0
 1555 0012 0133     		add	r3, r3, #1
 1556              	.LVL193:
 1557              	.L97:
 639:.\Generated_Source\PSoC4/Slider.c **** 
 1558              		.loc 1 639 0
 1559 0014 ED18     		add	r5, r5, r3
 1560 0016 013D     		sub	r5, r5, #1
 1561              	.LVL194:
 642:.\Generated_Source\PSoC4/Slider.c **** 	{
 1562              		.loc 1 642 0
 1563 0018 0023     		mov	r3, #0
 1564              	.LVL195:
 1565 001a 05E0     		b	.L98
 1566              	.LVL196:
 1567              	.L99:
 645:.\Generated_Source\PSoC4/Slider.c **** 	}
 1568              		.loc 1 645 0 discriminator 3
 1569 001c 194A     		ldr	r2, .L106+12
 1570 001e D218     		add	r2, r2, r3
 1571 0020 1179     		ldrb	r1, [r2, #4]
 1572 0022 194A     		ldr	r2, .L106+16
 1573 0024 D154     		strb	r1, [r2, r3]
 642:.\Generated_Source\PSoC4/Slider.c **** 	{
 1574              		.loc 1 642 0 discriminator 3
 1575 0026 0133     		add	r3, r3, #1
 1576              	.LVL197:
 1577              	.L98:
 642:.\Generated_Source\PSoC4/Slider.c **** 	{
 1578              		.loc 1 642 0 is_stmt 0 discriminator 1
 1579 0028 002B     		cmp	r3, #0
 1580 002a F7D0     		beq	.L99
 1581 002c 0024     		mov	r4, #0
 1582 002e 14E0     		b	.L100
 1583              	.LVL198:
 1584              	.L103:
 652:.\Generated_Source\PSoC4/Slider.c **** 		{
 1585              		.loc 1 652 0 is_stmt 1
 1586 0030 124B     		ldr	r3, .L106+4
 1587 0032 1B7C     		ldrb	r3, [r3, #16]
 1588 0034 DBB2     		uxtb	r3, r3
 1589 0036 A342     		cmp	r3, r4
 1590 0038 08D8     		bhi	.L101
 652:.\Generated_Source\PSoC4/Slider.c **** 		{
 1591              		.loc 1 652 0 is_stmt 0 discriminator 1
 1592 003a AC42     		cmp	r4, r5
 1593 003c 06D8     		bhi	.L101
 655:.\Generated_Source\PSoC4/Slider.c **** 		}
 1594              		.loc 1 655 0 is_stmt 1
 1595 003e 1148     		ldr	r0, .L106+12
 1596 0040 0430     		add	r0, r0, #4
 1597 0042 211C     		mov	r1, r4
 1598 0044 0122     		mov	r2, #1
 1599 0046 FFF7FEFF 		bl	Slider_SetBitValue
 1600              	.LVL199:
ARM GAS  C:\Users\ELECTR~1\AppData\Local\Temp\ccbbDBvf.s 			page 63


 1601 004a 05E0     		b	.L102
 1602              	.L101:
 660:.\Generated_Source\PSoC4/Slider.c **** 		}
 1603              		.loc 1 660 0
 1604 004c 0D48     		ldr	r0, .L106+12
 1605 004e 0430     		add	r0, r0, #4
 1606 0050 211C     		mov	r1, r4
 1607 0052 0022     		mov	r2, #0
 1608 0054 FFF7FEFF 		bl	Slider_SetBitValue
 1609              	.LVL200:
 1610              	.L102:
 649:.\Generated_Source\PSoC4/Slider.c **** 	{
 1611              		.loc 1 649 0 discriminator 2
 1612 0058 0134     		add	r4, r4, #1
 1613              	.LVL201:
 1614              	.L100:
 649:.\Generated_Source\PSoC4/Slider.c **** 	{
 1615              		.loc 1 649 0 is_stmt 0 discriminator 1
 1616 005a 042C     		cmp	r4, #4
 1617 005c E8D9     		bls	.L103
 665:.\Generated_Source\PSoC4/Slider.c ****     {
 1618              		.loc 1 665 0 is_stmt 1
 1619 005e 074B     		ldr	r3, .L106+4
 1620 0060 1B7C     		ldrb	r3, [r3, #16]
 1621 0062 DBB2     		uxtb	r3, r3
 1622 0064 042B     		cmp	r3, #4
 1623 0066 06D8     		bhi	.L96
 668:.\Generated_Source\PSoC4/Slider.c **** 		/* Scan first sensor of widget*/ 
 1624              		.loc 1 668 0
 1625 0068 044B     		ldr	r3, .L106+4
 1626 006a 4122     		mov	r2, #65
 1627 006c 1A70     		strb	r2, [r3]
 670:.\Generated_Source\PSoC4/Slider.c ****     }
 1628              		.loc 1 670 0
 1629 006e 187C     		ldrb	r0, [r3, #16]
 1630 0070 C0B2     		uxtb	r0, r0
 1631 0072 FFF7FEFF 		bl	Slider_PreScan
 1632              	.LVL202:
 1633              	.L96:
 672:.\Generated_Source\PSoC4/Slider.c **** #endif /* (0u != Slider_CSHL_API_GENERATE) */
 1634              		.loc 1 672 0
 1635              		@ sp needed
 1636              	.LVL203:
 1637              	.LVL204:
 1638 0076 38BD     		pop	{r3, r4, r5, pc}
 1639              	.L107:
 1640              		.align	2
 1641              	.L106:
 1642 0078 00000000 		.word	Slider_rawDataIndex
 1643 007c 00000000 		.word	.LANCHOR0
 1644 0080 00000000 		.word	Slider_numberOfSensors
 1645 0084 00000000 		.word	.LANCHOR1
 1646 0088 00000000 		.word	Slider_sensorEnableMaskBackup
 1647              		.cfi_endproc
 1648              	.LFE42:
 1649              		.size	Slider_ScanWidget, .-Slider_ScanWidget
 1650              		.section	.text.Slider_GetSenseClkDivider,"ax",%progbits
ARM GAS  C:\Users\ELECTR~1\AppData\Local\Temp\ccbbDBvf.s 			page 64


 1651              		.align	2
 1652              		.global	Slider_GetSenseClkDivider
 1653              		.code	16
 1654              		.thumb_func
 1655              		.type	Slider_GetSenseClkDivider, %function
 1656              	Slider_GetSenseClkDivider:
 1657              	.LFB62:
1809:.\Generated_Source\PSoC4/Slider.c **** 
1810:.\Generated_Source\PSoC4/Slider.c **** 
1811:.\Generated_Source\PSoC4/Slider.c **** 
1812:.\Generated_Source\PSoC4/Slider.c **** /*******************************************************************************
1813:.\Generated_Source\PSoC4/Slider.c **** * Function Name: Slider_GetSenseClkDivider
1814:.\Generated_Source\PSoC4/Slider.c **** ********************************************************************************
1815:.\Generated_Source\PSoC4/Slider.c **** *
1816:.\Generated_Source\PSoC4/Slider.c **** * Summary:
1817:.\Generated_Source\PSoC4/Slider.c **** *  This API returns a value of the sense clock divider for the  sensor.
1818:.\Generated_Source\PSoC4/Slider.c **** *
1819:.\Generated_Source\PSoC4/Slider.c **** * Parameters:
1820:.\Generated_Source\PSoC4/Slider.c **** *  sensor: sensor index. The index value can be 
1821:.\Generated_Source\PSoC4/Slider.c **** *  from 0 to (Slider_TOTAL_SENSOR_COUNT-1).
1822:.\Generated_Source\PSoC4/Slider.c **** *
1823:.\Generated_Source\PSoC4/Slider.c **** * Return:
1824:.\Generated_Source\PSoC4/Slider.c **** *  This API returns the sense clock divider of the sensor. 
1825:.\Generated_Source\PSoC4/Slider.c **** *
1826:.\Generated_Source\PSoC4/Slider.c **** * Global Variables:
1827:.\Generated_Source\PSoC4/Slider.c **** *  Slider_senseClkDividerVal[] - stores the sense clock divider values.
1828:.\Generated_Source\PSoC4/Slider.c **** * 
1829:.\Generated_Source\PSoC4/Slider.c **** * Side Effects:
1830:.\Generated_Source\PSoC4/Slider.c **** *  None
1831:.\Generated_Source\PSoC4/Slider.c **** *
1832:.\Generated_Source\PSoC4/Slider.c **** *******************************************************************************/
1833:.\Generated_Source\PSoC4/Slider.c **** uint32 Slider_GetSenseClkDivider(uint32 sensor)
1834:.\Generated_Source\PSoC4/Slider.c **** {
 1658              		.loc 1 1834 0
 1659              		.cfi_startproc
 1660              	.LVL205:
1835:.\Generated_Source\PSoC4/Slider.c **** 	#if(0u != Slider_MULTIPLE_FREQUENCY_SET)
1836:.\Generated_Source\PSoC4/Slider.c **** 		return((uint32)Slider_senseClkDividerVal[sensor]);
 1661              		.loc 1 1836 0
 1662 0000 014B     		ldr	r3, .L109
 1663 0002 185C     		ldrb	r0, [r3, r0]
 1664              	.LVL206:
1837:.\Generated_Source\PSoC4/Slider.c **** 	#else
1838:.\Generated_Source\PSoC4/Slider.c **** 		return((uint32)Slider_senseClkDividerVal);
1839:.\Generated_Source\PSoC4/Slider.c **** 	#endif /* (0u != Slider_MULTIPLE_FREQUENCY_SET) */
1840:.\Generated_Source\PSoC4/Slider.c **** }
 1665              		.loc 1 1840 0
 1666              		@ sp needed
 1667 0004 7047     		bx	lr
 1668              	.L110:
 1669 0006 C046     		.align	2
 1670              	.L109:
 1671 0008 00000000 		.word	Slider_senseClkDividerVal
 1672              		.cfi_endproc
 1673              	.LFE62:
 1674              		.size	Slider_GetSenseClkDivider, .-Slider_GetSenseClkDivider
 1675              		.section	.text.Slider_SetSenseClkDivider,"ax",%progbits
ARM GAS  C:\Users\ELECTR~1\AppData\Local\Temp\ccbbDBvf.s 			page 65


 1676              		.align	2
 1677              		.global	Slider_SetSenseClkDivider
 1678              		.code	16
 1679              		.thumb_func
 1680              		.type	Slider_SetSenseClkDivider, %function
 1681              	Slider_SetSenseClkDivider:
 1682              	.LFB63:
1841:.\Generated_Source\PSoC4/Slider.c **** 
1842:.\Generated_Source\PSoC4/Slider.c **** #if (Slider_TUNING_METHOD != Slider__TUNING_NONE)
1843:.\Generated_Source\PSoC4/Slider.c **** 	/*******************************************************************************
1844:.\Generated_Source\PSoC4/Slider.c **** 	* Function Name: Slider_SetSenseClkDivider
1845:.\Generated_Source\PSoC4/Slider.c **** 	********************************************************************************
1846:.\Generated_Source\PSoC4/Slider.c **** 	*
1847:.\Generated_Source\PSoC4/Slider.c **** 	* Summary:
1848:.\Generated_Source\PSoC4/Slider.c **** 	*  This API sets a value of the sense clock divider for the  sensor. 
1849:.\Generated_Source\PSoC4/Slider.c **** 	*
1850:.\Generated_Source\PSoC4/Slider.c **** 	* Parameters:
1851:.\Generated_Source\PSoC4/Slider.c **** 	*  sensor:  Sensor index.
1852:.\Generated_Source\PSoC4/Slider.c **** 	*  senseClk: represents the sense clock value.
1853:.\Generated_Source\PSoC4/Slider.c **** 	*
1854:.\Generated_Source\PSoC4/Slider.c **** 	* Return:
1855:.\Generated_Source\PSoC4/Slider.c **** 	*  None.
1856:.\Generated_Source\PSoC4/Slider.c **** 	*
1857:.\Generated_Source\PSoC4/Slider.c **** 	* Global Variables:
1858:.\Generated_Source\PSoC4/Slider.c **** 	*  Slider_senseClkDividerVal[] - stores the sense clock divider values.
1859:.\Generated_Source\PSoC4/Slider.c **** 	* 
1860:.\Generated_Source\PSoC4/Slider.c **** 	* Side Effects:
1861:.\Generated_Source\PSoC4/Slider.c **** 	*  None
1862:.\Generated_Source\PSoC4/Slider.c **** 	*
1863:.\Generated_Source\PSoC4/Slider.c **** 	*******************************************************************************/
1864:.\Generated_Source\PSoC4/Slider.c **** 	void Slider_SetSenseClkDivider(uint32 sensor, uint32 senseClk)
1865:.\Generated_Source\PSoC4/Slider.c **** 	{
 1683              		.loc 1 1865 0
 1684              		.cfi_startproc
 1685              	.LVL207:
1866:.\Generated_Source\PSoC4/Slider.c **** 		#if(0u != Slider_MULTIPLE_FREQUENCY_SET)
1867:.\Generated_Source\PSoC4/Slider.c **** 			Slider_senseClkDividerVal[sensor] = (uint8)senseClk;
 1686              		.loc 1 1867 0
 1687 0000 014B     		ldr	r3, .L112
 1688 0002 1954     		strb	r1, [r3, r0]
1868:.\Generated_Source\PSoC4/Slider.c **** 		#else
1869:.\Generated_Source\PSoC4/Slider.c **** 			Slider_senseClkDividerVal = (uint8)senseClk;
1870:.\Generated_Source\PSoC4/Slider.c **** 		#endif /* (0u != Slider_MULTIPLE_FREQUENCY_SET) */
1871:.\Generated_Source\PSoC4/Slider.c **** 	}
 1689              		.loc 1 1871 0
 1690              		@ sp needed
 1691 0004 7047     		bx	lr
 1692              	.L113:
 1693 0006 C046     		.align	2
 1694              	.L112:
 1695 0008 00000000 		.word	Slider_senseClkDividerVal
 1696              		.cfi_endproc
 1697              	.LFE63:
 1698              		.size	Slider_SetSenseClkDivider, .-Slider_SetSenseClkDivider
 1699              		.section	.text.Slider_GetModulatorClkDivider,"ax",%progbits
 1700              		.align	2
 1701              		.global	Slider_GetModulatorClkDivider
ARM GAS  C:\Users\ELECTR~1\AppData\Local\Temp\ccbbDBvf.s 			page 66


 1702              		.code	16
 1703              		.thumb_func
 1704              		.type	Slider_GetModulatorClkDivider, %function
 1705              	Slider_GetModulatorClkDivider:
 1706              	.LFB64:
1872:.\Generated_Source\PSoC4/Slider.c **** #endif /* (Slider_TUNING_METHOD != Slider__TUNING_NONE) */
1873:.\Generated_Source\PSoC4/Slider.c **** 
1874:.\Generated_Source\PSoC4/Slider.c **** 
1875:.\Generated_Source\PSoC4/Slider.c **** /*******************************************************************************
1876:.\Generated_Source\PSoC4/Slider.c **** * Function Name: Slider_GetModulatorClkDivider
1877:.\Generated_Source\PSoC4/Slider.c **** ********************************************************************************
1878:.\Generated_Source\PSoC4/Slider.c **** *
1879:.\Generated_Source\PSoC4/Slider.c **** * Summary:
1880:.\Generated_Source\PSoC4/Slider.c **** *  This API returns a value of the modulator sample clock divider for the  sensor.
1881:.\Generated_Source\PSoC4/Slider.c **** *
1882:.\Generated_Source\PSoC4/Slider.c **** * Parameters:
1883:.\Generated_Source\PSoC4/Slider.c **** *  sensor: sensor index. The value of index can be 
1884:.\Generated_Source\PSoC4/Slider.c **** *  from 0 to (Slider_TOTAL_SENSOR_COUNT-1).
1885:.\Generated_Source\PSoC4/Slider.c **** *
1886:.\Generated_Source\PSoC4/Slider.c **** * Return:
1887:.\Generated_Source\PSoC4/Slider.c **** *  This API returns the modulator sample clock divider for the  sensor.
1888:.\Generated_Source\PSoC4/Slider.c **** *
1889:.\Generated_Source\PSoC4/Slider.c **** * Global Variables:
1890:.\Generated_Source\PSoC4/Slider.c **** *  Slider_sampleClkDividerVal[] - stores the modulator sample divider values.
1891:.\Generated_Source\PSoC4/Slider.c **** * 
1892:.\Generated_Source\PSoC4/Slider.c **** * Side Effects:
1893:.\Generated_Source\PSoC4/Slider.c **** *  None
1894:.\Generated_Source\PSoC4/Slider.c **** *
1895:.\Generated_Source\PSoC4/Slider.c **** *******************************************************************************/
1896:.\Generated_Source\PSoC4/Slider.c **** uint32 Slider_GetModulatorClkDivider(uint32 sensor)
1897:.\Generated_Source\PSoC4/Slider.c **** {
 1707              		.loc 1 1897 0
 1708              		.cfi_startproc
 1709              	.LVL208:
1898:.\Generated_Source\PSoC4/Slider.c **** 	#if(0u != Slider_MULTIPLE_FREQUENCY_SET)
1899:.\Generated_Source\PSoC4/Slider.c **** 		return((uint32)Slider_sampleClkDividerVal[sensor]);
 1710              		.loc 1 1899 0
 1711 0000 014B     		ldr	r3, .L115
 1712 0002 185C     		ldrb	r0, [r3, r0]
 1713              	.LVL209:
1900:.\Generated_Source\PSoC4/Slider.c **** 	#else
1901:.\Generated_Source\PSoC4/Slider.c **** 		return((uint32)Slider_sampleClkDividerVal);
1902:.\Generated_Source\PSoC4/Slider.c **** 	#endif /* (0u != Slider_MULTIPLE_FREQUENCY_SET) */
1903:.\Generated_Source\PSoC4/Slider.c **** }
 1714              		.loc 1 1903 0
 1715              		@ sp needed
 1716 0004 7047     		bx	lr
 1717              	.L116:
 1718 0006 C046     		.align	2
 1719              	.L115:
 1720 0008 00000000 		.word	Slider_sampleClkDividerVal
 1721              		.cfi_endproc
 1722              	.LFE64:
 1723              		.size	Slider_GetModulatorClkDivider, .-Slider_GetModulatorClkDivider
 1724              		.section	.text.Slider_SetModulatorClkDivider,"ax",%progbits
 1725              		.align	2
 1726              		.global	Slider_SetModulatorClkDivider
ARM GAS  C:\Users\ELECTR~1\AppData\Local\Temp\ccbbDBvf.s 			page 67


 1727              		.code	16
 1728              		.thumb_func
 1729              		.type	Slider_SetModulatorClkDivider, %function
 1730              	Slider_SetModulatorClkDivider:
 1731              	.LFB65:
1904:.\Generated_Source\PSoC4/Slider.c **** 
1905:.\Generated_Source\PSoC4/Slider.c **** #if (Slider_TUNING_METHOD != Slider__TUNING_NONE)
1906:.\Generated_Source\PSoC4/Slider.c **** 	/*******************************************************************************
1907:.\Generated_Source\PSoC4/Slider.c **** 	* Function Name: Slider_SetModulatorClkDivider
1908:.\Generated_Source\PSoC4/Slider.c **** 	********************************************************************************
1909:.\Generated_Source\PSoC4/Slider.c **** 	*
1910:.\Generated_Source\PSoC4/Slider.c **** 	* Summary:
1911:.\Generated_Source\PSoC4/Slider.c **** 	*  This API sets a value of the modulator sample clock divider for the  sensor.
1912:.\Generated_Source\PSoC4/Slider.c **** 	*
1913:.\Generated_Source\PSoC4/Slider.c **** 	* Parameters:
1914:.\Generated_Source\PSoC4/Slider.c **** 	*  sensor:  Sensor index.
1915:.\Generated_Source\PSoC4/Slider.c **** 	*  modulatorClk: represents the modulator sample clock value.
1916:.\Generated_Source\PSoC4/Slider.c **** 	*
1917:.\Generated_Source\PSoC4/Slider.c **** 	* Return:
1918:.\Generated_Source\PSoC4/Slider.c **** 	*  None.
1919:.\Generated_Source\PSoC4/Slider.c **** 	*
1920:.\Generated_Source\PSoC4/Slider.c **** 	* Global Variables:
1921:.\Generated_Source\PSoC4/Slider.c **** 	*  Slider_sampleClkDividerVal[] - stores the modulator sample divider values.
1922:.\Generated_Source\PSoC4/Slider.c **** 	* 
1923:.\Generated_Source\PSoC4/Slider.c **** 	* Side Effects:
1924:.\Generated_Source\PSoC4/Slider.c **** 	*  None
1925:.\Generated_Source\PSoC4/Slider.c **** 	*
1926:.\Generated_Source\PSoC4/Slider.c **** 	*******************************************************************************/
1927:.\Generated_Source\PSoC4/Slider.c **** 	void Slider_SetModulatorClkDivider(uint32 sensor, uint32 modulatorClk)
1928:.\Generated_Source\PSoC4/Slider.c **** 	{
 1732              		.loc 1 1928 0
 1733              		.cfi_startproc
 1734              	.LVL210:
1929:.\Generated_Source\PSoC4/Slider.c **** 		#if(0u != Slider_MULTIPLE_FREQUENCY_SET)
1930:.\Generated_Source\PSoC4/Slider.c **** 			Slider_sampleClkDividerVal[sensor] = (uint8)modulatorClk;
 1735              		.loc 1 1930 0
 1736 0000 014B     		ldr	r3, .L118
 1737 0002 1954     		strb	r1, [r3, r0]
1931:.\Generated_Source\PSoC4/Slider.c **** 		#else
1932:.\Generated_Source\PSoC4/Slider.c **** 			Slider_sampleClkDividerVal = (uint8)modulatorClk;
1933:.\Generated_Source\PSoC4/Slider.c **** 		#endif /* (0u != Slider_MULTIPLE_FREQUENCY_SET) */
1934:.\Generated_Source\PSoC4/Slider.c **** 	}
 1738              		.loc 1 1934 0
 1739              		@ sp needed
 1740 0004 7047     		bx	lr
 1741              	.L119:
 1742 0006 C046     		.align	2
 1743              	.L118:
 1744 0008 00000000 		.word	Slider_sampleClkDividerVal
 1745              		.cfi_endproc
 1746              	.LFE65:
 1747              		.size	Slider_SetModulatorClkDivider, .-Slider_SetModulatorClkDivider
 1748              		.section	.text.Slider_GetModulationIDAC,"ax",%progbits
 1749              		.align	2
 1750              		.global	Slider_GetModulationIDAC
 1751              		.code	16
 1752              		.thumb_func
ARM GAS  C:\Users\ELECTR~1\AppData\Local\Temp\ccbbDBvf.s 			page 68


 1753              		.type	Slider_GetModulationIDAC, %function
 1754              	Slider_GetModulationIDAC:
 1755              	.LFB66:
1935:.\Generated_Source\PSoC4/Slider.c **** #endif /* (Slider_TUNING_METHOD != Slider__TUNING_NONE) */
1936:.\Generated_Source\PSoC4/Slider.c **** 
1937:.\Generated_Source\PSoC4/Slider.c **** /*******************************************************************************
1938:.\Generated_Source\PSoC4/Slider.c **** * Function Name: Slider_GetModulationIDAC
1939:.\Generated_Source\PSoC4/Slider.c **** ********************************************************************************
1940:.\Generated_Source\PSoC4/Slider.c **** *
1941:.\Generated_Source\PSoC4/Slider.c **** * Summary:
1942:.\Generated_Source\PSoC4/Slider.c **** *  This API returns a value of the modulation IDAC for the  sensor.
1943:.\Generated_Source\PSoC4/Slider.c **** *
1944:.\Generated_Source\PSoC4/Slider.c **** * Parameters:
1945:.\Generated_Source\PSoC4/Slider.c **** *  sensor: sensor index. The index value can be 
1946:.\Generated_Source\PSoC4/Slider.c **** *  from 0 to (Slider_TOTAL_SENSOR_COUNT-1).
1947:.\Generated_Source\PSoC4/Slider.c **** *
1948:.\Generated_Source\PSoC4/Slider.c **** * Return:
1949:.\Generated_Source\PSoC4/Slider.c **** *  This API returns the modulation IDAC of the sensor. 
1950:.\Generated_Source\PSoC4/Slider.c **** *
1951:.\Generated_Source\PSoC4/Slider.c **** * Global Variables:
1952:.\Generated_Source\PSoC4/Slider.c **** *  Slider_modulationIDAC[] - stores modulation IDAC values.
1953:.\Generated_Source\PSoC4/Slider.c **** * 
1954:.\Generated_Source\PSoC4/Slider.c **** * Side Effects:
1955:.\Generated_Source\PSoC4/Slider.c **** *  None
1956:.\Generated_Source\PSoC4/Slider.c **** *
1957:.\Generated_Source\PSoC4/Slider.c **** *******************************************************************************/
1958:.\Generated_Source\PSoC4/Slider.c **** uint32 Slider_GetModulationIDAC(uint32 sensor)
1959:.\Generated_Source\PSoC4/Slider.c **** {
 1756              		.loc 1 1959 0
 1757              		.cfi_startproc
 1758              	.LVL211:
1960:.\Generated_Source\PSoC4/Slider.c **** 		return((uint32)Slider_modulationIDAC[sensor]);
 1759              		.loc 1 1960 0
 1760 0000 014B     		ldr	r3, .L121
 1761 0002 185C     		ldrb	r0, [r3, r0]
 1762              	.LVL212:
1961:.\Generated_Source\PSoC4/Slider.c **** }
 1763              		.loc 1 1961 0
 1764              		@ sp needed
 1765 0004 7047     		bx	lr
 1766              	.L122:
 1767 0006 C046     		.align	2
 1768              	.L121:
 1769 0008 00000000 		.word	Slider_modulationIDAC
 1770              		.cfi_endproc
 1771              	.LFE66:
 1772              		.size	Slider_GetModulationIDAC, .-Slider_GetModulationIDAC
 1773              		.section	.text.Slider_SetModulationIDAC,"ax",%progbits
 1774              		.align	2
 1775              		.global	Slider_SetModulationIDAC
 1776              		.code	16
 1777              		.thumb_func
 1778              		.type	Slider_SetModulationIDAC, %function
 1779              	Slider_SetModulationIDAC:
 1780              	.LFB67:
1962:.\Generated_Source\PSoC4/Slider.c **** 
1963:.\Generated_Source\PSoC4/Slider.c **** #if (Slider_TUNING_METHOD != Slider__TUNING_NONE)
ARM GAS  C:\Users\ELECTR~1\AppData\Local\Temp\ccbbDBvf.s 			page 69


1964:.\Generated_Source\PSoC4/Slider.c **** 	/*******************************************************************************
1965:.\Generated_Source\PSoC4/Slider.c **** 	* Function Name: Slider_SetModulationIDAC
1966:.\Generated_Source\PSoC4/Slider.c **** 	********************************************************************************
1967:.\Generated_Source\PSoC4/Slider.c **** 	*
1968:.\Generated_Source\PSoC4/Slider.c **** 	* Summary:
1969:.\Generated_Source\PSoC4/Slider.c **** 	*  This API sets a value of the modulation IDAC for the  sensor.
1970:.\Generated_Source\PSoC4/Slider.c **** 	*
1971:.\Generated_Source\PSoC4/Slider.c **** 	* Parameters:
1972:.\Generated_Source\PSoC4/Slider.c **** 	*  sensor:  Sensor index.
1973:.\Generated_Source\PSoC4/Slider.c **** 	*  compIdacValue: represents the modulation IDAC data register value.
1974:.\Generated_Source\PSoC4/Slider.c **** 	*
1975:.\Generated_Source\PSoC4/Slider.c **** 	* Return:
1976:.\Generated_Source\PSoC4/Slider.c **** 	*  None.
1977:.\Generated_Source\PSoC4/Slider.c **** 	*
1978:.\Generated_Source\PSoC4/Slider.c **** 	* Global Variables:
1979:.\Generated_Source\PSoC4/Slider.c **** 	*  Slider_modulationIDAC[] - array with modulation IDAC values
1980:.\Generated_Source\PSoC4/Slider.c **** 	* 
1981:.\Generated_Source\PSoC4/Slider.c **** 	* Side Effects:
1982:.\Generated_Source\PSoC4/Slider.c **** 	*  None
1983:.\Generated_Source\PSoC4/Slider.c **** 	*
1984:.\Generated_Source\PSoC4/Slider.c **** 	*******************************************************************************/
1985:.\Generated_Source\PSoC4/Slider.c **** 	void Slider_SetModulationIDAC(uint32 sensor, uint32 modIdacValue)
1986:.\Generated_Source\PSoC4/Slider.c **** 	{
 1781              		.loc 1 1986 0
 1782              		.cfi_startproc
 1783              	.LVL213:
1987:.\Generated_Source\PSoC4/Slider.c **** 		Slider_modulationIDAC[sensor] = (uint8)modIdacValue;
 1784              		.loc 1 1987 0
 1785 0000 014B     		ldr	r3, .L124
 1786 0002 1954     		strb	r1, [r3, r0]
1988:.\Generated_Source\PSoC4/Slider.c **** 	}
 1787              		.loc 1 1988 0
 1788              		@ sp needed
 1789 0004 7047     		bx	lr
 1790              	.L125:
 1791 0006 C046     		.align	2
 1792              	.L124:
 1793 0008 00000000 		.word	Slider_modulationIDAC
 1794              		.cfi_endproc
 1795              	.LFE67:
 1796              		.size	Slider_SetModulationIDAC, .-Slider_SetModulationIDAC
 1797              		.section	.text.Slider_GetCompensationIDAC,"ax",%progbits
 1798              		.align	2
 1799              		.global	Slider_GetCompensationIDAC
 1800              		.code	16
 1801              		.thumb_func
 1802              		.type	Slider_GetCompensationIDAC, %function
 1803              	Slider_GetCompensationIDAC:
 1804              	.LFB68:
1989:.\Generated_Source\PSoC4/Slider.c **** #endif /* (Slider_TUNING_METHOD != Slider__TUNING_NONE) */
1990:.\Generated_Source\PSoC4/Slider.c **** 
1991:.\Generated_Source\PSoC4/Slider.c **** 
1992:.\Generated_Source\PSoC4/Slider.c **** #if(Slider_IDAC_CNT > 1u)
1993:.\Generated_Source\PSoC4/Slider.c **** 	/*******************************************************************************
1994:.\Generated_Source\PSoC4/Slider.c **** 	* Function Name: Slider_GetCompensationIDAC
1995:.\Generated_Source\PSoC4/Slider.c **** 	********************************************************************************
1996:.\Generated_Source\PSoC4/Slider.c **** 	*
ARM GAS  C:\Users\ELECTR~1\AppData\Local\Temp\ccbbDBvf.s 			page 70


1997:.\Generated_Source\PSoC4/Slider.c **** 	* Summary:
1998:.\Generated_Source\PSoC4/Slider.c **** 	*  This API returns a value of the compensation IDAC for the  sensor.
1999:.\Generated_Source\PSoC4/Slider.c **** 	*
2000:.\Generated_Source\PSoC4/Slider.c **** 	* Parameters:
2001:.\Generated_Source\PSoC4/Slider.c **** 	*  sensor: sensor index. The index value can be 
2002:.\Generated_Source\PSoC4/Slider.c **** 	*  from 0 to (Slider_TOTAL_SENSOR_COUNT-1).
2003:.\Generated_Source\PSoC4/Slider.c **** 	*
2004:.\Generated_Source\PSoC4/Slider.c **** 	* Return:
2005:.\Generated_Source\PSoC4/Slider.c **** 	*  This API returns the compensation IDAC of the sensor. 
2006:.\Generated_Source\PSoC4/Slider.c **** 	*
2007:.\Generated_Source\PSoC4/Slider.c **** 	* Global Variables:
2008:.\Generated_Source\PSoC4/Slider.c **** 	*  Slider_compensationIDAC[] - stores the compensation IDAC values.
2009:.\Generated_Source\PSoC4/Slider.c **** 	* 
2010:.\Generated_Source\PSoC4/Slider.c **** 	* Side Effects:
2011:.\Generated_Source\PSoC4/Slider.c **** 	*  None
2012:.\Generated_Source\PSoC4/Slider.c **** 	*
2013:.\Generated_Source\PSoC4/Slider.c **** 	*******************************************************************************/
2014:.\Generated_Source\PSoC4/Slider.c **** 	uint32 Slider_GetCompensationIDAC(uint32 sensor)
2015:.\Generated_Source\PSoC4/Slider.c **** 	{
 1805              		.loc 1 2015 0
 1806              		.cfi_startproc
 1807              	.LVL214:
2016:.\Generated_Source\PSoC4/Slider.c **** 		return((uint32)Slider_compensationIDAC[sensor]);
 1808              		.loc 1 2016 0
 1809 0000 014B     		ldr	r3, .L127
 1810 0002 185C     		ldrb	r0, [r3, r0]
 1811              	.LVL215:
2017:.\Generated_Source\PSoC4/Slider.c **** 	}
 1812              		.loc 1 2017 0
 1813              		@ sp needed
 1814 0004 7047     		bx	lr
 1815              	.L128:
 1816 0006 C046     		.align	2
 1817              	.L127:
 1818 0008 00000000 		.word	Slider_compensationIDAC
 1819              		.cfi_endproc
 1820              	.LFE68:
 1821              		.size	Slider_GetCompensationIDAC, .-Slider_GetCompensationIDAC
 1822              		.section	.text.Slider_SetCompensationIDAC,"ax",%progbits
 1823              		.align	2
 1824              		.global	Slider_SetCompensationIDAC
 1825              		.code	16
 1826              		.thumb_func
 1827              		.type	Slider_SetCompensationIDAC, %function
 1828              	Slider_SetCompensationIDAC:
 1829              	.LFB69:
2018:.\Generated_Source\PSoC4/Slider.c **** #endif /* (Slider_IDAC_CNT > 1u) */
2019:.\Generated_Source\PSoC4/Slider.c **** 
2020:.\Generated_Source\PSoC4/Slider.c **** 
2021:.\Generated_Source\PSoC4/Slider.c **** #if((Slider_TUNING_METHOD != Slider__TUNING_NONE) && (Slider_IDAC_CNT > 1u))
2022:.\Generated_Source\PSoC4/Slider.c **** 	/*******************************************************************************
2023:.\Generated_Source\PSoC4/Slider.c **** 	* Function Name: Slider_SetCompensationIDAC
2024:.\Generated_Source\PSoC4/Slider.c **** 	********************************************************************************
2025:.\Generated_Source\PSoC4/Slider.c **** 	*
2026:.\Generated_Source\PSoC4/Slider.c **** 	* Summary:
2027:.\Generated_Source\PSoC4/Slider.c **** 	*  This API sets a value of compensation IDAC for the  sensor.
2028:.\Generated_Source\PSoC4/Slider.c **** 	*
ARM GAS  C:\Users\ELECTR~1\AppData\Local\Temp\ccbbDBvf.s 			page 71


2029:.\Generated_Source\PSoC4/Slider.c **** 	* Parameters:
2030:.\Generated_Source\PSoC4/Slider.c **** 	*  sensor:  Sensor index.
2031:.\Generated_Source\PSoC4/Slider.c **** 	*  compIdacValue: represents the compensation IDAC data register value.
2032:.\Generated_Source\PSoC4/Slider.c **** 	*
2033:.\Generated_Source\PSoC4/Slider.c **** 	* Return:
2034:.\Generated_Source\PSoC4/Slider.c **** 	*  None.
2035:.\Generated_Source\PSoC4/Slider.c **** 	*
2036:.\Generated_Source\PSoC4/Slider.c **** 	* Global Variables:
2037:.\Generated_Source\PSoC4/Slider.c **** 	*  Slider_compensationIDAC[] - an array with compensation IDAC values
2038:.\Generated_Source\PSoC4/Slider.c **** 	* 
2039:.\Generated_Source\PSoC4/Slider.c **** 	* Side Effects:
2040:.\Generated_Source\PSoC4/Slider.c **** 	*  None
2041:.\Generated_Source\PSoC4/Slider.c **** 	*
2042:.\Generated_Source\PSoC4/Slider.c **** 	*******************************************************************************/
2043:.\Generated_Source\PSoC4/Slider.c **** 	void Slider_SetCompensationIDAC(uint32 sensor, uint32 compIdacValue)
2044:.\Generated_Source\PSoC4/Slider.c **** 	{
 1830              		.loc 1 2044 0
 1831              		.cfi_startproc
 1832              	.LVL216:
2045:.\Generated_Source\PSoC4/Slider.c **** 		Slider_compensationIDAC[sensor] = (uint8)compIdacValue;
 1833              		.loc 1 2045 0
 1834 0000 014B     		ldr	r3, .L130
 1835 0002 1954     		strb	r1, [r3, r0]
2046:.\Generated_Source\PSoC4/Slider.c **** 	}
 1836              		.loc 1 2046 0
 1837              		@ sp needed
 1838 0004 7047     		bx	lr
 1839              	.L131:
 1840 0006 C046     		.align	2
 1841              	.L130:
 1842 0008 00000000 		.word	Slider_compensationIDAC
 1843              		.cfi_endproc
 1844              	.LFE69:
 1845              		.size	Slider_SetCompensationIDAC, .-Slider_SetCompensationIDAC
 1846              		.section	.text.Slider_GetIDACRange,"ax",%progbits
 1847              		.align	2
 1848              		.global	Slider_GetIDACRange
 1849              		.code	16
 1850              		.thumb_func
 1851              		.type	Slider_GetIDACRange, %function
 1852              	Slider_GetIDACRange:
 1853              	.LFB70:
2047:.\Generated_Source\PSoC4/Slider.c **** #endif /* ((Slider_TUNING_METHOD != Slider__TUNING_NONE) && (Slider_IDAC_CNT > 1u)) */
2048:.\Generated_Source\PSoC4/Slider.c **** 
2049:.\Generated_Source\PSoC4/Slider.c **** /*******************************************************************************
2050:.\Generated_Source\PSoC4/Slider.c **** * Function Name: Slider_GetIDACRange
2051:.\Generated_Source\PSoC4/Slider.c **** ********************************************************************************
2052:.\Generated_Source\PSoC4/Slider.c **** *
2053:.\Generated_Source\PSoC4/Slider.c **** * Summary:
2054:.\Generated_Source\PSoC4/Slider.c **** *  This API returns a value that indicates the IDAC range used by the 
2055:.\Generated_Source\PSoC4/Slider.c **** *  component to scan sensors. The IDAC range is common for all the sensors.
2056:.\Generated_Source\PSoC4/Slider.c **** *
2057:.\Generated_Source\PSoC4/Slider.c **** * Parameters:
2058:.\Generated_Source\PSoC4/Slider.c **** *  None
2059:.\Generated_Source\PSoC4/Slider.c **** *
2060:.\Generated_Source\PSoC4/Slider.c **** * Return:
2061:.\Generated_Source\PSoC4/Slider.c **** *  This API Returns a value that indicates the IDAC range:
ARM GAS  C:\Users\ELECTR~1\AppData\Local\Temp\ccbbDBvf.s 			page 72


2062:.\Generated_Source\PSoC4/Slider.c **** *      0 - IDAC range set to 4x
2063:.\Generated_Source\PSoC4/Slider.c **** *      1 - IDAC range set to 8x
2064:.\Generated_Source\PSoC4/Slider.c **** *
2065:.\Generated_Source\PSoC4/Slider.c **** * Global Variables:
2066:.\Generated_Source\PSoC4/Slider.c **** *  None
2067:.\Generated_Source\PSoC4/Slider.c **** * 
2068:.\Generated_Source\PSoC4/Slider.c **** * Side Effects:
2069:.\Generated_Source\PSoC4/Slider.c **** *  None
2070:.\Generated_Source\PSoC4/Slider.c **** *
2071:.\Generated_Source\PSoC4/Slider.c **** *******************************************************************************/
2072:.\Generated_Source\PSoC4/Slider.c **** uint32 Slider_GetIDACRange(void)
2073:.\Generated_Source\PSoC4/Slider.c **** {
 1854              		.loc 1 2073 0
 1855              		.cfi_startproc
2074:.\Generated_Source\PSoC4/Slider.c **** 	return((0u != (Slider_CSD_IDAC_REG & Slider_CSD_IDAC1_RANGE_8X)) ? 1uL : 0uL);
 1856              		.loc 1 2074 0
 1857 0000 034B     		ldr	r3, .L134
 1858 0002 1868     		ldr	r0, [r3]
 1859 0004 8023     		mov	r3, #128
 1860 0006 DB00     		lsl	r3, r3, #3
 1861 0008 1840     		and	r0, r3
 1862 000a 00D0     		beq	.L133
 1863 000c 0120     		mov	r0, #1
 1864              	.L133:
2075:.\Generated_Source\PSoC4/Slider.c **** }
 1865              		.loc 1 2075 0 discriminator 4
 1866              		@ sp needed
 1867 000e 7047     		bx	lr
 1868              	.L135:
 1869              		.align	2
 1870              	.L134:
 1871 0010 08002840 		.word	1076363272
 1872              		.cfi_endproc
 1873              	.LFE70:
 1874              		.size	Slider_GetIDACRange, .-Slider_GetIDACRange
 1875              		.section	.text.Slider_SetIDACRange,"ax",%progbits
 1876              		.align	2
 1877              		.global	Slider_SetIDACRange
 1878              		.code	16
 1879              		.thumb_func
 1880              		.type	Slider_SetIDACRange, %function
 1881              	Slider_SetIDACRange:
 1882              	.LFB71:
2076:.\Generated_Source\PSoC4/Slider.c **** 
2077:.\Generated_Source\PSoC4/Slider.c **** #if (Slider_TUNING_METHOD != Slider__TUNING_NONE)
2078:.\Generated_Source\PSoC4/Slider.c **** 	/*******************************************************************************
2079:.\Generated_Source\PSoC4/Slider.c **** 	* Function Name: Slider_SetIDACRange
2080:.\Generated_Source\PSoC4/Slider.c **** 	********************************************************************************
2081:.\Generated_Source\PSoC4/Slider.c **** 	*
2082:.\Generated_Source\PSoC4/Slider.c **** 	* Summary:
2083:.\Generated_Source\PSoC4/Slider.c **** 	*  This API sets the IDAC range to the 4x (1.2uA/bit) or 8x (2.4uA/bit) mode.
2084:.\Generated_Source\PSoC4/Slider.c ****     *  The IDAC range is common for all the sensors and common for the modulation and 
2085:.\Generated_Source\PSoC4/Slider.c **** 	*  compensation IDACs.
2086:.\Generated_Source\PSoC4/Slider.c **** 	*
2087:.\Generated_Source\PSoC4/Slider.c **** 	* Parameters:
2088:.\Generated_Source\PSoC4/Slider.c **** 	*  iDacRange:  represents value for IDAC range 
2089:.\Generated_Source\PSoC4/Slider.c **** 	*  0 -  IDAC range set to 4x (1.2uA/bit)
ARM GAS  C:\Users\ELECTR~1\AppData\Local\Temp\ccbbDBvf.s 			page 73


2090:.\Generated_Source\PSoC4/Slider.c **** 	*  1 or >1 - IDAC range set to 8x (2.4uA/bit)
2091:.\Generated_Source\PSoC4/Slider.c **** 	*
2092:.\Generated_Source\PSoC4/Slider.c **** 	* Return:
2093:.\Generated_Source\PSoC4/Slider.c **** 	*  None.
2094:.\Generated_Source\PSoC4/Slider.c **** 	*
2095:.\Generated_Source\PSoC4/Slider.c **** 	* Global Variables:
2096:.\Generated_Source\PSoC4/Slider.c **** 	*  None
2097:.\Generated_Source\PSoC4/Slider.c **** 	* 
2098:.\Generated_Source\PSoC4/Slider.c **** 	* Side Effects:
2099:.\Generated_Source\PSoC4/Slider.c **** 	*  None
2100:.\Generated_Source\PSoC4/Slider.c **** 	*
2101:.\Generated_Source\PSoC4/Slider.c **** 	*******************************************************************************/
2102:.\Generated_Source\PSoC4/Slider.c **** 	void Slider_SetIDACRange(uint32 iDacRange)
2103:.\Generated_Source\PSoC4/Slider.c **** 	{
 1883              		.loc 1 2103 0
 1884              		.cfi_startproc
 1885              	.LVL217:
2104:.\Generated_Source\PSoC4/Slider.c **** 	    if(iDacRange != 0u)
 1886              		.loc 1 2104 0
 1887 0000 0028     		cmp	r0, #0
 1888 0002 05D0     		beq	.L137
2105:.\Generated_Source\PSoC4/Slider.c **** 		{
2106:.\Generated_Source\PSoC4/Slider.c **** 		    /*  IDAC range = 8x (2.4uA/bit) */ 
2107:.\Generated_Source\PSoC4/Slider.c **** 		    Slider_CSD_IDAC_REG |= (Slider_CSD_IDAC1_RANGE_8X |\
 1889              		.loc 1 2107 0
 1890 0004 054A     		ldr	r2, .L139
 1891 0006 1368     		ldr	r3, [r2]
 1892 0008 0549     		ldr	r1, .L139+4
 1893 000a 0B43     		orr	r3, r1
 1894 000c 1360     		str	r3, [r2]
 1895 000e 04E0     		b	.L136
 1896              	.L137:
2108:.\Generated_Source\PSoC4/Slider.c **** 											  Slider_CSD_IDAC2_RANGE_8X);
2109:.\Generated_Source\PSoC4/Slider.c **** 		}
2110:.\Generated_Source\PSoC4/Slider.c **** 		else
2111:.\Generated_Source\PSoC4/Slider.c **** 		{
2112:.\Generated_Source\PSoC4/Slider.c **** 		    /*  IDAC range = 4x (1.2uA/bit) */ 
2113:.\Generated_Source\PSoC4/Slider.c **** 		    /*  IDAC range = 8x (2.4uA/bit) */ 
2114:.\Generated_Source\PSoC4/Slider.c **** 		    Slider_CSD_IDAC_REG &= ~(Slider_CSD_IDAC1_RANGE_8X |\
 1897              		.loc 1 2114 0
 1898 0010 024A     		ldr	r2, .L139
 1899 0012 1168     		ldr	r1, [r2]
 1900 0014 034B     		ldr	r3, .L139+8
 1901 0016 0B40     		and	r3, r1
 1902 0018 1360     		str	r3, [r2]
 1903              	.L136:
2115:.\Generated_Source\PSoC4/Slider.c **** 											   Slider_CSD_IDAC2_RANGE_8X);
2116:.\Generated_Source\PSoC4/Slider.c **** 		}
2117:.\Generated_Source\PSoC4/Slider.c **** 	}
 1904              		.loc 1 2117 0
 1905              		@ sp needed
 1906 001a 7047     		bx	lr
 1907              	.L140:
 1908              		.align	2
 1909              	.L139:
 1910 001c 08002840 		.word	1076363272
 1911 0020 00040004 		.word	67109888
ARM GAS  C:\Users\ELECTR~1\AppData\Local\Temp\ccbbDBvf.s 			page 74


 1912 0024 FFFBFFFB 		.word	-67109889
 1913              		.cfi_endproc
 1914              	.LFE71:
 1915              		.size	Slider_SetIDACRange, .-Slider_SetIDACRange
 1916              		.section	.text.Slider_GetSensorRaw,"ax",%progbits
 1917              		.align	2
 1918              		.global	Slider_GetSensorRaw
 1919              		.code	16
 1920              		.thumb_func
 1921              		.type	Slider_GetSensorRaw, %function
 1922              	Slider_GetSensorRaw:
 1923              	.LFB72:
2118:.\Generated_Source\PSoC4/Slider.c **** #endif /* (Slider_TUNING_METHOD != Slider__TUNING_NONE) */
2119:.\Generated_Source\PSoC4/Slider.c **** 
2120:.\Generated_Source\PSoC4/Slider.c **** 
2121:.\Generated_Source\PSoC4/Slider.c **** #if((0u != Slider_AUTOCALIBRATION_ENABLE) || (Slider_TUNING_METHOD == Slider__TUNING_AUTO))
2122:.\Generated_Source\PSoC4/Slider.c **** 	/*******************************************************************************
2123:.\Generated_Source\PSoC4/Slider.c **** 	* Function Name: Slider_GetSensorRaw
2124:.\Generated_Source\PSoC4/Slider.c **** 	********************************************************************************
2125:.\Generated_Source\PSoC4/Slider.c **** 	*
2126:.\Generated_Source\PSoC4/Slider.c **** 	* Summary:
2127:.\Generated_Source\PSoC4/Slider.c **** 	*  The API updates and gets uprated raw data from the sensor.
2128:.\Generated_Source\PSoC4/Slider.c **** 	*
2129:.\Generated_Source\PSoC4/Slider.c **** 	* Parameters:
2130:.\Generated_Source\PSoC4/Slider.c **** 	*  sensor - Sensor number.
2131:.\Generated_Source\PSoC4/Slider.c **** 	*
2132:.\Generated_Source\PSoC4/Slider.c **** 	* Return:
2133:.\Generated_Source\PSoC4/Slider.c **** 	*  Returns the current raw data value for a defined sensor number.
2134:.\Generated_Source\PSoC4/Slider.c **** 	*
2135:.\Generated_Source\PSoC4/Slider.c **** 	* Global Variables:
2136:.\Generated_Source\PSoC4/Slider.c **** 	*  None
2137:.\Generated_Source\PSoC4/Slider.c **** 	*
2138:.\Generated_Source\PSoC4/Slider.c **** 	* Side Effects:
2139:.\Generated_Source\PSoC4/Slider.c **** 	*  None
2140:.\Generated_Source\PSoC4/Slider.c **** 	*
2141:.\Generated_Source\PSoC4/Slider.c **** 	*******************************************************************************/
2142:.\Generated_Source\PSoC4/Slider.c **** 	uint16  Slider_GetSensorRaw(uint32 sensor)
2143:.\Generated_Source\PSoC4/Slider.c **** 	{
 1924              		.loc 1 2143 0
 1925              		.cfi_startproc
 1926              	.LVL218:
 1927 0000 70B5     		push	{r4, r5, r6, lr}
 1928              		.cfi_def_cfa_offset 16
 1929              		.cfi_offset 4, -16
 1930              		.cfi_offset 5, -12
 1931              		.cfi_offset 6, -8
 1932              		.cfi_offset 14, -4
 1933 0002 061C     		mov	r6, r0
 1934              	.LVL219:
2144:.\Generated_Source\PSoC4/Slider.c **** 		uint32 curSample;
2145:.\Generated_Source\PSoC4/Slider.c **** 		uint32 avgVal = 0u;
 1935              		.loc 1 2145 0
 1936 0004 0024     		mov	r4, #0
2146:.\Generated_Source\PSoC4/Slider.c **** 		
2147:.\Generated_Source\PSoC4/Slider.c **** 		for(curSample = 0u; curSample < Slider_AVG_SAMPLES_NUM; curSample++)
 1937              		.loc 1 2147 0
 1938 0006 0025     		mov	r5, #0
ARM GAS  C:\Users\ELECTR~1\AppData\Local\Temp\ccbbDBvf.s 			page 75


 1939 0008 0BE0     		b	.L142
 1940              	.LVL220:
 1941              	.L144:
2148:.\Generated_Source\PSoC4/Slider.c **** 		{
2149:.\Generated_Source\PSoC4/Slider.c **** 	    
2150:.\Generated_Source\PSoC4/Slider.c **** 			Slider_ScanSensor((uint32)sensor);
 1942              		.loc 1 2150 0
 1943 000a 301C     		mov	r0, r6
 1944 000c FFF7FEFF 		bl	Slider_ScanSensor
 1945              	.LVL221:
 1946              	.L143:
2151:.\Generated_Source\PSoC4/Slider.c **** 		    while(Slider_IsBusy() == 1u)
 1947              		.loc 1 2151 0 discriminator 1
 1948 0010 FFF7FEFF 		bl	Slider_IsBusy
 1949              	.LVL222:
 1950 0014 0128     		cmp	r0, #1
 1951 0016 FBD0     		beq	.L143
2152:.\Generated_Source\PSoC4/Slider.c **** 			{
2153:.\Generated_Source\PSoC4/Slider.c **** 				/* Wait while sensor is busy */
2154:.\Generated_Source\PSoC4/Slider.c **** 			}
2155:.\Generated_Source\PSoC4/Slider.c **** 			avgVal += Slider_ReadSensorRaw((uint32)sensor);
 1952              		.loc 1 2155 0 discriminator 2
 1953 0018 301C     		mov	r0, r6
 1954 001a FFF7FEFF 		bl	Slider_ReadSensorRaw
 1955              	.LVL223:
 1956 001e 2418     		add	r4, r4, r0
 1957              	.LVL224:
2147:.\Generated_Source\PSoC4/Slider.c **** 		{
 1958              		.loc 1 2147 0 discriminator 2
 1959 0020 0135     		add	r5, r5, #1
 1960              	.LVL225:
 1961              	.L142:
2147:.\Generated_Source\PSoC4/Slider.c **** 		{
 1962              		.loc 1 2147 0 is_stmt 0 discriminator 1
 1963 0022 002D     		cmp	r5, #0
 1964 0024 F1D0     		beq	.L144
2156:.\Generated_Source\PSoC4/Slider.c **** 		}
2157:.\Generated_Source\PSoC4/Slider.c **** 	    
2158:.\Generated_Source\PSoC4/Slider.c **** 	    return((uint16)(avgVal / Slider_AVG_SAMPLES_NUM));
 1965              		.loc 1 2158 0 is_stmt 1
 1966 0026 A0B2     		uxth	r0, r4
2159:.\Generated_Source\PSoC4/Slider.c **** 	}
 1967              		.loc 1 2159 0
 1968              		@ sp needed
 1969              	.LVL226:
 1970              	.LVL227:
 1971              	.LVL228:
 1972 0028 70BD     		pop	{r4, r5, r6, pc}
 1973              		.cfi_endproc
 1974              	.LFE72:
 1975              		.size	Slider_GetSensorRaw, .-Slider_GetSensorRaw
 1976 002a C046     		.section	.text.Slider_SetUnscannedSensorState,"ax",%progbits
 1977              		.align	2
 1978              		.global	Slider_SetUnscannedSensorState
 1979              		.code	16
 1980              		.thumb_func
 1981              		.type	Slider_SetUnscannedSensorState, %function
ARM GAS  C:\Users\ELECTR~1\AppData\Local\Temp\ccbbDBvf.s 			page 76


 1982              	Slider_SetUnscannedSensorState:
 1983              	.LFB73:
2160:.\Generated_Source\PSoC4/Slider.c **** #endif /* ((0u != Slider_AUTOCALIBRATION_ENABLE) && (Slider_TUNING_METHOD == Slider__TUNING_AUTO)) 
2161:.\Generated_Source\PSoC4/Slider.c **** 
2162:.\Generated_Source\PSoC4/Slider.c **** 
2163:.\Generated_Source\PSoC4/Slider.c **** #if((0u != Slider_AUTOCALIBRATION_ENABLE) && (Slider_TUNING_METHOD != Slider__TUNING_AUTO))
2164:.\Generated_Source\PSoC4/Slider.c **** 	/*******************************************************************************
2165:.\Generated_Source\PSoC4/Slider.c **** 	* Function Name: Slider_CalibrateSensor
2166:.\Generated_Source\PSoC4/Slider.c **** 	********************************************************************************
2167:.\Generated_Source\PSoC4/Slider.c **** 	*
2168:.\Generated_Source\PSoC4/Slider.c **** 	* Summary:
2169:.\Generated_Source\PSoC4/Slider.c **** 	*  Computes the one sensor IDAC value, which provides the raw signal on
2170:.\Generated_Source\PSoC4/Slider.c **** 	*  a specified level, with a specified prescaler, speed, and resolution.
2171:.\Generated_Source\PSoC4/Slider.c **** 	*
2172:.\Generated_Source\PSoC4/Slider.c **** 	* Parameters:
2173:.\Generated_Source\PSoC4/Slider.c **** 	*  sensor - Sensor Number.
2174:.\Generated_Source\PSoC4/Slider.c **** 	*
2175:.\Generated_Source\PSoC4/Slider.c **** 	*  rawLevel -  Raw data level which should be reached during the calibration
2176:.\Generated_Source\PSoC4/Slider.c **** 	*              procedure.
2177:.\Generated_Source\PSoC4/Slider.c **** 	*
2178:.\Generated_Source\PSoC4/Slider.c **** 	*  idacLevelsTbl - Pointer to the modulatorIdac data register configuration table.            
2179:.\Generated_Source\PSoC4/Slider.c **** 	*
2180:.\Generated_Source\PSoC4/Slider.c **** 	* Return:       
2181:.\Generated_Source\PSoC4/Slider.c **** 	*  None
2182:.\Generated_Source\PSoC4/Slider.c **** 	*
2183:.\Generated_Source\PSoC4/Slider.c **** 	*******************************************************************************/
2184:.\Generated_Source\PSoC4/Slider.c **** 	void Slider_CalibrateSensor(uint32 sensor, uint32 rawLevel, uint8 idacLevelsTbl[])
2185:.\Generated_Source\PSoC4/Slider.c **** 	{
2186:.\Generated_Source\PSoC4/Slider.c **** 		uint8 mask;
2187:.\Generated_Source\PSoC4/Slider.c **** 		uint16 rawData;
2188:.\Generated_Source\PSoC4/Slider.c **** 		
2189:.\Generated_Source\PSoC4/Slider.c **** 		rawData = 0u;
2190:.\Generated_Source\PSoC4/Slider.c **** 		
2191:.\Generated_Source\PSoC4/Slider.c **** 		mask = 0x80u;
2192:.\Generated_Source\PSoC4/Slider.c **** 		/* Init IDAC for null Channel */
2193:.\Generated_Source\PSoC4/Slider.c **** 		idacLevelsTbl[sensor] = 0x00u;
2194:.\Generated_Source\PSoC4/Slider.c **** 		
2195:.\Generated_Source\PSoC4/Slider.c **** 		do
2196:.\Generated_Source\PSoC4/Slider.c **** 		{
2197:.\Generated_Source\PSoC4/Slider.c **** 		    /* Set bit for null Channel */
2198:.\Generated_Source\PSoC4/Slider.c **** 			idacLevelsTbl[sensor] |= mask;
2199:.\Generated_Source\PSoC4/Slider.c **** 
2200:.\Generated_Source\PSoC4/Slider.c **** 	        /* Scan null Channel and get Rawdata */
2201:.\Generated_Source\PSoC4/Slider.c **** 			rawData = Slider_GetSensorRaw(sensor);
2202:.\Generated_Source\PSoC4/Slider.c **** 			
2203:.\Generated_Source\PSoC4/Slider.c **** 			/* Decrease IDAC until Rawdata reaches rawLevel */ 
2204:.\Generated_Source\PSoC4/Slider.c **** 			if(rawData < rawLevel)
2205:.\Generated_Source\PSoC4/Slider.c **** 			{
2206:.\Generated_Source\PSoC4/Slider.c **** 			    /* Reset bit for null Channel  */ 
2207:.\Generated_Source\PSoC4/Slider.c **** 				idacLevelsTbl[sensor] &= (uint8)~mask;
2208:.\Generated_Source\PSoC4/Slider.c **** 			}
2209:.\Generated_Source\PSoC4/Slider.c **** 			
2210:.\Generated_Source\PSoC4/Slider.c **** 			mask >>= 1u;
2211:.\Generated_Source\PSoC4/Slider.c **** 		}
2212:.\Generated_Source\PSoC4/Slider.c **** 		while(mask > 0u);
2213:.\Generated_Source\PSoC4/Slider.c **** 		
2214:.\Generated_Source\PSoC4/Slider.c **** 	}
ARM GAS  C:\Users\ELECTR~1\AppData\Local\Temp\ccbbDBvf.s 			page 77


2215:.\Generated_Source\PSoC4/Slider.c **** #endif /* ((0u != Slider_AUTOCALIBRATION_ENABLE) && (Slider_TUNING_METHOD != Slider__TUNING_AUTO)) 
2216:.\Generated_Source\PSoC4/Slider.c **** 
2217:.\Generated_Source\PSoC4/Slider.c **** 
2218:.\Generated_Source\PSoC4/Slider.c **** /*******************************************************************************
2219:.\Generated_Source\PSoC4/Slider.c **** * Function Name: Slider_SetUnscannedSensorState
2220:.\Generated_Source\PSoC4/Slider.c **** ********************************************************************************
2221:.\Generated_Source\PSoC4/Slider.c **** *
2222:.\Generated_Source\PSoC4/Slider.c **** * Summary:
2223:.\Generated_Source\PSoC4/Slider.c **** *  This API sets a state for un-scanned sensors. 
2224:.\Generated_Source\PSoC4/Slider.c **** *  It is possible to set the state to Ground, High-Z, or the shield electrode. 
2225:.\Generated_Source\PSoC4/Slider.c **** *  The un-scanned sensor can be connected to a shield electrode only if the shield is 
2226:.\Generated_Source\PSoC4/Slider.c **** *  enabled. If the shield is disabled and this API is called with the parameter which
2227:.\Generated_Source\PSoC4/Slider.c **** *  indicates the shield state, the un-scanned sensor will be connected to Ground.
2228:.\Generated_Source\PSoC4/Slider.c **** *
2229:.\Generated_Source\PSoC4/Slider.c **** * Parameters:
2230:.\Generated_Source\PSoC4/Slider.c **** *  sensor - Sensor Number.
2231:.\Generated_Source\PSoC4/Slider.c **** *  sensorState: This parameter indicates un-scanned sensor state:
2232:.\Generated_Source\PSoC4/Slider.c **** *
2233:.\Generated_Source\PSoC4/Slider.c **** *     Slider__GROUND 0
2234:.\Generated_Source\PSoC4/Slider.c **** *     Slider__HIZ_ANALOG 1
2235:.\Generated_Source\PSoC4/Slider.c **** *     Slider__SHIELD 2
2236:.\Generated_Source\PSoC4/Slider.c **** *
2237:.\Generated_Source\PSoC4/Slider.c **** * Return:
2238:.\Generated_Source\PSoC4/Slider.c **** *  None.
2239:.\Generated_Source\PSoC4/Slider.c **** *
2240:.\Generated_Source\PSoC4/Slider.c **** * Global Variables:
2241:.\Generated_Source\PSoC4/Slider.c **** *  Slider_unscannedSnsDriveMode[] - used to store the state for
2242:.\Generated_Source\PSoC4/Slider.c **** *  un-scanned sensors.
2243:.\Generated_Source\PSoC4/Slider.c **** * 
2244:.\Generated_Source\PSoC4/Slider.c **** * Side Effects:
2245:.\Generated_Source\PSoC4/Slider.c **** *  None
2246:.\Generated_Source\PSoC4/Slider.c **** *
2247:.\Generated_Source\PSoC4/Slider.c **** *******************************************************************************/
2248:.\Generated_Source\PSoC4/Slider.c **** void Slider_SetUnscannedSensorState(uint32 sensor, uint32 sensorState)
2249:.\Generated_Source\PSoC4/Slider.c **** {
 1984              		.loc 1 2249 0
 1985              		.cfi_startproc
 1986              	.LVL229:
2250:.\Generated_Source\PSoC4/Slider.c ****     Slider_unscannedSnsDriveMode[sensor] = (uint8)sensorState;	
 1987              		.loc 1 2250 0
 1988 0000 014B     		ldr	r3, .L146
 1989 0002 1954     		strb	r1, [r3, r0]
2251:.\Generated_Source\PSoC4/Slider.c **** }
 1990              		.loc 1 2251 0
 1991              		@ sp needed
 1992 0004 7047     		bx	lr
 1993              	.L147:
 1994 0006 C046     		.align	2
 1995              	.L146:
 1996 0008 00000000 		.word	Slider_unscannedSnsDriveMode
 1997              		.cfi_endproc
 1998              	.LFE73:
 1999              		.size	Slider_SetUnscannedSensorState, .-Slider_SetUnscannedSensorState
 2000              		.section	.text.Slider_NormalizeWidgets,"ax",%progbits
 2001              		.align	2
 2002              		.global	Slider_NormalizeWidgets
 2003              		.code	16
ARM GAS  C:\Users\ELECTR~1\AppData\Local\Temp\ccbbDBvf.s 			page 78


 2004              		.thumb_func
 2005              		.type	Slider_NormalizeWidgets, %function
 2006              	Slider_NormalizeWidgets:
 2007              	.LFB74:
2252:.\Generated_Source\PSoC4/Slider.c **** 
2253:.\Generated_Source\PSoC4/Slider.c **** #if(0u != Slider_TOTAL_CENTROIDS_COUNT) 
2254:.\Generated_Source\PSoC4/Slider.c **** /*******************************************************************************
2255:.\Generated_Source\PSoC4/Slider.c **** * Function Name: Slider_NormalizeWidgets
2256:.\Generated_Source\PSoC4/Slider.c **** ********************************************************************************
2257:.\Generated_Source\PSoC4/Slider.c **** *
2258:.\Generated_Source\PSoC4/Slider.c **** * Summary:
2259:.\Generated_Source\PSoC4/Slider.c **** *  This API aligns all the parameters of the widget to the maximum parameter.
2260:.\Generated_Source\PSoC4/Slider.c **** *
2261:.\Generated_Source\PSoC4/Slider.c **** * Parameters:
2262:.\Generated_Source\PSoC4/Slider.c **** *  uint32 widgetsNum: Number of widgets.
2263:.\Generated_Source\PSoC4/Slider.c **** *  uint8 *dataPrt: pointer to array with widget parameters.	
2264:.\Generated_Source\PSoC4/Slider.c **** *
2265:.\Generated_Source\PSoC4/Slider.c **** * Return:
2266:.\Generated_Source\PSoC4/Slider.c **** *  None
2267:.\Generated_Source\PSoC4/Slider.c **** *
2268:.\Generated_Source\PSoC4/Slider.c **** * Global Variables:
2269:.\Generated_Source\PSoC4/Slider.c **** *  Slider_numberOfSensors[] - Number of sensors in the widget.
2270:.\Generated_Source\PSoC4/Slider.c **** *  Slider_rawDataIndex[currentWidget] - Contains the  1st sensor
2271:.\Generated_Source\PSoC4/Slider.c **** *  position in the widget.
2272:.\Generated_Source\PSoC4/Slider.c **** *
2273:.\Generated_Source\PSoC4/Slider.c **** * Side Effects:
2274:.\Generated_Source\PSoC4/Slider.c **** *  None
2275:.\Generated_Source\PSoC4/Slider.c **** *
2276:.\Generated_Source\PSoC4/Slider.c **** *******************************************************************************/
2277:.\Generated_Source\PSoC4/Slider.c **** void Slider_NormalizeWidgets(uint32 widgetsNum, uint8 *dataPtr)
2278:.\Generated_Source\PSoC4/Slider.c **** {
 2008              		.loc 1 2278 0
 2009              		.cfi_startproc
 2010              	.LVL230:
 2011 0000 F0B5     		push	{r4, r5, r6, r7, lr}
 2012              		.cfi_def_cfa_offset 20
 2013              		.cfi_offset 4, -20
 2014              		.cfi_offset 5, -16
 2015              		.cfi_offset 6, -12
 2016              		.cfi_offset 7, -8
 2017              		.cfi_offset 14, -4
 2018              	.LVL231:
2279:.\Generated_Source\PSoC4/Slider.c **** 	uint32 currentWidget;
2280:.\Generated_Source\PSoC4/Slider.c **** 	uint32 currentSensor;
2281:.\Generated_Source\PSoC4/Slider.c **** 	uint32 lastSensor;
2282:.\Generated_Source\PSoC4/Slider.c **** 	uint32 sensorsPerWidget;
2283:.\Generated_Source\PSoC4/Slider.c **** 	uint32 maxPerWidget;
2284:.\Generated_Source\PSoC4/Slider.c **** 
2285:.\Generated_Source\PSoC4/Slider.c **** 	for(currentWidget = 0u; currentWidget < widgetsNum; currentWidget++)
 2019              		.loc 1 2285 0
 2020 0002 0027     		mov	r7, #0
 2021 0004 14E0     		b	.L149
 2022              	.LVL232:
 2023              	.L155:
2286:.\Generated_Source\PSoC4/Slider.c **** 	{
2287:.\Generated_Source\PSoC4/Slider.c **** 		maxPerWidget = 0u;
2288:.\Generated_Source\PSoC4/Slider.c **** 		
ARM GAS  C:\Users\ELECTR~1\AppData\Local\Temp\ccbbDBvf.s 			page 79


2289:.\Generated_Source\PSoC4/Slider.c **** 		sensorsPerWidget = Slider_numberOfSensors[currentWidget];
 2024              		.loc 1 2289 0
 2025 0006 0C4B     		ldr	r3, .L157
 2026 0008 DE5D     		ldrb	r6, [r3, r7]
 2027              	.LVL233:
2290:.\Generated_Source\PSoC4/Slider.c **** 		currentSensor = Slider_rawDataIndex[currentWidget];
 2028              		.loc 1 2290 0
 2029 000a 0C4B     		ldr	r3, .L157+4
 2030 000c DB5D     		ldrb	r3, [r3, r7]
 2031              	.LVL234:
2291:.\Generated_Source\PSoC4/Slider.c **** 		lastSensor = currentSensor + sensorsPerWidget;
 2032              		.loc 1 2291 0
 2033 000e 9E19     		add	r6, r3, r6
 2034              	.LVL235:
2290:.\Generated_Source\PSoC4/Slider.c **** 		currentSensor = Slider_rawDataIndex[currentWidget];
 2035              		.loc 1 2290 0
 2036 0010 1A1C     		mov	r2, r3
2287:.\Generated_Source\PSoC4/Slider.c **** 		
 2037              		.loc 1 2287 0
 2038 0012 0024     		mov	r4, #0
2292:.\Generated_Source\PSoC4/Slider.c **** 		
2293:.\Generated_Source\PSoC4/Slider.c **** 		while(currentSensor < lastSensor)
 2039              		.loc 1 2293 0
 2040 0014 04E0     		b	.L150
 2041              	.LVL236:
 2042              	.L152:
2294:.\Generated_Source\PSoC4/Slider.c **** 		{
2295:.\Generated_Source\PSoC4/Slider.c **** 			if(maxPerWidget < dataPtr[currentSensor])
 2043              		.loc 1 2295 0
 2044 0016 8D5C     		ldrb	r5, [r1, r2]
 2045 0018 A542     		cmp	r5, r4
 2046 001a 00D9     		bls	.L151
2296:.\Generated_Source\PSoC4/Slider.c **** 			{
2297:.\Generated_Source\PSoC4/Slider.c **** 				maxPerWidget = dataPtr[currentSensor];
 2047              		.loc 1 2297 0
 2048 001c 2C1C     		mov	r4, r5
 2049              	.LVL237:
 2050              	.L151:
2298:.\Generated_Source\PSoC4/Slider.c **** 			}
2299:.\Generated_Source\PSoC4/Slider.c **** 			currentSensor++;
 2051              		.loc 1 2299 0
 2052 001e 0132     		add	r2, r2, #1
 2053              	.LVL238:
 2054              	.L150:
2293:.\Generated_Source\PSoC4/Slider.c **** 		{
 2055              		.loc 1 2293 0
 2056 0020 B242     		cmp	r2, r6
 2057 0022 F8D3     		bcc	.L152
 2058 0024 01E0     		b	.L153
 2059              	.LVL239:
 2060              	.L154:
2300:.\Generated_Source\PSoC4/Slider.c **** 		}
2301:.\Generated_Source\PSoC4/Slider.c **** 		
2302:.\Generated_Source\PSoC4/Slider.c **** 		currentSensor = Slider_rawDataIndex[currentWidget];
2303:.\Generated_Source\PSoC4/Slider.c **** 		
2304:.\Generated_Source\PSoC4/Slider.c **** 		while(currentSensor < lastSensor)
2305:.\Generated_Source\PSoC4/Slider.c **** 		{
ARM GAS  C:\Users\ELECTR~1\AppData\Local\Temp\ccbbDBvf.s 			page 80


2306:.\Generated_Source\PSoC4/Slider.c **** 			dataPtr[currentSensor] = (uint8)maxPerWidget;
 2061              		.loc 1 2306 0
 2062 0026 CC54     		strb	r4, [r1, r3]
2307:.\Generated_Source\PSoC4/Slider.c **** 			currentSensor++;
 2063              		.loc 1 2307 0
 2064 0028 0133     		add	r3, r3, #1
 2065              	.LVL240:
 2066              	.L153:
2304:.\Generated_Source\PSoC4/Slider.c **** 		{
 2067              		.loc 1 2304 0
 2068 002a B342     		cmp	r3, r6
 2069 002c FBD3     		bcc	.L154
2285:.\Generated_Source\PSoC4/Slider.c **** 	{
 2070              		.loc 1 2285 0 discriminator 2
 2071 002e 0137     		add	r7, r7, #1
 2072              	.LVL241:
 2073              	.L149:
2285:.\Generated_Source\PSoC4/Slider.c **** 	{
 2074              		.loc 1 2285 0 is_stmt 0 discriminator 1
 2075 0030 8742     		cmp	r7, r0
 2076 0032 E8D3     		bcc	.L155
2308:.\Generated_Source\PSoC4/Slider.c **** 		}
2309:.\Generated_Source\PSoC4/Slider.c **** 	}
2310:.\Generated_Source\PSoC4/Slider.c **** }
 2077              		.loc 1 2310 0 is_stmt 1
 2078              		@ sp needed
 2079              	.LVL242:
 2080 0034 F0BD     		pop	{r4, r5, r6, r7, pc}
 2081              	.L158:
 2082 0036 C046     		.align	2
 2083              	.L157:
 2084 0038 00000000 		.word	Slider_numberOfSensors
 2085 003c 00000000 		.word	Slider_rawDataIndex
 2086              		.cfi_endproc
 2087              	.LFE74:
 2088              		.size	Slider_NormalizeWidgets, .-Slider_NormalizeWidgets
 2089              		.global	Slider_prtDRTbl
 2090              		.global	Slider_prtCfgTbl
 2091              		.global	Slider_prtSelTbl
 2092              		.global	Slider_widgetNumber
 2093              		.comm	Slider_sampleClkDividerVal,5,4
 2094              		.comm	Slider_senseClkDividerVal,5,4
 2095              		.global	Slider_widgetResolution
 2096              		.comm	Slider_compensationIDAC,5,4
 2097              		.comm	Slider_modulationIDAC,5,4
 2098              		.global	Slider_pinShiftTbl
 2099              		.global	Slider_maskTable
 2100              		.global	Slider_portTable
 2101              		.global	Slider_pcTable
 2102              		.global	Slider_sensorEnableMask
 2103              		.comm	Slider_sensorEnableMaskBackup,1,4
 2104              		.comm	Slider_unscannedSnsDriveMode,5,4
 2105              		.comm	Slider_csdTrim1,1,1
 2106              		.global	Slider_sensorRaw
 2107              		.global	Slider_sensorIndex
 2108              		.global	Slider_csdStatusVar
 2109              		.comm	scanSpeedTbl,1,4
ARM GAS  C:\Users\ELECTR~1\AppData\Local\Temp\ccbbDBvf.s 			page 81


 2110              		.global	Slider_lowLevelTuningDone
 2111              		.section	.rodata
 2112              		.align	2
 2113              		.set	.LANCHOR2,. + 0
 2114              		.type	Slider_portTable, %object
 2115              		.size	Slider_portTable, 5
 2116              	Slider_portTable:
 2117 0000 02       		.byte	2
 2118 0001 02       		.byte	2
 2119 0002 02       		.byte	2
 2120 0003 02       		.byte	2
 2121 0004 02       		.byte	2
 2122 0005 000000   		.space	3
 2123              		.type	Slider_pinShiftTbl, %object
 2124              		.size	Slider_pinShiftTbl, 5
 2125              	Slider_pinShiftTbl:
 2126 0008 01       		.byte	1
 2127 0009 02       		.byte	2
 2128 000a 03       		.byte	3
 2129 000b 04       		.byte	4
 2130 000c 05       		.byte	5
 2131 000d 000000   		.space	3
 2132              		.type	Slider_prtSelTbl, %object
 2133              		.size	Slider_prtSelTbl, 24
 2134              	Slider_prtSelTbl:
 2135 0010 00000240 		.word	1073872896
 2136 0014 00010240 		.word	1073873152
 2137 0018 00020240 		.word	1073873408
 2138 001c 00030240 		.word	1073873664
 2139 0020 00040240 		.word	1073873920
 2140 0024 00050240 		.word	1073874176
 2141              		.type	Slider_prtCfgTbl, %object
 2142              		.size	Slider_prtCfgTbl, 24
 2143              	Slider_prtCfgTbl:
 2144 0028 08000440 		.word	1074003976
 2145 002c 08010440 		.word	1074004232
 2146 0030 08020440 		.word	1074004488
 2147 0034 08030440 		.word	1074004744
 2148 0038 08040440 		.word	1074005000
 2149 003c 08050440 		.word	1074005256
 2150              		.type	Slider_prtDRTbl, %object
 2151              		.size	Slider_prtDRTbl, 24
 2152              	Slider_prtDRTbl:
 2153 0040 00000440 		.word	1074003968
 2154 0044 00010440 		.word	1074004224
 2155 0048 00020440 		.word	1074004480
 2156 004c 00030440 		.word	1074004736
 2157 0050 00040440 		.word	1074004992
 2158 0054 00050440 		.word	1074005248
 2159              		.type	Slider_widgetNumber, %object
 2160              		.size	Slider_widgetNumber, 5
 2161              	Slider_widgetNumber:
 2162 0058 00000000 		.space	5
 2162      00
 2163 005d 000000   		.space	3
 2164              		.type	Slider_maskTable, %object
 2165              		.size	Slider_maskTable, 20
ARM GAS  C:\Users\ELECTR~1\AppData\Local\Temp\ccbbDBvf.s 			page 82


 2166              	Slider_maskTable:
 2167 0060 02000000 		.word	2
 2168 0064 04000000 		.word	4
 2169 0068 08000000 		.word	8
 2170 006c 10000000 		.word	16
 2171 0070 20000000 		.word	32
 2172              		.data
 2173              		.align	2
 2174              		.set	.LANCHOR1,. + 0
 2175              		.type	Slider_widgetResolution, %object
 2176              		.size	Slider_widgetResolution, 4
 2177              	Slider_widgetResolution:
 2178 0000 0000FF0F 		.word	268369920
 2179              		.type	Slider_sensorEnableMask, %object
 2180              		.size	Slider_sensorEnableMask, 1
 2181              	Slider_sensorEnableMask:
 2182 0004 1F       		.byte	31
 2183 0005 000000   		.space	3
 2184              		.type	Slider_pcTable, %object
 2185              		.size	Slider_pcTable, 20
 2186              	Slider_pcTable:
 2187 0008 08020440 		.word	1074004488
 2188 000c 08020440 		.word	1074004488
 2189 0010 08020440 		.word	1074004488
 2190 0014 08020440 		.word	1074004488
 2191 0018 08020440 		.word	1074004488
 2192              		.bss
 2193              		.align	2
 2194              		.set	.LANCHOR0,. + 0
 2195              		.type	Slider_csdStatusVar, %object
 2196              		.size	Slider_csdStatusVar, 1
 2197              	Slider_csdStatusVar:
 2198 0000 00       		.space	1
 2199 0001 000000   		.space	3
 2200              		.type	Slider_sensorRaw, %object
 2201              		.size	Slider_sensorRaw, 10
 2202              	Slider_sensorRaw:
 2203 0004 00000000 		.space	10
 2203      00000000 
 2203      0000
 2204              		.type	Slider_initVar.5274, %object
 2205              		.size	Slider_initVar.5274, 1
 2206              	Slider_initVar.5274:
 2207 000e 00       		.space	1
 2208              		.type	Slider_lowLevelTuningDone, %object
 2209              		.size	Slider_lowLevelTuningDone, 1
 2210              	Slider_lowLevelTuningDone:
 2211 000f 00       		.space	1
 2212              		.type	Slider_sensorIndex, %object
 2213              		.size	Slider_sensorIndex, 1
 2214              	Slider_sensorIndex:
 2215 0010 00       		.space	1
 2216 0011 000000   		.text
 2217              	.Letext0:
 2218              		.file 2 ".\\Generated_Source\\PSoC4\\cytypes.h"
 2219              		.file 3 ".\\Generated_Source\\PSoC4\\Slider_CSHL.h"
 2220              		.file 4 ".\\Generated_Source\\PSoC4\\CyLib.h"
ARM GAS  C:\Users\ELECTR~1\AppData\Local\Temp\ccbbDBvf.s 			page 83


 2221              		.file 5 ".\\Generated_Source\\PSoC4\\Slider_SenseClk.h"
 2222              		.file 6 ".\\Generated_Source\\PSoC4\\Slider_SampleClk.h"
 2223              		.file 7 ".\\Generated_Source\\PSoC4\\Slider.h"
 2224              		.section	.debug_info,"",%progbits
 2225              	.Ldebug_info0:
 2226 0000 20110000 		.4byte	0x1120
 2227 0004 0400     		.2byte	0x4
 2228 0006 00000000 		.4byte	.Ldebug_abbrev0
 2229 000a 04       		.byte	0x4
 2230 000b 01       		.uleb128 0x1
 2231 000c 85070000 		.4byte	.LASF137
 2232 0010 01       		.byte	0x1
 2233 0011 B6040000 		.4byte	.LASF138
 2234 0015 F4030000 		.4byte	.LASF139
 2235 0019 00000000 		.4byte	.Ldebug_ranges0+0
 2236 001d 00000000 		.4byte	0
 2237 0021 00000000 		.4byte	.Ldebug_line0
 2238 0025 02       		.uleb128 0x2
 2239 0026 01       		.byte	0x1
 2240 0027 06       		.byte	0x6
 2241 0028 77090000 		.4byte	.LASF0
 2242 002c 02       		.uleb128 0x2
 2243 002d 01       		.byte	0x1
 2244 002e 08       		.byte	0x8
 2245 002f A6080000 		.4byte	.LASF1
 2246 0033 02       		.uleb128 0x2
 2247 0034 02       		.byte	0x2
 2248 0035 05       		.byte	0x5
 2249 0036 58070000 		.4byte	.LASF2
 2250 003a 02       		.uleb128 0x2
 2251 003b 02       		.byte	0x2
 2252 003c 07       		.byte	0x7
 2253 003d AD090000 		.4byte	.LASF3
 2254 0041 02       		.uleb128 0x2
 2255 0042 04       		.byte	0x4
 2256 0043 05       		.byte	0x5
 2257 0044 62070000 		.4byte	.LASF4
 2258 0048 02       		.uleb128 0x2
 2259 0049 04       		.byte	0x4
 2260 004a 07       		.byte	0x7
 2261 004b 6C080000 		.4byte	.LASF5
 2262 004f 02       		.uleb128 0x2
 2263 0050 08       		.byte	0x8
 2264 0051 05       		.byte	0x5
 2265 0052 BD050000 		.4byte	.LASF6
 2266 0056 02       		.uleb128 0x2
 2267 0057 08       		.byte	0x8
 2268 0058 07       		.byte	0x7
 2269 0059 18020000 		.4byte	.LASF7
 2270 005d 03       		.uleb128 0x3
 2271 005e 04       		.byte	0x4
 2272 005f 05       		.byte	0x5
 2273 0060 696E7400 		.ascii	"int\000"
 2274 0064 02       		.uleb128 0x2
 2275 0065 04       		.byte	0x4
 2276 0066 07       		.byte	0x7
 2277 0067 9E000000 		.4byte	.LASF8
ARM GAS  C:\Users\ELECTR~1\AppData\Local\Temp\ccbbDBvf.s 			page 84


 2278 006b 04       		.uleb128 0x4
 2279 006c CC090000 		.4byte	.LASF9
 2280 0070 02       		.byte	0x2
 2281 0071 C1       		.byte	0xc1
 2282 0072 2C000000 		.4byte	0x2c
 2283 0076 04       		.uleb128 0x4
 2284 0077 56050000 		.4byte	.LASF10
 2285 007b 02       		.byte	0x2
 2286 007c C2       		.byte	0xc2
 2287 007d 3A000000 		.4byte	0x3a
 2288 0081 04       		.uleb128 0x4
 2289 0082 61060000 		.4byte	.LASF11
 2290 0086 02       		.byte	0x2
 2291 0087 C3       		.byte	0xc3
 2292 0088 48000000 		.4byte	0x48
 2293 008c 02       		.uleb128 0x2
 2294 008d 04       		.byte	0x4
 2295 008e 04       		.byte	0x4
 2296 008f FE010000 		.4byte	.LASF12
 2297 0093 02       		.uleb128 0x2
 2298 0094 08       		.byte	0x8
 2299 0095 04       		.byte	0x4
 2300 0096 D2090000 		.4byte	.LASF13
 2301 009a 02       		.uleb128 0x2
 2302 009b 01       		.byte	0x1
 2303 009c 08       		.byte	0x8
 2304 009d F5040000 		.4byte	.LASF14
 2305 00a1 05       		.uleb128 0x5
 2306 00a2 CB000000 		.4byte	.LASF15
 2307 00a6 02       		.byte	0x2
 2308 00a7 6B01     		.2byte	0x16b
 2309 00a9 AD000000 		.4byte	0xad
 2310 00ad 06       		.uleb128 0x6
 2311 00ae 6B000000 		.4byte	0x6b
 2312 00b2 05       		.uleb128 0x5
 2313 00b3 E6060000 		.4byte	.LASF16
 2314 00b7 02       		.byte	0x2
 2315 00b8 6D01     		.2byte	0x16d
 2316 00ba BE000000 		.4byte	0xbe
 2317 00be 06       		.uleb128 0x6
 2318 00bf 81000000 		.4byte	0x81
 2319 00c3 05       		.uleb128 0x5
 2320 00c4 3B060000 		.4byte	.LASF17
 2321 00c8 02       		.byte	0x2
 2322 00c9 7D01     		.2byte	0x17d
 2323 00cb CF000000 		.4byte	0xcf
 2324 00cf 07       		.uleb128 0x7
 2325 00d0 04       		.byte	0x4
 2326 00d1 D5000000 		.4byte	0xd5
 2327 00d5 08       		.uleb128 0x8
 2328 00d6 02       		.uleb128 0x2
 2329 00d7 04       		.byte	0x4
 2330 00d8 07       		.byte	0x7
 2331 00d9 63080000 		.4byte	.LASF18
 2332 00dd 07       		.uleb128 0x7
 2333 00de 04       		.byte	0x4
 2334 00df 6B000000 		.4byte	0x6b
ARM GAS  C:\Users\ELECTR~1\AppData\Local\Temp\ccbbDBvf.s 			page 85


 2335 00e3 07       		.uleb128 0x7
 2336 00e4 04       		.byte	0x4
 2337 00e5 E9000000 		.4byte	0xe9
 2338 00e9 09       		.uleb128 0x9
 2339 00ea 6B000000 		.4byte	0x6b
 2340 00ee 0A       		.uleb128 0xa
 2341 00ef 3A090000 		.4byte	.LASF19
 2342 00f3 01       		.byte	0x1
 2343 00f4 0301     		.2byte	0x103
 2344 00f6 00000000 		.4byte	.LFB36
 2345 00fa 80000000 		.4byte	.LFE36-.LFB36
 2346 00fe 01       		.uleb128 0x1
 2347 00ff 9C       		.byte	0x9c
 2348 0100 4F010000 		.4byte	0x14f
 2349 0104 0B       		.uleb128 0xb
 2350 0105 C0090000 		.4byte	.LASF21
 2351 0109 01       		.byte	0x1
 2352 010a 0501     		.2byte	0x105
 2353 010c 81000000 		.4byte	0x81
 2354 0110 00000000 		.4byte	.LLST0
 2355 0114 0C       		.uleb128 0xc
 2356 0115 48000000 		.4byte	.LVL12
 2357 0119 33100000 		.4byte	0x1033
 2358 011d 27010000 		.4byte	0x127
 2359 0121 0D       		.uleb128 0xd
 2360 0122 01       		.uleb128 0x1
 2361 0123 50       		.byte	0x50
 2362 0124 01       		.uleb128 0x1
 2363 0125 40       		.byte	0x40
 2364 0126 00       		.byte	0
 2365 0127 0C       		.uleb128 0xc
 2366 0128 50000000 		.4byte	.LVL13
 2367 012c 44100000 		.4byte	0x1044
 2368 0130 3A010000 		.4byte	0x13a
 2369 0134 0D       		.uleb128 0xd
 2370 0135 01       		.uleb128 0x1
 2371 0136 50       		.byte	0x50
 2372 0137 01       		.uleb128 0x1
 2373 0138 40       		.byte	0x40
 2374 0139 00       		.byte	0
 2375 013a 0E       		.uleb128 0xe
 2376 013b 58000000 		.4byte	.LVL14
 2377 013f 5E100000 		.4byte	0x105e
 2378 0143 0D       		.uleb128 0xd
 2379 0144 01       		.uleb128 0x1
 2380 0145 51       		.byte	0x51
 2381 0146 01       		.uleb128 0x1
 2382 0147 33       		.byte	0x33
 2383 0148 0D       		.uleb128 0xd
 2384 0149 01       		.uleb128 0x1
 2385 014a 50       		.byte	0x50
 2386 014b 01       		.uleb128 0x1
 2387 014c 40       		.byte	0x40
 2388 014d 00       		.byte	0
 2389 014e 00       		.byte	0
 2390 014f 0A       		.uleb128 0xa
 2391 0150 7D060000 		.4byte	.LASF20
ARM GAS  C:\Users\ELECTR~1\AppData\Local\Temp\ccbbDBvf.s 			page 86


 2392 0154 01       		.byte	0x1
 2393 0155 5801     		.2byte	0x158
 2394 0157 00000000 		.4byte	.LFB37
 2395 015b 40000000 		.4byte	.LFE37-.LFB37
 2396 015f 01       		.uleb128 0x1
 2397 0160 9C       		.byte	0x9c
 2398 0161 EF010000 		.4byte	0x1ef
 2399 0165 0B       		.uleb128 0xb
 2400 0166 C0090000 		.4byte	.LASF21
 2401 016a 01       		.byte	0x1
 2402 016b 5A01     		.2byte	0x15a
 2403 016d 81000000 		.4byte	0x81
 2404 0171 56000000 		.4byte	.LLST1
 2405 0175 0F       		.uleb128 0xf
 2406 0176 06000000 		.4byte	.LVL15
 2407 017a 74100000 		.4byte	0x1074
 2408 017e 0F       		.uleb128 0xf
 2409 017f 0A000000 		.4byte	.LVL16
 2410 0183 7B100000 		.4byte	0x107b
 2411 0187 0C       		.uleb128 0xc
 2412 0188 12000000 		.4byte	.LVL17
 2413 018c 82100000 		.4byte	0x1082
 2414 0190 9F010000 		.4byte	0x19f
 2415 0194 0D       		.uleb128 0xd
 2416 0195 01       		.uleb128 0x1
 2417 0196 51       		.byte	0x51
 2418 0197 01       		.uleb128 0x1
 2419 0198 30       		.byte	0x30
 2420 0199 0D       		.uleb128 0xd
 2421 019a 01       		.uleb128 0x1
 2422 019b 50       		.byte	0x50
 2423 019c 01       		.uleb128 0x1
 2424 019d 30       		.byte	0x30
 2425 019e 00       		.byte	0
 2426 019f 0C       		.uleb128 0xc
 2427 01a0 1A000000 		.4byte	.LVL18
 2428 01a4 98100000 		.4byte	0x1098
 2429 01a8 B7010000 		.4byte	0x1b7
 2430 01ac 0D       		.uleb128 0xd
 2431 01ad 01       		.uleb128 0x1
 2432 01ae 51       		.byte	0x51
 2433 01af 01       		.uleb128 0x1
 2434 01b0 30       		.byte	0x30
 2435 01b1 0D       		.uleb128 0xd
 2436 01b2 01       		.uleb128 0x1
 2437 01b3 50       		.byte	0x50
 2438 01b4 01       		.uleb128 0x1
 2439 01b5 30       		.byte	0x30
 2440 01b6 00       		.byte	0
 2441 01b7 0C       		.uleb128 0xc
 2442 01b8 20000000 		.4byte	.LVL19
 2443 01bc AE100000 		.4byte	0x10ae
 2444 01c0 CB010000 		.4byte	0x1cb
 2445 01c4 0D       		.uleb128 0xd
 2446 01c5 01       		.uleb128 0x1
 2447 01c6 50       		.byte	0x50
 2448 01c7 02       		.uleb128 0x2
ARM GAS  C:\Users\ELECTR~1\AppData\Local\Temp\ccbbDBvf.s 			page 87


 2449 01c8 08       		.byte	0x8
 2450 01c9 FF       		.byte	0xff
 2451 01ca 00       		.byte	0
 2452 01cb 0C       		.uleb128 0xc
 2453 01cc 26000000 		.4byte	.LVL20
 2454 01d0 BF100000 		.4byte	0x10bf
 2455 01d4 DF010000 		.4byte	0x1df
 2456 01d8 0D       		.uleb128 0xd
 2457 01d9 01       		.uleb128 0x1
 2458 01da 50       		.byte	0x50
 2459 01db 02       		.uleb128 0x2
 2460 01dc 08       		.byte	0x8
 2461 01dd 40       		.byte	0x40
 2462 01de 00       		.byte	0
 2463 01df 0E       		.uleb128 0xe
 2464 01e0 36000000 		.4byte	.LVL23
 2465 01e4 D0100000 		.4byte	0x10d0
 2466 01e8 0D       		.uleb128 0xd
 2467 01e9 01       		.uleb128 0x1
 2468 01ea 50       		.byte	0x50
 2469 01eb 01       		.uleb128 0x1
 2470 01ec 40       		.byte	0x40
 2471 01ed 00       		.byte	0
 2472 01ee 00       		.byte	0
 2473 01ef 0A       		.uleb128 0xa
 2474 01f0 6F0A0000 		.4byte	.LASF22
 2475 01f4 01       		.byte	0x1
 2476 01f5 EF01     		.2byte	0x1ef
 2477 01f7 00000000 		.4byte	.LFB39
 2478 01fb 2C000000 		.4byte	.LFE39-.LFB39
 2479 01ff 01       		.uleb128 0x1
 2480 0200 9C       		.byte	0x9c
 2481 0201 2B020000 		.4byte	0x22b
 2482 0205 0C       		.uleb128 0xc
 2483 0206 08000000 		.4byte	.LVL24
 2484 020a 33100000 		.4byte	0x1033
 2485 020e 18020000 		.4byte	0x218
 2486 0212 0D       		.uleb128 0xd
 2487 0213 01       		.uleb128 0x1
 2488 0214 50       		.byte	0x50
 2489 0215 01       		.uleb128 0x1
 2490 0216 40       		.byte	0x40
 2491 0217 00       		.byte	0
 2492 0218 0F       		.uleb128 0xf
 2493 0219 1E000000 		.4byte	.LVL25
 2494 021d 74100000 		.4byte	0x1074
 2495 0221 0F       		.uleb128 0xf
 2496 0222 22000000 		.4byte	.LVL26
 2497 0226 7B100000 		.4byte	0x107b
 2498 022a 00       		.byte	0
 2499 022b 10       		.uleb128 0x10
 2500 022c 1E050000 		.4byte	.LASF57
 2501 0230 01       		.byte	0x1
 2502 0231 EA02     		.2byte	0x2ea
 2503 0233 81000000 		.4byte	0x81
 2504 0237 00000000 		.4byte	.LFB44
 2505 023b 10000000 		.4byte	.LFE44-.LFB44
ARM GAS  C:\Users\ELECTR~1\AppData\Local\Temp\ccbbDBvf.s 			page 88


 2506 023f 01       		.uleb128 0x1
 2507 0240 9C       		.byte	0x9c
 2508 0241 11       		.uleb128 0x11
 2509 0242 FC050000 		.4byte	.LASF29
 2510 0246 01       		.byte	0x1
 2511 0247 0803     		.2byte	0x308
 2512 0249 76000000 		.4byte	0x76
 2513 024d 00000000 		.4byte	.LFB45
 2514 0251 10000000 		.4byte	.LFE45-.LFB45
 2515 0255 01       		.uleb128 0x1
 2516 0256 9C       		.byte	0x9c
 2517 0257 6C020000 		.4byte	0x26c
 2518 025b 12       		.uleb128 0x12
 2519 025c 99040000 		.4byte	.LASF24
 2520 0260 01       		.byte	0x1
 2521 0261 0803     		.2byte	0x308
 2522 0263 81000000 		.4byte	0x81
 2523 0267 69000000 		.4byte	.LLST2
 2524 026b 00       		.byte	0
 2525 026c 0A       		.uleb128 0xa
 2526 026d 6F000000 		.4byte	.LASF23
 2527 0271 01       		.byte	0x1
 2528 0272 2303     		.2byte	0x323
 2529 0274 00000000 		.4byte	.LFB46
 2530 0278 10000000 		.4byte	.LFE46-.LFB46
 2531 027c 01       		.uleb128 0x1
 2532 027d 9C       		.byte	0x9c
 2533 027e A1020000 		.4byte	0x2a1
 2534 0282 12       		.uleb128 0x12
 2535 0283 99040000 		.4byte	.LASF24
 2536 0287 01       		.byte	0x1
 2537 0288 2303     		.2byte	0x323
 2538 028a 81000000 		.4byte	0x81
 2539 028e 8A000000 		.4byte	.LLST3
 2540 0292 13       		.uleb128 0x13
 2541 0293 BA020000 		.4byte	.LASF25
 2542 0297 01       		.byte	0x1
 2543 0298 2303     		.2byte	0x323
 2544 029a 76000000 		.4byte	0x76
 2545 029e 01       		.uleb128 0x1
 2546 029f 51       		.byte	0x51
 2547 02a0 00       		.byte	0
 2548 02a1 0A       		.uleb128 0xa
 2549 02a2 48060000 		.4byte	.LASF26
 2550 02a6 01       		.byte	0x1
 2551 02a7 4D03     		.2byte	0x34d
 2552 02a9 00000000 		.4byte	.LFB47
 2553 02ad 0C000000 		.4byte	.LFE47-.LFB47
 2554 02b1 01       		.uleb128 0x1
 2555 02b2 9C       		.byte	0x9c
 2556 02b3 D6020000 		.4byte	0x2d6
 2557 02b7 12       		.uleb128 0x12
 2558 02b8 64020000 		.4byte	.LASF27
 2559 02bc 01       		.byte	0x1
 2560 02bd 4D03     		.2byte	0x34d
 2561 02bf 81000000 		.4byte	0x81
 2562 02c3 AB000000 		.4byte	.LLST4
ARM GAS  C:\Users\ELECTR~1\AppData\Local\Temp\ccbbDBvf.s 			page 89


 2563 02c7 13       		.uleb128 0x13
 2564 02c8 91050000 		.4byte	.LASF28
 2565 02cc 01       		.byte	0x1
 2566 02cd 4D03     		.2byte	0x34d
 2567 02cf 81000000 		.4byte	0x81
 2568 02d3 01       		.uleb128 0x1
 2569 02d4 51       		.byte	0x51
 2570 02d5 00       		.byte	0
 2571 02d6 11       		.uleb128 0x11
 2572 02d7 CB050000 		.4byte	.LASF30
 2573 02db 01       		.byte	0x1
 2574 02dc 7603     		.2byte	0x376
 2575 02de 81000000 		.4byte	0x81
 2576 02e2 00000000 		.4byte	.LFB48
 2577 02e6 0C000000 		.4byte	.LFE48-.LFB48
 2578 02ea 01       		.uleb128 0x1
 2579 02eb 9C       		.byte	0x9c
 2580 02ec 01030000 		.4byte	0x301
 2581 02f0 12       		.uleb128 0x12
 2582 02f1 64020000 		.4byte	.LASF27
 2583 02f5 01       		.byte	0x1
 2584 02f6 7603     		.2byte	0x376
 2585 02f8 81000000 		.4byte	0x81
 2586 02fc CC000000 		.4byte	.LLST5
 2587 0300 00       		.byte	0
 2588 0301 0A       		.uleb128 0xa
 2589 0302 A9050000 		.4byte	.LASF31
 2590 0306 01       		.byte	0x1
 2591 0307 2F04     		.2byte	0x42f
 2592 0309 00000000 		.4byte	.LFB50
 2593 030d 48000000 		.4byte	.LFE50-.LFB50
 2594 0311 01       		.uleb128 0x1
 2595 0312 9C       		.byte	0x9c
 2596 0313 8A030000 		.4byte	0x38a
 2597 0317 12       		.uleb128 0x12
 2598 0318 99040000 		.4byte	.LASF24
 2599 031c 01       		.byte	0x1
 2600 031d 2F04     		.2byte	0x42f
 2601 031f 81000000 		.4byte	0x81
 2602 0323 ED000000 		.4byte	.LLST6
 2603 0327 0B       		.uleb128 0xb
 2604 0328 80010000 		.4byte	.LASF32
 2605 032c 01       		.byte	0x1
 2606 032d 3104     		.2byte	0x431
 2607 032f 6B000000 		.4byte	0x6b
 2608 0333 0E010000 		.4byte	.LLST7
 2609 0337 0B       		.uleb128 0xb
 2610 0338 23010000 		.4byte	.LASF33
 2611 033c 01       		.byte	0x1
 2612 033d 3204     		.2byte	0x432
 2613 033f 6B000000 		.4byte	0x6b
 2614 0343 73010000 		.4byte	.LLST8
 2615 0347 0B       		.uleb128 0xb
 2616 0348 BC000000 		.4byte	.LASF34
 2617 034c 01       		.byte	0x1
 2618 034d 3304     		.2byte	0x433
 2619 034f 6B000000 		.4byte	0x6b
ARM GAS  C:\Users\ELECTR~1\AppData\Local\Temp\ccbbDBvf.s 			page 90


 2620 0353 B5010000 		.4byte	.LLST9
 2621 0357 0B       		.uleb128 0xb
 2622 0358 E5020000 		.4byte	.LASF35
 2623 035c 01       		.byte	0x1
 2624 035d 3404     		.2byte	0x434
 2625 035f 81000000 		.4byte	0x81
 2626 0363 C8010000 		.4byte	.LLST10
 2627 0367 0B       		.uleb128 0xb
 2628 0368 7E080000 		.4byte	.LASF36
 2629 036c 01       		.byte	0x1
 2630 036d 3504     		.2byte	0x435
 2631 036f 81000000 		.4byte	0x81
 2632 0373 F1010000 		.4byte	.LLST11
 2633 0377 0F       		.uleb128 0xf
 2634 0378 18000000 		.4byte	.LVL40
 2635 037c E1100000 		.4byte	0x10e1
 2636 0380 0F       		.uleb128 0xf
 2637 0381 40000000 		.4byte	.LVL47
 2638 0385 EC100000 		.4byte	0x10ec
 2639 0389 00       		.byte	0
 2640 038a 0A       		.uleb128 0xa
 2641 038b 18090000 		.4byte	.LASF37
 2642 038f 01       		.byte	0x1
 2643 0390 6404     		.2byte	0x464
 2644 0392 00000000 		.4byte	.LFB51
 2645 0396 70000000 		.4byte	.LFE51-.LFB51
 2646 039a 01       		.uleb128 0x1
 2647 039b 9C       		.byte	0x9c
 2648 039c 33040000 		.4byte	0x433
 2649 03a0 12       		.uleb128 0x12
 2650 03a1 99040000 		.4byte	.LASF24
 2651 03a5 01       		.byte	0x1
 2652 03a6 6404     		.2byte	0x464
 2653 03a8 81000000 		.4byte	0x81
 2654 03ac 33020000 		.4byte	.LLST12
 2655 03b0 0B       		.uleb128 0xb
 2656 03b1 BC000000 		.4byte	.LASF34
 2657 03b5 01       		.byte	0x1
 2658 03b6 6604     		.2byte	0x466
 2659 03b8 6B000000 		.4byte	0x6b
 2660 03bc 54020000 		.4byte	.LLST13
 2661 03c0 0B       		.uleb128 0xb
 2662 03c1 E5020000 		.4byte	.LASF35
 2663 03c5 01       		.byte	0x1
 2664 03c6 6704     		.2byte	0x467
 2665 03c8 81000000 		.4byte	0x81
 2666 03cc 67020000 		.4byte	.LLST14
 2667 03d0 0B       		.uleb128 0xb
 2668 03d1 7E080000 		.4byte	.LASF36
 2669 03d5 01       		.byte	0x1
 2670 03d6 6904     		.2byte	0x469
 2671 03d8 81000000 		.4byte	0x81
 2672 03dc 90020000 		.4byte	.LLST15
 2673 03e0 0B       		.uleb128 0xb
 2674 03e1 23010000 		.4byte	.LASF33
 2675 03e5 01       		.byte	0x1
 2676 03e6 6A04     		.2byte	0x46a
ARM GAS  C:\Users\ELECTR~1\AppData\Local\Temp\ccbbDBvf.s 			page 91


 2677 03e8 6B000000 		.4byte	0x6b
 2678 03ec EB020000 		.4byte	.LLST16
 2679 03f0 0B       		.uleb128 0xb
 2680 03f1 80010000 		.4byte	.LASF32
 2681 03f5 01       		.byte	0x1
 2682 03f6 6B04     		.2byte	0x46b
 2683 03f8 6B000000 		.4byte	0x6b
 2684 03fc 25030000 		.4byte	.LLST17
 2685 0400 0B       		.uleb128 0xb
 2686 0401 8D010000 		.4byte	.LASF38
 2687 0405 01       		.byte	0x1
 2688 0406 6D04     		.2byte	0x46d
 2689 0408 81000000 		.4byte	0x81
 2690 040c 74030000 		.4byte	.LLST18
 2691 0410 0B       		.uleb128 0xb
 2692 0411 10030000 		.4byte	.LASF39
 2693 0415 01       		.byte	0x1
 2694 0416 6E04     		.2byte	0x46e
 2695 0418 81000000 		.4byte	0x81
 2696 041c 93030000 		.4byte	.LLST19
 2697 0420 0F       		.uleb128 0xf
 2698 0421 3C000000 		.4byte	.LVL57
 2699 0425 E1100000 		.4byte	0x10e1
 2700 0429 0F       		.uleb128 0xf
 2701 042a 5A000000 		.4byte	.LVL64
 2702 042e EC100000 		.4byte	0x10ec
 2703 0432 00       		.byte	0
 2704 0433 0A       		.uleb128 0xa
 2705 0434 6C010000 		.4byte	.LASF40
 2706 0438 01       		.byte	0x1
 2707 0439 9103     		.2byte	0x391
 2708 043b 00000000 		.4byte	.LFB49
 2709 043f 14000000 		.4byte	.LFE49-.LFB49
 2710 0443 01       		.uleb128 0x1
 2711 0444 9C       		.byte	0x9c
 2712 0445 6A040000 		.4byte	0x46a
 2713 0449 0B       		.uleb128 0xb
 2714 044a CD060000 		.4byte	.LASF41
 2715 044e 01       		.byte	0x1
 2716 044f 9303     		.2byte	0x393
 2717 0451 81000000 		.4byte	0x81
 2718 0455 A6030000 		.4byte	.LLST20
 2719 0459 0E       		.uleb128 0xe
 2720 045a 0C000000 		.4byte	.LVL70
 2721 045e 8A030000 		.4byte	0x38a
 2722 0462 0D       		.uleb128 0xd
 2723 0463 01       		.uleb128 0x1
 2724 0464 50       		.byte	0x50
 2725 0465 02       		.uleb128 0x2
 2726 0466 74       		.byte	0x74
 2727 0467 00       		.sleb128 0
 2728 0468 00       		.byte	0
 2729 0469 00       		.byte	0
 2730 046a 0A       		.uleb128 0xa
 2731 046b EC060000 		.4byte	.LASF42
 2732 046f 01       		.byte	0x1
 2733 0470 2E05     		.2byte	0x52e
ARM GAS  C:\Users\ELECTR~1\AppData\Local\Temp\ccbbDBvf.s 			page 92


 2734 0472 00000000 		.4byte	.LFB54
 2735 0476 24000000 		.4byte	.LFE54-.LFB54
 2736 047a 01       		.uleb128 0x1
 2737 047b 9C       		.byte	0x9c
 2738 047c CF040000 		.4byte	0x4cf
 2739 0480 12       		.uleb128 0x12
 2740 0481 400A0000 		.4byte	.LASF43
 2741 0485 01       		.byte	0x1
 2742 0486 2E05     		.2byte	0x52e
 2743 0488 81000000 		.4byte	0x81
 2744 048c C5030000 		.4byte	.LLST21
 2745 0490 12       		.uleb128 0x12
 2746 0491 B2060000 		.4byte	.LASF44
 2747 0495 01       		.byte	0x1
 2748 0496 2E05     		.2byte	0x52e
 2749 0498 81000000 		.4byte	0x81
 2750 049c E6030000 		.4byte	.LLST22
 2751 04a0 12       		.uleb128 0x12
 2752 04a1 1D070000 		.4byte	.LASF45
 2753 04a5 01       		.byte	0x1
 2754 04a6 2E05     		.2byte	0x52e
 2755 04a8 81000000 		.4byte	0x81
 2756 04ac 07040000 		.4byte	.LLST23
 2757 04b0 14       		.uleb128 0x14
 2758 04b1 80010000 		.4byte	.LASF32
 2759 04b5 01       		.byte	0x1
 2760 04b6 3005     		.2byte	0x530
 2761 04b8 81000000 		.4byte	0x81
 2762 04bc 01       		.uleb128 0x1
 2763 04bd 51       		.byte	0x51
 2764 04be 0B       		.uleb128 0xb
 2765 04bf E5020000 		.4byte	.LASF35
 2766 04c3 01       		.byte	0x1
 2767 04c4 3105     		.2byte	0x531
 2768 04c6 81000000 		.4byte	0x81
 2769 04ca 28040000 		.4byte	.LLST24
 2770 04ce 00       		.byte	0
 2771 04cf 0A       		.uleb128 0xa
 2772 04d0 92090000 		.4byte	.LASF46
 2773 04d4 01       		.byte	0x1
 2774 04d5 B104     		.2byte	0x4b1
 2775 04d7 00000000 		.4byte	.LFB52
 2776 04db 30000000 		.4byte	.LFE52-.LFB52
 2777 04df 01       		.uleb128 0x1
 2778 04e0 9C       		.byte	0x9c
 2779 04e1 76050000 		.4byte	0x576
 2780 04e5 12       		.uleb128 0x12
 2781 04e6 400A0000 		.4byte	.LASF43
 2782 04ea 01       		.byte	0x1
 2783 04eb B104     		.2byte	0x4b1
 2784 04ed 81000000 		.4byte	0x81
 2785 04f1 46040000 		.4byte	.LLST25
 2786 04f5 0B       		.uleb128 0xb
 2787 04f6 060A0000 		.4byte	.LASF47
 2788 04fa 01       		.byte	0x1
 2789 04fb B304     		.2byte	0x4b3
 2790 04fd 6B000000 		.4byte	0x6b
ARM GAS  C:\Users\ELECTR~1\AppData\Local\Temp\ccbbDBvf.s 			page 93


 2791 0501 72040000 		.4byte	.LLST26
 2792 0505 0B       		.uleb128 0xb
 2793 0506 8F030000 		.4byte	.LASF48
 2794 050a 01       		.byte	0x1
 2795 050b B804     		.2byte	0x4b8
 2796 050d 81000000 		.4byte	0x81
 2797 0511 9C040000 		.4byte	.LLST27
 2798 0515 0B       		.uleb128 0xb
 2799 0516 9C050000 		.4byte	.LASF49
 2800 051a 01       		.byte	0x1
 2801 051b B904     		.2byte	0x4b9
 2802 051d 81000000 		.4byte	0x81
 2803 0521 DF040000 		.4byte	.LLST28
 2804 0525 0C       		.uleb128 0xc
 2805 0526 16000000 		.4byte	.LVL85
 2806 052a 6A040000 		.4byte	0x46a
 2807 052e 5B050000 		.4byte	0x55b
 2808 0532 0D       		.uleb128 0xd
 2809 0533 01       		.uleb128 0x1
 2810 0534 52       		.byte	0x52
 2811 0535 0D       		.uleb128 0xd
 2812 0536 74       		.byte	0x74
 2813 0537 00       		.sleb128 0
 2814 0538 03       		.byte	0x3
 2815 0539 00000000 		.4byte	.LANCHOR2
 2816 053d 22       		.byte	0x22
 2817 053e 94       		.byte	0x94
 2818 053f 01       		.byte	0x1
 2819 0540 08       		.byte	0x8
 2820 0541 FF       		.byte	0xff
 2821 0542 1A       		.byte	0x1a
 2822 0543 0D       		.uleb128 0xd
 2823 0544 01       		.uleb128 0x1
 2824 0545 51       		.byte	0x51
 2825 0546 0D       		.uleb128 0xd
 2826 0547 74       		.byte	0x74
 2827 0548 00       		.sleb128 0
 2828 0549 03       		.byte	0x3
 2829 054a 08000000 		.4byte	.LANCHOR2+8
 2830 054e 22       		.byte	0x22
 2831 054f 94       		.byte	0x94
 2832 0550 01       		.byte	0x1
 2833 0551 08       		.byte	0x8
 2834 0552 FF       		.byte	0xff
 2835 0553 1A       		.byte	0x1a
 2836 0554 0D       		.uleb128 0xd
 2837 0555 01       		.uleb128 0x1
 2838 0556 50       		.byte	0x50
 2839 0557 02       		.uleb128 0x2
 2840 0558 75       		.byte	0x75
 2841 0559 00       		.sleb128 0
 2842 055a 00       		.byte	0
 2843 055b 0E       		.uleb128 0xe
 2844 055c 28000000 		.4byte	.LVL88
 2845 0560 6A040000 		.4byte	0x46a
 2846 0564 0D       		.uleb128 0xd
 2847 0565 01       		.uleb128 0x1
ARM GAS  C:\Users\ELECTR~1\AppData\Local\Temp\ccbbDBvf.s 			page 94


 2848 0566 52       		.byte	0x52
 2849 0567 01       		.uleb128 0x1
 2850 0568 34       		.byte	0x34
 2851 0569 0D       		.uleb128 0xd
 2852 056a 01       		.uleb128 0x1
 2853 056b 51       		.byte	0x51
 2854 056c 01       		.uleb128 0x1
 2855 056d 30       		.byte	0x30
 2856 056e 0D       		.uleb128 0xd
 2857 056f 01       		.uleb128 0x1
 2858 0570 50       		.byte	0x50
 2859 0571 02       		.uleb128 0x2
 2860 0572 75       		.byte	0x75
 2861 0573 00       		.sleb128 0
 2862 0574 00       		.byte	0
 2863 0575 00       		.byte	0
 2864 0576 0A       		.uleb128 0xa
 2865 0577 9B020000 		.4byte	.LASF50
 2866 057b 01       		.byte	0x1
 2867 057c FA04     		.2byte	0x4fa
 2868 057e 00000000 		.4byte	.LFB53
 2869 0582 1C000000 		.4byte	.LFE53-.LFB53
 2870 0586 01       		.uleb128 0x1
 2871 0587 9C       		.byte	0x9c
 2872 0588 AA050000 		.4byte	0x5aa
 2873 058c 14       		.uleb128 0x14
 2874 058d E5020000 		.4byte	.LASF35
 2875 0591 01       		.byte	0x1
 2876 0592 FC04     		.2byte	0x4fc
 2877 0594 81000000 		.4byte	0x81
 2878 0598 01       		.uleb128 0x1
 2879 0599 53       		.byte	0x53
 2880 059a 0E       		.uleb128 0xe
 2881 059b 08000000 		.4byte	.LVL91
 2882 059f CF040000 		.4byte	0x4cf
 2883 05a3 0D       		.uleb128 0xd
 2884 05a4 01       		.uleb128 0x1
 2885 05a5 50       		.byte	0x50
 2886 05a6 01       		.uleb128 0x1
 2887 05a7 30       		.byte	0x30
 2888 05a8 00       		.byte	0
 2889 05a9 00       		.byte	0
 2890 05aa 0A       		.uleb128 0xa
 2891 05ab 1D080000 		.4byte	.LASF51
 2892 05af 01       		.byte	0x1
 2893 05b0 6906     		.2byte	0x669
 2894 05b2 00000000 		.4byte	.LFB57
 2895 05b6 34000000 		.4byte	.LFE57-.LFB57
 2896 05ba 01       		.uleb128 0x1
 2897 05bb 9C       		.byte	0x9c
 2898 05bc F1050000 		.4byte	0x5f1
 2899 05c0 12       		.uleb128 0x12
 2900 05c1 B2060000 		.4byte	.LASF44
 2901 05c5 01       		.byte	0x1
 2902 05c6 6906     		.2byte	0x669
 2903 05c8 81000000 		.4byte	0x81
 2904 05cc 22050000 		.4byte	.LLST29
ARM GAS  C:\Users\ELECTR~1\AppData\Local\Temp\ccbbDBvf.s 			page 95


 2905 05d0 12       		.uleb128 0x12
 2906 05d1 1D070000 		.4byte	.LASF45
 2907 05d5 01       		.byte	0x1
 2908 05d6 6906     		.2byte	0x669
 2909 05d8 81000000 		.4byte	0x81
 2910 05dc 43050000 		.4byte	.LLST30
 2911 05e0 0B       		.uleb128 0xb
 2912 05e1 C0090000 		.4byte	.LASF21
 2913 05e5 01       		.byte	0x1
 2914 05e6 6B06     		.2byte	0x66b
 2915 05e8 81000000 		.4byte	0x81
 2916 05ec 64050000 		.4byte	.LLST31
 2917 05f0 00       		.byte	0
 2918 05f1 0A       		.uleb128 0xa
 2919 05f2 4A0A0000 		.4byte	.LASF52
 2920 05f6 01       		.byte	0x1
 2921 05f7 8C06     		.2byte	0x68c
 2922 05f9 00000000 		.4byte	.LFB58
 2923 05fd 14000000 		.4byte	.LFE58-.LFB58
 2924 0601 01       		.uleb128 0x1
 2925 0602 9C       		.byte	0x9c
 2926 0603 28060000 		.4byte	0x628
 2927 0607 12       		.uleb128 0x12
 2928 0608 6B070000 		.4byte	.LASF53
 2929 060c 01       		.byte	0x1
 2930 060d 8C06     		.2byte	0x68c
 2931 060f 81000000 		.4byte	0x81
 2932 0613 82050000 		.4byte	.LLST32
 2933 0617 0B       		.uleb128 0xb
 2934 0618 C0090000 		.4byte	.LASF21
 2935 061c 01       		.byte	0x1
 2936 061d 8E06     		.2byte	0x68e
 2937 061f 81000000 		.4byte	0x81
 2938 0623 B0050000 		.4byte	.LLST33
 2939 0627 00       		.byte	0
 2940 0628 15       		.uleb128 0x15
 2941 0629 5D050000 		.4byte	.LASF54
 2942 062d 01       		.byte	0x1
 2943 062e C2       		.byte	0xc2
 2944 062f 00000000 		.4byte	.LFB35
 2945 0633 28000000 		.4byte	.LFE35-.LFB35
 2946 0637 01       		.uleb128 0x1
 2947 0638 9C       		.byte	0x9c
 2948 0639 72060000 		.4byte	0x672
 2949 063d 16       		.uleb128 0x16
 2950 063e 060A0000 		.4byte	.LASF47
 2951 0642 01       		.byte	0x1
 2952 0643 C4       		.byte	0xc4
 2953 0644 81000000 		.4byte	0x81
 2954 0648 CE050000 		.4byte	.LLST34
 2955 064c 0F       		.uleb128 0xf
 2956 064d 16000000 		.4byte	.LVL109
 2957 0651 EE000000 		.4byte	0xee
 2958 0655 0C       		.uleb128 0xc
 2959 0656 1C000000 		.4byte	.LVL110
 2960 065a F1050000 		.4byte	0x5f1
 2961 065e 68060000 		.4byte	0x668
ARM GAS  C:\Users\ELECTR~1\AppData\Local\Temp\ccbbDBvf.s 			page 96


 2962 0662 0D       		.uleb128 0xd
 2963 0663 01       		.uleb128 0x1
 2964 0664 50       		.byte	0x50
 2965 0665 01       		.uleb128 0x1
 2966 0666 30       		.byte	0x30
 2967 0667 00       		.byte	0
 2968 0668 0F       		.uleb128 0xf
 2969 0669 20000000 		.4byte	.LVL111
 2970 066d 33040000 		.4byte	0x433
 2971 0671 00       		.byte	0
 2972 0672 0A       		.uleb128 0xa
 2973 0673 C0020000 		.4byte	.LASF55
 2974 0677 01       		.byte	0x1
 2975 0678 9301     		.2byte	0x193
 2976 067a 00000000 		.4byte	.LFB38
 2977 067e 38000000 		.4byte	.LFE38-.LFB38
 2978 0682 01       		.uleb128 0x1
 2979 0683 9C       		.byte	0x9c
 2980 0684 B6060000 		.4byte	0x6b6
 2981 0688 14       		.uleb128 0x14
 2982 0689 83090000 		.4byte	.LASF56
 2983 068d 01       		.byte	0x1
 2984 068e 9601     		.2byte	0x196
 2985 0690 6B000000 		.4byte	0x6b
 2986 0694 05       		.uleb128 0x5
 2987 0695 03       		.byte	0x3
 2988 0696 0E000000 		.4byte	Slider_initVar.5274
 2989 069a 0F       		.uleb128 0xf
 2990 069b 0E000000 		.4byte	.LVL112
 2991 069f 28060000 		.4byte	0x628
 2992 06a3 0F       		.uleb128 0xf
 2993 06a4 18000000 		.4byte	.LVL113
 2994 06a8 4F010000 		.4byte	0x14f
 2995 06ac 0F       		.uleb128 0xf
 2996 06ad 1C000000 		.4byte	.LVL114
 2997 06b1 FD100000 		.4byte	0x10fd
 2998 06b5 00       		.byte	0
 2999 06b6 10       		.uleb128 0x10
 3000 06b7 4E000000 		.4byte	.LASF58
 3001 06bb 01       		.byte	0x1
 3002 06bc B006     		.2byte	0x6b0
 3003 06be 81000000 		.4byte	0x81
 3004 06c2 00000000 		.4byte	.LFB59
 3005 06c6 1C000000 		.4byte	.LFE59-.LFB59
 3006 06ca 01       		.uleb128 0x1
 3007 06cb 9C       		.byte	0x9c
 3008 06cc 11       		.uleb128 0x11
 3009 06cd D9090000 		.4byte	.LASF59
 3010 06d1 01       		.byte	0x1
 3011 06d2 CC06     		.2byte	0x6cc
 3012 06d4 81000000 		.4byte	0x81
 3013 06d8 00000000 		.4byte	.LFB60
 3014 06dc 1A000000 		.4byte	.LFE60-.LFB60
 3015 06e0 01       		.uleb128 0x1
 3016 06e1 9C       		.byte	0x9c
 3017 06e2 23070000 		.4byte	0x723
 3018 06e6 12       		.uleb128 0x12
ARM GAS  C:\Users\ELECTR~1\AppData\Local\Temp\ccbbDBvf.s 			page 97


 3019 06e7 50050000 		.4byte	.LASF60
 3020 06eb 01       		.byte	0x1
 3021 06ec CC06     		.2byte	0x6cc
 3022 06ee E3000000 		.4byte	0xe3
 3023 06f2 ED050000 		.4byte	.LLST35
 3024 06f6 12       		.uleb128 0x12
 3025 06f7 7B0A0000 		.4byte	.LASF61
 3026 06fb 01       		.byte	0x1
 3027 06fc CC06     		.2byte	0x6cc
 3028 06fe 81000000 		.4byte	0x81
 3029 0702 27060000 		.4byte	.LLST36
 3030 0706 14       		.uleb128 0x14
 3031 0707 2F030000 		.4byte	.LASF62
 3032 070b 01       		.byte	0x1
 3033 070c CE06     		.2byte	0x6ce
 3034 070e 81000000 		.4byte	0x81
 3035 0712 01       		.uleb128 0x1
 3036 0713 52       		.byte	0x52
 3037 0714 14       		.uleb128 0x14
 3038 0715 93080000 		.4byte	.LASF63
 3039 0719 01       		.byte	0x1
 3040 071a CF06     		.2byte	0x6cf
 3041 071c 6B000000 		.4byte	0x6b
 3042 0720 01       		.uleb128 0x1
 3043 0721 51       		.byte	0x51
 3044 0722 00       		.byte	0
 3045 0723 11       		.uleb128 0x11
 3046 0724 56010000 		.4byte	.LASF64
 3047 0728 01       		.byte	0x1
 3048 0729 1502     		.2byte	0x215
 3049 072b 6B000000 		.4byte	0x6b
 3050 072f 00000000 		.4byte	.LFB40
 3051 0733 24000000 		.4byte	.LFE40-.LFB40
 3052 0737 01       		.uleb128 0x1
 3053 0738 9C       		.byte	0x9c
 3054 0739 77070000 		.4byte	0x777
 3055 073d 12       		.uleb128 0x12
 3056 073e CD060000 		.4byte	.LASF41
 3057 0742 01       		.byte	0x1
 3058 0743 1502     		.2byte	0x215
 3059 0745 6B000000 		.4byte	0x6b
 3060 0749 48060000 		.4byte	.LLST37
 3061 074d 0B       		.uleb128 0xb
 3062 074e D8040000 		.4byte	.LASF65
 3063 0752 01       		.byte	0x1
 3064 0753 1702     		.2byte	0x217
 3065 0755 81000000 		.4byte	0x81
 3066 0759 7C060000 		.4byte	.LLST38
 3067 075d 0E       		.uleb128 0xe
 3068 075e 16000000 		.4byte	.LVL126
 3069 0762 CC060000 		.4byte	0x6cc
 3070 0766 0D       		.uleb128 0xd
 3071 0767 01       		.uleb128 0x1
 3072 0768 51       		.byte	0x51
 3073 0769 02       		.uleb128 0x2
 3074 076a 74       		.byte	0x74
 3075 076b 00       		.sleb128 0
ARM GAS  C:\Users\ELECTR~1\AppData\Local\Temp\ccbbDBvf.s 			page 98


 3076 076c 0D       		.uleb128 0xd
 3077 076d 01       		.uleb128 0x1
 3078 076e 50       		.byte	0x50
 3079 076f 05       		.uleb128 0x5
 3080 0770 03       		.byte	0x3
 3081 0771 04000000 		.4byte	.LANCHOR1+4
 3082 0775 00       		.byte	0
 3083 0776 00       		.byte	0
 3084 0777 0A       		.uleb128 0xa
 3085 0778 600A0000 		.4byte	.LASF66
 3086 077c 01       		.byte	0x1
 3087 077d 5205     		.2byte	0x552
 3088 077f 00000000 		.4byte	.LFB55
 3089 0783 0C010000 		.4byte	.LFE55-.LFB55
 3090 0787 01       		.uleb128 0x1
 3091 0788 9C       		.byte	0x9c
 3092 0789 0A090000 		.4byte	0x90a
 3093 078d 12       		.uleb128 0x12
 3094 078e 99040000 		.4byte	.LASF24
 3095 0792 01       		.byte	0x1
 3096 0793 5205     		.2byte	0x552
 3097 0795 81000000 		.4byte	0x81
 3098 0799 8F060000 		.4byte	.LLST39
 3099 079d 0B       		.uleb128 0xb
 3100 079e 64020000 		.4byte	.LASF27
 3101 07a2 01       		.byte	0x1
 3102 07a3 5405     		.2byte	0x554
 3103 07a5 6B000000 		.4byte	0x6b
 3104 07a9 BB060000 		.4byte	.LLST40
 3105 07ad 0B       		.uleb128 0xb
 3106 07ae BC000000 		.4byte	.LASF34
 3107 07b2 01       		.byte	0x1
 3108 07b3 5505     		.2byte	0x555
 3109 07b5 6B000000 		.4byte	0x6b
 3110 07b9 05070000 		.4byte	.LLST41
 3111 07bd 0B       		.uleb128 0xb
 3112 07be C0090000 		.4byte	.LASF21
 3113 07c2 01       		.byte	0x1
 3114 07c3 5605     		.2byte	0x556
 3115 07c5 81000000 		.4byte	0x81
 3116 07c9 18070000 		.4byte	.LLST42
 3117 07cd 0B       		.uleb128 0xb
 3118 07ce C7080000 		.4byte	.LASF67
 3119 07d2 01       		.byte	0x1
 3120 07d3 5705     		.2byte	0x557
 3121 07d5 81000000 		.4byte	0x81
 3122 07d9 41070000 		.4byte	.LLST43
 3123 07dd 0B       		.uleb128 0xb
 3124 07de 100A0000 		.4byte	.LASF68
 3125 07e2 01       		.byte	0x1
 3126 07e3 6005     		.2byte	0x560
 3127 07e5 81000000 		.4byte	0x81
 3128 07e9 54070000 		.4byte	.LLST44
 3129 07ed 0C       		.uleb128 0xc
 3130 07ee 18000000 		.4byte	.LVL134
 3131 07f2 CC060000 		.4byte	0x6cc
 3132 07f6 0A080000 		.4byte	0x80a
ARM GAS  C:\Users\ELECTR~1\AppData\Local\Temp\ccbbDBvf.s 			page 99


 3133 07fa 0D       		.uleb128 0xd
 3134 07fb 01       		.uleb128 0x1
 3135 07fc 51       		.byte	0x51
 3136 07fd 02       		.uleb128 0x2
 3137 07fe 74       		.byte	0x74
 3138 07ff 00       		.sleb128 0
 3139 0800 0D       		.uleb128 0xd
 3140 0801 01       		.uleb128 0x1
 3141 0802 50       		.byte	0x50
 3142 0803 05       		.uleb128 0x5
 3143 0804 03       		.byte	0x3
 3144 0805 00000000 		.4byte	scanSpeedTbl
 3145 0809 00       		.byte	0
 3146 080a 0F       		.uleb128 0xf
 3147 080b 2A000000 		.4byte	.LVL138
 3148 080f 74100000 		.4byte	0x1074
 3149 0813 0F       		.uleb128 0xf
 3150 0814 2E000000 		.4byte	.LVL139
 3151 0818 7B100000 		.4byte	0x107b
 3152 081c 0C       		.uleb128 0xc
 3153 081d 3C000000 		.4byte	.LVL140
 3154 0821 82100000 		.4byte	0x1082
 3155 0825 2F080000 		.4byte	0x82f
 3156 0829 0D       		.uleb128 0xd
 3157 082a 01       		.uleb128 0x1
 3158 082b 51       		.byte	0x51
 3159 082c 01       		.uleb128 0x1
 3160 082d 30       		.byte	0x30
 3161 082e 00       		.byte	0
 3162 082f 0C       		.uleb128 0xc
 3163 0830 4A000000 		.4byte	.LVL141
 3164 0834 98100000 		.4byte	0x1098
 3165 0838 42080000 		.4byte	0x842
 3166 083c 0D       		.uleb128 0xd
 3167 083d 01       		.uleb128 0x1
 3168 083e 51       		.byte	0x51
 3169 083f 01       		.uleb128 0x1
 3170 0840 30       		.byte	0x30
 3171 0841 00       		.byte	0
 3172 0842 0C       		.uleb128 0xc
 3173 0843 50000000 		.4byte	.LVL142
 3174 0847 AE100000 		.4byte	0x10ae
 3175 084b 56080000 		.4byte	0x856
 3176 084f 0D       		.uleb128 0xd
 3177 0850 01       		.uleb128 0x1
 3178 0851 50       		.byte	0x50
 3179 0852 02       		.uleb128 0x2
 3180 0853 08       		.byte	0x8
 3181 0854 FF       		.byte	0xff
 3182 0855 00       		.byte	0
 3183 0856 0C       		.uleb128 0xc
 3184 0857 56000000 		.4byte	.LVL143
 3185 085b BF100000 		.4byte	0x10bf
 3186 085f 6A080000 		.4byte	0x86a
 3187 0863 0D       		.uleb128 0xd
 3188 0864 01       		.uleb128 0x1
 3189 0865 50       		.byte	0x50
ARM GAS  C:\Users\ELECTR~1\AppData\Local\Temp\ccbbDBvf.s 			page 100


 3190 0866 02       		.uleb128 0x2
 3191 0867 08       		.byte	0x8
 3192 0868 40       		.byte	0x40
 3193 0869 00       		.byte	0
 3194 086a 0C       		.uleb128 0xc
 3195 086b 5C000000 		.4byte	.LVL144
 3196 086f 33100000 		.4byte	0x1033
 3197 0873 7D080000 		.4byte	0x87d
 3198 0877 0D       		.uleb128 0xd
 3199 0878 01       		.uleb128 0x1
 3200 0879 50       		.byte	0x50
 3201 087a 01       		.uleb128 0x1
 3202 087b 40       		.byte	0x40
 3203 087c 00       		.byte	0
 3204 087d 0C       		.uleb128 0xc
 3205 087e 78000000 		.4byte	.LVL145
 3206 0882 05110000 		.4byte	0x1105
 3207 0886 90080000 		.4byte	0x890
 3208 088a 0D       		.uleb128 0xd
 3209 088b 01       		.uleb128 0x1
 3210 088c 50       		.byte	0x50
 3211 088d 01       		.uleb128 0x1
 3212 088e 40       		.byte	0x40
 3213 088f 00       		.byte	0
 3214 0890 0C       		.uleb128 0xc
 3215 0891 7E000000 		.4byte	.LVL146
 3216 0895 D0100000 		.4byte	0x10d0
 3217 0899 A3080000 		.4byte	0x8a3
 3218 089d 0D       		.uleb128 0xd
 3219 089e 01       		.uleb128 0x1
 3220 089f 50       		.byte	0x50
 3221 08a0 01       		.uleb128 0x1
 3222 08a1 40       		.byte	0x40
 3223 08a2 00       		.byte	0
 3224 08a3 0C       		.uleb128 0xc
 3225 08a4 84000000 		.4byte	.LVL147
 3226 08a8 33100000 		.4byte	0x1033
 3227 08ac B6080000 		.4byte	0x8b6
 3228 08b0 0D       		.uleb128 0xd
 3229 08b1 01       		.uleb128 0x1
 3230 08b2 50       		.byte	0x50
 3231 08b3 01       		.uleb128 0x1
 3232 08b4 40       		.byte	0x40
 3233 08b5 00       		.byte	0
 3234 08b6 0C       		.uleb128 0xc
 3235 08b7 AE000000 		.4byte	.LVL154
 3236 08bb D0100000 		.4byte	0x10d0
 3237 08bf C9080000 		.4byte	0x8c9
 3238 08c3 0D       		.uleb128 0xd
 3239 08c4 01       		.uleb128 0x1
 3240 08c5 50       		.byte	0x50
 3241 08c6 01       		.uleb128 0x1
 3242 08c7 40       		.byte	0x40
 3243 08c8 00       		.byte	0
 3244 08c9 0C       		.uleb128 0xc
 3245 08ca B4000000 		.4byte	.LVL155
 3246 08ce 01030000 		.4byte	0x301
ARM GAS  C:\Users\ELECTR~1\AppData\Local\Temp\ccbbDBvf.s 			page 101


 3247 08d2 DD080000 		.4byte	0x8dd
 3248 08d6 0D       		.uleb128 0xd
 3249 08d7 01       		.uleb128 0x1
 3250 08d8 50       		.byte	0x50
 3251 08d9 02       		.uleb128 0x2
 3252 08da 74       		.byte	0x74
 3253 08db 00       		.sleb128 0
 3254 08dc 00       		.byte	0
 3255 08dd 0F       		.uleb128 0xf
 3256 08de B8000000 		.4byte	.LVL156
 3257 08e2 E1100000 		.4byte	0x10e1
 3258 08e6 0C       		.uleb128 0xc
 3259 08e7 C2000000 		.4byte	.LVL158
 3260 08eb 16110000 		.4byte	0x1116
 3261 08ef F9080000 		.4byte	0x8f9
 3262 08f3 0D       		.uleb128 0xd
 3263 08f4 01       		.uleb128 0x1
 3264 08f5 50       		.byte	0x50
 3265 08f6 01       		.uleb128 0x1
 3266 08f7 30       		.byte	0x30
 3267 08f8 00       		.byte	0
 3268 08f9 0E       		.uleb128 0xe
 3269 08fa CC000000 		.4byte	.LVL159
 3270 08fe EC100000 		.4byte	0x10ec
 3271 0902 0D       		.uleb128 0xd
 3272 0903 01       		.uleb128 0x1
 3273 0904 50       		.byte	0x50
 3274 0905 02       		.uleb128 0x2
 3275 0906 74       		.byte	0x74
 3276 0907 00       		.sleb128 0
 3277 0908 00       		.byte	0
 3278 0909 00       		.byte	0
 3279 090a 0A       		.uleb128 0xa
 3280 090b 37020000 		.4byte	.LASF69
 3281 090f 01       		.byte	0x1
 3282 0910 4502     		.2byte	0x245
 3283 0912 00000000 		.4byte	.LFB41
 3284 0916 1C000000 		.4byte	.LFE41-.LFB41
 3285 091a 01       		.uleb128 0x1
 3286 091b 9C       		.byte	0x9c
 3287 091c 42090000 		.4byte	0x942
 3288 0920 12       		.uleb128 0x12
 3289 0921 99040000 		.4byte	.LASF24
 3290 0925 01       		.byte	0x1
 3291 0926 4502     		.2byte	0x245
 3292 0928 81000000 		.4byte	0x81
 3293 092c 67070000 		.4byte	.LLST45
 3294 0930 0E       		.uleb128 0xe
 3295 0931 14000000 		.4byte	.LVL164
 3296 0935 77070000 		.4byte	0x777
 3297 0939 0D       		.uleb128 0xd
 3298 093a 01       		.uleb128 0x1
 3299 093b 50       		.byte	0x50
 3300 093c 03       		.uleb128 0x3
 3301 093d F3       		.byte	0xf3
 3302 093e 01       		.uleb128 0x1
 3303 093f 50       		.byte	0x50
ARM GAS  C:\Users\ELECTR~1\AppData\Local\Temp\ccbbDBvf.s 			page 102


 3304 0940 00       		.byte	0
 3305 0941 00       		.byte	0
 3306 0942 0A       		.uleb128 0xa
 3307 0943 35070000 		.4byte	.LASF70
 3308 0947 01       		.byte	0x1
 3309 0948 C102     		.2byte	0x2c1
 3310 094a 00000000 		.4byte	.LFB43
 3311 094e 34000000 		.4byte	.LFE43-.LFB43
 3312 0952 01       		.uleb128 0x1
 3313 0953 9C       		.byte	0x9c
 3314 0954 6B090000 		.4byte	0x96b
 3315 0958 0F       		.uleb128 0xf
 3316 0959 14000000 		.4byte	.LVL165
 3317 095d 23070000 		.4byte	0x723
 3318 0961 0F       		.uleb128 0xf
 3319 0962 2E000000 		.4byte	.LVL166
 3320 0966 77070000 		.4byte	0x777
 3321 096a 00       		.byte	0
 3322 096b 0A       		.uleb128 0xa
 3323 096c D6060000 		.4byte	.LASF71
 3324 0970 01       		.byte	0x1
 3325 0971 0F06     		.2byte	0x60f
 3326 0973 00000000 		.4byte	.LFB56
 3327 0977 8C000000 		.4byte	.LFE56-.LFB56
 3328 097b 01       		.uleb128 0x1
 3329 097c 9C       		.byte	0x9c
 3330 097d 150A0000 		.4byte	0xa15
 3331 0981 12       		.uleb128 0x12
 3332 0982 99040000 		.4byte	.LASF24
 3333 0986 01       		.byte	0x1
 3334 0987 0F06     		.2byte	0x60f
 3335 0989 81000000 		.4byte	0x81
 3336 098d 88070000 		.4byte	.LLST46
 3337 0991 0B       		.uleb128 0xb
 3338 0992 C0090000 		.4byte	.LASF21
 3339 0996 01       		.byte	0x1
 3340 0997 1106     		.2byte	0x611
 3341 0999 81000000 		.4byte	0x81
 3342 099d B4070000 		.4byte	.LLST47
 3343 09a1 0B       		.uleb128 0xb
 3344 09a2 100A0000 		.4byte	.LASF68
 3345 09a6 01       		.byte	0x1
 3346 09a7 1406     		.2byte	0x614
 3347 09a9 81000000 		.4byte	0x81
 3348 09ad E1070000 		.4byte	.LLST48
 3349 09b1 0B       		.uleb128 0xb
 3350 09b2 64020000 		.4byte	.LASF27
 3351 09b6 01       		.byte	0x1
 3352 09b7 1506     		.2byte	0x615
 3353 09b9 81000000 		.4byte	0x81
 3354 09bd F4070000 		.4byte	.LLST49
 3355 09c1 0C       		.uleb128 0xc
 3356 09c2 2C000000 		.4byte	.LVL171
 3357 09c6 CC060000 		.4byte	0x6cc
 3358 09ca DE090000 		.4byte	0x9de
 3359 09ce 0D       		.uleb128 0xd
 3360 09cf 01       		.uleb128 0x1
ARM GAS  C:\Users\ELECTR~1\AppData\Local\Temp\ccbbDBvf.s 			page 103


 3361 09d0 51       		.byte	0x51
 3362 09d1 02       		.uleb128 0x2
 3363 09d2 75       		.byte	0x75
 3364 09d3 00       		.sleb128 0
 3365 09d4 0D       		.uleb128 0xd
 3366 09d5 01       		.uleb128 0x1
 3367 09d6 50       		.byte	0x50
 3368 09d7 05       		.uleb128 0x5
 3369 09d8 03       		.byte	0x3
 3370 09d9 00000000 		.4byte	scanSpeedTbl
 3371 09dd 00       		.byte	0
 3372 09de 0C       		.uleb128 0xc
 3373 09df 3C000000 		.4byte	.LVL173
 3374 09e3 8A030000 		.4byte	0x38a
 3375 09e7 F2090000 		.4byte	0x9f2
 3376 09eb 0D       		.uleb128 0xd
 3377 09ec 01       		.uleb128 0x1
 3378 09ed 50       		.byte	0x50
 3379 09ee 02       		.uleb128 0x2
 3380 09ef 75       		.byte	0x75
 3381 09f0 00       		.sleb128 0
 3382 09f1 00       		.byte	0
 3383 09f2 0C       		.uleb128 0xc
 3384 09f3 42000000 		.4byte	.LVL174
 3385 09f7 33100000 		.4byte	0x1033
 3386 09fb 050A0000 		.4byte	0xa05
 3387 09ff 0D       		.uleb128 0xd
 3388 0a00 01       		.uleb128 0x1
 3389 0a01 50       		.byte	0x50
 3390 0a02 01       		.uleb128 0x1
 3391 0a03 40       		.byte	0x40
 3392 0a04 00       		.byte	0
 3393 0a05 0E       		.uleb128 0xe
 3394 0a06 62000000 		.4byte	.LVL180
 3395 0a0a D0100000 		.4byte	0x10d0
 3396 0a0e 0D       		.uleb128 0xd
 3397 0a0f 01       		.uleb128 0x1
 3398 0a10 50       		.byte	0x50
 3399 0a11 01       		.uleb128 0x1
 3400 0a12 40       		.byte	0x40
 3401 0a13 00       		.byte	0
 3402 0a14 00       		.byte	0
 3403 0a15 0A       		.uleb128 0xa
 3404 0a16 B4080000 		.4byte	.LASF72
 3405 0a1a 01       		.byte	0x1
 3406 0a1b F706     		.2byte	0x6f7
 3407 0a1d 00000000 		.4byte	.LFB61
 3408 0a21 26000000 		.4byte	.LFE61-.LFB61
 3409 0a25 01       		.uleb128 0x1
 3410 0a26 9C       		.byte	0x9c
 3411 0a27 780A0000 		.4byte	0xa78
 3412 0a2b 13       		.uleb128 0x13
 3413 0a2c 50050000 		.4byte	.LASF60
 3414 0a30 01       		.byte	0x1
 3415 0a31 F706     		.2byte	0x6f7
 3416 0a33 DD000000 		.4byte	0xdd
 3417 0a37 01       		.uleb128 0x1
ARM GAS  C:\Users\ELECTR~1\AppData\Local\Temp\ccbbDBvf.s 			page 104


 3418 0a38 50       		.byte	0x50
 3419 0a39 12       		.uleb128 0x12
 3420 0a3a 7B0A0000 		.4byte	.LASF61
 3421 0a3e 01       		.byte	0x1
 3422 0a3f F706     		.2byte	0x6f7
 3423 0a41 81000000 		.4byte	0x81
 3424 0a45 50080000 		.4byte	.LLST50
 3425 0a49 13       		.uleb128 0x13
 3426 0a4a BA020000 		.4byte	.LASF25
 3427 0a4e 01       		.byte	0x1
 3428 0a4f F706     		.2byte	0x6f7
 3429 0a51 81000000 		.4byte	0x81
 3430 0a55 01       		.uleb128 0x1
 3431 0a56 52       		.byte	0x52
 3432 0a57 0B       		.uleb128 0xb
 3433 0a58 2F030000 		.4byte	.LASF62
 3434 0a5c 01       		.byte	0x1
 3435 0a5d F906     		.2byte	0x6f9
 3436 0a5f 81000000 		.4byte	0x81
 3437 0a63 71080000 		.4byte	.LLST51
 3438 0a67 0B       		.uleb128 0xb
 3439 0a68 93080000 		.4byte	.LASF63
 3440 0a6c 01       		.byte	0x1
 3441 0a6d FA06     		.2byte	0x6fa
 3442 0a6f 6B000000 		.4byte	0x6b
 3443 0a73 AF080000 		.4byte	.LLST52
 3444 0a77 00       		.byte	0
 3445 0a78 0A       		.uleb128 0xa
 3446 0a79 6B020000 		.4byte	.LASF73
 3447 0a7d 01       		.byte	0x1
 3448 0a7e 6C02     		.2byte	0x26c
 3449 0a80 00000000 		.4byte	.LFB42
 3450 0a84 8C000000 		.4byte	.LFE42-.LFB42
 3451 0a88 01       		.uleb128 0x1
 3452 0a89 9C       		.byte	0x9c
 3453 0a8a 1C0B0000 		.4byte	0xb1c
 3454 0a8e 12       		.uleb128 0x12
 3455 0a8f 64020000 		.4byte	.LASF27
 3456 0a93 01       		.byte	0x1
 3457 0a94 6C02     		.2byte	0x26c
 3458 0a96 81000000 		.4byte	0x81
 3459 0a9a F1080000 		.4byte	.LLST53
 3460 0a9e 0B       		.uleb128 0xb
 3461 0a9f 9C030000 		.4byte	.LASF74
 3462 0aa3 01       		.byte	0x1
 3463 0aa4 6E02     		.2byte	0x26e
 3464 0aa6 81000000 		.4byte	0x81
 3465 0aaa 12090000 		.4byte	.LLST54
 3466 0aae 0B       		.uleb128 0xb
 3467 0aaf 11060000 		.4byte	.LASF75
 3468 0ab3 01       		.byte	0x1
 3469 0ab4 6F02     		.2byte	0x26f
 3470 0ab6 81000000 		.4byte	0x81
 3471 0aba 25090000 		.4byte	.LLST55
 3472 0abe 0B       		.uleb128 0xb
 3473 0abf CD060000 		.4byte	.LASF41
 3474 0ac3 01       		.byte	0x1
ARM GAS  C:\Users\ELECTR~1\AppData\Local\Temp\ccbbDBvf.s 			page 105


 3475 0ac4 7002     		.2byte	0x270
 3476 0ac6 81000000 		.4byte	0x81
 3477 0aca 38090000 		.4byte	.LLST56
 3478 0ace 0C       		.uleb128 0xc
 3479 0acf 4A000000 		.4byte	.LVL199
 3480 0ad3 150A0000 		.4byte	0xa15
 3481 0ad7 F00A0000 		.4byte	0xaf0
 3482 0adb 0D       		.uleb128 0xd
 3483 0adc 01       		.uleb128 0x1
 3484 0add 52       		.byte	0x52
 3485 0ade 01       		.uleb128 0x1
 3486 0adf 31       		.byte	0x31
 3487 0ae0 0D       		.uleb128 0xd
 3488 0ae1 01       		.uleb128 0x1
 3489 0ae2 51       		.byte	0x51
 3490 0ae3 02       		.uleb128 0x2
 3491 0ae4 74       		.byte	0x74
 3492 0ae5 00       		.sleb128 0
 3493 0ae6 0D       		.uleb128 0xd
 3494 0ae7 01       		.uleb128 0x1
 3495 0ae8 50       		.byte	0x50
 3496 0ae9 05       		.uleb128 0x5
 3497 0aea 03       		.byte	0x3
 3498 0aeb 04000000 		.4byte	.LANCHOR1+4
 3499 0aef 00       		.byte	0
 3500 0af0 0C       		.uleb128 0xc
 3501 0af1 58000000 		.4byte	.LVL200
 3502 0af5 150A0000 		.4byte	0xa15
 3503 0af9 120B0000 		.4byte	0xb12
 3504 0afd 0D       		.uleb128 0xd
 3505 0afe 01       		.uleb128 0x1
 3506 0aff 52       		.byte	0x52
 3507 0b00 01       		.uleb128 0x1
 3508 0b01 30       		.byte	0x30
 3509 0b02 0D       		.uleb128 0xd
 3510 0b03 01       		.uleb128 0x1
 3511 0b04 51       		.byte	0x51
 3512 0b05 02       		.uleb128 0x2
 3513 0b06 74       		.byte	0x74
 3514 0b07 00       		.sleb128 0
 3515 0b08 0D       		.uleb128 0xd
 3516 0b09 01       		.uleb128 0x1
 3517 0b0a 50       		.byte	0x50
 3518 0b0b 05       		.uleb128 0x5
 3519 0b0c 03       		.byte	0x3
 3520 0b0d 04000000 		.4byte	.LANCHOR1+4
 3521 0b11 00       		.byte	0
 3522 0b12 0F       		.uleb128 0xf
 3523 0b13 76000000 		.4byte	.LVL202
 3524 0b17 77070000 		.4byte	0x777
 3525 0b1b 00       		.byte	0
 3526 0b1c 11       		.uleb128 0x11
 3527 0b1d 03070000 		.4byte	.LASF76
 3528 0b21 01       		.byte	0x1
 3529 0b22 2907     		.2byte	0x729
 3530 0b24 81000000 		.4byte	0x81
 3531 0b28 00000000 		.4byte	.LFB62
ARM GAS  C:\Users\ELECTR~1\AppData\Local\Temp\ccbbDBvf.s 			page 106


 3532 0b2c 0C000000 		.4byte	.LFE62-.LFB62
 3533 0b30 01       		.uleb128 0x1
 3534 0b31 9C       		.byte	0x9c
 3535 0b32 470B0000 		.4byte	0xb47
 3536 0b36 12       		.uleb128 0x12
 3537 0b37 99040000 		.4byte	.LASF24
 3538 0b3b 01       		.byte	0x1
 3539 0b3c 2907     		.2byte	0x729
 3540 0b3e 81000000 		.4byte	0x81
 3541 0b42 62090000 		.4byte	.LLST57
 3542 0b46 00       		.byte	0
 3543 0b47 0A       		.uleb128 0xa
 3544 0b48 F6020000 		.4byte	.LASF77
 3545 0b4c 01       		.byte	0x1
 3546 0b4d 4807     		.2byte	0x748
 3547 0b4f 00000000 		.4byte	.LFB63
 3548 0b53 0C000000 		.4byte	.LFE63-.LFB63
 3549 0b57 01       		.uleb128 0x1
 3550 0b58 9C       		.byte	0x9c
 3551 0b59 7A0B0000 		.4byte	0xb7a
 3552 0b5d 13       		.uleb128 0x13
 3553 0b5e 99040000 		.4byte	.LASF24
 3554 0b62 01       		.byte	0x1
 3555 0b63 4807     		.2byte	0x748
 3556 0b65 81000000 		.4byte	0x81
 3557 0b69 01       		.uleb128 0x1
 3558 0b6a 50       		.byte	0x50
 3559 0b6b 13       		.uleb128 0x13
 3560 0b6c 4F070000 		.4byte	.LASF78
 3561 0b70 01       		.byte	0x1
 3562 0b71 4807     		.2byte	0x748
 3563 0b73 81000000 		.4byte	0x81
 3564 0b77 01       		.uleb128 0x1
 3565 0b78 51       		.byte	0x51
 3566 0b79 00       		.byte	0
 3567 0b7a 11       		.uleb128 0x11
 3568 0b7b 7D020000 		.4byte	.LASF79
 3569 0b7f 01       		.byte	0x1
 3570 0b80 6807     		.2byte	0x768
 3571 0b82 81000000 		.4byte	0x81
 3572 0b86 00000000 		.4byte	.LFB64
 3573 0b8a 0C000000 		.4byte	.LFE64-.LFB64
 3574 0b8e 01       		.uleb128 0x1
 3575 0b8f 9C       		.byte	0x9c
 3576 0b90 A50B0000 		.4byte	0xba5
 3577 0b94 12       		.uleb128 0x12
 3578 0b95 99040000 		.4byte	.LASF24
 3579 0b99 01       		.byte	0x1
 3580 0b9a 6807     		.2byte	0x768
 3581 0b9c 81000000 		.4byte	0x81
 3582 0ba0 83090000 		.4byte	.LLST58
 3583 0ba4 00       		.byte	0
 3584 0ba5 0A       		.uleb128 0xa
 3585 0ba6 CA010000 		.4byte	.LASF80
 3586 0baa 01       		.byte	0x1
 3587 0bab 8707     		.2byte	0x787
 3588 0bad 00000000 		.4byte	.LFB65
ARM GAS  C:\Users\ELECTR~1\AppData\Local\Temp\ccbbDBvf.s 			page 107


 3589 0bb1 0C000000 		.4byte	.LFE65-.LFB65
 3590 0bb5 01       		.uleb128 0x1
 3591 0bb6 9C       		.byte	0x9c
 3592 0bb7 D80B0000 		.4byte	0xbd8
 3593 0bbb 13       		.uleb128 0x13
 3594 0bbc 99040000 		.4byte	.LASF24
 3595 0bc0 01       		.byte	0x1
 3596 0bc1 8707     		.2byte	0x787
 3597 0bc3 81000000 		.4byte	0x81
 3598 0bc7 01       		.uleb128 0x1
 3599 0bc8 50       		.byte	0x50
 3600 0bc9 13       		.uleb128 0x13
 3601 0bca 2D090000 		.4byte	.LASF81
 3602 0bce 01       		.byte	0x1
 3603 0bcf 8707     		.2byte	0x787
 3604 0bd1 81000000 		.4byte	0x81
 3605 0bd5 01       		.uleb128 0x1
 3606 0bd6 51       		.byte	0x51
 3607 0bd7 00       		.byte	0
 3608 0bd8 11       		.uleb128 0x11
 3609 0bd9 F6000000 		.4byte	.LASF82
 3610 0bdd 01       		.byte	0x1
 3611 0bde A607     		.2byte	0x7a6
 3612 0be0 81000000 		.4byte	0x81
 3613 0be4 00000000 		.4byte	.LFB66
 3614 0be8 0C000000 		.4byte	.LFE66-.LFB66
 3615 0bec 01       		.uleb128 0x1
 3616 0bed 9C       		.byte	0x9c
 3617 0bee 030C0000 		.4byte	0xc03
 3618 0bf2 12       		.uleb128 0x12
 3619 0bf3 99040000 		.4byte	.LASF24
 3620 0bf7 01       		.byte	0x1
 3621 0bf8 A607     		.2byte	0x7a6
 3622 0bfa 81000000 		.4byte	0x81
 3623 0bfe A4090000 		.4byte	.LLST59
 3624 0c02 00       		.byte	0
 3625 0c03 0A       		.uleb128 0xa
 3626 0c04 85000000 		.4byte	.LASF83
 3627 0c08 01       		.byte	0x1
 3628 0c09 C107     		.2byte	0x7c1
 3629 0c0b 00000000 		.4byte	.LFB67
 3630 0c0f 0C000000 		.4byte	.LFE67-.LFB67
 3631 0c13 01       		.uleb128 0x1
 3632 0c14 9C       		.byte	0x9c
 3633 0c15 360C0000 		.4byte	0xc36
 3634 0c19 13       		.uleb128 0x13
 3635 0c1a 99040000 		.4byte	.LASF24
 3636 0c1e 01       		.byte	0x1
 3637 0c1f C107     		.2byte	0x7c1
 3638 0c21 81000000 		.4byte	0x81
 3639 0c25 01       		.uleb128 0x1
 3640 0c26 50       		.byte	0x50
 3641 0c27 13       		.uleb128 0x13
 3642 0c28 56080000 		.4byte	.LASF84
 3643 0c2c 01       		.byte	0x1
 3644 0c2d C107     		.2byte	0x7c1
 3645 0c2f 81000000 		.4byte	0x81
ARM GAS  C:\Users\ELECTR~1\AppData\Local\Temp\ccbbDBvf.s 			page 108


 3646 0c33 01       		.uleb128 0x1
 3647 0c34 51       		.byte	0x51
 3648 0c35 00       		.byte	0
 3649 0c36 11       		.uleb128 0x11
 3650 0c37 74030000 		.4byte	.LASF85
 3651 0c3b 01       		.byte	0x1
 3652 0c3c DE07     		.2byte	0x7de
 3653 0c3e 81000000 		.4byte	0x81
 3654 0c42 00000000 		.4byte	.LFB68
 3655 0c46 0C000000 		.4byte	.LFE68-.LFB68
 3656 0c4a 01       		.uleb128 0x1
 3657 0c4b 9C       		.byte	0x9c
 3658 0c4c 610C0000 		.4byte	0xc61
 3659 0c50 12       		.uleb128 0x12
 3660 0c51 99040000 		.4byte	.LASF24
 3661 0c55 01       		.byte	0x1
 3662 0c56 DE07     		.2byte	0x7de
 3663 0c58 81000000 		.4byte	0x81
 3664 0c5c C5090000 		.4byte	.LLST60
 3665 0c60 00       		.byte	0
 3666 0c61 0A       		.uleb128 0xa
 3667 0c62 49020000 		.4byte	.LASF86
 3668 0c66 01       		.byte	0x1
 3669 0c67 FB07     		.2byte	0x7fb
 3670 0c69 00000000 		.4byte	.LFB69
 3671 0c6d 0C000000 		.4byte	.LFE69-.LFB69
 3672 0c71 01       		.uleb128 0x1
 3673 0c72 9C       		.byte	0x9c
 3674 0c73 940C0000 		.4byte	0xc94
 3675 0c77 13       		.uleb128 0x13
 3676 0c78 99040000 		.4byte	.LASF24
 3677 0c7c 01       		.byte	0x1
 3678 0c7d FB07     		.2byte	0x7fb
 3679 0c7f 81000000 		.4byte	0x81
 3680 0c83 01       		.uleb128 0x1
 3681 0c84 50       		.byte	0x50
 3682 0c85 13       		.uleb128 0x13
 3683 0c86 48080000 		.4byte	.LASF87
 3684 0c8a 01       		.byte	0x1
 3685 0c8b FB07     		.2byte	0x7fb
 3686 0c8d 81000000 		.4byte	0x81
 3687 0c91 01       		.uleb128 0x1
 3688 0c92 51       		.byte	0x51
 3689 0c93 00       		.byte	0
 3690 0c94 10       		.uleb128 0x10
 3691 0c95 2C050000 		.4byte	.LASF88
 3692 0c99 01       		.byte	0x1
 3693 0c9a 1808     		.2byte	0x818
 3694 0c9c 81000000 		.4byte	0x81
 3695 0ca0 00000000 		.4byte	.LFB70
 3696 0ca4 14000000 		.4byte	.LFE70-.LFB70
 3697 0ca8 01       		.uleb128 0x1
 3698 0ca9 9C       		.byte	0x9c
 3699 0caa 0A       		.uleb128 0xa
 3700 0cab 71070000 		.4byte	.LASF89
 3701 0caf 01       		.byte	0x1
 3702 0cb0 3608     		.2byte	0x836
ARM GAS  C:\Users\ELECTR~1\AppData\Local\Temp\ccbbDBvf.s 			page 109


 3703 0cb2 00000000 		.4byte	.LFB71
 3704 0cb6 28000000 		.4byte	.LFE71-.LFB71
 3705 0cba 01       		.uleb128 0x1
 3706 0cbb 9C       		.byte	0x9c
 3707 0cbc CF0C0000 		.4byte	0xccf
 3708 0cc0 13       		.uleb128 0x13
 3709 0cc1 13080000 		.4byte	.LASF90
 3710 0cc5 01       		.byte	0x1
 3711 0cc6 3608     		.2byte	0x836
 3712 0cc8 81000000 		.4byte	0x81
 3713 0ccc 01       		.uleb128 0x1
 3714 0ccd 50       		.byte	0x50
 3715 0cce 00       		.byte	0
 3716 0ccf 11       		.uleb128 0x11
 3717 0cd0 9E060000 		.4byte	.LASF91
 3718 0cd4 01       		.byte	0x1
 3719 0cd5 5E08     		.2byte	0x85e
 3720 0cd7 76000000 		.4byte	0x76
 3721 0cdb 00000000 		.4byte	.LFB72
 3722 0cdf 2A000000 		.4byte	.LFE72-.LFB72
 3723 0ce3 01       		.uleb128 0x1
 3724 0ce4 9C       		.byte	0x9c
 3725 0ce5 470D0000 		.4byte	0xd47
 3726 0ce9 12       		.uleb128 0x12
 3727 0cea 99040000 		.4byte	.LASF24
 3728 0cee 01       		.byte	0x1
 3729 0cef 5E08     		.2byte	0x85e
 3730 0cf1 81000000 		.4byte	0x81
 3731 0cf5 E6090000 		.4byte	.LLST61
 3732 0cf9 0B       		.uleb128 0xb
 3733 0cfa CB030000 		.4byte	.LASF92
 3734 0cfe 01       		.byte	0x1
 3735 0cff 6008     		.2byte	0x860
 3736 0d01 81000000 		.4byte	0x81
 3737 0d05 120A0000 		.4byte	.LLST62
 3738 0d09 0B       		.uleb128 0xb
 3739 0d0a 4F010000 		.4byte	.LASF93
 3740 0d0e 01       		.byte	0x1
 3741 0d0f 6108     		.2byte	0x861
 3742 0d11 81000000 		.4byte	0x81
 3743 0d15 310A0000 		.4byte	.LLST63
 3744 0d19 0C       		.uleb128 0xc
 3745 0d1a 10000000 		.4byte	.LVL221
 3746 0d1e 0A090000 		.4byte	0x90a
 3747 0d22 2D0D0000 		.4byte	0xd2d
 3748 0d26 0D       		.uleb128 0xd
 3749 0d27 01       		.uleb128 0x1
 3750 0d28 50       		.byte	0x50
 3751 0d29 02       		.uleb128 0x2
 3752 0d2a 76       		.byte	0x76
 3753 0d2b 00       		.sleb128 0
 3754 0d2c 00       		.byte	0
 3755 0d2d 0F       		.uleb128 0xf
 3756 0d2e 14000000 		.4byte	.LVL222
 3757 0d32 2B020000 		.4byte	0x22b
 3758 0d36 0E       		.uleb128 0xe
 3759 0d37 1E000000 		.4byte	.LVL223
ARM GAS  C:\Users\ELECTR~1\AppData\Local\Temp\ccbbDBvf.s 			page 110


 3760 0d3b 41020000 		.4byte	0x241
 3761 0d3f 0D       		.uleb128 0xd
 3762 0d40 01       		.uleb128 0x1
 3763 0d41 50       		.byte	0x50
 3764 0d42 02       		.uleb128 0x2
 3765 0d43 76       		.byte	0x76
 3766 0d44 00       		.sleb128 0
 3767 0d45 00       		.byte	0
 3768 0d46 00       		.byte	0
 3769 0d47 0A       		.uleb128 0xa
 3770 0d48 D5030000 		.4byte	.LASF94
 3771 0d4c 01       		.byte	0x1
 3772 0d4d C808     		.2byte	0x8c8
 3773 0d4f 00000000 		.4byte	.LFB73
 3774 0d53 0C000000 		.4byte	.LFE73-.LFB73
 3775 0d57 01       		.uleb128 0x1
 3776 0d58 9C       		.byte	0x9c
 3777 0d59 7A0D0000 		.4byte	0xd7a
 3778 0d5d 13       		.uleb128 0x13
 3779 0d5e 99040000 		.4byte	.LASF24
 3780 0d62 01       		.byte	0x1
 3781 0d63 C808     		.2byte	0x8c8
 3782 0d65 81000000 		.4byte	0x81
 3783 0d69 01       		.uleb128 0x1
 3784 0d6a 50       		.byte	0x50
 3785 0d6b 13       		.uleb128 0x13
 3786 0d6c 10030000 		.4byte	.LASF39
 3787 0d70 01       		.byte	0x1
 3788 0d71 C808     		.2byte	0x8c8
 3789 0d73 81000000 		.4byte	0x81
 3790 0d77 01       		.uleb128 0x1
 3791 0d78 51       		.byte	0x51
 3792 0d79 00       		.byte	0
 3793 0d7a 0A       		.uleb128 0xa
 3794 0d7b 4D030000 		.4byte	.LASF95
 3795 0d7f 01       		.byte	0x1
 3796 0d80 E508     		.2byte	0x8e5
 3797 0d82 00000000 		.4byte	.LFB74
 3798 0d86 40000000 		.4byte	.LFE74-.LFB74
 3799 0d8a 01       		.uleb128 0x1
 3800 0d8b 9C       		.byte	0x9c
 3801 0d8c FD0D0000 		.4byte	0xdfd
 3802 0d90 13       		.uleb128 0x13
 3803 0d91 EB000000 		.4byte	.LASF96
 3804 0d95 01       		.byte	0x1
 3805 0d96 E508     		.2byte	0x8e5
 3806 0d98 81000000 		.4byte	0x81
 3807 0d9c 01       		.uleb128 0x1
 3808 0d9d 50       		.byte	0x50
 3809 0d9e 13       		.uleb128 0x13
 3810 0d9f 2F020000 		.4byte	.LASF97
 3811 0da3 01       		.byte	0x1
 3812 0da4 E508     		.2byte	0x8e5
 3813 0da6 DD000000 		.4byte	0xdd
 3814 0daa 01       		.uleb128 0x1
 3815 0dab 51       		.byte	0x51
 3816 0dac 0B       		.uleb128 0xb
ARM GAS  C:\Users\ELECTR~1\AppData\Local\Temp\ccbbDBvf.s 			page 111


 3817 0dad 1C060000 		.4byte	.LASF98
 3818 0db1 01       		.byte	0x1
 3819 0db2 E708     		.2byte	0x8e7
 3820 0db4 81000000 		.4byte	0x81
 3821 0db8 500A0000 		.4byte	.LLST64
 3822 0dbc 0B       		.uleb128 0xb
 3823 0dbd 3A080000 		.4byte	.LASF99
 3824 0dc1 01       		.byte	0x1
 3825 0dc2 E808     		.2byte	0x8e8
 3826 0dc4 81000000 		.4byte	0x81
 3827 0dc8 6F0A0000 		.4byte	.LLST65
 3828 0dcc 0B       		.uleb128 0xb
 3829 0dcd 11060000 		.4byte	.LASF75
 3830 0dd1 01       		.byte	0x1
 3831 0dd2 E908     		.2byte	0x8e9
 3832 0dd4 81000000 		.4byte	0x81
 3833 0dd8 980A0000 		.4byte	.LLST66
 3834 0ddc 0B       		.uleb128 0xb
 3835 0ddd 9C030000 		.4byte	.LASF74
 3836 0de1 01       		.byte	0x1
 3837 0de2 EA08     		.2byte	0x8ea
 3838 0de4 81000000 		.4byte	0x81
 3839 0de8 AB0A0000 		.4byte	.LLST67
 3840 0dec 0B       		.uleb128 0xb
 3841 0ded 28070000 		.4byte	.LASF100
 3842 0df1 01       		.byte	0x1
 3843 0df2 EB08     		.2byte	0x8eb
 3844 0df4 81000000 		.4byte	0x81
 3845 0df8 BE0A0000 		.4byte	.LLST68
 3846 0dfc 00       		.byte	0
 3847 0dfd 17       		.uleb128 0x17
 3848 0dfe EC090000 		.4byte	.LASF101
 3849 0e02 01       		.byte	0x1
 3850 0e03 23       		.byte	0x23
 3851 0e04 6B000000 		.4byte	0x6b
 3852 0e08 05       		.uleb128 0x5
 3853 0e09 03       		.byte	0x3
 3854 0e0a 00000000 		.4byte	Slider_lowLevelTuningDone
 3855 0e0e 18       		.uleb128 0x18
 3856 0e0f 6B000000 		.4byte	0x6b
 3857 0e13 1E0E0000 		.4byte	0xe1e
 3858 0e17 19       		.uleb128 0x19
 3859 0e18 D6000000 		.4byte	0xd6
 3860 0e1c 00       		.byte	0
 3861 0e1d 00       		.byte	0
 3862 0e1e 17       		.uleb128 0x17
 3863 0e1f 41000000 		.4byte	.LASF102
 3864 0e23 01       		.byte	0x1
 3865 0e24 24       		.byte	0x24
 3866 0e25 0E0E0000 		.4byte	0xe0e
 3867 0e29 05       		.uleb128 0x5
 3868 0e2a 03       		.byte	0x3
 3869 0e2b 00000000 		.4byte	scanSpeedTbl
 3870 0e2f 17       		.uleb128 0x17
 3871 0e30 840A0000 		.4byte	.LASF103
 3872 0e34 01       		.byte	0x1
 3873 0e35 2C       		.byte	0x2c
ARM GAS  C:\Users\ELECTR~1\AppData\Local\Temp\ccbbDBvf.s 			page 112


 3874 0e36 AD000000 		.4byte	0xad
 3875 0e3a 05       		.uleb128 0x5
 3876 0e3b 03       		.byte	0x3
 3877 0e3c 00000000 		.4byte	Slider_csdStatusVar
 3878 0e40 17       		.uleb128 0x17
 3879 0e41 1C030000 		.4byte	.LASF104
 3880 0e45 01       		.byte	0x1
 3881 0e46 2D       		.byte	0x2d
 3882 0e47 AD000000 		.4byte	0xad
 3883 0e4b 05       		.uleb128 0x5
 3884 0e4c 03       		.byte	0x3
 3885 0e4d 00000000 		.4byte	Slider_sensorIndex
 3886 0e51 18       		.uleb128 0x18
 3887 0e52 76000000 		.4byte	0x76
 3888 0e56 610E0000 		.4byte	0xe61
 3889 0e5a 19       		.uleb128 0x19
 3890 0e5b D6000000 		.4byte	0xd6
 3891 0e5f 04       		.byte	0x4
 3892 0e60 00       		.byte	0
 3893 0e61 17       		.uleb128 0x17
 3894 0e62 07090000 		.4byte	.LASF105
 3895 0e66 01       		.byte	0x1
 3896 0e67 30       		.byte	0x30
 3897 0e68 510E0000 		.4byte	0xe51
 3898 0e6c 05       		.uleb128 0x5
 3899 0e6d 03       		.byte	0x3
 3900 0e6e 00000000 		.4byte	Slider_sensorRaw
 3901 0e72 18       		.uleb128 0x18
 3902 0e73 6B000000 		.4byte	0x6b
 3903 0e77 820E0000 		.4byte	0xe82
 3904 0e7b 19       		.uleb128 0x19
 3905 0e7c D6000000 		.4byte	0xd6
 3906 0e80 04       		.byte	0x4
 3907 0e81 00       		.byte	0
 3908 0e82 17       		.uleb128 0x17
 3909 0e83 230A0000 		.4byte	.LASF106
 3910 0e87 01       		.byte	0x1
 3911 0e88 3A       		.byte	0x3a
 3912 0e89 720E0000 		.4byte	0xe72
 3913 0e8d 05       		.uleb128 0x5
 3914 0e8e 03       		.byte	0x3
 3915 0e8f 00000000 		.4byte	Slider_unscannedSnsDriveMode
 3916 0e93 17       		.uleb128 0x17
 3917 0e94 AD030000 		.4byte	.LASF107
 3918 0e98 01       		.byte	0x1
 3919 0e99 3D       		.byte	0x3d
 3920 0e9a 0E0E0000 		.4byte	0xe0e
 3921 0e9e 05       		.uleb128 0x5
 3922 0e9f 03       		.byte	0x3
 3923 0ea0 00000000 		.4byte	Slider_sensorEnableMaskBackup
 3924 0ea4 17       		.uleb128 0x17
 3925 0ea5 CD020000 		.4byte	.LASF108
 3926 0ea9 01       		.byte	0x1
 3927 0eaa 40       		.byte	0x40
 3928 0eab 0E0E0000 		.4byte	0xe0e
 3929 0eaf 05       		.uleb128 0x5
 3930 0eb0 03       		.byte	0x3
ARM GAS  C:\Users\ELECTR~1\AppData\Local\Temp\ccbbDBvf.s 			page 113


 3931 0eb1 00000000 		.4byte	Slider_sensorEnableMask
 3932 0eb5 17       		.uleb128 0x17
 3933 0eb6 E8010000 		.4byte	.LASF109
 3934 0eba 01       		.byte	0x1
 3935 0ebb 63       		.byte	0x63
 3936 0ebc 720E0000 		.4byte	0xe72
 3937 0ec0 05       		.uleb128 0x5
 3938 0ec1 03       		.byte	0x3
 3939 0ec2 00000000 		.4byte	Slider_modulationIDAC
 3940 0ec6 17       		.uleb128 0x17
 3941 0ec7 00000000 		.4byte	.LASF110
 3942 0ecb 01       		.byte	0x1
 3943 0ecc 64       		.byte	0x64
 3944 0ecd 720E0000 		.4byte	0xe72
 3945 0ed1 05       		.uleb128 0x5
 3946 0ed2 03       		.byte	0x3
 3947 0ed3 00000000 		.4byte	Slider_compensationIDAC
 3948 0ed7 18       		.uleb128 0x18
 3949 0ed8 81000000 		.4byte	0x81
 3950 0edc E70E0000 		.4byte	0xee7
 3951 0ee0 19       		.uleb128 0x19
 3952 0ee1 D6000000 		.4byte	0xd6
 3953 0ee5 00       		.byte	0
 3954 0ee6 00       		.byte	0
 3955 0ee7 17       		.uleb128 0x17
 3956 0ee8 E4050000 		.4byte	.LASF111
 3957 0eec 01       		.byte	0x1
 3958 0eed 66       		.byte	0x66
 3959 0eee D70E0000 		.4byte	0xed7
 3960 0ef2 05       		.uleb128 0x5
 3961 0ef3 03       		.byte	0x3
 3962 0ef4 00000000 		.4byte	Slider_widgetResolution
 3963 0ef8 17       		.uleb128 0x17
 3964 0ef9 7F040000 		.4byte	.LASF112
 3965 0efd 01       		.byte	0x1
 3966 0efe 6A       		.byte	0x6a
 3967 0eff 720E0000 		.4byte	0xe72
 3968 0f03 05       		.uleb128 0x5
 3969 0f04 03       		.byte	0x3
 3970 0f05 00000000 		.4byte	Slider_senseClkDividerVal
 3971 0f09 17       		.uleb128 0x17
 3972 0f0a D0000000 		.4byte	.LASF113
 3973 0f0e 01       		.byte	0x1
 3974 0f0f 6B       		.byte	0x6b
 3975 0f10 720E0000 		.4byte	0xe72
 3976 0f14 05       		.uleb128 0x5
 3977 0f15 03       		.byte	0x3
 3978 0f16 00000000 		.4byte	Slider_sampleClkDividerVal
 3979 0f1a 17       		.uleb128 0x17
 3980 0f1b 04020000 		.4byte	.LASF114
 3981 0f1f 01       		.byte	0x1
 3982 0f20 6D       		.byte	0x6d
 3983 0f21 2B0F0000 		.4byte	0xf2b
 3984 0f25 05       		.uleb128 0x5
 3985 0f26 03       		.byte	0x3
 3986 0f27 00000000 		.4byte	Slider_widgetNumber
 3987 0f2b 09       		.uleb128 0x9
ARM GAS  C:\Users\ELECTR~1\AppData\Local\Temp\ccbbDBvf.s 			page 114


 3988 0f2c 720E0000 		.4byte	0xe72
 3989 0f30 18       		.uleb128 0x18
 3990 0f31 400F0000 		.4byte	0xf40
 3991 0f35 400F0000 		.4byte	0xf40
 3992 0f39 19       		.uleb128 0x19
 3993 0f3a D6000000 		.4byte	0xd6
 3994 0f3e 05       		.byte	0x5
 3995 0f3f 00       		.byte	0
 3996 0f40 07       		.uleb128 0x7
 3997 0f41 04       		.byte	0x4
 3998 0f42 460F0000 		.4byte	0xf46
 3999 0f46 06       		.uleb128 0x6
 4000 0f47 48000000 		.4byte	0x48
 4001 0f4b 17       		.uleb128 0x17
 4002 0f4c 2A060000 		.4byte	.LASF115
 4003 0f50 01       		.byte	0x1
 4004 0f51 73       		.byte	0x73
 4005 0f52 5C0F0000 		.4byte	0xf5c
 4006 0f56 05       		.uleb128 0x5
 4007 0f57 03       		.byte	0x3
 4008 0f58 00000000 		.4byte	Slider_prtSelTbl
 4009 0f5c 09       		.uleb128 0x9
 4010 0f5d 300F0000 		.4byte	0xf30
 4011 0f61 17       		.uleb128 0x17
 4012 0f62 BC060000 		.4byte	.LASF116
 4013 0f66 01       		.byte	0x1
 4014 0f67 86       		.byte	0x86
 4015 0f68 720F0000 		.4byte	0xf72
 4016 0f6c 05       		.uleb128 0x5
 4017 0f6d 03       		.byte	0x3
 4018 0f6e 00000000 		.4byte	Slider_prtCfgTbl
 4019 0f72 09       		.uleb128 0x9
 4020 0f73 300F0000 		.4byte	0xf30
 4021 0f77 17       		.uleb128 0x17
 4022 0f78 83080000 		.4byte	.LASF117
 4023 0f7c 01       		.byte	0x1
 4024 0f7d 99       		.byte	0x99
 4025 0f7e 880F0000 		.4byte	0xf88
 4026 0f82 05       		.uleb128 0x5
 4027 0f83 03       		.byte	0x3
 4028 0f84 00000000 		.4byte	Slider_prtDRTbl
 4029 0f88 09       		.uleb128 0x9
 4030 0f89 300F0000 		.4byte	0xf30
 4031 0f8d 18       		.uleb128 0x18
 4032 0f8e 400F0000 		.4byte	0xf40
 4033 0f92 9D0F0000 		.4byte	0xf9d
 4034 0f96 19       		.uleb128 0x19
 4035 0f97 D6000000 		.4byte	0xd6
 4036 0f9b 04       		.byte	0x4
 4037 0f9c 00       		.byte	0
 4038 0f9d 17       		.uleb128 0x17
 4039 0f9e 65030000 		.4byte	.LASF118
 4040 0fa2 01       		.byte	0x1
 4041 0fa3 43       		.byte	0x43
 4042 0fa4 8D0F0000 		.4byte	0xf8d
 4043 0fa8 05       		.uleb128 0x5
 4044 0fa9 03       		.byte	0x3
ARM GAS  C:\Users\ELECTR~1\AppData\Local\Temp\ccbbDBvf.s 			page 115


 4045 0faa 00000000 		.4byte	Slider_pcTable
 4046 0fae 17       		.uleb128 0x17
 4047 0faf AB000000 		.4byte	.LASF119
 4048 0fb3 01       		.byte	0x1
 4049 0fb4 4B       		.byte	0x4b
 4050 0fb5 BF0F0000 		.4byte	0xfbf
 4051 0fb9 05       		.uleb128 0x5
 4052 0fba 03       		.byte	0x3
 4053 0fbb 00000000 		.4byte	Slider_portTable
 4054 0fbf 09       		.uleb128 0x9
 4055 0fc0 720E0000 		.4byte	0xe72
 4056 0fc4 18       		.uleb128 0x18
 4057 0fc5 81000000 		.4byte	0x81
 4058 0fc9 D40F0000 		.4byte	0xfd4
 4059 0fcd 19       		.uleb128 0x19
 4060 0fce D6000000 		.4byte	0xd6
 4061 0fd2 04       		.byte	0x4
 4062 0fd3 00       		.byte	0
 4063 0fd4 17       		.uleb128 0x17
 4064 0fd5 31010000 		.4byte	.LASF120
 4065 0fd9 01       		.byte	0x1
 4066 0fda 53       		.byte	0x53
 4067 0fdb E50F0000 		.4byte	0xfe5
 4068 0fdf 05       		.uleb128 0x5
 4069 0fe0 03       		.byte	0x3
 4070 0fe1 00000000 		.4byte	Slider_maskTable
 4071 0fe5 09       		.uleb128 0x9
 4072 0fe6 C40F0000 		.4byte	0xfc4
 4073 0fea 17       		.uleb128 0x17
 4074 0feb 8B060000 		.4byte	.LASF121
 4075 0fef 01       		.byte	0x1
 4076 0ff0 5B       		.byte	0x5b
 4077 0ff1 FB0F0000 		.4byte	0xffb
 4078 0ff5 05       		.uleb128 0x5
 4079 0ff6 03       		.byte	0x3
 4080 0ff7 00000000 		.4byte	Slider_pinShiftTbl
 4081 0ffb 09       		.uleb128 0x9
 4082 0ffc 720E0000 		.4byte	0xe72
 4083 1000 1A       		.uleb128 0x1a
 4084 1001 0F010000 		.4byte	.LASF122
 4085 1005 03       		.byte	0x3
 4086 1006 3A01     		.2byte	0x13a
 4087 1008 0C100000 		.4byte	0x100c
 4088 100c 09       		.uleb128 0x9
 4089 100d 0E0E0000 		.4byte	0xe0e
 4090 1011 1A       		.uleb128 0x1a
 4091 1012 36030000 		.4byte	.LASF123
 4092 1016 03       		.byte	0x3
 4093 1017 3B01     		.2byte	0x13b
 4094 1019 1D100000 		.4byte	0x101d
 4095 101d 09       		.uleb128 0x9
 4096 101e 0E0E0000 		.4byte	0xe0e
 4097 1022 17       		.uleb128 0x17
 4098 1023 50090000 		.4byte	.LASF124
 4099 1027 01       		.byte	0x1
 4100 1028 36       		.byte	0x36
 4101 1029 6B000000 		.4byte	0x6b
ARM GAS  C:\Users\ELECTR~1\AppData\Local\Temp\ccbbDBvf.s 			page 116


 4102 102d 05       		.uleb128 0x5
 4103 102e 03       		.byte	0x3
 4104 102f 00000000 		.4byte	Slider_csdTrim1
 4105 1033 1B       		.uleb128 0x1b
 4106 1034 42010000 		.4byte	.LASF125
 4107 1038 04       		.byte	0x4
 4108 1039 4E       		.byte	0x4e
 4109 103a 44100000 		.4byte	0x1044
 4110 103e 1C       		.uleb128 0x1c
 4111 103f 6B000000 		.4byte	0x6b
 4112 1043 00       		.byte	0
 4113 1044 1D       		.uleb128 0x1d
 4114 1045 69050000 		.4byte	.LASF140
 4115 1049 04       		.byte	0x4
 4116 104a 46       		.byte	0x46
 4117 104b C3000000 		.4byte	0xc3
 4118 104f 5E100000 		.4byte	0x105e
 4119 1053 1C       		.uleb128 0x1c
 4120 1054 6B000000 		.4byte	0x6b
 4121 1058 1C       		.uleb128 0x1c
 4122 1059 C3000000 		.4byte	0xc3
 4123 105d 00       		.byte	0
 4124 105e 1B       		.uleb128 0x1b
 4125 105f 18000000 		.4byte	.LASF126
 4126 1063 04       		.byte	0x4
 4127 1064 49       		.byte	0x49
 4128 1065 74100000 		.4byte	0x1074
 4129 1069 1C       		.uleb128 0x1c
 4130 106a 6B000000 		.4byte	0x6b
 4131 106e 1C       		.uleb128 0x1c
 4132 106f 6B000000 		.4byte	0x6b
 4133 1073 00       		.byte	0
 4134 1074 1E       		.uleb128 0x1e
 4135 1075 68060000 		.4byte	.LASF127
 4136 1079 05       		.byte	0x5
 4137 107a 27       		.byte	0x27
 4138 107b 1E       		.uleb128 0x1e
 4139 107c A0040000 		.4byte	.LASF128
 4140 1080 06       		.byte	0x6
 4141 1081 27       		.byte	0x27
 4142 1082 1B       		.uleb128 0x1b
 4143 1083 D9080000 		.4byte	.LASF129
 4144 1087 06       		.byte	0x6
 4145 1088 29       		.byte	0x29
 4146 1089 98100000 		.4byte	0x1098
 4147 108d 1C       		.uleb128 0x1c
 4148 108e 76000000 		.4byte	0x76
 4149 1092 1C       		.uleb128 0x1c
 4150 1093 6B000000 		.4byte	0x6b
 4151 1097 00       		.byte	0
 4152 1098 1B       		.uleb128 0x1b
 4153 1099 9D010000 		.4byte	.LASF130
 4154 109d 05       		.byte	0x5
 4155 109e 29       		.byte	0x29
 4156 109f AE100000 		.4byte	0x10ae
 4157 10a3 1C       		.uleb128 0x1c
 4158 10a4 76000000 		.4byte	0x76
ARM GAS  C:\Users\ELECTR~1\AppData\Local\Temp\ccbbDBvf.s 			page 117


 4159 10a8 1C       		.uleb128 0x1c
 4160 10a9 6B000000 		.4byte	0x6b
 4161 10ad 00       		.byte	0
 4162 10ae 1B       		.uleb128 0x1b
 4163 10af 78050000 		.4byte	.LASF131
 4164 10b3 06       		.byte	0x6
 4165 10b4 1D       		.byte	0x1d
 4166 10b5 BF100000 		.4byte	0x10bf
 4167 10b9 1C       		.uleb128 0x1c
 4168 10ba 81000000 		.4byte	0x81
 4169 10be 00       		.byte	0
 4170 10bf 1B       		.uleb128 0x1b
 4171 10c0 29000000 		.4byte	.LASF132
 4172 10c4 05       		.byte	0x5
 4173 10c5 1D       		.byte	0x1d
 4174 10c6 D0100000 		.4byte	0x10d0
 4175 10ca 1C       		.uleb128 0x1c
 4176 10cb 81000000 		.4byte	0x81
 4177 10cf 00       		.byte	0
 4178 10d0 1B       		.uleb128 0x1b
 4179 10d1 9A080000 		.4byte	.LASF133
 4180 10d5 04       		.byte	0x4
 4181 10d6 4C       		.byte	0x4c
 4182 10d7 E1100000 		.4byte	0x10e1
 4183 10db 1C       		.uleb128 0x1c
 4184 10dc 6B000000 		.4byte	0x6b
 4185 10e0 00       		.byte	0
 4186 10e1 1F       		.uleb128 0x1f
 4187 10e2 60090000 		.4byte	.LASF141
 4188 10e6 04       		.byte	0x4
 4189 10e7 5E       		.byte	0x5e
 4190 10e8 6B000000 		.4byte	0x6b
 4191 10ec 1B       		.uleb128 0x1b
 4192 10ed FA040000 		.4byte	.LASF134
 4193 10f1 04       		.byte	0x4
 4194 10f2 5F       		.byte	0x5f
 4195 10f3 FD100000 		.4byte	0x10fd
 4196 10f7 1C       		.uleb128 0x1c
 4197 10f8 6B000000 		.4byte	0x6b
 4198 10fc 00       		.byte	0
 4199 10fd 20       		.uleb128 0x20
 4200 10fe 40050000 		.4byte	.LASF135
 4201 1102 07       		.byte	0x7
 4202 1103 CA03     		.2byte	0x3ca
 4203 1105 1B       		.uleb128 0x1b
 4204 1106 E3040000 		.4byte	.LASF136
 4205 110a 04       		.byte	0x4
 4206 110b 51       		.byte	0x51
 4207 110c 16110000 		.4byte	0x1116
 4208 1110 1C       		.uleb128 0x1c
 4209 1111 6B000000 		.4byte	0x6b
 4210 1115 00       		.byte	0
 4211 1116 21       		.uleb128 0x21
 4212 1117 10050000 		.4byte	.LASF142
 4213 111b 04       		.byte	0x4
 4214 111c 5A       		.byte	0x5a
 4215 111d 1C       		.uleb128 0x1c
ARM GAS  C:\Users\ELECTR~1\AppData\Local\Temp\ccbbDBvf.s 			page 118


 4216 111e 81000000 		.4byte	0x81
 4217 1122 00       		.byte	0
 4218 1123 00       		.byte	0
 4219              		.section	.debug_abbrev,"",%progbits
 4220              	.Ldebug_abbrev0:
 4221 0000 01       		.uleb128 0x1
 4222 0001 11       		.uleb128 0x11
 4223 0002 01       		.byte	0x1
 4224 0003 25       		.uleb128 0x25
 4225 0004 0E       		.uleb128 0xe
 4226 0005 13       		.uleb128 0x13
 4227 0006 0B       		.uleb128 0xb
 4228 0007 03       		.uleb128 0x3
 4229 0008 0E       		.uleb128 0xe
 4230 0009 1B       		.uleb128 0x1b
 4231 000a 0E       		.uleb128 0xe
 4232 000b 55       		.uleb128 0x55
 4233 000c 17       		.uleb128 0x17
 4234 000d 11       		.uleb128 0x11
 4235 000e 01       		.uleb128 0x1
 4236 000f 10       		.uleb128 0x10
 4237 0010 17       		.uleb128 0x17
 4238 0011 00       		.byte	0
 4239 0012 00       		.byte	0
 4240 0013 02       		.uleb128 0x2
 4241 0014 24       		.uleb128 0x24
 4242 0015 00       		.byte	0
 4243 0016 0B       		.uleb128 0xb
 4244 0017 0B       		.uleb128 0xb
 4245 0018 3E       		.uleb128 0x3e
 4246 0019 0B       		.uleb128 0xb
 4247 001a 03       		.uleb128 0x3
 4248 001b 0E       		.uleb128 0xe
 4249 001c 00       		.byte	0
 4250 001d 00       		.byte	0
 4251 001e 03       		.uleb128 0x3
 4252 001f 24       		.uleb128 0x24
 4253 0020 00       		.byte	0
 4254 0021 0B       		.uleb128 0xb
 4255 0022 0B       		.uleb128 0xb
 4256 0023 3E       		.uleb128 0x3e
 4257 0024 0B       		.uleb128 0xb
 4258 0025 03       		.uleb128 0x3
 4259 0026 08       		.uleb128 0x8
 4260 0027 00       		.byte	0
 4261 0028 00       		.byte	0
 4262 0029 04       		.uleb128 0x4
 4263 002a 16       		.uleb128 0x16
 4264 002b 00       		.byte	0
 4265 002c 03       		.uleb128 0x3
 4266 002d 0E       		.uleb128 0xe
 4267 002e 3A       		.uleb128 0x3a
 4268 002f 0B       		.uleb128 0xb
 4269 0030 3B       		.uleb128 0x3b
 4270 0031 0B       		.uleb128 0xb
 4271 0032 49       		.uleb128 0x49
 4272 0033 13       		.uleb128 0x13
ARM GAS  C:\Users\ELECTR~1\AppData\Local\Temp\ccbbDBvf.s 			page 119


 4273 0034 00       		.byte	0
 4274 0035 00       		.byte	0
 4275 0036 05       		.uleb128 0x5
 4276 0037 16       		.uleb128 0x16
 4277 0038 00       		.byte	0
 4278 0039 03       		.uleb128 0x3
 4279 003a 0E       		.uleb128 0xe
 4280 003b 3A       		.uleb128 0x3a
 4281 003c 0B       		.uleb128 0xb
 4282 003d 3B       		.uleb128 0x3b
 4283 003e 05       		.uleb128 0x5
 4284 003f 49       		.uleb128 0x49
 4285 0040 13       		.uleb128 0x13
 4286 0041 00       		.byte	0
 4287 0042 00       		.byte	0
 4288 0043 06       		.uleb128 0x6
 4289 0044 35       		.uleb128 0x35
 4290 0045 00       		.byte	0
 4291 0046 49       		.uleb128 0x49
 4292 0047 13       		.uleb128 0x13
 4293 0048 00       		.byte	0
 4294 0049 00       		.byte	0
 4295 004a 07       		.uleb128 0x7
 4296 004b 0F       		.uleb128 0xf
 4297 004c 00       		.byte	0
 4298 004d 0B       		.uleb128 0xb
 4299 004e 0B       		.uleb128 0xb
 4300 004f 49       		.uleb128 0x49
 4301 0050 13       		.uleb128 0x13
 4302 0051 00       		.byte	0
 4303 0052 00       		.byte	0
 4304 0053 08       		.uleb128 0x8
 4305 0054 15       		.uleb128 0x15
 4306 0055 00       		.byte	0
 4307 0056 27       		.uleb128 0x27
 4308 0057 19       		.uleb128 0x19
 4309 0058 00       		.byte	0
 4310 0059 00       		.byte	0
 4311 005a 09       		.uleb128 0x9
 4312 005b 26       		.uleb128 0x26
 4313 005c 00       		.byte	0
 4314 005d 49       		.uleb128 0x49
 4315 005e 13       		.uleb128 0x13
 4316 005f 00       		.byte	0
 4317 0060 00       		.byte	0
 4318 0061 0A       		.uleb128 0xa
 4319 0062 2E       		.uleb128 0x2e
 4320 0063 01       		.byte	0x1
 4321 0064 3F       		.uleb128 0x3f
 4322 0065 19       		.uleb128 0x19
 4323 0066 03       		.uleb128 0x3
 4324 0067 0E       		.uleb128 0xe
 4325 0068 3A       		.uleb128 0x3a
 4326 0069 0B       		.uleb128 0xb
 4327 006a 3B       		.uleb128 0x3b
 4328 006b 05       		.uleb128 0x5
 4329 006c 27       		.uleb128 0x27
ARM GAS  C:\Users\ELECTR~1\AppData\Local\Temp\ccbbDBvf.s 			page 120


 4330 006d 19       		.uleb128 0x19
 4331 006e 11       		.uleb128 0x11
 4332 006f 01       		.uleb128 0x1
 4333 0070 12       		.uleb128 0x12
 4334 0071 06       		.uleb128 0x6
 4335 0072 40       		.uleb128 0x40
 4336 0073 18       		.uleb128 0x18
 4337 0074 9742     		.uleb128 0x2117
 4338 0076 19       		.uleb128 0x19
 4339 0077 01       		.uleb128 0x1
 4340 0078 13       		.uleb128 0x13
 4341 0079 00       		.byte	0
 4342 007a 00       		.byte	0
 4343 007b 0B       		.uleb128 0xb
 4344 007c 34       		.uleb128 0x34
 4345 007d 00       		.byte	0
 4346 007e 03       		.uleb128 0x3
 4347 007f 0E       		.uleb128 0xe
 4348 0080 3A       		.uleb128 0x3a
 4349 0081 0B       		.uleb128 0xb
 4350 0082 3B       		.uleb128 0x3b
 4351 0083 05       		.uleb128 0x5
 4352 0084 49       		.uleb128 0x49
 4353 0085 13       		.uleb128 0x13
 4354 0086 02       		.uleb128 0x2
 4355 0087 17       		.uleb128 0x17
 4356 0088 00       		.byte	0
 4357 0089 00       		.byte	0
 4358 008a 0C       		.uleb128 0xc
 4359 008b 898201   		.uleb128 0x4109
 4360 008e 01       		.byte	0x1
 4361 008f 11       		.uleb128 0x11
 4362 0090 01       		.uleb128 0x1
 4363 0091 31       		.uleb128 0x31
 4364 0092 13       		.uleb128 0x13
 4365 0093 01       		.uleb128 0x1
 4366 0094 13       		.uleb128 0x13
 4367 0095 00       		.byte	0
 4368 0096 00       		.byte	0
 4369 0097 0D       		.uleb128 0xd
 4370 0098 8A8201   		.uleb128 0x410a
 4371 009b 00       		.byte	0
 4372 009c 02       		.uleb128 0x2
 4373 009d 18       		.uleb128 0x18
 4374 009e 9142     		.uleb128 0x2111
 4375 00a0 18       		.uleb128 0x18
 4376 00a1 00       		.byte	0
 4377 00a2 00       		.byte	0
 4378 00a3 0E       		.uleb128 0xe
 4379 00a4 898201   		.uleb128 0x4109
 4380 00a7 01       		.byte	0x1
 4381 00a8 11       		.uleb128 0x11
 4382 00a9 01       		.uleb128 0x1
 4383 00aa 31       		.uleb128 0x31
 4384 00ab 13       		.uleb128 0x13
 4385 00ac 00       		.byte	0
 4386 00ad 00       		.byte	0
ARM GAS  C:\Users\ELECTR~1\AppData\Local\Temp\ccbbDBvf.s 			page 121


 4387 00ae 0F       		.uleb128 0xf
 4388 00af 898201   		.uleb128 0x4109
 4389 00b2 00       		.byte	0
 4390 00b3 11       		.uleb128 0x11
 4391 00b4 01       		.uleb128 0x1
 4392 00b5 31       		.uleb128 0x31
 4393 00b6 13       		.uleb128 0x13
 4394 00b7 00       		.byte	0
 4395 00b8 00       		.byte	0
 4396 00b9 10       		.uleb128 0x10
 4397 00ba 2E       		.uleb128 0x2e
 4398 00bb 00       		.byte	0
 4399 00bc 3F       		.uleb128 0x3f
 4400 00bd 19       		.uleb128 0x19
 4401 00be 03       		.uleb128 0x3
 4402 00bf 0E       		.uleb128 0xe
 4403 00c0 3A       		.uleb128 0x3a
 4404 00c1 0B       		.uleb128 0xb
 4405 00c2 3B       		.uleb128 0x3b
 4406 00c3 05       		.uleb128 0x5
 4407 00c4 27       		.uleb128 0x27
 4408 00c5 19       		.uleb128 0x19
 4409 00c6 49       		.uleb128 0x49
 4410 00c7 13       		.uleb128 0x13
 4411 00c8 11       		.uleb128 0x11
 4412 00c9 01       		.uleb128 0x1
 4413 00ca 12       		.uleb128 0x12
 4414 00cb 06       		.uleb128 0x6
 4415 00cc 40       		.uleb128 0x40
 4416 00cd 18       		.uleb128 0x18
 4417 00ce 9742     		.uleb128 0x2117
 4418 00d0 19       		.uleb128 0x19
 4419 00d1 00       		.byte	0
 4420 00d2 00       		.byte	0
 4421 00d3 11       		.uleb128 0x11
 4422 00d4 2E       		.uleb128 0x2e
 4423 00d5 01       		.byte	0x1
 4424 00d6 3F       		.uleb128 0x3f
 4425 00d7 19       		.uleb128 0x19
 4426 00d8 03       		.uleb128 0x3
 4427 00d9 0E       		.uleb128 0xe
 4428 00da 3A       		.uleb128 0x3a
 4429 00db 0B       		.uleb128 0xb
 4430 00dc 3B       		.uleb128 0x3b
 4431 00dd 05       		.uleb128 0x5
 4432 00de 27       		.uleb128 0x27
 4433 00df 19       		.uleb128 0x19
 4434 00e0 49       		.uleb128 0x49
 4435 00e1 13       		.uleb128 0x13
 4436 00e2 11       		.uleb128 0x11
 4437 00e3 01       		.uleb128 0x1
 4438 00e4 12       		.uleb128 0x12
 4439 00e5 06       		.uleb128 0x6
 4440 00e6 40       		.uleb128 0x40
 4441 00e7 18       		.uleb128 0x18
 4442 00e8 9742     		.uleb128 0x2117
 4443 00ea 19       		.uleb128 0x19
ARM GAS  C:\Users\ELECTR~1\AppData\Local\Temp\ccbbDBvf.s 			page 122


 4444 00eb 01       		.uleb128 0x1
 4445 00ec 13       		.uleb128 0x13
 4446 00ed 00       		.byte	0
 4447 00ee 00       		.byte	0
 4448 00ef 12       		.uleb128 0x12
 4449 00f0 05       		.uleb128 0x5
 4450 00f1 00       		.byte	0
 4451 00f2 03       		.uleb128 0x3
 4452 00f3 0E       		.uleb128 0xe
 4453 00f4 3A       		.uleb128 0x3a
 4454 00f5 0B       		.uleb128 0xb
 4455 00f6 3B       		.uleb128 0x3b
 4456 00f7 05       		.uleb128 0x5
 4457 00f8 49       		.uleb128 0x49
 4458 00f9 13       		.uleb128 0x13
 4459 00fa 02       		.uleb128 0x2
 4460 00fb 17       		.uleb128 0x17
 4461 00fc 00       		.byte	0
 4462 00fd 00       		.byte	0
 4463 00fe 13       		.uleb128 0x13
 4464 00ff 05       		.uleb128 0x5
 4465 0100 00       		.byte	0
 4466 0101 03       		.uleb128 0x3
 4467 0102 0E       		.uleb128 0xe
 4468 0103 3A       		.uleb128 0x3a
 4469 0104 0B       		.uleb128 0xb
 4470 0105 3B       		.uleb128 0x3b
 4471 0106 05       		.uleb128 0x5
 4472 0107 49       		.uleb128 0x49
 4473 0108 13       		.uleb128 0x13
 4474 0109 02       		.uleb128 0x2
 4475 010a 18       		.uleb128 0x18
 4476 010b 00       		.byte	0
 4477 010c 00       		.byte	0
 4478 010d 14       		.uleb128 0x14
 4479 010e 34       		.uleb128 0x34
 4480 010f 00       		.byte	0
 4481 0110 03       		.uleb128 0x3
 4482 0111 0E       		.uleb128 0xe
 4483 0112 3A       		.uleb128 0x3a
 4484 0113 0B       		.uleb128 0xb
 4485 0114 3B       		.uleb128 0x3b
 4486 0115 05       		.uleb128 0x5
 4487 0116 49       		.uleb128 0x49
 4488 0117 13       		.uleb128 0x13
 4489 0118 02       		.uleb128 0x2
 4490 0119 18       		.uleb128 0x18
 4491 011a 00       		.byte	0
 4492 011b 00       		.byte	0
 4493 011c 15       		.uleb128 0x15
 4494 011d 2E       		.uleb128 0x2e
 4495 011e 01       		.byte	0x1
 4496 011f 3F       		.uleb128 0x3f
 4497 0120 19       		.uleb128 0x19
 4498 0121 03       		.uleb128 0x3
 4499 0122 0E       		.uleb128 0xe
 4500 0123 3A       		.uleb128 0x3a
ARM GAS  C:\Users\ELECTR~1\AppData\Local\Temp\ccbbDBvf.s 			page 123


 4501 0124 0B       		.uleb128 0xb
 4502 0125 3B       		.uleb128 0x3b
 4503 0126 0B       		.uleb128 0xb
 4504 0127 27       		.uleb128 0x27
 4505 0128 19       		.uleb128 0x19
 4506 0129 11       		.uleb128 0x11
 4507 012a 01       		.uleb128 0x1
 4508 012b 12       		.uleb128 0x12
 4509 012c 06       		.uleb128 0x6
 4510 012d 40       		.uleb128 0x40
 4511 012e 18       		.uleb128 0x18
 4512 012f 9742     		.uleb128 0x2117
 4513 0131 19       		.uleb128 0x19
 4514 0132 01       		.uleb128 0x1
 4515 0133 13       		.uleb128 0x13
 4516 0134 00       		.byte	0
 4517 0135 00       		.byte	0
 4518 0136 16       		.uleb128 0x16
 4519 0137 34       		.uleb128 0x34
 4520 0138 00       		.byte	0
 4521 0139 03       		.uleb128 0x3
 4522 013a 0E       		.uleb128 0xe
 4523 013b 3A       		.uleb128 0x3a
 4524 013c 0B       		.uleb128 0xb
 4525 013d 3B       		.uleb128 0x3b
 4526 013e 0B       		.uleb128 0xb
 4527 013f 49       		.uleb128 0x49
 4528 0140 13       		.uleb128 0x13
 4529 0141 02       		.uleb128 0x2
 4530 0142 17       		.uleb128 0x17
 4531 0143 00       		.byte	0
 4532 0144 00       		.byte	0
 4533 0145 17       		.uleb128 0x17
 4534 0146 34       		.uleb128 0x34
 4535 0147 00       		.byte	0
 4536 0148 03       		.uleb128 0x3
 4537 0149 0E       		.uleb128 0xe
 4538 014a 3A       		.uleb128 0x3a
 4539 014b 0B       		.uleb128 0xb
 4540 014c 3B       		.uleb128 0x3b
 4541 014d 0B       		.uleb128 0xb
 4542 014e 49       		.uleb128 0x49
 4543 014f 13       		.uleb128 0x13
 4544 0150 3F       		.uleb128 0x3f
 4545 0151 19       		.uleb128 0x19
 4546 0152 02       		.uleb128 0x2
 4547 0153 18       		.uleb128 0x18
 4548 0154 00       		.byte	0
 4549 0155 00       		.byte	0
 4550 0156 18       		.uleb128 0x18
 4551 0157 01       		.uleb128 0x1
 4552 0158 01       		.byte	0x1
 4553 0159 49       		.uleb128 0x49
 4554 015a 13       		.uleb128 0x13
 4555 015b 01       		.uleb128 0x1
 4556 015c 13       		.uleb128 0x13
 4557 015d 00       		.byte	0
ARM GAS  C:\Users\ELECTR~1\AppData\Local\Temp\ccbbDBvf.s 			page 124


 4558 015e 00       		.byte	0
 4559 015f 19       		.uleb128 0x19
 4560 0160 21       		.uleb128 0x21
 4561 0161 00       		.byte	0
 4562 0162 49       		.uleb128 0x49
 4563 0163 13       		.uleb128 0x13
 4564 0164 2F       		.uleb128 0x2f
 4565 0165 0B       		.uleb128 0xb
 4566 0166 00       		.byte	0
 4567 0167 00       		.byte	0
 4568 0168 1A       		.uleb128 0x1a
 4569 0169 34       		.uleb128 0x34
 4570 016a 00       		.byte	0
 4571 016b 03       		.uleb128 0x3
 4572 016c 0E       		.uleb128 0xe
 4573 016d 3A       		.uleb128 0x3a
 4574 016e 0B       		.uleb128 0xb
 4575 016f 3B       		.uleb128 0x3b
 4576 0170 05       		.uleb128 0x5
 4577 0171 49       		.uleb128 0x49
 4578 0172 13       		.uleb128 0x13
 4579 0173 3F       		.uleb128 0x3f
 4580 0174 19       		.uleb128 0x19
 4581 0175 3C       		.uleb128 0x3c
 4582 0176 19       		.uleb128 0x19
 4583 0177 00       		.byte	0
 4584 0178 00       		.byte	0
 4585 0179 1B       		.uleb128 0x1b
 4586 017a 2E       		.uleb128 0x2e
 4587 017b 01       		.byte	0x1
 4588 017c 3F       		.uleb128 0x3f
 4589 017d 19       		.uleb128 0x19
 4590 017e 03       		.uleb128 0x3
 4591 017f 0E       		.uleb128 0xe
 4592 0180 3A       		.uleb128 0x3a
 4593 0181 0B       		.uleb128 0xb
 4594 0182 3B       		.uleb128 0x3b
 4595 0183 0B       		.uleb128 0xb
 4596 0184 27       		.uleb128 0x27
 4597 0185 19       		.uleb128 0x19
 4598 0186 3C       		.uleb128 0x3c
 4599 0187 19       		.uleb128 0x19
 4600 0188 01       		.uleb128 0x1
 4601 0189 13       		.uleb128 0x13
 4602 018a 00       		.byte	0
 4603 018b 00       		.byte	0
 4604 018c 1C       		.uleb128 0x1c
 4605 018d 05       		.uleb128 0x5
 4606 018e 00       		.byte	0
 4607 018f 49       		.uleb128 0x49
 4608 0190 13       		.uleb128 0x13
 4609 0191 00       		.byte	0
 4610 0192 00       		.byte	0
 4611 0193 1D       		.uleb128 0x1d
 4612 0194 2E       		.uleb128 0x2e
 4613 0195 01       		.byte	0x1
 4614 0196 3F       		.uleb128 0x3f
ARM GAS  C:\Users\ELECTR~1\AppData\Local\Temp\ccbbDBvf.s 			page 125


 4615 0197 19       		.uleb128 0x19
 4616 0198 03       		.uleb128 0x3
 4617 0199 0E       		.uleb128 0xe
 4618 019a 3A       		.uleb128 0x3a
 4619 019b 0B       		.uleb128 0xb
 4620 019c 3B       		.uleb128 0x3b
 4621 019d 0B       		.uleb128 0xb
 4622 019e 27       		.uleb128 0x27
 4623 019f 19       		.uleb128 0x19
 4624 01a0 49       		.uleb128 0x49
 4625 01a1 13       		.uleb128 0x13
 4626 01a2 3C       		.uleb128 0x3c
 4627 01a3 19       		.uleb128 0x19
 4628 01a4 01       		.uleb128 0x1
 4629 01a5 13       		.uleb128 0x13
 4630 01a6 00       		.byte	0
 4631 01a7 00       		.byte	0
 4632 01a8 1E       		.uleb128 0x1e
 4633 01a9 2E       		.uleb128 0x2e
 4634 01aa 00       		.byte	0
 4635 01ab 3F       		.uleb128 0x3f
 4636 01ac 19       		.uleb128 0x19
 4637 01ad 03       		.uleb128 0x3
 4638 01ae 0E       		.uleb128 0xe
 4639 01af 3A       		.uleb128 0x3a
 4640 01b0 0B       		.uleb128 0xb
 4641 01b1 3B       		.uleb128 0x3b
 4642 01b2 0B       		.uleb128 0xb
 4643 01b3 27       		.uleb128 0x27
 4644 01b4 19       		.uleb128 0x19
 4645 01b5 3C       		.uleb128 0x3c
 4646 01b6 19       		.uleb128 0x19
 4647 01b7 00       		.byte	0
 4648 01b8 00       		.byte	0
 4649 01b9 1F       		.uleb128 0x1f
 4650 01ba 2E       		.uleb128 0x2e
 4651 01bb 00       		.byte	0
 4652 01bc 3F       		.uleb128 0x3f
 4653 01bd 19       		.uleb128 0x19
 4654 01be 03       		.uleb128 0x3
 4655 01bf 0E       		.uleb128 0xe
 4656 01c0 3A       		.uleb128 0x3a
 4657 01c1 0B       		.uleb128 0xb
 4658 01c2 3B       		.uleb128 0x3b
 4659 01c3 0B       		.uleb128 0xb
 4660 01c4 27       		.uleb128 0x27
 4661 01c5 19       		.uleb128 0x19
 4662 01c6 49       		.uleb128 0x49
 4663 01c7 13       		.uleb128 0x13
 4664 01c8 3C       		.uleb128 0x3c
 4665 01c9 19       		.uleb128 0x19
 4666 01ca 00       		.byte	0
 4667 01cb 00       		.byte	0
 4668 01cc 20       		.uleb128 0x20
 4669 01cd 2E       		.uleb128 0x2e
 4670 01ce 00       		.byte	0
 4671 01cf 3F       		.uleb128 0x3f
ARM GAS  C:\Users\ELECTR~1\AppData\Local\Temp\ccbbDBvf.s 			page 126


 4672 01d0 19       		.uleb128 0x19
 4673 01d1 03       		.uleb128 0x3
 4674 01d2 0E       		.uleb128 0xe
 4675 01d3 3A       		.uleb128 0x3a
 4676 01d4 0B       		.uleb128 0xb
 4677 01d5 3B       		.uleb128 0x3b
 4678 01d6 05       		.uleb128 0x5
 4679 01d7 27       		.uleb128 0x27
 4680 01d8 19       		.uleb128 0x19
 4681 01d9 3C       		.uleb128 0x3c
 4682 01da 19       		.uleb128 0x19
 4683 01db 00       		.byte	0
 4684 01dc 00       		.byte	0
 4685 01dd 21       		.uleb128 0x21
 4686 01de 2E       		.uleb128 0x2e
 4687 01df 01       		.byte	0x1
 4688 01e0 3F       		.uleb128 0x3f
 4689 01e1 19       		.uleb128 0x19
 4690 01e2 03       		.uleb128 0x3
 4691 01e3 0E       		.uleb128 0xe
 4692 01e4 3A       		.uleb128 0x3a
 4693 01e5 0B       		.uleb128 0xb
 4694 01e6 3B       		.uleb128 0x3b
 4695 01e7 0B       		.uleb128 0xb
 4696 01e8 27       		.uleb128 0x27
 4697 01e9 19       		.uleb128 0x19
 4698 01ea 3C       		.uleb128 0x3c
 4699 01eb 19       		.uleb128 0x19
 4700 01ec 00       		.byte	0
 4701 01ed 00       		.byte	0
 4702 01ee 00       		.byte	0
 4703              		.section	.debug_loc,"",%progbits
 4704              	.Ldebug_loc0:
 4705              	.LLST0:
 4706 0000 0C000000 		.4byte	.LVL0
 4707 0004 10000000 		.4byte	.LVL1
 4708 0008 0100     		.2byte	0x1
 4709 000a 53       		.byte	0x53
 4710 000b 12000000 		.4byte	.LVL2
 4711 000f 1C000000 		.4byte	.LVL3
 4712 0013 0100     		.2byte	0x1
 4713 0015 51       		.byte	0x51
 4714 0016 1C000000 		.4byte	.LVL3
 4715 001a 20000000 		.4byte	.LVL4
 4716 001e 0100     		.2byte	0x1
 4717 0020 53       		.byte	0x53
 4718 0021 22000000 		.4byte	.LVL5
 4719 0025 28000000 		.4byte	.LVL6
 4720 0029 0100     		.2byte	0x1
 4721 002b 52       		.byte	0x52
 4722 002c 28000000 		.4byte	.LVL6
 4723 0030 2E000000 		.4byte	.LVL7
 4724 0034 0100     		.2byte	0x1
 4725 0036 53       		.byte	0x53
 4726 0037 2E000000 		.4byte	.LVL7
 4727 003b 30000000 		.4byte	.LVL8
 4728 003f 0200     		.2byte	0x2
ARM GAS  C:\Users\ELECTR~1\AppData\Local\Temp\ccbbDBvf.s 			page 127


 4729 0041 74       		.byte	0x74
 4730 0042 00       		.sleb128 0
 4731 0043 3A000000 		.4byte	.LVL9
 4732 0047 47000000 		.4byte	.LVL12-1
 4733 004b 0100     		.2byte	0x1
 4734 004d 53       		.byte	0x53
 4735 004e 00000000 		.4byte	0
 4736 0052 00000000 		.4byte	0
 4737              	.LLST1:
 4738 0056 2A000000 		.4byte	.LVL21
 4739 005a 35000000 		.4byte	.LVL23-1
 4740 005e 0100     		.2byte	0x1
 4741 0060 53       		.byte	0x53
 4742 0061 00000000 		.4byte	0
 4743 0065 00000000 		.4byte	0
 4744              	.LLST2:
 4745 0069 00000000 		.4byte	.LVL27
 4746 006d 02000000 		.4byte	.LVL28
 4747 0071 0100     		.2byte	0x1
 4748 0073 50       		.byte	0x50
 4749 0074 02000000 		.4byte	.LVL28
 4750 0078 10000000 		.4byte	.LFE45
 4751 007c 0400     		.2byte	0x4
 4752 007e F3       		.byte	0xf3
 4753 007f 01       		.uleb128 0x1
 4754 0080 50       		.byte	0x50
 4755 0081 9F       		.byte	0x9f
 4756 0082 00000000 		.4byte	0
 4757 0086 00000000 		.4byte	0
 4758              	.LLST3:
 4759 008a 00000000 		.4byte	.LVL29
 4760 008e 02000000 		.4byte	.LVL30
 4761 0092 0100     		.2byte	0x1
 4762 0094 50       		.byte	0x50
 4763 0095 02000000 		.4byte	.LVL30
 4764 0099 10000000 		.4byte	.LFE46
 4765 009d 0400     		.2byte	0x4
 4766 009f F3       		.byte	0xf3
 4767 00a0 01       		.uleb128 0x1
 4768 00a1 50       		.byte	0x50
 4769 00a2 9F       		.byte	0x9f
 4770 00a3 00000000 		.4byte	0
 4771 00a7 00000000 		.4byte	0
 4772              	.LLST4:
 4773 00ab 00000000 		.4byte	.LVL31
 4774 00af 02000000 		.4byte	.LVL32
 4775 00b3 0100     		.2byte	0x1
 4776 00b5 50       		.byte	0x50
 4777 00b6 02000000 		.4byte	.LVL32
 4778 00ba 0C000000 		.4byte	.LFE47
 4779 00be 0400     		.2byte	0x4
 4780 00c0 F3       		.byte	0xf3
 4781 00c1 01       		.uleb128 0x1
 4782 00c2 50       		.byte	0x50
 4783 00c3 9F       		.byte	0x9f
 4784 00c4 00000000 		.4byte	0
 4785 00c8 00000000 		.4byte	0
ARM GAS  C:\Users\ELECTR~1\AppData\Local\Temp\ccbbDBvf.s 			page 128


 4786              	.LLST5:
 4787 00cc 00000000 		.4byte	.LVL33
 4788 00d0 02000000 		.4byte	.LVL34
 4789 00d4 0100     		.2byte	0x1
 4790 00d6 50       		.byte	0x50
 4791 00d7 02000000 		.4byte	.LVL34
 4792 00db 0C000000 		.4byte	.LFE48
 4793 00df 0400     		.2byte	0x4
 4794 00e1 F3       		.byte	0xf3
 4795 00e2 01       		.uleb128 0x1
 4796 00e3 50       		.byte	0x50
 4797 00e4 9F       		.byte	0x9f
 4798 00e5 00000000 		.4byte	0
 4799 00e9 00000000 		.4byte	0
 4800              	.LLST6:
 4801 00ed 00000000 		.4byte	.LVL35
 4802 00f1 08000000 		.4byte	.LVL37
 4803 00f5 0100     		.2byte	0x1
 4804 00f7 50       		.byte	0x50
 4805 00f8 08000000 		.4byte	.LVL37
 4806 00fc 48000000 		.4byte	.LFE50
 4807 0100 0400     		.2byte	0x4
 4808 0102 F3       		.byte	0xf3
 4809 0103 01       		.uleb128 0x1
 4810 0104 50       		.byte	0x50
 4811 0105 9F       		.byte	0x9f
 4812 0106 00000000 		.4byte	0
 4813 010a 00000000 		.4byte	0
 4814              	.LLST7:
 4815 010e 10000000 		.4byte	.LVL38
 4816 0112 40000000 		.4byte	.LVL48
 4817 0116 0100     		.2byte	0x1
 4818 0118 55       		.byte	0x55
 4819 0119 40000000 		.4byte	.LVL48
 4820 011d 40000000 		.4byte	.LVL49
 4821 0121 1E00     		.2byte	0x1e
 4822 0123 77       		.byte	0x77
 4823 0124 00       		.sleb128 0
 4824 0125 F3       		.byte	0xf3
 4825 0126 01       		.uleb128 0x1
 4826 0127 50       		.byte	0x50
 4827 0128 22       		.byte	0x22
 4828 0129 23       		.byte	0x23
 4829 012a 08       		.uleb128 0x8
 4830 012b 94       		.byte	0x94
 4831 012c 01       		.byte	0x1
 4832 012d 08       		.byte	0x8
 4833 012e FF       		.byte	0xff
 4834 012f 1A       		.byte	0x1a
 4835 0130 31       		.byte	0x31
 4836 0131 24       		.byte	0x24
 4837 0132 77       		.byte	0x77
 4838 0133 00       		.sleb128 0
 4839 0134 F3       		.byte	0xf3
 4840 0135 01       		.uleb128 0x1
 4841 0136 50       		.byte	0x50
 4842 0137 22       		.byte	0x22
ARM GAS  C:\Users\ELECTR~1\AppData\Local\Temp\ccbbDBvf.s 			page 129


 4843 0138 23       		.byte	0x23
 4844 0139 08       		.uleb128 0x8
 4845 013a 94       		.byte	0x94
 4846 013b 01       		.byte	0x1
 4847 013c 08       		.byte	0x8
 4848 013d FF       		.byte	0xff
 4849 013e 1A       		.byte	0x1a
 4850 013f 22       		.byte	0x22
 4851 0140 9F       		.byte	0x9f
 4852 0141 40000000 		.4byte	.LVL49
 4853 0145 48000000 		.4byte	.LFE50
 4854 0149 2000     		.2byte	0x20
 4855 014b F3       		.byte	0xf3
 4856 014c 01       		.uleb128 0x1
 4857 014d 50       		.byte	0x50
 4858 014e 03       		.byte	0x3
 4859 014f 08000000 		.4byte	.LANCHOR2+8
 4860 0153 22       		.byte	0x22
 4861 0154 94       		.byte	0x94
 4862 0155 01       		.byte	0x1
 4863 0156 08       		.byte	0x8
 4864 0157 FF       		.byte	0xff
 4865 0158 1A       		.byte	0x1a
 4866 0159 31       		.byte	0x31
 4867 015a 24       		.byte	0x24
 4868 015b F3       		.byte	0xf3
 4869 015c 01       		.uleb128 0x1
 4870 015d 50       		.byte	0x50
 4871 015e 03       		.byte	0x3
 4872 015f 08000000 		.4byte	.LANCHOR2+8
 4873 0163 22       		.byte	0x22
 4874 0164 94       		.byte	0x94
 4875 0165 01       		.byte	0x1
 4876 0166 08       		.byte	0x8
 4877 0167 FF       		.byte	0xff
 4878 0168 1A       		.byte	0x1a
 4879 0169 22       		.byte	0x22
 4880 016a 9F       		.byte	0x9f
 4881 016b 00000000 		.4byte	0
 4882 016f 00000000 		.4byte	0
 4883              	.LLST8:
 4884 0173 14000000 		.4byte	.LVL39
 4885 0177 30000000 		.4byte	.LVL46
 4886 017b 0100     		.2byte	0x1
 4887 017d 56       		.byte	0x56
 4888 017e 30000000 		.4byte	.LVL46
 4889 0182 40000000 		.4byte	.LVL49
 4890 0186 0D00     		.2byte	0xd
 4891 0188 77       		.byte	0x77
 4892 0189 00       		.sleb128 0
 4893 018a F3       		.byte	0xf3
 4894 018b 01       		.uleb128 0x1
 4895 018c 50       		.byte	0x50
 4896 018d 22       		.byte	0x22
 4897 018e 23       		.byte	0x23
 4898 018f 08       		.uleb128 0x8
 4899 0190 94       		.byte	0x94
ARM GAS  C:\Users\ELECTR~1\AppData\Local\Temp\ccbbDBvf.s 			page 130


 4900 0191 01       		.byte	0x1
 4901 0192 32       		.byte	0x32
 4902 0193 24       		.byte	0x24
 4903 0194 9F       		.byte	0x9f
 4904 0195 40000000 		.4byte	.LVL49
 4905 0199 48000000 		.4byte	.LFE50
 4906 019d 0E00     		.2byte	0xe
 4907 019f F3       		.byte	0xf3
 4908 01a0 01       		.uleb128 0x1
 4909 01a1 50       		.byte	0x50
 4910 01a2 03       		.byte	0x3
 4911 01a3 08000000 		.4byte	.LANCHOR2+8
 4912 01a7 22       		.byte	0x22
 4913 01a8 94       		.byte	0x94
 4914 01a9 01       		.byte	0x1
 4915 01aa 32       		.byte	0x32
 4916 01ab 24       		.byte	0x24
 4917 01ac 9F       		.byte	0x9f
 4918 01ad 00000000 		.4byte	0
 4919 01b1 00000000 		.4byte	0
 4920              	.LLST9:
 4921 01b5 18000000 		.4byte	.LVL40
 4922 01b9 3F000000 		.4byte	.LVL47-1
 4923 01bd 0100     		.2byte	0x1
 4924 01bf 50       		.byte	0x50
 4925 01c0 00000000 		.4byte	0
 4926 01c4 00000000 		.4byte	0
 4927              	.LLST10:
 4928 01c8 20000000 		.4byte	.LVL42
 4929 01cc 26000000 		.4byte	.LVL43
 4930 01d0 0100     		.2byte	0x1
 4931 01d2 52       		.byte	0x52
 4932 01d3 28000000 		.4byte	.LVL44
 4933 01d7 2E000000 		.4byte	.LVL45
 4934 01db 0100     		.2byte	0x1
 4935 01dd 51       		.byte	0x51
 4936 01de 2E000000 		.4byte	.LVL45
 4937 01e2 3F000000 		.4byte	.LVL47-1
 4938 01e6 0100     		.2byte	0x1
 4939 01e8 52       		.byte	0x52
 4940 01e9 00000000 		.4byte	0
 4941 01ed 00000000 		.4byte	0
 4942              	.LLST11:
 4943 01f1 06000000 		.4byte	.LVL36
 4944 01f5 1A000000 		.4byte	.LVL41
 4945 01f9 0100     		.2byte	0x1
 4946 01fb 54       		.byte	0x54
 4947 01fc 1A000000 		.4byte	.LVL41
 4948 0200 40000000 		.4byte	.LVL49
 4949 0204 0C00     		.2byte	0xc
 4950 0206 77       		.byte	0x77
 4951 0207 00       		.sleb128 0
 4952 0208 F3       		.byte	0xf3
 4953 0209 01       		.uleb128 0x1
 4954 020a 50       		.byte	0x50
 4955 020b 22       		.byte	0x22
 4956 020c 94       		.byte	0x94
ARM GAS  C:\Users\ELECTR~1\AppData\Local\Temp\ccbbDBvf.s 			page 131


 4957 020d 01       		.byte	0x1
 4958 020e 08       		.byte	0x8
 4959 020f FF       		.byte	0xff
 4960 0210 1A       		.byte	0x1a
 4961 0211 9F       		.byte	0x9f
 4962 0212 40000000 		.4byte	.LVL49
 4963 0216 48000000 		.4byte	.LFE50
 4964 021a 0F00     		.2byte	0xf
 4965 021c F3       		.byte	0xf3
 4966 021d 01       		.uleb128 0x1
 4967 021e 50       		.byte	0x50
 4968 021f 03       		.byte	0x3
 4969 0220 00000000 		.4byte	.LANCHOR2
 4970 0224 22       		.byte	0x22
 4971 0225 94       		.byte	0x94
 4972 0226 01       		.byte	0x1
 4973 0227 08       		.byte	0x8
 4974 0228 FF       		.byte	0xff
 4975 0229 1A       		.byte	0x1a
 4976 022a 9F       		.byte	0x9f
 4977 022b 00000000 		.4byte	0
 4978 022f 00000000 		.4byte	0
 4979              	.LLST12:
 4980 0233 00000000 		.4byte	.LVL50
 4981 0237 18000000 		.4byte	.LVL54
 4982 023b 0100     		.2byte	0x1
 4983 023d 50       		.byte	0x50
 4984 023e 18000000 		.4byte	.LVL54
 4985 0242 70000000 		.4byte	.LFE51
 4986 0246 0400     		.2byte	0x4
 4987 0248 F3       		.byte	0xf3
 4988 0249 01       		.uleb128 0x1
 4989 024a 50       		.byte	0x50
 4990 024b 9F       		.byte	0x9f
 4991 024c 00000000 		.4byte	0
 4992 0250 00000000 		.4byte	0
 4993              	.LLST13:
 4994 0254 3C000000 		.4byte	.LVL57
 4995 0258 59000000 		.4byte	.LVL64-1
 4996 025c 0100     		.2byte	0x1
 4997 025e 50       		.byte	0x50
 4998 025f 00000000 		.4byte	0
 4999 0263 00000000 		.4byte	0
 5000              	.LLST14:
 5001 0267 46000000 		.4byte	.LVL60
 5002 026b 4C000000 		.4byte	.LVL61
 5003 026f 0100     		.2byte	0x1
 5004 0271 53       		.byte	0x53
 5005 0272 4E000000 		.4byte	.LVL62
 5006 0276 54000000 		.4byte	.LVL63
 5007 027a 0100     		.2byte	0x1
 5008 027c 52       		.byte	0x52
 5009 027d 54000000 		.4byte	.LVL63
 5010 0281 59000000 		.4byte	.LVL64-1
 5011 0285 0100     		.2byte	0x1
 5012 0287 53       		.byte	0x53
 5013 0288 00000000 		.4byte	0
ARM GAS  C:\Users\ELECTR~1\AppData\Local\Temp\ccbbDBvf.s 			page 132


 5014 028c 00000000 		.4byte	0
 5015              	.LLST15:
 5016 0290 06000000 		.4byte	.LVL51
 5017 0294 3E000000 		.4byte	.LVL58
 5018 0298 0100     		.2byte	0x1
 5019 029a 54       		.byte	0x54
 5020 029b 3E000000 		.4byte	.LVL58
 5021 029f 40000000 		.4byte	.LVL59
 5022 02a3 0F00     		.2byte	0xf
 5023 02a5 F3       		.byte	0xf3
 5024 02a6 01       		.uleb128 0x1
 5025 02a7 50       		.byte	0x50
 5026 02a8 03       		.byte	0x3
 5027 02a9 00000000 		.4byte	.LANCHOR2
 5028 02ad 22       		.byte	0x22
 5029 02ae 94       		.byte	0x94
 5030 02af 01       		.byte	0x1
 5031 02b0 08       		.byte	0x8
 5032 02b1 FF       		.byte	0xff
 5033 02b2 1A       		.byte	0x1a
 5034 02b3 9F       		.byte	0x9f
 5035 02b4 40000000 		.4byte	.LVL59
 5036 02b8 46000000 		.4byte	.LVL60
 5037 02bc 0C00     		.2byte	0xc
 5038 02be 73       		.byte	0x73
 5039 02bf 00       		.sleb128 0
 5040 02c0 F3       		.byte	0xf3
 5041 02c1 01       		.uleb128 0x1
 5042 02c2 50       		.byte	0x50
 5043 02c3 22       		.byte	0x22
 5044 02c4 94       		.byte	0x94
 5045 02c5 01       		.byte	0x1
 5046 02c6 08       		.byte	0x8
 5047 02c7 FF       		.byte	0xff
 5048 02c8 1A       		.byte	0x1a
 5049 02c9 9F       		.byte	0x9f
 5050 02ca 46000000 		.4byte	.LVL60
 5051 02ce 70000000 		.4byte	.LFE51
 5052 02d2 0F00     		.2byte	0xf
 5053 02d4 F3       		.byte	0xf3
 5054 02d5 01       		.uleb128 0x1
 5055 02d6 50       		.byte	0x50
 5056 02d7 03       		.byte	0x3
 5057 02d8 00000000 		.4byte	.LANCHOR2
 5058 02dc 22       		.byte	0x22
 5059 02dd 94       		.byte	0x94
 5060 02de 01       		.byte	0x1
 5061 02df 08       		.byte	0x8
 5062 02e0 FF       		.byte	0xff
 5063 02e1 1A       		.byte	0x1a
 5064 02e2 9F       		.byte	0x9f
 5065 02e3 00000000 		.4byte	0
 5066 02e7 00000000 		.4byte	0
 5067              	.LLST16:
 5068 02eb 0E000000 		.4byte	.LVL52
 5069 02ef 3B000000 		.4byte	.LVL57-1
 5070 02f3 0100     		.2byte	0x1
ARM GAS  C:\Users\ELECTR~1\AppData\Local\Temp\ccbbDBvf.s 			page 133


 5071 02f5 52       		.byte	0x52
 5072 02f6 3B000000 		.4byte	.LVL57-1
 5073 02fa 66000000 		.4byte	.LVL66
 5074 02fe 0500     		.2byte	0x5
 5075 0300 76       		.byte	0x76
 5076 0301 00       		.sleb128 0
 5077 0302 32       		.byte	0x32
 5078 0303 24       		.byte	0x24
 5079 0304 9F       		.byte	0x9f
 5080 0305 66000000 		.4byte	.LVL66
 5081 0309 70000000 		.4byte	.LFE51
 5082 030d 0E00     		.2byte	0xe
 5083 030f F3       		.byte	0xf3
 5084 0310 01       		.uleb128 0x1
 5085 0311 50       		.byte	0x50
 5086 0312 03       		.byte	0x3
 5087 0313 08000000 		.4byte	.LANCHOR2+8
 5088 0317 22       		.byte	0x22
 5089 0318 94       		.byte	0x94
 5090 0319 01       		.byte	0x1
 5091 031a 32       		.byte	0x32
 5092 031b 24       		.byte	0x24
 5093 031c 9F       		.byte	0x9f
 5094 031d 00000000 		.4byte	0
 5095 0321 00000000 		.4byte	0
 5096              	.LLST17:
 5097 0325 14000000 		.4byte	.LVL53
 5098 0329 66000000 		.4byte	.LVL65
 5099 032d 0100     		.2byte	0x1
 5100 032f 55       		.byte	0x55
 5101 0330 66000000 		.4byte	.LVL65
 5102 0334 66000000 		.4byte	.LVL66
 5103 0338 0800     		.2byte	0x8
 5104 033a 76       		.byte	0x76
 5105 033b 00       		.sleb128 0
 5106 033c 31       		.byte	0x31
 5107 033d 24       		.byte	0x24
 5108 033e 76       		.byte	0x76
 5109 033f 00       		.sleb128 0
 5110 0340 22       		.byte	0x22
 5111 0341 9F       		.byte	0x9f
 5112 0342 66000000 		.4byte	.LVL66
 5113 0346 70000000 		.4byte	.LFE51
 5114 034a 2000     		.2byte	0x20
 5115 034c F3       		.byte	0xf3
 5116 034d 01       		.uleb128 0x1
 5117 034e 50       		.byte	0x50
 5118 034f 03       		.byte	0x3
 5119 0350 08000000 		.4byte	.LANCHOR2+8
 5120 0354 22       		.byte	0x22
 5121 0355 94       		.byte	0x94
 5122 0356 01       		.byte	0x1
 5123 0357 08       		.byte	0x8
 5124 0358 FF       		.byte	0xff
 5125 0359 1A       		.byte	0x1a
 5126 035a 31       		.byte	0x31
 5127 035b 24       		.byte	0x24
ARM GAS  C:\Users\ELECTR~1\AppData\Local\Temp\ccbbDBvf.s 			page 134


 5128 035c F3       		.byte	0xf3
 5129 035d 01       		.uleb128 0x1
 5130 035e 50       		.byte	0x50
 5131 035f 03       		.byte	0x3
 5132 0360 08000000 		.4byte	.LANCHOR2+8
 5133 0364 22       		.byte	0x22
 5134 0365 94       		.byte	0x94
 5135 0366 01       		.byte	0x1
 5136 0367 08       		.byte	0x8
 5137 0368 FF       		.byte	0xff
 5138 0369 1A       		.byte	0x1a
 5139 036a 22       		.byte	0x22
 5140 036b 9F       		.byte	0x9f
 5141 036c 00000000 		.4byte	0
 5142 0370 00000000 		.4byte	0
 5143              	.LLST18:
 5144 0374 14000000 		.4byte	.LVL53
 5145 0378 38000000 		.4byte	.LVL56
 5146 037c 0200     		.2byte	0x2
 5147 037e 30       		.byte	0x30
 5148 037f 9F       		.byte	0x9f
 5149 0380 38000000 		.4byte	.LVL56
 5150 0384 66000000 		.4byte	.LVL67
 5151 0388 0100     		.2byte	0x1
 5152 038a 57       		.byte	0x57
 5153 038b 00000000 		.4byte	0
 5154 038f 00000000 		.4byte	0
 5155              	.LLST19:
 5156 0393 18000000 		.4byte	.LVL54
 5157 0397 3B000000 		.4byte	.LVL57-1
 5158 039b 0100     		.2byte	0x1
 5159 039d 50       		.byte	0x50
 5160 039e 00000000 		.4byte	0
 5161 03a2 00000000 		.4byte	0
 5162              	.LLST20:
 5163 03a6 02000000 		.4byte	.LVL68
 5164 03aa 06000000 		.4byte	.LVL69
 5165 03ae 0200     		.2byte	0x2
 5166 03b0 30       		.byte	0x30
 5167 03b1 9F       		.byte	0x9f
 5168 03b2 06000000 		.4byte	.LVL69
 5169 03b6 12000000 		.4byte	.LVL72
 5170 03ba 0100     		.2byte	0x1
 5171 03bc 54       		.byte	0x54
 5172 03bd 00000000 		.4byte	0
 5173 03c1 00000000 		.4byte	0
 5174              	.LLST21:
 5175 03c5 00000000 		.4byte	.LVL73
 5176 03c9 18000000 		.4byte	.LVL78
 5177 03cd 0100     		.2byte	0x1
 5178 03cf 50       		.byte	0x50
 5179 03d0 18000000 		.4byte	.LVL78
 5180 03d4 24000000 		.4byte	.LFE54
 5181 03d8 0400     		.2byte	0x4
 5182 03da F3       		.byte	0xf3
 5183 03db 01       		.uleb128 0x1
 5184 03dc 50       		.byte	0x50
ARM GAS  C:\Users\ELECTR~1\AppData\Local\Temp\ccbbDBvf.s 			page 135


 5185 03dd 9F       		.byte	0x9f
 5186 03de 00000000 		.4byte	0
 5187 03e2 00000000 		.4byte	0
 5188              	.LLST22:
 5189 03e6 00000000 		.4byte	.LVL73
 5190 03ea 06000000 		.4byte	.LVL74
 5191 03ee 0100     		.2byte	0x1
 5192 03f0 51       		.byte	0x51
 5193 03f1 06000000 		.4byte	.LVL74
 5194 03f5 24000000 		.4byte	.LFE54
 5195 03f9 0400     		.2byte	0x4
 5196 03fb F3       		.byte	0xf3
 5197 03fc 01       		.uleb128 0x1
 5198 03fd 51       		.byte	0x51
 5199 03fe 9F       		.byte	0x9f
 5200 03ff 00000000 		.4byte	0
 5201 0403 00000000 		.4byte	0
 5202              	.LLST23:
 5203 0407 00000000 		.4byte	.LVL73
 5204 040b 08000000 		.4byte	.LVL75
 5205 040f 0100     		.2byte	0x1
 5206 0411 52       		.byte	0x52
 5207 0412 08000000 		.4byte	.LVL75
 5208 0416 24000000 		.4byte	.LFE54
 5209 041a 0400     		.2byte	0x4
 5210 041c F3       		.byte	0xf3
 5211 041d 01       		.uleb128 0x1
 5212 041e 52       		.byte	0x52
 5213 041f 9F       		.byte	0x9f
 5214 0420 00000000 		.4byte	0
 5215 0424 00000000 		.4byte	0
 5216              	.LLST24:
 5217 0428 10000000 		.4byte	.LVL76
 5218 042c 1A000000 		.4byte	.LVL79
 5219 0430 0100     		.2byte	0x1
 5220 0432 53       		.byte	0x53
 5221 0433 1A000000 		.4byte	.LVL79
 5222 0437 24000000 		.4byte	.LFE54
 5223 043b 0100     		.2byte	0x1
 5224 043d 50       		.byte	0x50
 5225 043e 00000000 		.4byte	0
 5226 0442 00000000 		.4byte	0
 5227              	.LLST25:
 5228 0446 00000000 		.4byte	.LVL80
 5229 044a 08000000 		.4byte	.LVL82
 5230 044e 0100     		.2byte	0x1
 5231 0450 50       		.byte	0x50
 5232 0451 08000000 		.4byte	.LVL82
 5233 0455 28000000 		.4byte	.LVL90
 5234 0459 0100     		.2byte	0x1
 5235 045b 55       		.byte	0x55
 5236 045c 28000000 		.4byte	.LVL90
 5237 0460 30000000 		.4byte	.LFE52
 5238 0464 0400     		.2byte	0x4
 5239 0466 F3       		.byte	0xf3
 5240 0467 01       		.uleb128 0x1
 5241 0468 50       		.byte	0x50
ARM GAS  C:\Users\ELECTR~1\AppData\Local\Temp\ccbbDBvf.s 			page 136


 5242 0469 9F       		.byte	0x9f
 5243 046a 00000000 		.4byte	0
 5244 046e 00000000 		.4byte	0
 5245              	.LLST26:
 5246 0472 04000000 		.4byte	.LVL81
 5247 0476 08000000 		.4byte	.LVL82
 5248 047a 0200     		.2byte	0x2
 5249 047c 30       		.byte	0x30
 5250 047d 9F       		.byte	0x9f
 5251 047e 08000000 		.4byte	.LVL82
 5252 0482 18000000 		.4byte	.LVL86
 5253 0486 0100     		.2byte	0x1
 5254 0488 54       		.byte	0x54
 5255 0489 1A000000 		.4byte	.LVL87
 5256 048d 28000000 		.4byte	.LVL89
 5257 0491 0100     		.2byte	0x1
 5258 0493 54       		.byte	0x54
 5259 0494 00000000 		.4byte	0
 5260 0498 00000000 		.4byte	0
 5261              	.LLST27:
 5262 049c 0C000000 		.4byte	.LVL83
 5263 04a0 15000000 		.4byte	.LVL85-1
 5264 04a4 0100     		.2byte	0x1
 5265 04a6 52       		.byte	0x52
 5266 04a7 15000000 		.4byte	.LVL85-1
 5267 04ab 18000000 		.4byte	.LVL86
 5268 04af 0E00     		.2byte	0xe
 5269 04b1 74       		.byte	0x74
 5270 04b2 00       		.sleb128 0
 5271 04b3 03       		.byte	0x3
 5272 04b4 00000000 		.4byte	.LANCHOR2
 5273 04b8 22       		.byte	0x22
 5274 04b9 94       		.byte	0x94
 5275 04ba 01       		.byte	0x1
 5276 04bb 08       		.byte	0x8
 5277 04bc FF       		.byte	0xff
 5278 04bd 1A       		.byte	0x1a
 5279 04be 9F       		.byte	0x9f
 5280 04bf 18000000 		.4byte	.LVL86
 5281 04c3 1A000000 		.4byte	.LVL87
 5282 04c7 0E00     		.2byte	0xe
 5283 04c9 74       		.byte	0x74
 5284 04ca 00       		.sleb128 0
 5285 04cb 03       		.byte	0x3
 5286 04cc FFFFFFFF 		.4byte	.LANCHOR2-1
 5287 04d0 22       		.byte	0x22
 5288 04d1 94       		.byte	0x94
 5289 04d2 01       		.byte	0x1
 5290 04d3 08       		.byte	0x8
 5291 04d4 FF       		.byte	0xff
 5292 04d5 1A       		.byte	0x1a
 5293 04d6 9F       		.byte	0x9f
 5294 04d7 00000000 		.4byte	0
 5295 04db 00000000 		.4byte	0
 5296              	.LLST28:
 5297 04df 10000000 		.4byte	.LVL84
 5298 04e3 15000000 		.4byte	.LVL85-1
ARM GAS  C:\Users\ELECTR~1\AppData\Local\Temp\ccbbDBvf.s 			page 137


 5299 04e7 0100     		.2byte	0x1
 5300 04e9 51       		.byte	0x51
 5301 04ea 15000000 		.4byte	.LVL85-1
 5302 04ee 18000000 		.4byte	.LVL86
 5303 04f2 0E00     		.2byte	0xe
 5304 04f4 74       		.byte	0x74
 5305 04f5 00       		.sleb128 0
 5306 04f6 03       		.byte	0x3
 5307 04f7 08000000 		.4byte	.LANCHOR2+8
 5308 04fb 22       		.byte	0x22
 5309 04fc 94       		.byte	0x94
 5310 04fd 01       		.byte	0x1
 5311 04fe 08       		.byte	0x8
 5312 04ff FF       		.byte	0xff
 5313 0500 1A       		.byte	0x1a
 5314 0501 9F       		.byte	0x9f
 5315 0502 18000000 		.4byte	.LVL86
 5316 0506 1A000000 		.4byte	.LVL87
 5317 050a 0E00     		.2byte	0xe
 5318 050c 74       		.byte	0x74
 5319 050d 00       		.sleb128 0
 5320 050e 03       		.byte	0x3
 5321 050f 07000000 		.4byte	.LANCHOR2+7
 5322 0513 22       		.byte	0x22
 5323 0514 94       		.byte	0x94
 5324 0515 01       		.byte	0x1
 5325 0516 08       		.byte	0x8
 5326 0517 FF       		.byte	0xff
 5327 0518 1A       		.byte	0x1a
 5328 0519 9F       		.byte	0x9f
 5329 051a 00000000 		.4byte	0
 5330 051e 00000000 		.4byte	0
 5331              	.LLST29:
 5332 0522 00000000 		.4byte	.LVL95
 5333 0526 1E000000 		.4byte	.LVL98
 5334 052a 0100     		.2byte	0x1
 5335 052c 50       		.byte	0x50
 5336 052d 1E000000 		.4byte	.LVL98
 5337 0531 34000000 		.4byte	.LFE57
 5338 0535 0400     		.2byte	0x4
 5339 0537 F3       		.byte	0xf3
 5340 0538 01       		.uleb128 0x1
 5341 0539 50       		.byte	0x50
 5342 053a 9F       		.byte	0x9f
 5343 053b 00000000 		.4byte	0
 5344 053f 00000000 		.4byte	0
 5345              	.LLST30:
 5346 0543 00000000 		.4byte	.LVL95
 5347 0547 04000000 		.4byte	.LVL96
 5348 054b 0100     		.2byte	0x1
 5349 054d 51       		.byte	0x51
 5350 054e 04000000 		.4byte	.LVL96
 5351 0552 34000000 		.4byte	.LFE57
 5352 0556 0400     		.2byte	0x4
 5353 0558 F3       		.byte	0xf3
 5354 0559 01       		.uleb128 0x1
 5355 055a 51       		.byte	0x51
ARM GAS  C:\Users\ELECTR~1\AppData\Local\Temp\ccbbDBvf.s 			page 138


 5356 055b 9F       		.byte	0x9f
 5357 055c 00000000 		.4byte	0
 5358 0560 00000000 		.4byte	0
 5359              	.LLST31:
 5360 0564 1C000000 		.4byte	.LVL97
 5361 0568 2C000000 		.4byte	.LVL100
 5362 056c 0100     		.2byte	0x1
 5363 056e 53       		.byte	0x53
 5364 056f 2C000000 		.4byte	.LVL100
 5365 0573 34000000 		.4byte	.LFE57
 5366 0577 0100     		.2byte	0x1
 5367 0579 50       		.byte	0x50
 5368 057a 00000000 		.4byte	0
 5369 057e 00000000 		.4byte	0
 5370              	.LLST32:
 5371 0582 00000000 		.4byte	.LVL101
 5372 0586 04000000 		.4byte	.LVL102
 5373 058a 0100     		.2byte	0x1
 5374 058c 50       		.byte	0x50
 5375 058d 04000000 		.4byte	.LVL102
 5376 0591 0A000000 		.4byte	.LVL104
 5377 0595 0100     		.2byte	0x1
 5378 0597 50       		.byte	0x50
 5379 0598 0A000000 		.4byte	.LVL104
 5380 059c 14000000 		.4byte	.LFE58
 5381 05a0 0600     		.2byte	0x6
 5382 05a2 F3       		.byte	0xf3
 5383 05a3 01       		.uleb128 0x1
 5384 05a4 50       		.byte	0x50
 5385 05a5 33       		.byte	0x33
 5386 05a6 1A       		.byte	0x1a
 5387 05a7 9F       		.byte	0x9f
 5388 05a8 00000000 		.4byte	0
 5389 05ac 00000000 		.4byte	0
 5390              	.LLST33:
 5391 05b0 08000000 		.4byte	.LVL103
 5392 05b4 0C000000 		.4byte	.LVL105
 5393 05b8 0100     		.2byte	0x1
 5394 05ba 52       		.byte	0x52
 5395 05bb 0C000000 		.4byte	.LVL105
 5396 05bf 14000000 		.4byte	.LFE58
 5397 05c3 0100     		.2byte	0x1
 5398 05c5 50       		.byte	0x50
 5399 05c6 00000000 		.4byte	0
 5400 05ca 00000000 		.4byte	0
 5401              	.LLST34:
 5402 05ce 02000000 		.4byte	.LVL106
 5403 05d2 06000000 		.4byte	.LVL107
 5404 05d6 0200     		.2byte	0x2
 5405 05d8 30       		.byte	0x30
 5406 05d9 9F       		.byte	0x9f
 5407 05da 06000000 		.4byte	.LVL107
 5408 05de 15000000 		.4byte	.LVL109-1
 5409 05e2 0100     		.2byte	0x1
 5410 05e4 53       		.byte	0x53
 5411 05e5 00000000 		.4byte	0
 5412 05e9 00000000 		.4byte	0
ARM GAS  C:\Users\ELECTR~1\AppData\Local\Temp\ccbbDBvf.s 			page 139


 5413              	.LLST35:
 5414 05ed 00000000 		.4byte	.LVL115
 5415 05f1 14000000 		.4byte	.LVL119
 5416 05f5 0100     		.2byte	0x1
 5417 05f7 50       		.byte	0x50
 5418 05f8 14000000 		.4byte	.LVL119
 5419 05fc 16000000 		.4byte	.LVL120
 5420 0600 0400     		.2byte	0x4
 5421 0602 F3       		.byte	0xf3
 5422 0603 01       		.uleb128 0x1
 5423 0604 50       		.byte	0x50
 5424 0605 9F       		.byte	0x9f
 5425 0606 16000000 		.4byte	.LVL120
 5426 060a 18000000 		.4byte	.LVL121
 5427 060e 0100     		.2byte	0x1
 5428 0610 50       		.byte	0x50
 5429 0611 18000000 		.4byte	.LVL121
 5430 0615 1A000000 		.4byte	.LFE60
 5431 0619 0400     		.2byte	0x4
 5432 061b F3       		.byte	0xf3
 5433 061c 01       		.uleb128 0x1
 5434 061d 50       		.byte	0x50
 5435 061e 9F       		.byte	0x9f
 5436 061f 00000000 		.4byte	0
 5437 0623 00000000 		.4byte	0
 5438              	.LLST36:
 5439 0627 00000000 		.4byte	.LVL115
 5440 062b 06000000 		.4byte	.LVL117
 5441 062f 0100     		.2byte	0x1
 5442 0631 51       		.byte	0x51
 5443 0632 06000000 		.4byte	.LVL117
 5444 0636 1A000000 		.4byte	.LFE60
 5445 063a 0400     		.2byte	0x4
 5446 063c F3       		.byte	0xf3
 5447 063d 01       		.uleb128 0x1
 5448 063e 51       		.byte	0x51
 5449 063f 9F       		.byte	0x9f
 5450 0640 00000000 		.4byte	0
 5451 0644 00000000 		.4byte	0
 5452              	.LLST37:
 5453 0648 00000000 		.4byte	.LVL122
 5454 064c 04000000 		.4byte	.LVL123
 5455 0650 0100     		.2byte	0x1
 5456 0652 50       		.byte	0x50
 5457 0653 04000000 		.4byte	.LVL123
 5458 0657 06000000 		.4byte	.LVL124
 5459 065b 0100     		.2byte	0x1
 5460 065d 54       		.byte	0x54
 5461 065e 08000000 		.4byte	.LVL125
 5462 0662 1C000000 		.4byte	.LVL128
 5463 0666 0100     		.2byte	0x1
 5464 0668 54       		.byte	0x54
 5465 0669 1C000000 		.4byte	.LVL128
 5466 066d 24000000 		.4byte	.LFE40
 5467 0671 0100     		.2byte	0x1
 5468 0673 50       		.byte	0x50
 5469 0674 00000000 		.4byte	0
ARM GAS  C:\Users\ELECTR~1\AppData\Local\Temp\ccbbDBvf.s 			page 140


 5470 0678 00000000 		.4byte	0
 5471              	.LLST38:
 5472 067c 16000000 		.4byte	.LVL126
 5473 0680 1A000000 		.4byte	.LVL127
 5474 0684 0100     		.2byte	0x1
 5475 0686 50       		.byte	0x50
 5476 0687 00000000 		.4byte	0
 5477 068b 00000000 		.4byte	0
 5478              	.LLST39:
 5479 068f 00000000 		.4byte	.LVL129
 5480 0693 12000000 		.4byte	.LVL133
 5481 0697 0100     		.2byte	0x1
 5482 0699 50       		.byte	0x50
 5483 069a 12000000 		.4byte	.LVL133
 5484 069e BA000000 		.4byte	.LVL157
 5485 06a2 0100     		.2byte	0x1
 5486 06a4 54       		.byte	0x54
 5487 06a5 BA000000 		.4byte	.LVL157
 5488 06a9 0C010000 		.4byte	.LFE55
 5489 06ad 0400     		.2byte	0x4
 5490 06af F3       		.byte	0xf3
 5491 06b0 01       		.uleb128 0x1
 5492 06b1 50       		.byte	0x50
 5493 06b2 9F       		.byte	0x9f
 5494 06b3 00000000 		.4byte	0
 5495 06b7 00000000 		.4byte	0
 5496              	.LLST40:
 5497 06bb 0A000000 		.4byte	.LVL130
 5498 06bf 0C000000 		.4byte	.LVL131
 5499 06c3 0100     		.2byte	0x1
 5500 06c5 53       		.byte	0x53
 5501 06c6 0C000000 		.4byte	.LVL131
 5502 06ca 12000000 		.4byte	.LVL133
 5503 06ce 0800     		.2byte	0x8
 5504 06d0 70       		.byte	0x70
 5505 06d1 00       		.sleb128 0
 5506 06d2 03       		.byte	0x3
 5507 06d3 58000000 		.4byte	.LANCHOR2+88
 5508 06d7 22       		.byte	0x22
 5509 06d8 12000000 		.4byte	.LVL133
 5510 06dc BA000000 		.4byte	.LVL157
 5511 06e0 0800     		.2byte	0x8
 5512 06e2 74       		.byte	0x74
 5513 06e3 00       		.sleb128 0
 5514 06e4 03       		.byte	0x3
 5515 06e5 58000000 		.4byte	.LANCHOR2+88
 5516 06e9 22       		.byte	0x22
 5517 06ea BA000000 		.4byte	.LVL157
 5518 06ee 0C010000 		.4byte	.LFE55
 5519 06f2 0900     		.2byte	0x9
 5520 06f4 F3       		.byte	0xf3
 5521 06f5 01       		.uleb128 0x1
 5522 06f6 50       		.byte	0x50
 5523 06f7 03       		.byte	0x3
 5524 06f8 58000000 		.4byte	.LANCHOR2+88
 5525 06fc 22       		.byte	0x22
 5526 06fd 00000000 		.4byte	0
ARM GAS  C:\Users\ELECTR~1\AppData\Local\Temp\ccbbDBvf.s 			page 141


 5527 0701 00000000 		.4byte	0
 5528              	.LLST41:
 5529 0705 BA000000 		.4byte	.LVL157
 5530 0709 CC000000 		.4byte	.LVL160
 5531 070d 0100     		.2byte	0x1
 5532 070f 54       		.byte	0x54
 5533 0710 00000000 		.4byte	0
 5534 0714 00000000 		.4byte	0
 5535              	.LLST42:
 5536 0718 88000000 		.4byte	.LVL148
 5537 071c 9A000000 		.4byte	.LVL150
 5538 0720 0100     		.2byte	0x1
 5539 0722 52       		.byte	0x52
 5540 0723 9A000000 		.4byte	.LVL150
 5541 0727 A0000000 		.4byte	.LVL151
 5542 072b 0100     		.2byte	0x1
 5543 072d 53       		.byte	0x53
 5544 072e A0000000 		.4byte	.LVL151
 5545 0732 CC000000 		.4byte	.LVL161
 5546 0736 0100     		.2byte	0x1
 5547 0738 55       		.byte	0x55
 5548 0739 00000000 		.4byte	0
 5549 073d 00000000 		.4byte	0
 5550              	.LLST43:
 5551 0741 10000000 		.4byte	.LVL132
 5552 0745 CC000000 		.4byte	.LVL162
 5553 0749 0100     		.2byte	0x1
 5554 074b 56       		.byte	0x56
 5555 074c 00000000 		.4byte	0
 5556 0750 00000000 		.4byte	0
 5557              	.LLST44:
 5558 0754 18000000 		.4byte	.LVL134
 5559 0758 22000000 		.4byte	.LVL136
 5560 075c 0100     		.2byte	0x1
 5561 075e 50       		.byte	0x50
 5562 075f 00000000 		.4byte	0
 5563 0763 00000000 		.4byte	0
 5564              	.LLST45:
 5565 0767 00000000 		.4byte	.LVL163
 5566 076b 13000000 		.4byte	.LVL164-1
 5567 076f 0100     		.2byte	0x1
 5568 0771 50       		.byte	0x50
 5569 0772 13000000 		.4byte	.LVL164-1
 5570 0776 1C000000 		.4byte	.LFE41
 5571 077a 0400     		.2byte	0x4
 5572 077c F3       		.byte	0xf3
 5573 077d 01       		.uleb128 0x1
 5574 077e 50       		.byte	0x50
 5575 077f 9F       		.byte	0x9f
 5576 0780 00000000 		.4byte	0
 5577 0784 00000000 		.4byte	0
 5578              	.LLST46:
 5579 0788 00000000 		.4byte	.LVL167
 5580 078c 26000000 		.4byte	.LVL170
 5581 0790 0100     		.2byte	0x1
 5582 0792 50       		.byte	0x50
 5583 0793 26000000 		.4byte	.LVL170
ARM GAS  C:\Users\ELECTR~1\AppData\Local\Temp\ccbbDBvf.s 			page 142


 5584 0797 62000000 		.4byte	.LVL181
 5585 079b 0100     		.2byte	0x1
 5586 079d 55       		.byte	0x55
 5587 079e 62000000 		.4byte	.LVL181
 5588 07a2 8C000000 		.4byte	.LFE56
 5589 07a6 0400     		.2byte	0x4
 5590 07a8 F3       		.byte	0xf3
 5591 07a9 01       		.uleb128 0x1
 5592 07aa 50       		.byte	0x50
 5593 07ab 9F       		.byte	0x9f
 5594 07ac 00000000 		.4byte	0
 5595 07b0 00000000 		.4byte	0
 5596              	.LLST47:
 5597 07b4 46000000 		.4byte	.LVL175
 5598 07b8 4A000000 		.4byte	.LVL176
 5599 07bc 0100     		.2byte	0x1
 5600 07be 51       		.byte	0x51
 5601 07bf 4A000000 		.4byte	.LVL176
 5602 07c3 58000000 		.4byte	.LVL178
 5603 07c7 0100     		.2byte	0x1
 5604 07c9 53       		.byte	0x53
 5605 07ca 58000000 		.4byte	.LVL178
 5606 07ce 5C000000 		.4byte	.LVL179
 5607 07d2 0500     		.2byte	0x5
 5608 07d4 0C       		.byte	0xc
 5609 07d5 04002840 		.4byte	0x40280004
 5610 07d9 00000000 		.4byte	0
 5611 07dd 00000000 		.4byte	0
 5612              	.LLST48:
 5613 07e1 2C000000 		.4byte	.LVL171
 5614 07e5 36000000 		.4byte	.LVL172
 5615 07e9 0100     		.2byte	0x1
 5616 07eb 50       		.byte	0x50
 5617 07ec 00000000 		.4byte	0
 5618 07f0 00000000 		.4byte	0
 5619              	.LLST49:
 5620 07f4 18000000 		.4byte	.LVL168
 5621 07f8 1A000000 		.4byte	.LVL169
 5622 07fc 0100     		.2byte	0x1
 5623 07fe 53       		.byte	0x53
 5624 07ff 1A000000 		.4byte	.LVL169
 5625 0803 26000000 		.4byte	.LVL170
 5626 0807 0E00     		.2byte	0xe
 5627 0809 70       		.byte	0x70
 5628 080a 00       		.sleb128 0
 5629 080b 03       		.byte	0x3
 5630 080c 58000000 		.4byte	.LANCHOR2+88
 5631 0810 22       		.byte	0x22
 5632 0811 94       		.byte	0x94
 5633 0812 01       		.byte	0x1
 5634 0813 08       		.byte	0x8
 5635 0814 FF       		.byte	0xff
 5636 0815 1A       		.byte	0x1a
 5637 0816 9F       		.byte	0x9f
 5638 0817 26000000 		.4byte	.LVL170
 5639 081b 62000000 		.4byte	.LVL181
 5640 081f 0E00     		.2byte	0xe
ARM GAS  C:\Users\ELECTR~1\AppData\Local\Temp\ccbbDBvf.s 			page 143


 5641 0821 75       		.byte	0x75
 5642 0822 00       		.sleb128 0
 5643 0823 03       		.byte	0x3
 5644 0824 58000000 		.4byte	.LANCHOR2+88
 5645 0828 22       		.byte	0x22
 5646 0829 94       		.byte	0x94
 5647 082a 01       		.byte	0x1
 5648 082b 08       		.byte	0x8
 5649 082c FF       		.byte	0xff
 5650 082d 1A       		.byte	0x1a
 5651 082e 9F       		.byte	0x9f
 5652 082f 62000000 		.4byte	.LVL181
 5653 0833 8C000000 		.4byte	.LFE56
 5654 0837 0F00     		.2byte	0xf
 5655 0839 F3       		.byte	0xf3
 5656 083a 01       		.uleb128 0x1
 5657 083b 50       		.byte	0x50
 5658 083c 03       		.byte	0x3
 5659 083d 58000000 		.4byte	.LANCHOR2+88
 5660 0841 22       		.byte	0x22
 5661 0842 94       		.byte	0x94
 5662 0843 01       		.byte	0x1
 5663 0844 08       		.byte	0x8
 5664 0845 FF       		.byte	0xff
 5665 0846 1A       		.byte	0x1a
 5666 0847 9F       		.byte	0x9f
 5667 0848 00000000 		.4byte	0
 5668 084c 00000000 		.4byte	0
 5669              	.LLST50:
 5670 0850 00000000 		.4byte	.LVL182
 5671 0854 08000000 		.4byte	.LVL184
 5672 0858 0100     		.2byte	0x1
 5673 085a 51       		.byte	0x51
 5674 085b 08000000 		.4byte	.LVL184
 5675 085f 26000000 		.4byte	.LFE61
 5676 0863 0400     		.2byte	0x4
 5677 0865 F3       		.byte	0xf3
 5678 0866 01       		.uleb128 0x1
 5679 0867 51       		.byte	0x51
 5680 0868 9F       		.byte	0x9f
 5681 0869 00000000 		.4byte	0
 5682 086d 00000000 		.4byte	0
 5683              	.LLST51:
 5684 0871 04000000 		.4byte	.LVL183
 5685 0875 14000000 		.4byte	.LVL186
 5686 0879 0100     		.2byte	0x1
 5687 087b 54       		.byte	0x54
 5688 087c 14000000 		.4byte	.LVL186
 5689 0880 1C000000 		.4byte	.LVL188
 5690 0884 0600     		.2byte	0x6
 5691 0886 F3       		.byte	0xf3
 5692 0887 01       		.uleb128 0x1
 5693 0888 51       		.byte	0x51
 5694 0889 33       		.byte	0x33
 5695 088a 25       		.byte	0x25
 5696 088b 9F       		.byte	0x9f
 5697 088c 1C000000 		.4byte	.LVL188
ARM GAS  C:\Users\ELECTR~1\AppData\Local\Temp\ccbbDBvf.s 			page 144


 5698 0890 1E000000 		.4byte	.LVL189
 5699 0894 0100     		.2byte	0x1
 5700 0896 54       		.byte	0x54
 5701 0897 1E000000 		.4byte	.LVL189
 5702 089b 26000000 		.4byte	.LFE61
 5703 089f 0600     		.2byte	0x6
 5704 08a1 F3       		.byte	0xf3
 5705 08a2 01       		.uleb128 0x1
 5706 08a3 51       		.byte	0x51
 5707 08a4 33       		.byte	0x33
 5708 08a5 25       		.byte	0x25
 5709 08a6 9F       		.byte	0x9f
 5710 08a7 00000000 		.4byte	0
 5711 08ab 00000000 		.4byte	0
 5712              	.LLST52:
 5713 08af 0E000000 		.4byte	.LVL185
 5714 08b3 18000000 		.4byte	.LVL187
 5715 08b7 0100     		.2byte	0x1
 5716 08b9 51       		.byte	0x51
 5717 08ba 18000000 		.4byte	.LVL187
 5718 08be 1C000000 		.4byte	.LVL188
 5719 08c2 0800     		.2byte	0x8
 5720 08c4 31       		.byte	0x31
 5721 08c5 F3       		.byte	0xf3
 5722 08c6 01       		.uleb128 0x1
 5723 08c7 51       		.byte	0x51
 5724 08c8 37       		.byte	0x37
 5725 08c9 1A       		.byte	0x1a
 5726 08ca 24       		.byte	0x24
 5727 08cb 9F       		.byte	0x9f
 5728 08cc 1C000000 		.4byte	.LVL188
 5729 08d0 24000000 		.4byte	.LVL190
 5730 08d4 0100     		.2byte	0x1
 5731 08d6 51       		.byte	0x51
 5732 08d7 24000000 		.4byte	.LVL190
 5733 08db 26000000 		.4byte	.LFE61
 5734 08df 0800     		.2byte	0x8
 5735 08e1 31       		.byte	0x31
 5736 08e2 F3       		.byte	0xf3
 5737 08e3 01       		.uleb128 0x1
 5738 08e4 51       		.byte	0x51
 5739 08e5 37       		.byte	0x37
 5740 08e6 1A       		.byte	0x1a
 5741 08e7 24       		.byte	0x24
 5742 08e8 9F       		.byte	0x9f
 5743 08e9 00000000 		.4byte	0
 5744 08ed 00000000 		.4byte	0
 5745              	.LLST53:
 5746 08f1 00000000 		.4byte	.LVL191
 5747 08f5 30000000 		.4byte	.LVL198
 5748 08f9 0100     		.2byte	0x1
 5749 08fb 50       		.byte	0x50
 5750 08fc 30000000 		.4byte	.LVL198
 5751 0900 8C000000 		.4byte	.LFE42
 5752 0904 0400     		.2byte	0x4
 5753 0906 F3       		.byte	0xf3
 5754 0907 01       		.uleb128 0x1
ARM GAS  C:\Users\ELECTR~1\AppData\Local\Temp\ccbbDBvf.s 			page 145


 5755 0908 50       		.byte	0x50
 5756 0909 9F       		.byte	0x9f
 5757 090a 00000000 		.4byte	0
 5758 090e 00000000 		.4byte	0
 5759              	.LLST54:
 5760 0912 0E000000 		.4byte	.LVL192
 5761 0916 1A000000 		.4byte	.LVL195
 5762 091a 0100     		.2byte	0x1
 5763 091c 53       		.byte	0x53
 5764 091d 00000000 		.4byte	0
 5765 0921 00000000 		.4byte	0
 5766              	.LLST55:
 5767 0925 18000000 		.4byte	.LVL194
 5768 0929 76000000 		.4byte	.LVL204
 5769 092d 0100     		.2byte	0x1
 5770 092f 55       		.byte	0x55
 5771 0930 00000000 		.4byte	0
 5772 0934 00000000 		.4byte	0
 5773              	.LLST56:
 5774 0938 18000000 		.4byte	.LVL194
 5775 093c 1C000000 		.4byte	.LVL196
 5776 0940 0200     		.2byte	0x2
 5777 0942 30       		.byte	0x30
 5778 0943 9F       		.byte	0x9f
 5779 0944 1C000000 		.4byte	.LVL196
 5780 0948 30000000 		.4byte	.LVL198
 5781 094c 0100     		.2byte	0x1
 5782 094e 53       		.byte	0x53
 5783 094f 30000000 		.4byte	.LVL198
 5784 0953 76000000 		.4byte	.LVL203
 5785 0957 0100     		.2byte	0x1
 5786 0959 54       		.byte	0x54
 5787 095a 00000000 		.4byte	0
 5788 095e 00000000 		.4byte	0
 5789              	.LLST57:
 5790 0962 00000000 		.4byte	.LVL205
 5791 0966 04000000 		.4byte	.LVL206
 5792 096a 0100     		.2byte	0x1
 5793 096c 50       		.byte	0x50
 5794 096d 04000000 		.4byte	.LVL206
 5795 0971 0C000000 		.4byte	.LFE62
 5796 0975 0400     		.2byte	0x4
 5797 0977 F3       		.byte	0xf3
 5798 0978 01       		.uleb128 0x1
 5799 0979 50       		.byte	0x50
 5800 097a 9F       		.byte	0x9f
 5801 097b 00000000 		.4byte	0
 5802 097f 00000000 		.4byte	0
 5803              	.LLST58:
 5804 0983 00000000 		.4byte	.LVL208
 5805 0987 04000000 		.4byte	.LVL209
 5806 098b 0100     		.2byte	0x1
 5807 098d 50       		.byte	0x50
 5808 098e 04000000 		.4byte	.LVL209
 5809 0992 0C000000 		.4byte	.LFE64
 5810 0996 0400     		.2byte	0x4
 5811 0998 F3       		.byte	0xf3
ARM GAS  C:\Users\ELECTR~1\AppData\Local\Temp\ccbbDBvf.s 			page 146


 5812 0999 01       		.uleb128 0x1
 5813 099a 50       		.byte	0x50
 5814 099b 9F       		.byte	0x9f
 5815 099c 00000000 		.4byte	0
 5816 09a0 00000000 		.4byte	0
 5817              	.LLST59:
 5818 09a4 00000000 		.4byte	.LVL211
 5819 09a8 04000000 		.4byte	.LVL212
 5820 09ac 0100     		.2byte	0x1
 5821 09ae 50       		.byte	0x50
 5822 09af 04000000 		.4byte	.LVL212
 5823 09b3 0C000000 		.4byte	.LFE66
 5824 09b7 0400     		.2byte	0x4
 5825 09b9 F3       		.byte	0xf3
 5826 09ba 01       		.uleb128 0x1
 5827 09bb 50       		.byte	0x50
 5828 09bc 9F       		.byte	0x9f
 5829 09bd 00000000 		.4byte	0
 5830 09c1 00000000 		.4byte	0
 5831              	.LLST60:
 5832 09c5 00000000 		.4byte	.LVL214
 5833 09c9 04000000 		.4byte	.LVL215
 5834 09cd 0100     		.2byte	0x1
 5835 09cf 50       		.byte	0x50
 5836 09d0 04000000 		.4byte	.LVL215
 5837 09d4 0C000000 		.4byte	.LFE68
 5838 09d8 0400     		.2byte	0x4
 5839 09da F3       		.byte	0xf3
 5840 09db 01       		.uleb128 0x1
 5841 09dc 50       		.byte	0x50
 5842 09dd 9F       		.byte	0x9f
 5843 09de 00000000 		.4byte	0
 5844 09e2 00000000 		.4byte	0
 5845              	.LLST61:
 5846 09e6 00000000 		.4byte	.LVL218
 5847 09ea 0A000000 		.4byte	.LVL220
 5848 09ee 0100     		.2byte	0x1
 5849 09f0 50       		.byte	0x50
 5850 09f1 0A000000 		.4byte	.LVL220
 5851 09f5 28000000 		.4byte	.LVL228
 5852 09f9 0100     		.2byte	0x1
 5853 09fb 56       		.byte	0x56
 5854 09fc 28000000 		.4byte	.LVL228
 5855 0a00 2A000000 		.4byte	.LFE72
 5856 0a04 0400     		.2byte	0x4
 5857 0a06 F3       		.byte	0xf3
 5858 0a07 01       		.uleb128 0x1
 5859 0a08 50       		.byte	0x50
 5860 0a09 9F       		.byte	0x9f
 5861 0a0a 00000000 		.4byte	0
 5862 0a0e 00000000 		.4byte	0
 5863              	.LLST62:
 5864 0a12 04000000 		.4byte	.LVL219
 5865 0a16 0A000000 		.4byte	.LVL220
 5866 0a1a 0200     		.2byte	0x2
 5867 0a1c 30       		.byte	0x30
 5868 0a1d 9F       		.byte	0x9f
ARM GAS  C:\Users\ELECTR~1\AppData\Local\Temp\ccbbDBvf.s 			page 147


 5869 0a1e 0A000000 		.4byte	.LVL220
 5870 0a22 28000000 		.4byte	.LVL227
 5871 0a26 0100     		.2byte	0x1
 5872 0a28 55       		.byte	0x55
 5873 0a29 00000000 		.4byte	0
 5874 0a2d 00000000 		.4byte	0
 5875              	.LLST63:
 5876 0a31 04000000 		.4byte	.LVL219
 5877 0a35 0A000000 		.4byte	.LVL220
 5878 0a39 0200     		.2byte	0x2
 5879 0a3b 30       		.byte	0x30
 5880 0a3c 9F       		.byte	0x9f
 5881 0a3d 0A000000 		.4byte	.LVL220
 5882 0a41 28000000 		.4byte	.LVL226
 5883 0a45 0100     		.2byte	0x1
 5884 0a47 54       		.byte	0x54
 5885 0a48 00000000 		.4byte	0
 5886 0a4c 00000000 		.4byte	0
 5887              	.LLST64:
 5888 0a50 02000000 		.4byte	.LVL231
 5889 0a54 06000000 		.4byte	.LVL232
 5890 0a58 0200     		.2byte	0x2
 5891 0a5a 30       		.byte	0x30
 5892 0a5b 9F       		.byte	0x9f
 5893 0a5c 06000000 		.4byte	.LVL232
 5894 0a60 34000000 		.4byte	.LVL242
 5895 0a64 0100     		.2byte	0x1
 5896 0a66 57       		.byte	0x57
 5897 0a67 00000000 		.4byte	0
 5898 0a6b 00000000 		.4byte	0
 5899              	.LLST65:
 5900 0a6f 0E000000 		.4byte	.LVL234
 5901 0a73 16000000 		.4byte	.LVL236
 5902 0a77 0100     		.2byte	0x1
 5903 0a79 53       		.byte	0x53
 5904 0a7a 16000000 		.4byte	.LVL236
 5905 0a7e 26000000 		.4byte	.LVL239
 5906 0a82 0100     		.2byte	0x1
 5907 0a84 52       		.byte	0x52
 5908 0a85 26000000 		.4byte	.LVL239
 5909 0a89 30000000 		.4byte	.LVL241
 5910 0a8d 0100     		.2byte	0x1
 5911 0a8f 53       		.byte	0x53
 5912 0a90 00000000 		.4byte	0
 5913 0a94 00000000 		.4byte	0
 5914              	.LLST66:
 5915 0a98 10000000 		.4byte	.LVL235
 5916 0a9c 30000000 		.4byte	.LVL241
 5917 0aa0 0100     		.2byte	0x1
 5918 0aa2 56       		.byte	0x56
 5919 0aa3 00000000 		.4byte	0
 5920 0aa7 00000000 		.4byte	0
 5921              	.LLST67:
 5922 0aab 0A000000 		.4byte	.LVL233
 5923 0aaf 10000000 		.4byte	.LVL235
 5924 0ab3 0100     		.2byte	0x1
 5925 0ab5 56       		.byte	0x56
ARM GAS  C:\Users\ELECTR~1\AppData\Local\Temp\ccbbDBvf.s 			page 148


 5926 0ab6 00000000 		.4byte	0
 5927 0aba 00000000 		.4byte	0
 5928              	.LLST68:
 5929 0abe 06000000 		.4byte	.LVL232
 5930 0ac2 16000000 		.4byte	.LVL236
 5931 0ac6 0200     		.2byte	0x2
 5932 0ac8 30       		.byte	0x30
 5933 0ac9 9F       		.byte	0x9f
 5934 0aca 16000000 		.4byte	.LVL236
 5935 0ace 30000000 		.4byte	.LVL241
 5936 0ad2 0100     		.2byte	0x1
 5937 0ad4 54       		.byte	0x54
 5938 0ad5 00000000 		.4byte	0
 5939 0ad9 00000000 		.4byte	0
 5940              		.section	.debug_aranges,"",%progbits
 5941 0000 54010000 		.4byte	0x154
 5942 0004 0200     		.2byte	0x2
 5943 0006 00000000 		.4byte	.Ldebug_info0
 5944 000a 04       		.byte	0x4
 5945 000b 00       		.byte	0
 5946 000c 0000     		.2byte	0
 5947 000e 0000     		.2byte	0
 5948 0010 00000000 		.4byte	.LFB36
 5949 0014 80000000 		.4byte	.LFE36-.LFB36
 5950 0018 00000000 		.4byte	.LFB37
 5951 001c 40000000 		.4byte	.LFE37-.LFB37
 5952 0020 00000000 		.4byte	.LFB39
 5953 0024 2C000000 		.4byte	.LFE39-.LFB39
 5954 0028 00000000 		.4byte	.LFB44
 5955 002c 10000000 		.4byte	.LFE44-.LFB44
 5956 0030 00000000 		.4byte	.LFB45
 5957 0034 10000000 		.4byte	.LFE45-.LFB45
 5958 0038 00000000 		.4byte	.LFB46
 5959 003c 10000000 		.4byte	.LFE46-.LFB46
 5960 0040 00000000 		.4byte	.LFB47
 5961 0044 0C000000 		.4byte	.LFE47-.LFB47
 5962 0048 00000000 		.4byte	.LFB48
 5963 004c 0C000000 		.4byte	.LFE48-.LFB48
 5964 0050 00000000 		.4byte	.LFB50
 5965 0054 48000000 		.4byte	.LFE50-.LFB50
 5966 0058 00000000 		.4byte	.LFB51
 5967 005c 70000000 		.4byte	.LFE51-.LFB51
 5968 0060 00000000 		.4byte	.LFB49
 5969 0064 14000000 		.4byte	.LFE49-.LFB49
 5970 0068 00000000 		.4byte	.LFB54
 5971 006c 24000000 		.4byte	.LFE54-.LFB54
 5972 0070 00000000 		.4byte	.LFB52
 5973 0074 30000000 		.4byte	.LFE52-.LFB52
 5974 0078 00000000 		.4byte	.LFB53
 5975 007c 1C000000 		.4byte	.LFE53-.LFB53
 5976 0080 00000000 		.4byte	.LFB57
 5977 0084 34000000 		.4byte	.LFE57-.LFB57
 5978 0088 00000000 		.4byte	.LFB58
 5979 008c 14000000 		.4byte	.LFE58-.LFB58
 5980 0090 00000000 		.4byte	.LFB35
 5981 0094 28000000 		.4byte	.LFE35-.LFB35
 5982 0098 00000000 		.4byte	.LFB38
ARM GAS  C:\Users\ELECTR~1\AppData\Local\Temp\ccbbDBvf.s 			page 149


 5983 009c 38000000 		.4byte	.LFE38-.LFB38
 5984 00a0 00000000 		.4byte	.LFB59
 5985 00a4 1C000000 		.4byte	.LFE59-.LFB59
 5986 00a8 00000000 		.4byte	.LFB60
 5987 00ac 1A000000 		.4byte	.LFE60-.LFB60
 5988 00b0 00000000 		.4byte	.LFB40
 5989 00b4 24000000 		.4byte	.LFE40-.LFB40
 5990 00b8 00000000 		.4byte	.LFB55
 5991 00bc 0C010000 		.4byte	.LFE55-.LFB55
 5992 00c0 00000000 		.4byte	.LFB41
 5993 00c4 1C000000 		.4byte	.LFE41-.LFB41
 5994 00c8 00000000 		.4byte	.LFB43
 5995 00cc 34000000 		.4byte	.LFE43-.LFB43
 5996 00d0 00000000 		.4byte	.LFB56
 5997 00d4 8C000000 		.4byte	.LFE56-.LFB56
 5998 00d8 00000000 		.4byte	.LFB61
 5999 00dc 26000000 		.4byte	.LFE61-.LFB61
 6000 00e0 00000000 		.4byte	.LFB42
 6001 00e4 8C000000 		.4byte	.LFE42-.LFB42
 6002 00e8 00000000 		.4byte	.LFB62
 6003 00ec 0C000000 		.4byte	.LFE62-.LFB62
 6004 00f0 00000000 		.4byte	.LFB63
 6005 00f4 0C000000 		.4byte	.LFE63-.LFB63
 6006 00f8 00000000 		.4byte	.LFB64
 6007 00fc 0C000000 		.4byte	.LFE64-.LFB64
 6008 0100 00000000 		.4byte	.LFB65
 6009 0104 0C000000 		.4byte	.LFE65-.LFB65
 6010 0108 00000000 		.4byte	.LFB66
 6011 010c 0C000000 		.4byte	.LFE66-.LFB66
 6012 0110 00000000 		.4byte	.LFB67
 6013 0114 0C000000 		.4byte	.LFE67-.LFB67
 6014 0118 00000000 		.4byte	.LFB68
 6015 011c 0C000000 		.4byte	.LFE68-.LFB68
 6016 0120 00000000 		.4byte	.LFB69
 6017 0124 0C000000 		.4byte	.LFE69-.LFB69
 6018 0128 00000000 		.4byte	.LFB70
 6019 012c 14000000 		.4byte	.LFE70-.LFB70
 6020 0130 00000000 		.4byte	.LFB71
 6021 0134 28000000 		.4byte	.LFE71-.LFB71
 6022 0138 00000000 		.4byte	.LFB72
 6023 013c 2A000000 		.4byte	.LFE72-.LFB72
 6024 0140 00000000 		.4byte	.LFB73
 6025 0144 0C000000 		.4byte	.LFE73-.LFB73
 6026 0148 00000000 		.4byte	.LFB74
 6027 014c 40000000 		.4byte	.LFE74-.LFB74
 6028 0150 00000000 		.4byte	0
 6029 0154 00000000 		.4byte	0
 6030              		.section	.debug_ranges,"",%progbits
 6031              	.Ldebug_ranges0:
 6032 0000 00000000 		.4byte	.LFB36
 6033 0004 80000000 		.4byte	.LFE36
 6034 0008 00000000 		.4byte	.LFB37
 6035 000c 40000000 		.4byte	.LFE37
 6036 0010 00000000 		.4byte	.LFB39
 6037 0014 2C000000 		.4byte	.LFE39
 6038 0018 00000000 		.4byte	.LFB44
 6039 001c 10000000 		.4byte	.LFE44
ARM GAS  C:\Users\ELECTR~1\AppData\Local\Temp\ccbbDBvf.s 			page 150


 6040 0020 00000000 		.4byte	.LFB45
 6041 0024 10000000 		.4byte	.LFE45
 6042 0028 00000000 		.4byte	.LFB46
 6043 002c 10000000 		.4byte	.LFE46
 6044 0030 00000000 		.4byte	.LFB47
 6045 0034 0C000000 		.4byte	.LFE47
 6046 0038 00000000 		.4byte	.LFB48
 6047 003c 0C000000 		.4byte	.LFE48
 6048 0040 00000000 		.4byte	.LFB50
 6049 0044 48000000 		.4byte	.LFE50
 6050 0048 00000000 		.4byte	.LFB51
 6051 004c 70000000 		.4byte	.LFE51
 6052 0050 00000000 		.4byte	.LFB49
 6053 0054 14000000 		.4byte	.LFE49
 6054 0058 00000000 		.4byte	.LFB54
 6055 005c 24000000 		.4byte	.LFE54
 6056 0060 00000000 		.4byte	.LFB52
 6057 0064 30000000 		.4byte	.LFE52
 6058 0068 00000000 		.4byte	.LFB53
 6059 006c 1C000000 		.4byte	.LFE53
 6060 0070 00000000 		.4byte	.LFB57
 6061 0074 34000000 		.4byte	.LFE57
 6062 0078 00000000 		.4byte	.LFB58
 6063 007c 14000000 		.4byte	.LFE58
 6064 0080 00000000 		.4byte	.LFB35
 6065 0084 28000000 		.4byte	.LFE35
 6066 0088 00000000 		.4byte	.LFB38
 6067 008c 38000000 		.4byte	.LFE38
 6068 0090 00000000 		.4byte	.LFB59
 6069 0094 1C000000 		.4byte	.LFE59
 6070 0098 00000000 		.4byte	.LFB60
 6071 009c 1A000000 		.4byte	.LFE60
 6072 00a0 00000000 		.4byte	.LFB40
 6073 00a4 24000000 		.4byte	.LFE40
 6074 00a8 00000000 		.4byte	.LFB55
 6075 00ac 0C010000 		.4byte	.LFE55
 6076 00b0 00000000 		.4byte	.LFB41
 6077 00b4 1C000000 		.4byte	.LFE41
 6078 00b8 00000000 		.4byte	.LFB43
 6079 00bc 34000000 		.4byte	.LFE43
 6080 00c0 00000000 		.4byte	.LFB56
 6081 00c4 8C000000 		.4byte	.LFE56
 6082 00c8 00000000 		.4byte	.LFB61
 6083 00cc 26000000 		.4byte	.LFE61
 6084 00d0 00000000 		.4byte	.LFB42
 6085 00d4 8C000000 		.4byte	.LFE42
 6086 00d8 00000000 		.4byte	.LFB62
 6087 00dc 0C000000 		.4byte	.LFE62
 6088 00e0 00000000 		.4byte	.LFB63
 6089 00e4 0C000000 		.4byte	.LFE63
 6090 00e8 00000000 		.4byte	.LFB64
 6091 00ec 0C000000 		.4byte	.LFE64
 6092 00f0 00000000 		.4byte	.LFB65
 6093 00f4 0C000000 		.4byte	.LFE65
 6094 00f8 00000000 		.4byte	.LFB66
 6095 00fc 0C000000 		.4byte	.LFE66
 6096 0100 00000000 		.4byte	.LFB67
ARM GAS  C:\Users\ELECTR~1\AppData\Local\Temp\ccbbDBvf.s 			page 151


 6097 0104 0C000000 		.4byte	.LFE67
 6098 0108 00000000 		.4byte	.LFB68
 6099 010c 0C000000 		.4byte	.LFE68
 6100 0110 00000000 		.4byte	.LFB69
 6101 0114 0C000000 		.4byte	.LFE69
 6102 0118 00000000 		.4byte	.LFB70
 6103 011c 14000000 		.4byte	.LFE70
 6104 0120 00000000 		.4byte	.LFB71
 6105 0124 28000000 		.4byte	.LFE71
 6106 0128 00000000 		.4byte	.LFB72
 6107 012c 2A000000 		.4byte	.LFE72
 6108 0130 00000000 		.4byte	.LFB73
 6109 0134 0C000000 		.4byte	.LFE73
 6110 0138 00000000 		.4byte	.LFB74
 6111 013c 40000000 		.4byte	.LFE74
 6112 0140 00000000 		.4byte	0
 6113 0144 00000000 		.4byte	0
 6114              		.section	.debug_line,"",%progbits
 6115              	.Ldebug_line0:
 6116 0000 EA040000 		.section	.debug_str,"MS",%progbits,1
 6116      02009800 
 6116      00000201 
 6116      FB0E0D00 
 6116      01010101 
 6117              	.LASF110:
 6118 0000 536C6964 		.ascii	"Slider_compensationIDAC\000"
 6118      65725F63 
 6118      6F6D7065 
 6118      6E736174 
 6118      696F6E49 
 6119              	.LASF126:
 6120 0018 4379496E 		.ascii	"CyIntSetPriority\000"
 6120      74536574 
 6120      5072696F 
 6120      72697479 
 6120      00
 6121              	.LASF132:
 6122 0029 536C6964 		.ascii	"Slider_SenseClk_StartEx\000"
 6122      65725F53 
 6122      656E7365 
 6122      436C6B5F 
 6122      53746172 
 6123              	.LASF102:
 6124 0041 7363616E 		.ascii	"scanSpeedTbl\000"
 6124      53706565 
 6124      6454626C 
 6124      00
 6125              	.LASF58:
 6126 004e 536C6964 		.ascii	"Slider_ReadCurrentScanningSensor\000"
 6126      65725F52 
 6126      65616443 
 6126      75727265 
 6126      6E745363 
 6127              	.LASF23:
 6128 006f 536C6964 		.ascii	"Slider_WriteSensorRaw\000"
 6128      65725F57 
 6128      72697465 
ARM GAS  C:\Users\ELECTR~1\AppData\Local\Temp\ccbbDBvf.s 			page 152


 6128      53656E73 
 6128      6F725261 
 6129              	.LASF83:
 6130 0085 536C6964 		.ascii	"Slider_SetModulationIDAC\000"
 6130      65725F53 
 6130      65744D6F 
 6130      64756C61 
 6130      74696F6E 
 6131              	.LASF8:
 6132 009e 756E7369 		.ascii	"unsigned int\000"
 6132      676E6564 
 6132      20696E74 
 6132      00
 6133              	.LASF119:
 6134 00ab 536C6964 		.ascii	"Slider_portTable\000"
 6134      65725F70 
 6134      6F727454 
 6134      61626C65 
 6134      00
 6135              	.LASF34:
 6136 00bc 696E7465 		.ascii	"interruptState\000"
 6136      72727570 
 6136      74537461 
 6136      746500
 6137              	.LASF15:
 6138 00cb 72656738 		.ascii	"reg8\000"
 6138      00
 6139              	.LASF113:
 6140 00d0 536C6964 		.ascii	"Slider_sampleClkDividerVal\000"
 6140      65725F73 
 6140      616D706C 
 6140      65436C6B 
 6140      44697669 
 6141              	.LASF96:
 6142 00eb 77696467 		.ascii	"widgetsNum\000"
 6142      6574734E 
 6142      756D00
 6143              	.LASF82:
 6144 00f6 536C6964 		.ascii	"Slider_GetModulationIDAC\000"
 6144      65725F47 
 6144      65744D6F 
 6144      64756C61 
 6144      74696F6E 
 6145              	.LASF122:
 6146 010f 536C6964 		.ascii	"Slider_rawDataIndex\000"
 6146      65725F72 
 6146      61774461 
 6146      7461496E 
 6146      64657800 
 6147              	.LASF33:
 6148 0123 70696E48 		.ascii	"pinHSIOMShift\000"
 6148      53494F4D 
 6148      53686966 
 6148      7400
 6149              	.LASF120:
 6150 0131 536C6964 		.ascii	"Slider_maskTable\000"
 6150      65725F6D 
ARM GAS  C:\Users\ELECTR~1\AppData\Local\Temp\ccbbDBvf.s 			page 153


 6150      61736B54 
 6150      61626C65 
 6150      00
 6151              	.LASF125:
 6152 0142 4379496E 		.ascii	"CyIntDisable\000"
 6152      74446973 
 6152      61626C65 
 6152      00
 6153              	.LASF93:
 6154 014f 61766756 		.ascii	"avgVal\000"
 6154      616C00
 6155              	.LASF64:
 6156 0156 536C6964 		.ascii	"Slider_FindNextSensor\000"
 6156      65725F46 
 6156      696E644E 
 6156      65787453 
 6156      656E736F 
 6157              	.LASF40:
 6158 016c 536C6964 		.ascii	"Slider_ClearSensors\000"
 6158      65725F43 
 6158      6C656172 
 6158      53656E73 
 6158      6F727300 
 6159              	.LASF32:
 6160 0180 70696E4D 		.ascii	"pinModeShift\000"
 6160      6F646553 
 6160      68696674 
 6160      00
 6161              	.LASF38:
 6162 018d 696E6163 		.ascii	"inactiveConnect\000"
 6162      74697665 
 6162      436F6E6E 
 6162      65637400 
 6163              	.LASF130:
 6164 019d 536C6964 		.ascii	"Slider_SenseClk_SetFractionalDividerRegister\000"
 6164      65725F53 
 6164      656E7365 
 6164      436C6B5F 
 6164      53657446 
 6165              	.LASF80:
 6166 01ca 536C6964 		.ascii	"Slider_SetModulatorClkDivider\000"
 6166      65725F53 
 6166      65744D6F 
 6166      64756C61 
 6166      746F7243 
 6167              	.LASF109:
 6168 01e8 536C6964 		.ascii	"Slider_modulationIDAC\000"
 6168      65725F6D 
 6168      6F64756C 
 6168      6174696F 
 6168      6E494441 
 6169              	.LASF12:
 6170 01fe 666C6F61 		.ascii	"float\000"
 6170      7400
 6171              	.LASF114:
 6172 0204 536C6964 		.ascii	"Slider_widgetNumber\000"
 6172      65725F77 
ARM GAS  C:\Users\ELECTR~1\AppData\Local\Temp\ccbbDBvf.s 			page 154


 6172      69646765 
 6172      744E756D 
 6172      62657200 
 6173              	.LASF7:
 6174 0218 6C6F6E67 		.ascii	"long long unsigned int\000"
 6174      206C6F6E 
 6174      6720756E 
 6174      7369676E 
 6174      65642069 
 6175              	.LASF97:
 6176 022f 64617461 		.ascii	"dataPtr\000"
 6176      50747200 
 6177              	.LASF69:
 6178 0237 536C6964 		.ascii	"Slider_ScanSensor\000"
 6178      65725F53 
 6178      63616E53 
 6178      656E736F 
 6178      7200
 6179              	.LASF86:
 6180 0249 536C6964 		.ascii	"Slider_SetCompensationIDAC\000"
 6180      65725F53 
 6180      6574436F 
 6180      6D70656E 
 6180      73617469 
 6181              	.LASF27:
 6182 0264 77696467 		.ascii	"widget\000"
 6182      657400
 6183              	.LASF73:
 6184 026b 536C6964 		.ascii	"Slider_ScanWidget\000"
 6184      65725F53 
 6184      63616E57 
 6184      69646765 
 6184      7400
 6185              	.LASF79:
 6186 027d 536C6964 		.ascii	"Slider_GetModulatorClkDivider\000"
 6186      65725F47 
 6186      65744D6F 
 6186      64756C61 
 6186      746F7243 
 6187              	.LASF50:
 6188 029b 536C6964 		.ascii	"Slider_RestoreDriveModeAllPins\000"
 6188      65725F52 
 6188      6573746F 
 6188      72654472 
 6188      6976654D 
 6189              	.LASF25:
 6190 02ba 76616C75 		.ascii	"value\000"
 6190      6500
 6191              	.LASF55:
 6192 02c0 536C6964 		.ascii	"Slider_Start\000"
 6192      65725F53 
 6192      74617274 
 6192      00
 6193              	.LASF108:
 6194 02cd 536C6964 		.ascii	"Slider_sensorEnableMask\000"
 6194      65725F73 
 6194      656E736F 
ARM GAS  C:\Users\ELECTR~1\AppData\Local\Temp\ccbbDBvf.s 			page 155


 6194      72456E61 
 6194      626C654D 
 6195              	.LASF35:
 6196 02e5 6E657752 		.ascii	"newRegisterValue\000"
 6196      65676973 
 6196      74657256 
 6196      616C7565 
 6196      00
 6197              	.LASF77:
 6198 02f6 536C6964 		.ascii	"Slider_SetSenseClkDivider\000"
 6198      65725F53 
 6198      65745365 
 6198      6E736543 
 6198      6C6B4469 
 6199              	.LASF39:
 6200 0310 73656E73 		.ascii	"sensorState\000"
 6200      6F725374 
 6200      61746500 
 6201              	.LASF104:
 6202 031c 536C6964 		.ascii	"Slider_sensorIndex\000"
 6202      65725F73 
 6202      656E736F 
 6202      72496E64 
 6202      657800
 6203              	.LASF62:
 6204 032f 6F666673 		.ascii	"offset\000"
 6204      657400
 6205              	.LASF123:
 6206 0336 536C6964 		.ascii	"Slider_numberOfSensors\000"
 6206      65725F6E 
 6206      756D6265 
 6206      724F6653 
 6206      656E736F 
 6207              	.LASF95:
 6208 034d 536C6964 		.ascii	"Slider_NormalizeWidgets\000"
 6208      65725F4E 
 6208      6F726D61 
 6208      6C697A65 
 6208      57696467 
 6209              	.LASF118:
 6210 0365 536C6964 		.ascii	"Slider_pcTable\000"
 6210      65725F70 
 6210      63546162 
 6210      6C6500
 6211              	.LASF85:
 6212 0374 536C6964 		.ascii	"Slider_GetCompensationIDAC\000"
 6212      65725F47 
 6212      6574436F 
 6212      6D70656E 
 6212      73617469 
 6213              	.LASF48:
 6214 038f 7072744E 		.ascii	"prtNumberTmp\000"
 6214      756D6265 
 6214      72546D70 
 6214      00
 6215              	.LASF74:
 6216 039c 73656E73 		.ascii	"sensorsPerWidget\000"
ARM GAS  C:\Users\ELECTR~1\AppData\Local\Temp\ccbbDBvf.s 			page 156


 6216      6F727350 
 6216      65725769 
 6216      64676574 
 6216      00
 6217              	.LASF107:
 6218 03ad 536C6964 		.ascii	"Slider_sensorEnableMaskBackup\000"
 6218      65725F73 
 6218      656E736F 
 6218      72456E61 
 6218      626C654D 
 6219              	.LASF92:
 6220 03cb 63757253 		.ascii	"curSample\000"
 6220      616D706C 
 6220      6500
 6221              	.LASF94:
 6222 03d5 536C6964 		.ascii	"Slider_SetUnscannedSensorState\000"
 6222      65725F53 
 6222      6574556E 
 6222      7363616E 
 6222      6E656453 
 6223              	.LASF139:
 6224 03f4 433A5C55 		.ascii	"C:\\Users\\Electronic\\Documents\\GitHub\\PSoC-4-BL"
 6224      73657273 
 6224      5C456C65 
 6224      6374726F 
 6224      6E69635C 
 6225 0422 452D4578 		.ascii	"E-Experiments\\Project 003 Custom Profile CapSense "
 6225      70657269 
 6225      6D656E74 
 6225      735C5072 
 6225      6F6A6563 
 6226 0454 52474220 		.ascii	"RGB LED\\PSoC\\CapSenseRGB\\CapSenseRGB.cydsn\000"
 6226      4C45445C 
 6226      50536F43 
 6226      5C436170 
 6226      53656E73 
 6227              	.LASF112:
 6228 047f 536C6964 		.ascii	"Slider_senseClkDividerVal\000"
 6228      65725F73 
 6228      656E7365 
 6228      436C6B44 
 6228      69766964 
 6229              	.LASF24:
 6230 0499 73656E73 		.ascii	"sensor\000"
 6230      6F7200
 6231              	.LASF128:
 6232 04a0 536C6964 		.ascii	"Slider_SampleClk_Stop\000"
 6232      65725F53 
 6232      616D706C 
 6232      65436C6B 
 6232      5F53746F 
 6233              	.LASF138:
 6234 04b6 2E5C4765 		.ascii	".\\Generated_Source\\PSoC4\\Slider.c\000"
 6234      6E657261 
 6234      7465645F 
 6234      536F7572 
 6234      63655C50 
ARM GAS  C:\Users\ELECTR~1\AppData\Local\Temp\ccbbDBvf.s 			page 157


 6235              	.LASF65:
 6236 04d8 656E6162 		.ascii	"enableFlag\000"
 6236      6C65466C 
 6236      616700
 6237              	.LASF136:
 6238 04e3 4379496E 		.ascii	"CyIntClearPending\000"
 6238      74436C65 
 6238      61725065 
 6238      6E64696E 
 6238      6700
 6239              	.LASF14:
 6240 04f5 63686172 		.ascii	"char\000"
 6240      00
 6241              	.LASF134:
 6242 04fa 43794578 		.ascii	"CyExitCriticalSection\000"
 6242      69744372 
 6242      69746963 
 6242      616C5365 
 6242      6374696F 
 6243              	.LASF142:
 6244 0510 43794465 		.ascii	"CyDelayCycles\000"
 6244      6C617943 
 6244      79636C65 
 6244      7300
 6245              	.LASF57:
 6246 051e 536C6964 		.ascii	"Slider_IsBusy\000"
 6246      65725F49 
 6246      73427573 
 6246      7900
 6247              	.LASF88:
 6248 052c 536C6964 		.ascii	"Slider_GetIDACRange\000"
 6248      65725F47 
 6248      65744944 
 6248      41435261 
 6248      6E676500 
 6249              	.LASF135:
 6250 0540 536C6964 		.ascii	"Slider_AutoTune\000"
 6250      65725F41 
 6250      75746F54 
 6250      756E6500 
 6251              	.LASF60:
 6252 0550 7461626C 		.ascii	"table\000"
 6252      6500
 6253              	.LASF10:
 6254 0556 75696E74 		.ascii	"uint16\000"
 6254      313600
 6255              	.LASF54:
 6256 055d 536C6964 		.ascii	"Slider_Init\000"
 6256      65725F49 
 6256      6E697400 
 6257              	.LASF140:
 6258 0569 4379496E 		.ascii	"CyIntSetVector\000"
 6258      74536574 
 6258      56656374 
 6258      6F7200
 6259              	.LASF131:
 6260 0578 536C6964 		.ascii	"Slider_SampleClk_StartEx\000"
ARM GAS  C:\Users\ELECTR~1\AppData\Local\Temp\ccbbDBvf.s 			page 158


 6260      65725F53 
 6260      616D706C 
 6260      65436C6B 
 6260      5F537461 
 6261              	.LASF28:
 6262 0591 7265736F 		.ascii	"resolution\000"
 6262      6C757469 
 6262      6F6E00
 6263              	.LASF49:
 6264 059c 70696E4E 		.ascii	"pinNumberTmp\000"
 6264      756D6265 
 6264      72546D70 
 6264      00
 6265              	.LASF31:
 6266 05a9 536C6964 		.ascii	"Slider_EnableSensor\000"
 6266      65725F45 
 6266      6E61626C 
 6266      6553656E 
 6266      736F7200 
 6267              	.LASF6:
 6268 05bd 6C6F6E67 		.ascii	"long long int\000"
 6268      206C6F6E 
 6268      6720696E 
 6268      7400
 6269              	.LASF30:
 6270 05cb 536C6964 		.ascii	"Slider_GetScanResolution\000"
 6270      65725F47 
 6270      65745363 
 6270      616E5265 
 6270      736F6C75 
 6271              	.LASF111:
 6272 05e4 536C6964 		.ascii	"Slider_widgetResolution\000"
 6272      65725F77 
 6272      69646765 
 6272      74526573 
 6272      6F6C7574 
 6273              	.LASF29:
 6274 05fc 536C6964 		.ascii	"Slider_ReadSensorRaw\000"
 6274      65725F52 
 6274      65616453 
 6274      656E736F 
 6274      72526177 
 6275              	.LASF75:
 6276 0611 6C617374 		.ascii	"lastSensor\000"
 6276      53656E73 
 6276      6F7200
 6277              	.LASF98:
 6278 061c 63757272 		.ascii	"currentWidget\000"
 6278      656E7457 
 6278      69646765 
 6278      7400
 6279              	.LASF115:
 6280 062a 536C6964 		.ascii	"Slider_prtSelTbl\000"
 6280      65725F70 
 6280      72745365 
 6280      6C54626C 
 6280      00
ARM GAS  C:\Users\ELECTR~1\AppData\Local\Temp\ccbbDBvf.s 			page 159


 6281              	.LASF17:
 6282 063b 63796973 		.ascii	"cyisraddress\000"
 6282      72616464 
 6282      72657373 
 6282      00
 6283              	.LASF26:
 6284 0648 536C6964 		.ascii	"Slider_SetScanResolution\000"
 6284      65725F53 
 6284      65745363 
 6284      616E5265 
 6284      736F6C75 
 6285              	.LASF11:
 6286 0661 75696E74 		.ascii	"uint32\000"
 6286      333200
 6287              	.LASF127:
 6288 0668 536C6964 		.ascii	"Slider_SenseClk_Stop\000"
 6288      65725F53 
 6288      656E7365 
 6288      436C6B5F 
 6288      53746F70 
 6289              	.LASF20:
 6290 067d 536C6964 		.ascii	"Slider_Enable\000"
 6290      65725F45 
 6290      6E61626C 
 6290      6500
 6291              	.LASF121:
 6292 068b 536C6964 		.ascii	"Slider_pinShiftTbl\000"
 6292      65725F70 
 6292      696E5368 
 6292      69667454 
 6292      626C00
 6293              	.LASF91:
 6294 069e 536C6964 		.ascii	"Slider_GetSensorRaw\000"
 6294      65725F47 
 6294      65745365 
 6294      6E736F72 
 6294      52617700 
 6295              	.LASF44:
 6296 06b2 70696E4E 		.ascii	"pinNumber\000"
 6296      756D6265 
 6296      7200
 6297              	.LASF116:
 6298 06bc 536C6964 		.ascii	"Slider_prtCfgTbl\000"
 6298      65725F70 
 6298      72744366 
 6298      6754626C 
 6298      00
 6299              	.LASF41:
 6300 06cd 736E7349 		.ascii	"snsIndex\000"
 6300      6E646578 
 6300      00
 6301              	.LASF71:
 6302 06d6 536C6964 		.ascii	"Slider_PostScan\000"
 6302      65725F50 
 6302      6F737453 
 6302      63616E00 
 6303              	.LASF16:
ARM GAS  C:\Users\ELECTR~1\AppData\Local\Temp\ccbbDBvf.s 			page 160


 6304 06e6 72656733 		.ascii	"reg32\000"
 6304      3200
 6305              	.LASF42:
 6306 06ec 536C6964 		.ascii	"Slider_SetPinDriveMode\000"
 6306      65725F53 
 6306      65745069 
 6306      6E447269 
 6306      76654D6F 
 6307              	.LASF76:
 6308 0703 536C6964 		.ascii	"Slider_GetSenseClkDivider\000"
 6308      65725F47 
 6308      65745365 
 6308      6E736543 
 6308      6C6B4469 
 6309              	.LASF45:
 6310 071d 706F7274 		.ascii	"portNumber\000"
 6310      4E756D62 
 6310      657200
 6311              	.LASF100:
 6312 0728 6D617850 		.ascii	"maxPerWidget\000"
 6312      65725769 
 6312      64676574 
 6312      00
 6313              	.LASF70:
 6314 0735 536C6964 		.ascii	"Slider_ScanEnabledWidgets\000"
 6314      65725F53 
 6314      63616E45 
 6314      6E61626C 
 6314      65645769 
 6315              	.LASF78:
 6316 074f 73656E73 		.ascii	"senseClk\000"
 6316      65436C6B 
 6316      00
 6317              	.LASF2:
 6318 0758 73686F72 		.ascii	"short int\000"
 6318      7420696E 
 6318      7400
 6319              	.LASF4:
 6320 0762 6C6F6E67 		.ascii	"long int\000"
 6320      20696E74 
 6320      00
 6321              	.LASF53:
 6322 076b 64656C61 		.ascii	"delay\000"
 6322      7900
 6323              	.LASF89:
 6324 0771 536C6964 		.ascii	"Slider_SetIDACRange\000"
 6324      65725F53 
 6324      65744944 
 6324      41435261 
 6324      6E676500 
 6325              	.LASF137:
 6326 0785 474E5520 		.ascii	"GNU C 4.9.3 20150303 (release) [ARM/embedded-4_9-br"
 6326      4320342E 
 6326      392E3320 
 6326      32303135 
 6326      30333033 
 6327 07b8 616E6368 		.ascii	"anch revision 221220] -mcpu=cortex-m0 -mthumb -g -O"
ARM GAS  C:\Users\ELECTR~1\AppData\Local\Temp\ccbbDBvf.s 			page 161


 6327      20726576 
 6327      6973696F 
 6327      6E203232 
 6327      31323230 
 6328 07eb 67202D66 		.ascii	"g -ffunction-sections -ffat-lto-objects\000"
 6328      66756E63 
 6328      74696F6E 
 6328      2D736563 
 6328      74696F6E 
 6329              	.LASF90:
 6330 0813 69446163 		.ascii	"iDacRange\000"
 6330      52616E67 
 6330      6500
 6331              	.LASF51:
 6332 081d 536C6964 		.ascii	"Slider_EnableShieldElectrode\000"
 6332      65725F45 
 6332      6E61626C 
 6332      65536869 
 6332      656C6445 
 6333              	.LASF99:
 6334 083a 63757272 		.ascii	"currentSensor\000"
 6334      656E7453 
 6334      656E736F 
 6334      7200
 6335              	.LASF87:
 6336 0848 636F6D70 		.ascii	"compIdacValue\000"
 6336      49646163 
 6336      56616C75 
 6336      6500
 6337              	.LASF84:
 6338 0856 6D6F6449 		.ascii	"modIdacValue\000"
 6338      64616356 
 6338      616C7565 
 6338      00
 6339              	.LASF18:
 6340 0863 73697A65 		.ascii	"sizetype\000"
 6340      74797065 
 6340      00
 6341              	.LASF5:
 6342 086c 6C6F6E67 		.ascii	"long unsigned int\000"
 6342      20756E73 
 6342      69676E65 
 6342      6420696E 
 6342      7400
 6343              	.LASF36:
 6344 087e 706F7274 		.ascii	"port\000"
 6344      00
 6345              	.LASF117:
 6346 0883 536C6964 		.ascii	"Slider_prtDRTbl\000"
 6346      65725F70 
 6346      72744452 
 6346      54626C00 
 6347              	.LASF63:
 6348 0893 656E4D61 		.ascii	"enMask\000"
 6348      736B00
 6349              	.LASF133:
 6350 089a 4379496E 		.ascii	"CyIntEnable\000"
ARM GAS  C:\Users\ELECTR~1\AppData\Local\Temp\ccbbDBvf.s 			page 162


 6350      74456E61 
 6350      626C6500 
 6351              	.LASF1:
 6352 08a6 756E7369 		.ascii	"unsigned char\000"
 6352      676E6564 
 6352      20636861 
 6352      7200
 6353              	.LASF72:
 6354 08b4 536C6964 		.ascii	"Slider_SetBitValue\000"
 6354      65725F53 
 6354      65744269 
 6354      7456616C 
 6354      756500
 6355              	.LASF67:
 6356 08c7 636F756E 		.ascii	"counterResolution\000"
 6356      74657252 
 6356      65736F6C 
 6356      7574696F 
 6356      6E00
 6357              	.LASF129:
 6358 08d9 536C6964 		.ascii	"Slider_SampleClk_SetFractionalDividerRegister\000"
 6358      65725F53 
 6358      616D706C 
 6358      65436C6B 
 6358      5F536574 
 6359              	.LASF105:
 6360 0907 536C6964 		.ascii	"Slider_sensorRaw\000"
 6360      65725F73 
 6360      656E736F 
 6360      72526177 
 6360      00
 6361              	.LASF37:
 6362 0918 536C6964 		.ascii	"Slider_DisableSensor\000"
 6362      65725F44 
 6362      69736162 
 6362      6C655365 
 6362      6E736F72 
 6363              	.LASF81:
 6364 092d 6D6F6475 		.ascii	"modulatorClk\000"
 6364      6C61746F 
 6364      72436C6B 
 6364      00
 6365              	.LASF19:
 6366 093a 536C6964 		.ascii	"Slider_CsdHwBlockInit\000"
 6366      65725F43 
 6366      73644877 
 6366      426C6F63 
 6366      6B496E69 
 6367              	.LASF124:
 6368 0950 536C6964 		.ascii	"Slider_csdTrim1\000"
 6368      65725F63 
 6368      73645472 
 6368      696D3100 
 6369              	.LASF141:
 6370 0960 4379456E 		.ascii	"CyEnterCriticalSection\000"
 6370      74657243 
 6370      72697469 
ARM GAS  C:\Users\ELECTR~1\AppData\Local\Temp\ccbbDBvf.s 			page 163


 6370      63616C53 
 6370      65637469 
 6371              	.LASF0:
 6372 0977 7369676E 		.ascii	"signed char\000"
 6372      65642063 
 6372      68617200 
 6373              	.LASF56:
 6374 0983 536C6964 		.ascii	"Slider_initVar\000"
 6374      65725F69 
 6374      6E697456 
 6374      617200
 6375              	.LASF46:
 6376 0992 536C6964 		.ascii	"Slider_SetDriveModeAllPins\000"
 6376      65725F53 
 6376      65744472 
 6376      6976654D 
 6376      6F646541 
 6377              	.LASF3:
 6378 09ad 73686F72 		.ascii	"short unsigned int\000"
 6378      7420756E 
 6378      7369676E 
 6378      65642069 
 6378      6E7400
 6379              	.LASF21:
 6380 09c0 6E657752 		.ascii	"newRegValue\000"
 6380      65675661 
 6380      6C756500 
 6381              	.LASF9:
 6382 09cc 75696E74 		.ascii	"uint8\000"
 6382      3800
 6383              	.LASF13:
 6384 09d2 646F7562 		.ascii	"double\000"
 6384      6C6500
 6385              	.LASF59:
 6386 09d9 536C6964 		.ascii	"Slider_GetBitValue\000"
 6386      65725F47 
 6386      65744269 
 6386      7456616C 
 6386      756500
 6387              	.LASF101:
 6388 09ec 536C6964 		.ascii	"Slider_lowLevelTuningDone\000"
 6388      65725F6C 
 6388      6F774C65 
 6388      76656C54 
 6388      756E696E 
 6389              	.LASF47:
 6390 0a06 63757253 		.ascii	"curSensor\000"
 6390      656E736F 
 6390      7200
 6391              	.LASF68:
 6392 0a10 6F766572 		.ascii	"oversamplingFactor\000"
 6392      73616D70 
 6392      6C696E67 
 6392      46616374 
 6392      6F7200
 6393              	.LASF106:
 6394 0a23 536C6964 		.ascii	"Slider_unscannedSnsDriveMode\000"
ARM GAS  C:\Users\ELECTR~1\AppData\Local\Temp\ccbbDBvf.s 			page 164


 6394      65725F75 
 6394      6E736361 
 6394      6E6E6564 
 6394      536E7344 
 6395              	.LASF43:
 6396 0a40 64726976 		.ascii	"driveMode\000"
 6396      654D6F64 
 6396      6500
 6397              	.LASF52:
 6398 0a4a 536C6964 		.ascii	"Slider_SetShieldDelay\000"
 6398      65725F53 
 6398      65745368 
 6398      69656C64 
 6398      44656C61 
 6399              	.LASF66:
 6400 0a60 536C6964 		.ascii	"Slider_PreScan\000"
 6400      65725F50 
 6400      72655363 
 6400      616E00
 6401              	.LASF22:
 6402 0a6f 536C6964 		.ascii	"Slider_Stop\000"
 6402      65725F53 
 6402      746F7000 
 6403              	.LASF61:
 6404 0a7b 706F7369 		.ascii	"position\000"
 6404      74696F6E 
 6404      00
 6405              	.LASF103:
 6406 0a84 536C6964 		.ascii	"Slider_csdStatusVar\000"
 6406      65725F63 
 6406      73645374 
 6406      61747573 
 6406      56617200 
 6407              		.ident	"GCC: (GNU Tools for ARM Embedded Processors) 4.9.3 20150303 (release) [ARM/embedded-4_9-br
