ARM GAS  C:\Users\danielpi\AppData\Local\Temp\ccFTAsT0.s 			page 1


   1              		.cpu cortex-m0
   2              		.fpu softvfp
   3              		.eabi_attribute 20, 1
   4              		.eabi_attribute 21, 1
   5              		.eabi_attribute 23, 3
   6              		.eabi_attribute 24, 1
   7              		.eabi_attribute 25, 1
   8              		.eabi_attribute 26, 1
   9              		.eabi_attribute 30, 1
  10              		.eabi_attribute 34, 0
  11              		.eabi_attribute 18, 4
  12              		.code	16
  13              		.file	"BLE_HAL_PVT.c"
  14              		.text
  15              	.Ltext0:
  16              		.cfi_sections	.debug_frame
  17              		.section	.text.CyBLE_Nvram_Write,"ax",%progbits
  18              		.align	2
  19              		.global	CyBLE_Nvram_Write
  20              		.code	16
  21              		.thumb_func
  22              		.type	CyBLE_Nvram_Write, %function
  23              	CyBLE_Nvram_Write:
  24              	.LFB2:
  25              		.file 1 ".\\Generated_Source\\PSoC4\\BLE_HAL_PVT.c"
   1:.\Generated_Source\PSoC4/BLE_HAL_PVT.c **** /*******************************************************************************
   2:.\Generated_Source\PSoC4/BLE_HAL_PVT.c **** * File Name: CYBLE_HAL_PVT.c
   3:.\Generated_Source\PSoC4/BLE_HAL_PVT.c **** * Version 2.0
   4:.\Generated_Source\PSoC4/BLE_HAL_PVT.c **** *
   5:.\Generated_Source\PSoC4/BLE_HAL_PVT.c **** * Description:
   6:.\Generated_Source\PSoC4/BLE_HAL_PVT.c **** *  This file contains the source code for the HAL section of the BLE component
   7:.\Generated_Source\PSoC4/BLE_HAL_PVT.c **** *
   8:.\Generated_Source\PSoC4/BLE_HAL_PVT.c **** ********************************************************************************
   9:.\Generated_Source\PSoC4/BLE_HAL_PVT.c **** * Copyright 2014-2015, Cypress Semiconductor Corporation.  All rights reserved.
  10:.\Generated_Source\PSoC4/BLE_HAL_PVT.c **** * You may use this file only in accordance with the license, terms, conditions,
  11:.\Generated_Source\PSoC4/BLE_HAL_PVT.c **** * disclaimers, and limitations in the end user license agreement accompanying
  12:.\Generated_Source\PSoC4/BLE_HAL_PVT.c **** * the software package with which this file was provided.
  13:.\Generated_Source\PSoC4/BLE_HAL_PVT.c **** *******************************************************************************/
  14:.\Generated_Source\PSoC4/BLE_HAL_PVT.c **** 
  15:.\Generated_Source\PSoC4/BLE_HAL_PVT.c **** #include "BLE_HAL_PVT.h"
  16:.\Generated_Source\PSoC4/BLE_HAL_PVT.c **** 
  17:.\Generated_Source\PSoC4/BLE_HAL_PVT.c **** 
  18:.\Generated_Source\PSoC4/BLE_HAL_PVT.c **** #if(CYBLE_MODE == CYBLE_HCI)
  19:.\Generated_Source\PSoC4/BLE_HAL_PVT.c **** 
  20:.\Generated_Source\PSoC4/BLE_HAL_PVT.c **** 
  21:.\Generated_Source\PSoC4/BLE_HAL_PVT.c **** /*******************************************************************************
  22:.\Generated_Source\PSoC4/BLE_HAL_PVT.c **** * Function Name: CyBLE_Uart_Start
  23:.\Generated_Source\PSoC4/BLE_HAL_PVT.c **** ********************************************************************************
  24:.\Generated_Source\PSoC4/BLE_HAL_PVT.c **** *
  25:.\Generated_Source\PSoC4/BLE_HAL_PVT.c **** * Summary:
  26:.\Generated_Source\PSoC4/BLE_HAL_PVT.c **** *  Enables the platform UART Tx and RX interrupts and then enables the UART
  27:.\Generated_Source\PSoC4/BLE_HAL_PVT.c **** *  component.
  28:.\Generated_Source\PSoC4/BLE_HAL_PVT.c **** *
  29:.\Generated_Source\PSoC4/BLE_HAL_PVT.c **** * Parameters:
  30:.\Generated_Source\PSoC4/BLE_HAL_PVT.c **** *  None
  31:.\Generated_Source\PSoC4/BLE_HAL_PVT.c **** *
  32:.\Generated_Source\PSoC4/BLE_HAL_PVT.c **** * Return:
ARM GAS  C:\Users\danielpi\AppData\Local\Temp\ccFTAsT0.s 			page 2


  33:.\Generated_Source\PSoC4/BLE_HAL_PVT.c **** *  None
  34:.\Generated_Source\PSoC4/BLE_HAL_PVT.c **** *
  35:.\Generated_Source\PSoC4/BLE_HAL_PVT.c **** *******************************************************************************/
  36:.\Generated_Source\PSoC4/BLE_HAL_PVT.c **** void CyBLE_Uart_Start (void)
  37:.\Generated_Source\PSoC4/BLE_HAL_PVT.c **** {
  38:.\Generated_Source\PSoC4/BLE_HAL_PVT.c ****     /* Setup ISR */
  39:.\Generated_Source\PSoC4/BLE_HAL_PVT.c ****     BLE_uart_isr_StartEx(&CyBLE_Uart_Interrupt);
  40:.\Generated_Source\PSoC4/BLE_HAL_PVT.c **** 
  41:.\Generated_Source\PSoC4/BLE_HAL_PVT.c ****     BLE_HAL_Uart_Start();
  42:.\Generated_Source\PSoC4/BLE_HAL_PVT.c **** }
  43:.\Generated_Source\PSoC4/BLE_HAL_PVT.c **** 
  44:.\Generated_Source\PSoC4/BLE_HAL_PVT.c **** 
  45:.\Generated_Source\PSoC4/BLE_HAL_PVT.c **** /*******************************************************************************
  46:.\Generated_Source\PSoC4/BLE_HAL_PVT.c **** * Function Name: CyBLE_Uart_Stop
  47:.\Generated_Source\PSoC4/BLE_HAL_PVT.c **** ********************************************************************************
  48:.\Generated_Source\PSoC4/BLE_HAL_PVT.c **** *
  49:.\Generated_Source\PSoC4/BLE_HAL_PVT.c **** * Summary:
  50:.\Generated_Source\PSoC4/BLE_HAL_PVT.c **** *  Disables the UART, clears all pending interrupts and disables the UART Tx
  51:.\Generated_Source\PSoC4/BLE_HAL_PVT.c **** *  and RX interrupts. This will also empty out the FIFOs.
  52:.\Generated_Source\PSoC4/BLE_HAL_PVT.c **** *
  53:.\Generated_Source\PSoC4/BLE_HAL_PVT.c **** * Parameters:
  54:.\Generated_Source\PSoC4/BLE_HAL_PVT.c **** *  None
  55:.\Generated_Source\PSoC4/BLE_HAL_PVT.c **** *
  56:.\Generated_Source\PSoC4/BLE_HAL_PVT.c **** * Return:
  57:.\Generated_Source\PSoC4/BLE_HAL_PVT.c **** *  None
  58:.\Generated_Source\PSoC4/BLE_HAL_PVT.c **** *
  59:.\Generated_Source\PSoC4/BLE_HAL_PVT.c **** *******************************************************************************/
  60:.\Generated_Source\PSoC4/BLE_HAL_PVT.c **** void CyBLE_Uart_Stop (void)
  61:.\Generated_Source\PSoC4/BLE_HAL_PVT.c **** {
  62:.\Generated_Source\PSoC4/BLE_HAL_PVT.c ****     /* Stop interrupt and UART */
  63:.\Generated_Source\PSoC4/BLE_HAL_PVT.c ****     BLE_uart_isr_Stop();
  64:.\Generated_Source\PSoC4/BLE_HAL_PVT.c **** 
  65:.\Generated_Source\PSoC4/BLE_HAL_PVT.c ****     BLE_HAL_Uart_Stop();
  66:.\Generated_Source\PSoC4/BLE_HAL_PVT.c **** }
  67:.\Generated_Source\PSoC4/BLE_HAL_PVT.c **** 
  68:.\Generated_Source\PSoC4/BLE_HAL_PVT.c **** 
  69:.\Generated_Source\PSoC4/BLE_HAL_PVT.c **** /*******************************************************************************
  70:.\Generated_Source\PSoC4/BLE_HAL_PVT.c **** * Function Name: CyBLE_Uart_Transmit
  71:.\Generated_Source\PSoC4/BLE_HAL_PVT.c **** ********************************************************************************
  72:.\Generated_Source\PSoC4/BLE_HAL_PVT.c **** *
  73:.\Generated_Source\PSoC4/BLE_HAL_PVT.c **** * Summary:
  74:.\Generated_Source\PSoC4/BLE_HAL_PVT.c **** *  Sends the data to Uart Tx FIFO. The API handles data length up to the 
  75:.\Generated_Source\PSoC4/BLE_HAL_PVT.c **** *  supported Tx FIFO length of the uart hardware module.
  76:.\Generated_Source\PSoC4/BLE_HAL_PVT.c **** *
  77:.\Generated_Source\PSoC4/BLE_HAL_PVT.c **** * Parameters:
  78:.\Generated_Source\PSoC4/BLE_HAL_PVT.c **** *  uint8 *data: Pointer to the data to send through the UART
  79:.\Generated_Source\PSoC4/BLE_HAL_PVT.c **** *  uint8 length: the length of data to transmit in bytes
  80:.\Generated_Source\PSoC4/BLE_HAL_PVT.c **** *
  81:.\Generated_Source\PSoC4/BLE_HAL_PVT.c **** * Return:
  82:.\Generated_Source\PSoC4/BLE_HAL_PVT.c **** *  None
  83:.\Generated_Source\PSoC4/BLE_HAL_PVT.c **** *
  84:.\Generated_Source\PSoC4/BLE_HAL_PVT.c **** *******************************************************************************/
  85:.\Generated_Source\PSoC4/BLE_HAL_PVT.c **** void CyBLE_Uart_Transmit (const uint8 *dataBuf, uint8 length)
  86:.\Generated_Source\PSoC4/BLE_HAL_PVT.c **** {
  87:.\Generated_Source\PSoC4/BLE_HAL_PVT.c ****     BLE_HAL_Uart_SpiUartPutArray(dataBuf, (uint32)length);
  88:.\Generated_Source\PSoC4/BLE_HAL_PVT.c **** }
  89:.\Generated_Source\PSoC4/BLE_HAL_PVT.c **** 
ARM GAS  C:\Users\danielpi\AppData\Local\Temp\ccFTAsT0.s 			page 3


  90:.\Generated_Source\PSoC4/BLE_HAL_PVT.c **** #endif /* (CYBLE_MODE == CYBLE_HCI) */
  91:.\Generated_Source\PSoC4/BLE_HAL_PVT.c **** 
  92:.\Generated_Source\PSoC4/BLE_HAL_PVT.c **** 
  93:.\Generated_Source\PSoC4/BLE_HAL_PVT.c **** /*******************************************************************************
  94:.\Generated_Source\PSoC4/BLE_HAL_PVT.c **** * Function Name: CyBLE_Nvram_Write
  95:.\Generated_Source\PSoC4/BLE_HAL_PVT.c **** ********************************************************************************
  96:.\Generated_Source\PSoC4/BLE_HAL_PVT.c **** *
  97:.\Generated_Source\PSoC4/BLE_HAL_PVT.c **** * Summary:
  98:.\Generated_Source\PSoC4/BLE_HAL_PVT.c **** *  This API writes the data to the NVRAM store. It will check the appropriate
  99:.\Generated_Source\PSoC4/BLE_HAL_PVT.c **** *  alignment of a start address and also perform an address range check based
 100:.\Generated_Source\PSoC4/BLE_HAL_PVT.c **** *  on the length before performing the write operation.
 101:.\Generated_Source\PSoC4/BLE_HAL_PVT.c **** *  This function performs memory compare and writes only row where there are new
 102:.\Generated_Source\PSoC4/BLE_HAL_PVT.c **** *  data to write.
 103:.\Generated_Source\PSoC4/BLE_HAL_PVT.c **** *
 104:.\Generated_Source\PSoC4/BLE_HAL_PVT.c **** * Parameters:
 105:.\Generated_Source\PSoC4/BLE_HAL_PVT.c **** *  const uint8 *buffer: Pointer to the buffer containing the data to be stored.
 106:.\Generated_Source\PSoC4/BLE_HAL_PVT.c **** *  const uint8 *varFlash: Pointer to the array or variable in the flash.
 107:.\Generated_Source\PSoC4/BLE_HAL_PVT.c **** *  uint16 length: the length of the data in bytes.
 108:.\Generated_Source\PSoC4/BLE_HAL_PVT.c **** *
 109:.\Generated_Source\PSoC4/BLE_HAL_PVT.c **** * Return:
 110:.\Generated_Source\PSoC4/BLE_HAL_PVT.c **** *  CYRET_SUCCESS    a successful write
 111:.\Generated_Source\PSoC4/BLE_HAL_PVT.c **** *  CYRET_BAD_PARAM  A request to write outside the flash boundary.
 112:.\Generated_Source\PSoC4/BLE_HAL_PVT.c **** *  CYRET_UNKNOWN    Other errors in writing the flash
 113:.\Generated_Source\PSoC4/BLE_HAL_PVT.c **** *
 114:.\Generated_Source\PSoC4/BLE_HAL_PVT.c **** * Side Effects:
 115:.\Generated_Source\PSoC4/BLE_HAL_PVT.c **** *  For BLE devices with 128K of Flash memory this API will automatically 
 116:.\Generated_Source\PSoC4/BLE_HAL_PVT.c **** *  modify the clock settings for the device.
 117:.\Generated_Source\PSoC4/BLE_HAL_PVT.c **** *  Writing to flash requires changes to be done to the IMO (set to 48 MHz)
 118:.\Generated_Source\PSoC4/BLE_HAL_PVT.c **** *  and HFCLK (source set to IMO) settings. The configuration is restored before
 119:.\Generated_Source\PSoC4/BLE_HAL_PVT.c **** *  returning. This will impact the operation of most of the hardware in the
 120:.\Generated_Source\PSoC4/BLE_HAL_PVT.c **** *  device.
 121:.\Generated_Source\PSoC4/BLE_HAL_PVT.c **** *
 122:.\Generated_Source\PSoC4/BLE_HAL_PVT.c **** *******************************************************************************/
 123:.\Generated_Source\PSoC4/BLE_HAL_PVT.c **** cystatus CyBLE_Nvram_Write (const uint8 buffer[], const uint8 varFlash[], uint16 length)
 124:.\Generated_Source\PSoC4/BLE_HAL_PVT.c **** {
  26              		.loc 1 124 0
  27              		.cfi_startproc
  28              	.LVL0:
  29 0000 F0B5     		push	{r4, r5, r6, r7, lr}
  30              		.cfi_def_cfa_offset 20
  31              		.cfi_offset 4, -20
  32              		.cfi_offset 5, -16
  33              		.cfi_offset 6, -12
  34              		.cfi_offset 7, -8
  35              		.cfi_offset 14, -4
  36 0002 5F46     		mov	r7, fp
  37 0004 5646     		mov	r6, r10
  38 0006 4D46     		mov	r5, r9
  39 0008 4446     		mov	r4, r8
  40 000a F0B4     		push	{r4, r5, r6, r7}
  41              		.cfi_def_cfa_offset 36
  42              		.cfi_offset 8, -36
  43              		.cfi_offset 9, -32
  44              		.cfi_offset 10, -28
  45              		.cfi_offset 11, -24
  46 000c A3B0     		sub	sp, sp, #140
  47              		.cfi_def_cfa_offset 176
ARM GAS  C:\Users\danielpi\AppData\Local\Temp\ccFTAsT0.s 			page 4


  48 000e 8046     		mov	r8, r0
  49              	.LVL1:
 125:.\Generated_Source\PSoC4/BLE_HAL_PVT.c ****     uint8 writeBuffer[CY_FLASH_SIZEOF_ROW];
 126:.\Generated_Source\PSoC4/BLE_HAL_PVT.c ****     uint32 rowId;
 127:.\Generated_Source\PSoC4/BLE_HAL_PVT.c ****     uint32 dstIndex;
 128:.\Generated_Source\PSoC4/BLE_HAL_PVT.c ****     uint32 srcIndex = 0u;
 129:.\Generated_Source\PSoC4/BLE_HAL_PVT.c ****     cystatus rc = CYRET_SUCCESS;
 130:.\Generated_Source\PSoC4/BLE_HAL_PVT.c ****     uint32 eeOffset;
 131:.\Generated_Source\PSoC4/BLE_HAL_PVT.c ****     uint32 byteOffset;
 132:.\Generated_Source\PSoC4/BLE_HAL_PVT.c ****     uint32 rowsNotEqual;
 133:.\Generated_Source\PSoC4/BLE_HAL_PVT.c **** 
 134:.\Generated_Source\PSoC4/BLE_HAL_PVT.c ****     eeOffset = (uint32)varFlash;
  50              		.loc 1 134 0
  51 0010 0E1C     		mov	r6, r1
  52              	.LVL2:
 135:.\Generated_Source\PSoC4/BLE_HAL_PVT.c **** 
 136:.\Generated_Source\PSoC4/BLE_HAL_PVT.c ****     /* Make sure, that varFlash[] points to Flash */
 137:.\Generated_Source\PSoC4/BLE_HAL_PVT.c ****     if ((eeOffset + length) < CYBLE_HAL_FLASH_END_ADDR)
  53              		.loc 1 137 0
  54 0012 171C     		mov	r7, r2
  55 0014 8A18     		add	r2, r1, r2
  56              	.LVL3:
  57 0016 234B     		ldr	r3, .L14
  58 0018 9A42     		cmp	r2, r3
  59 001a 33D8     		bhi	.L11
 138:.\Generated_Source\PSoC4/BLE_HAL_PVT.c ****     {
 139:.\Generated_Source\PSoC4/BLE_HAL_PVT.c ****         rowId = eeOffset / CY_FLASH_SIZEOF_ROW;
  60              		.loc 1 139 0
  61 001c C909     		lsr	r1, r1, #7
  62              	.LVL4:
  63 001e 8A46     		mov	r10, r1
  64              	.LVL5:
 140:.\Generated_Source\PSoC4/BLE_HAL_PVT.c ****         byteOffset = CY_FLASH_SIZEOF_ROW * rowId;
  65              		.loc 1 140 0
  66 0020 CC01     		lsl	r4, r1, #7
  67              	.LVL6:
 129:.\Generated_Source\PSoC4/BLE_HAL_PVT.c ****     cystatus rc = CYRET_SUCCESS;
  68              		.loc 1 129 0
  69 0022 0021     		mov	r1, #0
  70              	.LVL7:
  71 0024 8C46     		mov	ip, r1
 128:.\Generated_Source\PSoC4/BLE_HAL_PVT.c ****     uint32 srcIndex = 0u;
  72              		.loc 1 128 0
  73 0026 0025     		mov	r5, #0
  74 0028 AB46     		mov	fp, r5
 141:.\Generated_Source\PSoC4/BLE_HAL_PVT.c **** 
 142:.\Generated_Source\PSoC4/BLE_HAL_PVT.c ****         while ((srcIndex < length) && (CYRET_SUCCESS == rc))
 143:.\Generated_Source\PSoC4/BLE_HAL_PVT.c ****         {
 144:.\Generated_Source\PSoC4/BLE_HAL_PVT.c ****             rowsNotEqual = 0u;
 145:.\Generated_Source\PSoC4/BLE_HAL_PVT.c ****             /* Copy data to the write buffer either from the source buffer or from the flash */
 146:.\Generated_Source\PSoC4/BLE_HAL_PVT.c ****             for (dstIndex = 0u; dstIndex < CY_FLASH_SIZEOF_ROW; dstIndex++)
 147:.\Generated_Source\PSoC4/BLE_HAL_PVT.c ****             {
 148:.\Generated_Source\PSoC4/BLE_HAL_PVT.c ****                 if ((byteOffset >= eeOffset) && (srcIndex < length))
 149:.\Generated_Source\PSoC4/BLE_HAL_PVT.c ****                 {
 150:.\Generated_Source\PSoC4/BLE_HAL_PVT.c ****                     /* Detect that row programming is required */
 151:.\Generated_Source\PSoC4/BLE_HAL_PVT.c ****                     if(writeBuffer[dstIndex] != buffer[srcIndex])
 152:.\Generated_Source\PSoC4/BLE_HAL_PVT.c ****                     {
ARM GAS  C:\Users\danielpi\AppData\Local\Temp\ccFTAsT0.s 			page 5


 153:.\Generated_Source\PSoC4/BLE_HAL_PVT.c ****                         writeBuffer[dstIndex] = buffer[srcIndex];
 154:.\Generated_Source\PSoC4/BLE_HAL_PVT.c ****                         rowsNotEqual = 1u;  
  75              		.loc 1 154 0
  76 002a 0123     		mov	r3, #1
  77 002c 9946     		mov	r9, r3
 142:.\Generated_Source\PSoC4/BLE_HAL_PVT.c ****         while ((srcIndex < length) && (CYRET_SUCCESS == rc))
  78              		.loc 1 142 0
  79 002e 23E0     		b	.L3
  80              	.LVL8:
  81              	.L7:
 148:.\Generated_Source\PSoC4/BLE_HAL_PVT.c ****                 if ((byteOffset >= eeOffset) && (srcIndex < length))
  82              		.loc 1 148 0
  83 0030 B442     		cmp	r4, r6
  84 0032 0DD3     		bcc	.L4
 148:.\Generated_Source\PSoC4/BLE_HAL_PVT.c ****                 if ((byteOffset >= eeOffset) && (srcIndex < length))
  85              		.loc 1 148 0 is_stmt 0 discriminator 1
  86 0034 BD42     		cmp	r5, r7
  87 0036 0BD2     		bcs	.L4
 151:.\Generated_Source\PSoC4/BLE_HAL_PVT.c ****                     if(writeBuffer[dstIndex] != buffer[srcIndex])
  88              		.loc 1 151 0 is_stmt 1
  89 0038 02A9     		add	r1, sp, #8
  90 003a C85C     		ldrb	r0, [r1, r3]
  91 003c 4146     		mov	r1, r8
  92 003e 4A5D     		ldrb	r2, [r1, r5]
  93 0040 9042     		cmp	r0, r2
  94 0042 03D0     		beq	.L5
  95              	.LVL9:
 153:.\Generated_Source\PSoC4/BLE_HAL_PVT.c ****                         writeBuffer[dstIndex] = buffer[srcIndex];
  96              		.loc 1 153 0
  97 0044 02A9     		add	r1, sp, #8
  98              	.LVL10:
  99 0046 CA54     		strb	r2, [r1, r3]
 100              	.LVL11:
 101              		.loc 1 154 0
 102 0048 4946     		mov	r1, r9
 103 004a 0191     		str	r1, [sp, #4]
 104              	.LVL12:
 105              	.L5:
 155:.\Generated_Source\PSoC4/BLE_HAL_PVT.c ****                     }
 156:.\Generated_Source\PSoC4/BLE_HAL_PVT.c ****                     srcIndex++;
 106              		.loc 1 156 0
 107 004c 0135     		add	r5, r5, #1
 108              	.LVL13:
 109 004e 02E0     		b	.L6
 110              	.L4:
 157:.\Generated_Source\PSoC4/BLE_HAL_PVT.c ****                 }
 158:.\Generated_Source\PSoC4/BLE_HAL_PVT.c ****                 else
 159:.\Generated_Source\PSoC4/BLE_HAL_PVT.c ****                 {
 160:.\Generated_Source\PSoC4/BLE_HAL_PVT.c ****                     writeBuffer[dstIndex] = CY_GET_XTND_REG8(CYDEV_FLASH_BASE + byteOffset);
 111              		.loc 1 160 0
 112 0050 2278     		ldrb	r2, [r4]
 113 0052 02A9     		add	r1, sp, #8
 114 0054 CA54     		strb	r2, [r1, r3]
 115              	.L6:
 161:.\Generated_Source\PSoC4/BLE_HAL_PVT.c ****                 }
 162:.\Generated_Source\PSoC4/BLE_HAL_PVT.c ****                 byteOffset++;
 116              		.loc 1 162 0
ARM GAS  C:\Users\danielpi\AppData\Local\Temp\ccFTAsT0.s 			page 6


 117 0056 0134     		add	r4, r4, #1
 118              	.LVL14:
 146:.\Generated_Source\PSoC4/BLE_HAL_PVT.c ****             for (dstIndex = 0u; dstIndex < CY_FLASH_SIZEOF_ROW; dstIndex++)
 119              		.loc 1 146 0
 120 0058 0133     		add	r3, r3, #1
 121              	.LVL15:
 122 005a 01E0     		b	.L9
 123              	.LVL16:
 124              	.L12:
 125 005c 5B46     		mov	r3, fp
 126              	.LVL17:
 127 005e 0193     		str	r3, [sp, #4]
 128              	.L9:
 129              	.LVL18:
 146:.\Generated_Source\PSoC4/BLE_HAL_PVT.c ****             for (dstIndex = 0u; dstIndex < CY_FLASH_SIZEOF_ROW; dstIndex++)
 130              		.loc 1 146 0 is_stmt 0 discriminator 1
 131 0060 7F2B     		cmp	r3, #127
 132 0062 E5D9     		bls	.L7
 163:.\Generated_Source\PSoC4/BLE_HAL_PVT.c ****             }
 164:.\Generated_Source\PSoC4/BLE_HAL_PVT.c **** 
 165:.\Generated_Source\PSoC4/BLE_HAL_PVT.c ****             if(rowsNotEqual != 0u)
 133              		.loc 1 165 0 is_stmt 1
 134 0064 0199     		ldr	r1, [sp, #4]
 135 0066 0029     		cmp	r1, #0
 136 0068 04D0     		beq	.L8
 166:.\Generated_Source\PSoC4/BLE_HAL_PVT.c ****             {
 167:.\Generated_Source\PSoC4/BLE_HAL_PVT.c ****                 /* Write flash row */
 168:.\Generated_Source\PSoC4/BLE_HAL_PVT.c ****                 rc = CySysFlashWriteRow(rowId, writeBuffer);
 137              		.loc 1 168 0
 138 006a 5046     		mov	r0, r10
 139 006c 02A9     		add	r1, sp, #8
 140 006e FFF7FEFF 		bl	CySysFlashWriteRow
 141              	.LVL19:
 142 0072 8446     		mov	ip, r0
 143              	.LVL20:
 144              	.L8:
 169:.\Generated_Source\PSoC4/BLE_HAL_PVT.c ****             }
 170:.\Generated_Source\PSoC4/BLE_HAL_PVT.c **** 
 171:.\Generated_Source\PSoC4/BLE_HAL_PVT.c ****             /* Go to the next row */
 172:.\Generated_Source\PSoC4/BLE_HAL_PVT.c ****             rowId++;
 145              		.loc 1 172 0
 146 0074 0122     		mov	r2, #1
 147 0076 9244     		add	r10, r10, r2
 148              	.LVL21:
 149              	.L3:
 142:.\Generated_Source\PSoC4/BLE_HAL_PVT.c ****         while ((srcIndex < length) && (CYRET_SUCCESS == rc))
 150              		.loc 1 142 0 discriminator 1
 151 0078 BD42     		cmp	r5, r7
 152 007a 05D2     		bcs	.L2
 142:.\Generated_Source\PSoC4/BLE_HAL_PVT.c ****         while ((srcIndex < length) && (CYRET_SUCCESS == rc))
 153              		.loc 1 142 0 is_stmt 0 discriminator 2
 154 007c 6346     		mov	r3, ip
 155 007e 002B     		cmp	r3, #0
 156 0080 ECD0     		beq	.L12
 157 0082 01E0     		b	.L2
 158              	.LVL22:
 159              	.L11:
ARM GAS  C:\Users\danielpi\AppData\Local\Temp\ccFTAsT0.s 			page 7


 173:.\Generated_Source\PSoC4/BLE_HAL_PVT.c ****         }
 174:.\Generated_Source\PSoC4/BLE_HAL_PVT.c ****     }
 175:.\Generated_Source\PSoC4/BLE_HAL_PVT.c ****     else
 176:.\Generated_Source\PSoC4/BLE_HAL_PVT.c ****     {
 177:.\Generated_Source\PSoC4/BLE_HAL_PVT.c ****         rc = CYRET_BAD_PARAM;
 160              		.loc 1 177 0 is_stmt 1
 161 0084 0121     		mov	r1, #1
 162              	.LVL23:
 163 0086 8C46     		mov	ip, r1
 164              	.LVL24:
 165              	.L2:
 178:.\Generated_Source\PSoC4/BLE_HAL_PVT.c ****     }
 179:.\Generated_Source\PSoC4/BLE_HAL_PVT.c **** 
 180:.\Generated_Source\PSoC4/BLE_HAL_PVT.c ****     /* Mask return codes from flash, if they are not supported */
 181:.\Generated_Source\PSoC4/BLE_HAL_PVT.c ****     if ((CYRET_SUCCESS != rc) && (CYRET_BAD_PARAM != rc))
 166              		.loc 1 181 0
 167 0088 6246     		mov	r2, ip
 168 008a 012A     		cmp	r2, #1
 169 008c 02D9     		bls	.L10
 182:.\Generated_Source\PSoC4/BLE_HAL_PVT.c ****     {
 183:.\Generated_Source\PSoC4/BLE_HAL_PVT.c ****         rc = CYRET_UNKNOWN;
 170              		.loc 1 183 0
 171 008e 0120     		mov	r0, #1
 172 0090 4042     		neg	r0, r0
 173 0092 8446     		mov	ip, r0
 174              	.LVL25:
 175              	.L10:
 184:.\Generated_Source\PSoC4/BLE_HAL_PVT.c ****     }
 185:.\Generated_Source\PSoC4/BLE_HAL_PVT.c ****     
 186:.\Generated_Source\PSoC4/BLE_HAL_PVT.c ****     return (rc);
 187:.\Generated_Source\PSoC4/BLE_HAL_PVT.c **** }
 176              		.loc 1 187 0
 177 0094 6046     		mov	r0, ip
 178 0096 23B0     		add	sp, sp, #140
 179              		@ sp needed
 180              	.LVL26:
 181              	.LVL27:
 182 0098 3CBC     		pop	{r2, r3, r4, r5}
 183 009a 9046     		mov	r8, r2
 184 009c 9946     		mov	r9, r3
 185 009e A246     		mov	r10, r4
 186 00a0 AB46     		mov	fp, r5
 187 00a2 F0BD     		pop	{r4, r5, r6, r7, pc}
 188              	.L15:
 189              		.align	2
 190              	.L14:
 191 00a4 FFFF0100 		.word	131071
 192              		.cfi_endproc
 193              	.LFE2:
 194              		.size	CyBLE_Nvram_Write, .-CyBLE_Nvram_Write
 195              		.section	.text.CyBLE_Nvram_Erase,"ax",%progbits
 196              		.align	2
 197              		.global	CyBLE_Nvram_Erase
 198              		.code	16
 199              		.thumb_func
 200              		.type	CyBLE_Nvram_Erase, %function
 201              	CyBLE_Nvram_Erase:
ARM GAS  C:\Users\danielpi\AppData\Local\Temp\ccFTAsT0.s 			page 8


 202              	.LFB3:
 188:.\Generated_Source\PSoC4/BLE_HAL_PVT.c **** 
 189:.\Generated_Source\PSoC4/BLE_HAL_PVT.c **** /*******************************************************************************
 190:.\Generated_Source\PSoC4/BLE_HAL_PVT.c **** * Function Name: CyBLE_Nvram_Erase
 191:.\Generated_Source\PSoC4/BLE_HAL_PVT.c **** ********************************************************************************
 192:.\Generated_Source\PSoC4/BLE_HAL_PVT.c **** *
 193:.\Generated_Source\PSoC4/BLE_HAL_PVT.c **** * Summary:
 194:.\Generated_Source\PSoC4/BLE_HAL_PVT.c **** *  This API erases the data from the NVRAM store. This API will perform an 
 195:.\Generated_Source\PSoC4/BLE_HAL_PVT.c **** *  address range check based on the length before performing erase operation.
 196:.\Generated_Source\PSoC4/BLE_HAL_PVT.c **** *
 197:.\Generated_Source\PSoC4/BLE_HAL_PVT.c **** * Parameters:
 198:.\Generated_Source\PSoC4/BLE_HAL_PVT.c **** *  const uint8 *varFlash: the pointer to the array or variable in the flash.
 199:.\Generated_Source\PSoC4/BLE_HAL_PVT.c **** *  uint16 length: the length of the data in bytes.
 200:.\Generated_Source\PSoC4/BLE_HAL_PVT.c **** *
 201:.\Generated_Source\PSoC4/BLE_HAL_PVT.c **** * Return:
 202:.\Generated_Source\PSoC4/BLE_HAL_PVT.c **** *  CYRET_SUCCESS    a successful write
 203:.\Generated_Source\PSoC4/BLE_HAL_PVT.c **** *  CYRET_BAD_PARAM  A request to write outside the flash boundary.
 204:.\Generated_Source\PSoC4/BLE_HAL_PVT.c **** *  CYRET_UNKNOWN    Other errors in writing the flash
 205:.\Generated_Source\PSoC4/BLE_HAL_PVT.c **** *
 206:.\Generated_Source\PSoC4/BLE_HAL_PVT.c **** *******************************************************************************/
 207:.\Generated_Source\PSoC4/BLE_HAL_PVT.c **** cystatus CyBLE_Nvram_Erase (const uint8 *varFlash, uint16 length)
 208:.\Generated_Source\PSoC4/BLE_HAL_PVT.c **** {
 203              		.loc 1 208 0
 204              		.cfi_startproc
 205              	.LVL28:
 206 0000 F0B5     		push	{r4, r5, r6, r7, lr}
 207              		.cfi_def_cfa_offset 20
 208              		.cfi_offset 4, -20
 209              		.cfi_offset 5, -16
 210              		.cfi_offset 6, -12
 211              		.cfi_offset 7, -8
 212              		.cfi_offset 14, -4
 213 0002 A1B0     		sub	sp, sp, #132
 214              		.cfi_def_cfa_offset 152
 215 0004 051C     		mov	r5, r0
 216 0006 0C1C     		mov	r4, r1
 209:.\Generated_Source\PSoC4/BLE_HAL_PVT.c ****     const uint8 *tempFlash;
 210:.\Generated_Source\PSoC4/BLE_HAL_PVT.c ****     uint8 flashBuffer[CY_FLASH_SIZEOF_ROW] = {0u};
 217              		.loc 1 210 0
 218 0008 6846     		mov	r0, sp
 219              	.LVL29:
 220 000a 0021     		mov	r1, #0
 221              	.LVL30:
 222 000c 8022     		mov	r2, #128
 223 000e FFF7FEFF 		bl	memset
 224              	.LVL31:
 211:.\Generated_Source\PSoC4/BLE_HAL_PVT.c ****     uint16 lengthFlash;
 212:.\Generated_Source\PSoC4/BLE_HAL_PVT.c ****     uint16 lengthRemaining;
 213:.\Generated_Source\PSoC4/BLE_HAL_PVT.c ****     cystatus rc = CYRET_UNKNOWN;
 225              		.loc 1 213 0
 226 0012 0120     		mov	r0, #1
 227 0014 4042     		neg	r0, r0
 214:.\Generated_Source\PSoC4/BLE_HAL_PVT.c **** 
 215:.\Generated_Source\PSoC4/BLE_HAL_PVT.c ****     tempFlash = varFlash;
 216:.\Generated_Source\PSoC4/BLE_HAL_PVT.c ****     lengthRemaining = length;
 217:.\Generated_Source\PSoC4/BLE_HAL_PVT.c **** 
 218:.\Generated_Source\PSoC4/BLE_HAL_PVT.c ****     while(lengthRemaining > 0u)
ARM GAS  C:\Users\danielpi\AppData\Local\Temp\ccFTAsT0.s 			page 9


 219:.\Generated_Source\PSoC4/BLE_HAL_PVT.c ****     {
 220:.\Generated_Source\PSoC4/BLE_HAL_PVT.c ****         if(lengthRemaining < CY_FLASH_SIZEOF_ROW)
 221:.\Generated_Source\PSoC4/BLE_HAL_PVT.c ****         {
 222:.\Generated_Source\PSoC4/BLE_HAL_PVT.c ****             lengthFlash = lengthRemaining;
 223:.\Generated_Source\PSoC4/BLE_HAL_PVT.c ****         }
 224:.\Generated_Source\PSoC4/BLE_HAL_PVT.c ****         else
 225:.\Generated_Source\PSoC4/BLE_HAL_PVT.c ****         {
 226:.\Generated_Source\PSoC4/BLE_HAL_PVT.c ****             lengthFlash = CY_FLASH_SIZEOF_ROW;
 228              		.loc 1 226 0
 229 0016 8027     		mov	r7, #128
 218:.\Generated_Source\PSoC4/BLE_HAL_PVT.c ****     while(lengthRemaining > 0u)
 230              		.loc 1 218 0
 231 0018 0EE0     		b	.L17
 232              	.LVL32:
 233              	.L20:
 220:.\Generated_Source\PSoC4/BLE_HAL_PVT.c ****         if(lengthRemaining < CY_FLASH_SIZEOF_ROW)
 234              		.loc 1 220 0
 235 001a 7F2C     		cmp	r4, #127
 236 001c 01D9     		bls	.L21
 237              		.loc 1 226 0
 238 001e 3E1C     		mov	r6, r7
 239 0020 00E0     		b	.L18
 240              	.L21:
 222:.\Generated_Source\PSoC4/BLE_HAL_PVT.c ****             lengthFlash = lengthRemaining;
 241              		.loc 1 222 0
 242 0022 261C     		mov	r6, r4
 243              	.L18:
 244              	.LVL33:
 227:.\Generated_Source\PSoC4/BLE_HAL_PVT.c ****         }
 228:.\Generated_Source\PSoC4/BLE_HAL_PVT.c ****         rc = CyBLE_Nvram_Write(flashBuffer, tempFlash, lengthFlash);
 245              		.loc 1 228 0
 246 0024 6846     		mov	r0, sp
 247              	.LVL34:
 248 0026 291C     		mov	r1, r5
 249 0028 321C     		mov	r2, r6
 250 002a FFF7FEFF 		bl	CyBLE_Nvram_Write
 251              	.LVL35:
 229:.\Generated_Source\PSoC4/BLE_HAL_PVT.c ****         if(rc != CYRET_SUCCESS)
 252              		.loc 1 229 0
 253 002e 0028     		cmp	r0, #0
 254 0030 04D1     		bne	.L19
 230:.\Generated_Source\PSoC4/BLE_HAL_PVT.c ****         {
 231:.\Generated_Source\PSoC4/BLE_HAL_PVT.c ****             break;
 232:.\Generated_Source\PSoC4/BLE_HAL_PVT.c ****         }
 233:.\Generated_Source\PSoC4/BLE_HAL_PVT.c ****         tempFlash += CY_FLASH_SIZEOF_ROW;
 255              		.loc 1 233 0
 256 0032 8035     		add	r5, r5, #128
 257              	.LVL36:
 234:.\Generated_Source\PSoC4/BLE_HAL_PVT.c ****         lengthRemaining -= lengthFlash;
 258              		.loc 1 234 0
 259 0034 A41B     		sub	r4, r4, r6
 260              	.LVL37:
 261 0036 A4B2     		uxth	r4, r4
 262              	.LVL38:
 263              	.L17:
 218:.\Generated_Source\PSoC4/BLE_HAL_PVT.c ****     while(lengthRemaining > 0u)
 264              		.loc 1 218 0 discriminator 1
ARM GAS  C:\Users\danielpi\AppData\Local\Temp\ccFTAsT0.s 			page 10


 265 0038 002C     		cmp	r4, #0
 266 003a EED1     		bne	.L20
 267              	.L19:
 235:.\Generated_Source\PSoC4/BLE_HAL_PVT.c ****     }
 236:.\Generated_Source\PSoC4/BLE_HAL_PVT.c **** 
 237:.\Generated_Source\PSoC4/BLE_HAL_PVT.c ****     return rc;
 238:.\Generated_Source\PSoC4/BLE_HAL_PVT.c **** }
 268              		.loc 1 238 0
 269 003c 21B0     		add	sp, sp, #132
 270              		@ sp needed
 271              	.LVL39:
 272              	.LVL40:
 273 003e F0BD     		pop	{r4, r5, r6, r7, pc}
 274              		.cfi_endproc
 275              	.LFE3:
 276              		.size	CyBLE_Nvram_Erase, .-CyBLE_Nvram_Erase
 277              		.section	.text.CyBLE_Bless_LlRegRead,"ax",%progbits
 278              		.align	2
 279              		.global	CyBLE_Bless_LlRegRead
 280              		.code	16
 281              		.thumb_func
 282              		.type	CyBLE_Bless_LlRegRead, %function
 283              	CyBLE_Bless_LlRegRead:
 284              	.LFB4:
 239:.\Generated_Source\PSoC4/BLE_HAL_PVT.c **** 
 240:.\Generated_Source\PSoC4/BLE_HAL_PVT.c **** 
 241:.\Generated_Source\PSoC4/BLE_HAL_PVT.c **** /*******************************************************************************
 242:.\Generated_Source\PSoC4/BLE_HAL_PVT.c **** * Function Name: CyBLE_Bless_LlRegRead
 243:.\Generated_Source\PSoC4/BLE_HAL_PVT.c **** ********************************************************************************
 244:.\Generated_Source\PSoC4/BLE_HAL_PVT.c **** *
 245:.\Generated_Source\PSoC4/BLE_HAL_PVT.c **** * Summary:
 246:.\Generated_Source\PSoC4/BLE_HAL_PVT.c **** *  This API reads the content of the BLESS Link Layer register from the stack.
 247:.\Generated_Source\PSoC4/BLE_HAL_PVT.c **** *
 248:.\Generated_Source\PSoC4/BLE_HAL_PVT.c **** * Parameters:
 249:.\Generated_Source\PSoC4/BLE_HAL_PVT.c **** *  uint32 *blessAddr: the pointer to the BLESS link layer address.
 250:.\Generated_Source\PSoC4/BLE_HAL_PVT.c **** *  uint16 *regValue: the pointer to the buffer space to copy the read value.
 251:.\Generated_Source\PSoC4/BLE_HAL_PVT.c **** *
 252:.\Generated_Source\PSoC4/BLE_HAL_PVT.c **** * Return:
 253:.\Generated_Source\PSoC4/BLE_HAL_PVT.c **** *  None
 254:.\Generated_Source\PSoC4/BLE_HAL_PVT.c **** *
 255:.\Generated_Source\PSoC4/BLE_HAL_PVT.c **** *******************************************************************************/
 256:.\Generated_Source\PSoC4/BLE_HAL_PVT.c **** void CyBLE_Bless_LlRegRead (const reg32 *blessAddr, uint16 *regValue)
 257:.\Generated_Source\PSoC4/BLE_HAL_PVT.c **** {
 285              		.loc 1 257 0
 286              		.cfi_startproc
 287              	.LVL41:
 258:.\Generated_Source\PSoC4/BLE_HAL_PVT.c ****     *regValue = (uint16)CY_GET_REG32(blessAddr);
 288              		.loc 1 258 0
 289 0000 0368     		ldr	r3, [r0]
 290 0002 0B80     		strh	r3, [r1]
 259:.\Generated_Source\PSoC4/BLE_HAL_PVT.c **** }
 291              		.loc 1 259 0
 292              		@ sp needed
 293 0004 7047     		bx	lr
 294              		.cfi_endproc
 295              	.LFE4:
 296              		.size	CyBLE_Bless_LlRegRead, .-CyBLE_Bless_LlRegRead
ARM GAS  C:\Users\danielpi\AppData\Local\Temp\ccFTAsT0.s 			page 11


 297 0006 C046     		.section	.text.CyBLE_Bless_LlRegWrite,"ax",%progbits
 298              		.align	2
 299              		.global	CyBLE_Bless_LlRegWrite
 300              		.code	16
 301              		.thumb_func
 302              		.type	CyBLE_Bless_LlRegWrite, %function
 303              	CyBLE_Bless_LlRegWrite:
 304              	.LFB5:
 260:.\Generated_Source\PSoC4/BLE_HAL_PVT.c **** 
 261:.\Generated_Source\PSoC4/BLE_HAL_PVT.c **** 
 262:.\Generated_Source\PSoC4/BLE_HAL_PVT.c **** /*******************************************************************************
 263:.\Generated_Source\PSoC4/BLE_HAL_PVT.c **** * Function Name: CyBLE_Bless_LlRegWrite
 264:.\Generated_Source\PSoC4/BLE_HAL_PVT.c **** ********************************************************************************
 265:.\Generated_Source\PSoC4/BLE_HAL_PVT.c **** *
 266:.\Generated_Source\PSoC4/BLE_HAL_PVT.c **** * Summary:
 267:.\Generated_Source\PSoC4/BLE_HAL_PVT.c **** *  This API writes to the BLESS Link Layer register from the stack.
 268:.\Generated_Source\PSoC4/BLE_HAL_PVT.c **** *
 269:.\Generated_Source\PSoC4/BLE_HAL_PVT.c **** * Parameters:
 270:.\Generated_Source\PSoC4/BLE_HAL_PVT.c **** *  uint32 *blessAddr: the pointer to the BLESS link layer address.
 271:.\Generated_Source\PSoC4/BLE_HAL_PVT.c **** *  uint16 regValue: the pointer to the value to be written to the BLESS LL reg.
 272:.\Generated_Source\PSoC4/BLE_HAL_PVT.c **** *
 273:.\Generated_Source\PSoC4/BLE_HAL_PVT.c **** * Return:
 274:.\Generated_Source\PSoC4/BLE_HAL_PVT.c **** *  None
 275:.\Generated_Source\PSoC4/BLE_HAL_PVT.c **** *
 276:.\Generated_Source\PSoC4/BLE_HAL_PVT.c **** *******************************************************************************/
 277:.\Generated_Source\PSoC4/BLE_HAL_PVT.c **** void CyBLE_Bless_LlRegWrite (reg32 *blessAddr, const uint16 regValue)
 278:.\Generated_Source\PSoC4/BLE_HAL_PVT.c **** {
 305              		.loc 1 278 0
 306              		.cfi_startproc
 307              	.LVL42:
 279:.\Generated_Source\PSoC4/BLE_HAL_PVT.c ****     CY_SET_REG32(blessAddr, regValue);
 308              		.loc 1 279 0
 309 0000 0160     		str	r1, [r0]
 280:.\Generated_Source\PSoC4/BLE_HAL_PVT.c **** }
 310              		.loc 1 280 0
 311              		@ sp needed
 312 0002 7047     		bx	lr
 313              		.cfi_endproc
 314              	.LFE5:
 315              		.size	CyBLE_Bless_LlRegWrite, .-CyBLE_Bless_LlRegWrite
 316              		.section	.text.CyBLE_Bless_RfRegRead,"ax",%progbits
 317              		.align	2
 318              		.global	CyBLE_Bless_RfRegRead
 319              		.code	16
 320              		.thumb_func
 321              		.type	CyBLE_Bless_RfRegRead, %function
 322              	CyBLE_Bless_RfRegRead:
 323              	.LFB6:
 281:.\Generated_Source\PSoC4/BLE_HAL_PVT.c **** 
 282:.\Generated_Source\PSoC4/BLE_HAL_PVT.c **** 
 283:.\Generated_Source\PSoC4/BLE_HAL_PVT.c **** /*******************************************************************************
 284:.\Generated_Source\PSoC4/BLE_HAL_PVT.c **** * Function Name: CyBLE_Bless_RfRegRead
 285:.\Generated_Source\PSoC4/BLE_HAL_PVT.c **** ********************************************************************************
 286:.\Generated_Source\PSoC4/BLE_HAL_PVT.c **** *
 287:.\Generated_Source\PSoC4/BLE_HAL_PVT.c **** * Summary:
 288:.\Generated_Source\PSoC4/BLE_HAL_PVT.c **** *  This API reads the content of the BLESS RF register from the stack.
 289:.\Generated_Source\PSoC4/BLE_HAL_PVT.c **** *
ARM GAS  C:\Users\danielpi\AppData\Local\Temp\ccFTAsT0.s 			page 12


 290:.\Generated_Source\PSoC4/BLE_HAL_PVT.c **** * Parameters:
 291:.\Generated_Source\PSoC4/BLE_HAL_PVT.c **** *  uint32 *blessAddr: the pointer to BLESS RF register address.
 292:.\Generated_Source\PSoC4/BLE_HAL_PVT.c **** *  uint16 *regValue: the pointer to the buffer space to copy the read value.
 293:.\Generated_Source\PSoC4/BLE_HAL_PVT.c **** *
 294:.\Generated_Source\PSoC4/BLE_HAL_PVT.c **** * Return:
 295:.\Generated_Source\PSoC4/BLE_HAL_PVT.c **** *  None
 296:.\Generated_Source\PSoC4/BLE_HAL_PVT.c **** *
 297:.\Generated_Source\PSoC4/BLE_HAL_PVT.c **** *******************************************************************************/
 298:.\Generated_Source\PSoC4/BLE_HAL_PVT.c **** void CyBLE_Bless_RfRegRead (const reg32 *blessAddr, uint16 *regValue)
 299:.\Generated_Source\PSoC4/BLE_HAL_PVT.c **** {
 324              		.loc 1 299 0
 325              		.cfi_startproc
 326              	.LVL43:
 300:.\Generated_Source\PSoC4/BLE_HAL_PVT.c ****     *regValue = (uint16)CY_GET_REG32(blessAddr);
 327              		.loc 1 300 0
 328 0000 0368     		ldr	r3, [r0]
 329 0002 0B80     		strh	r3, [r1]
 301:.\Generated_Source\PSoC4/BLE_HAL_PVT.c **** }
 330              		.loc 1 301 0
 331              		@ sp needed
 332 0004 7047     		bx	lr
 333              		.cfi_endproc
 334              	.LFE6:
 335              		.size	CyBLE_Bless_RfRegRead, .-CyBLE_Bless_RfRegRead
 336 0006 C046     		.section	.text.CyBLE_Bless_RfRegWrite,"ax",%progbits
 337              		.align	2
 338              		.global	CyBLE_Bless_RfRegWrite
 339              		.code	16
 340              		.thumb_func
 341              		.type	CyBLE_Bless_RfRegWrite, %function
 342              	CyBLE_Bless_RfRegWrite:
 343              	.LFB7:
 302:.\Generated_Source\PSoC4/BLE_HAL_PVT.c **** 
 303:.\Generated_Source\PSoC4/BLE_HAL_PVT.c **** 
 304:.\Generated_Source\PSoC4/BLE_HAL_PVT.c **** /*******************************************************************************
 305:.\Generated_Source\PSoC4/BLE_HAL_PVT.c **** * Function Name: CyBLE_Bless_RfRegWrite
 306:.\Generated_Source\PSoC4/BLE_HAL_PVT.c **** ********************************************************************************
 307:.\Generated_Source\PSoC4/BLE_HAL_PVT.c **** *
 308:.\Generated_Source\PSoC4/BLE_HAL_PVT.c **** * Summary:
 309:.\Generated_Source\PSoC4/BLE_HAL_PVT.c **** *  This API writes to the BLESS RF register from the stack.
 310:.\Generated_Source\PSoC4/BLE_HAL_PVT.c **** *
 311:.\Generated_Source\PSoC4/BLE_HAL_PVT.c **** * Parameters:
 312:.\Generated_Source\PSoC4/BLE_HAL_PVT.c **** *  uint32 *blessAddr: the pointer to the BLESS RF address.
 313:.\Generated_Source\PSoC4/BLE_HAL_PVT.c **** *  uint16 regValue: the pointer to the value to be written to the BLESS RF reg.
 314:.\Generated_Source\PSoC4/BLE_HAL_PVT.c **** *
 315:.\Generated_Source\PSoC4/BLE_HAL_PVT.c **** * Return:
 316:.\Generated_Source\PSoC4/BLE_HAL_PVT.c **** *  None
 317:.\Generated_Source\PSoC4/BLE_HAL_PVT.c **** *
 318:.\Generated_Source\PSoC4/BLE_HAL_PVT.c **** *******************************************************************************/
 319:.\Generated_Source\PSoC4/BLE_HAL_PVT.c **** void CyBLE_Bless_RfRegWrite (reg32 *blessAddr, const uint16 regValue)
 320:.\Generated_Source\PSoC4/BLE_HAL_PVT.c **** {
 344              		.loc 1 320 0
 345              		.cfi_startproc
 346              	.LVL44:
 321:.\Generated_Source\PSoC4/BLE_HAL_PVT.c ****      CY_SET_REG32(blessAddr, regValue);
 347              		.loc 1 321 0
 348 0000 0160     		str	r1, [r0]
ARM GAS  C:\Users\danielpi\AppData\Local\Temp\ccFTAsT0.s 			page 13


 322:.\Generated_Source\PSoC4/BLE_HAL_PVT.c **** }
 349              		.loc 1 322 0
 350              		@ sp needed
 351 0002 7047     		bx	lr
 352              		.cfi_endproc
 353              	.LFE7:
 354              		.size	CyBLE_Bless_RfRegWrite, .-CyBLE_Bless_RfRegWrite
 355              		.section	.text.CyBLE_BlessDeviceConfig,"ax",%progbits
 356              		.align	2
 357              		.global	CyBLE_BlessDeviceConfig
 358              		.code	16
 359              		.thumb_func
 360              		.type	CyBLE_BlessDeviceConfig, %function
 361              	CyBLE_BlessDeviceConfig:
 362              	.LFB8:
 323:.\Generated_Source\PSoC4/BLE_HAL_PVT.c **** 
 324:.\Generated_Source\PSoC4/BLE_HAL_PVT.c **** 
 325:.\Generated_Source\PSoC4/BLE_HAL_PVT.c **** void CyBLE_BlessDeviceConfig(void)
 326:.\Generated_Source\PSoC4/BLE_HAL_PVT.c **** {
 363              		.loc 1 326 0
 364              		.cfi_startproc
 327:.\Generated_Source\PSoC4/BLE_HAL_PVT.c ****     uint32 trimRegValue;
 328:.\Generated_Source\PSoC4/BLE_HAL_PVT.c ****     uint32 ldo;
 329:.\Generated_Source\PSoC4/BLE_HAL_PVT.c **** 
 330:.\Generated_Source\PSoC4/BLE_HAL_PVT.c ****     trimRegValue = ((uint32)CYBLE_SFLASH_BLESS_BB_BUMP2_HIGH_REG << 8u) | CYBLE_SFLASH_BLESS_BB_BUM
 365              		.loc 1 330 0
 366 0000 244B     		ldr	r3, .L38
 367 0002 1A78     		ldrb	r2, [r3]
 368 0004 1202     		lsl	r2, r2, #8
 369 0006 244B     		ldr	r3, .L38+4
 370 0008 1B78     		ldrb	r3, [r3]
 371 000a 1A43     		orr	r2, r3
 372              	.LVL45:
 331:.\Generated_Source\PSoC4/BLE_HAL_PVT.c ****     ldo = ((uint32)CYBLE_SFLASH_BLESS_LDO_HIGH_REG << 8u) | CYBLE_SFLASH_BLESS_LDO_LOW_REG;
 373              		.loc 1 331 0
 374 000c 234B     		ldr	r3, .L38+8
 375 000e 1B78     		ldrb	r3, [r3]
 376 0010 1B02     		lsl	r3, r3, #8
 377 0012 2349     		ldr	r1, .L38+12
 378 0014 0978     		ldrb	r1, [r1]
 379 0016 0B43     		orr	r3, r1
 380              	.LVL46:
 332:.\Generated_Source\PSoC4/BLE_HAL_PVT.c **** 
 333:.\Generated_Source\PSoC4/BLE_HAL_PVT.c ****     if ((ldo == CYBLE_SFLASH_BLERD_LDO_REG_VAL1) && (trimRegValue == CYBLE_SFLASH_BLERD_BB_BUMP2_RE
 381              		.loc 1 333 0
 382 0018 2249     		ldr	r1, .L38+16
 383 001a 8B42     		cmp	r3, r1
 384 001c 01D1     		bne	.L27
 385              		.loc 1 333 0 is_stmt 0 discriminator 1
 386 001e 072A     		cmp	r2, #7
 387 0020 06D0     		beq	.L31
 388              	.L27:
 334:.\Generated_Source\PSoC4/BLE_HAL_PVT.c ****     {
 335:.\Generated_Source\PSoC4/BLE_HAL_PVT.c ****         ldo = CYBLE_BLERD_LDO_REG_VAL_FINAL;
 336:.\Generated_Source\PSoC4/BLE_HAL_PVT.c ****         trimRegValue = CYBLE_BLERD_BB_BUMP2_REG_VAL_FINAL;
 337:.\Generated_Source\PSoC4/BLE_HAL_PVT.c ****     }
 338:.\Generated_Source\PSoC4/BLE_HAL_PVT.c ****     else if ((ldo == CYBLE_SFLASH_BLERD_LDO_REG_VAL2) && (trimRegValue == CYBLE_BLERD_BB_BUMP2_REG_
ARM GAS  C:\Users\danielpi\AppData\Local\Temp\ccFTAsT0.s 			page 14


 389              		.loc 1 338 0 is_stmt 1
 390 0022 D421     		mov	r1, #212
 391 0024 0901     		lsl	r1, r1, #4
 392 0026 8B42     		cmp	r3, r1
 393 0028 06D1     		bne	.L28
 394              		.loc 1 338 0 is_stmt 0 discriminator 1
 395 002a 042A     		cmp	r2, #4
 396 002c 04D1     		bne	.L28
 397 002e 02E0     		b	.L32
 398              	.L31:
 335:.\Generated_Source\PSoC4/BLE_HAL_PVT.c ****         ldo = CYBLE_BLERD_LDO_REG_VAL_FINAL;
 399              		.loc 1 335 0 is_stmt 1
 400 0030 1D4B     		ldr	r3, .L38+20
 401              	.LVL47:
 336:.\Generated_Source\PSoC4/BLE_HAL_PVT.c ****         trimRegValue = CYBLE_BLERD_BB_BUMP2_REG_VAL_FINAL;
 402              		.loc 1 336 0
 403 0032 0422     		mov	r2, #4
 404              	.LVL48:
 405 0034 00E0     		b	.L28
 406              	.LVL49:
 407              	.L32:
 339:.\Generated_Source\PSoC4/BLE_HAL_PVT.c ****     {
 340:.\Generated_Source\PSoC4/BLE_HAL_PVT.c ****         ldo = CYBLE_BLERD_LDO_REG_VAL_FINAL;
 408              		.loc 1 340 0
 409 0036 1C4B     		ldr	r3, .L38+20
 410              	.LVL50:
 411              	.L28:
 341:.\Generated_Source\PSoC4/BLE_HAL_PVT.c ****     }
 342:.\Generated_Source\PSoC4/BLE_HAL_PVT.c ****     else
 343:.\Generated_Source\PSoC4/BLE_HAL_PVT.c ****     {
 344:.\Generated_Source\PSoC4/BLE_HAL_PVT.c ****     }
 345:.\Generated_Source\PSoC4/BLE_HAL_PVT.c **** 
 346:.\Generated_Source\PSoC4/BLE_HAL_PVT.c ****     CYBLE_BLE_BLERD_LDO_REG = ldo;
 412              		.loc 1 346 0
 413 0038 1C49     		ldr	r1, .L38+24
 414 003a 0B60     		str	r3, [r1]
 347:.\Generated_Source\PSoC4/BLE_HAL_PVT.c ****     CYBLE_BLE_BLERD_BB_BUMP2_REG = trimRegValue;
 415              		.loc 1 347 0
 416 003c 1C4B     		ldr	r3, .L38+28
 417              	.LVL51:
 418 003e 1A60     		str	r2, [r3]
 419              	.LVL52:
 348:.\Generated_Source\PSoC4/BLE_HAL_PVT.c **** 
 349:.\Generated_Source\PSoC4/BLE_HAL_PVT.c ****     /* Edit only XTAL fast charge bit */
 350:.\Generated_Source\PSoC4/BLE_HAL_PVT.c ****     trimRegValue = ((uint32)CYBLE_SFLASH_BLESS_BB_XO_HIGH_REG << 8u) | CYBLE_SFLASH_BLESS_BB_XO_LOW
 420              		.loc 1 350 0
 421 0040 1C4B     		ldr	r3, .L38+32
 422 0042 1B78     		ldrb	r3, [r3]
 423 0044 1B02     		lsl	r3, r3, #8
 424 0046 1C4A     		ldr	r2, .L38+36
 425              	.LVL53:
 426 0048 1278     		ldrb	r2, [r2]
 427 004a 1343     		orr	r3, r2
 428              	.LVL54:
 351:.\Generated_Source\PSoC4/BLE_HAL_PVT.c **** 
 352:.\Generated_Source\PSoC4/BLE_HAL_PVT.c ****     if ((trimRegValue == CYBLE_SFLASH_BLERD_BB_XO_REG_VAL1) || (trimRegValue == CYBLE_SFLASH_BLERD_
 429              		.loc 1 352 0
ARM GAS  C:\Users\danielpi\AppData\Local\Temp\ccFTAsT0.s 			page 15


 430 004c 8022     		mov	r2, #128
 431 004e 9201     		lsl	r2, r2, #6
 432 0050 9342     		cmp	r3, r2
 433 0052 02D0     		beq	.L33
 434              		.loc 1 352 0 is_stmt 0 discriminator 1
 435 0054 002B     		cmp	r3, #0
 436 0056 02D0     		beq	.L34
 437 0058 02E0     		b	.L29
 438              	.L33:
 353:.\Generated_Source\PSoC4/BLE_HAL_PVT.c ****     {
 354:.\Generated_Source\PSoC4/BLE_HAL_PVT.c ****         trimRegValue = CYBLE_BLERD_BB_XO_REG_VAL_FINAL;
 439              		.loc 1 354 0 is_stmt 1
 440 005a 184B     		ldr	r3, .L38+40
 441              	.LVL55:
 442 005c 00E0     		b	.L29
 443              	.LVL56:
 444              	.L34:
 445 005e 174B     		ldr	r3, .L38+40
 446              	.LVL57:
 447              	.L29:
 355:.\Generated_Source\PSoC4/BLE_HAL_PVT.c ****     }
 356:.\Generated_Source\PSoC4/BLE_HAL_PVT.c ****     
 357:.\Generated_Source\PSoC4/BLE_HAL_PVT.c ****     CYBLE_BLE_BLERD_BB_XO_REG = trimRegValue;
 448              		.loc 1 357 0
 449 0060 174A     		ldr	r2, .L38+44
 450 0062 1360     		str	r3, [r2]
 358:.\Generated_Source\PSoC4/BLE_HAL_PVT.c ****     
 359:.\Generated_Source\PSoC4/BLE_HAL_PVT.c ****     trimRegValue = ((uint32)CYBLE_SFLASH_BLESS_SY_BUMP1_HIGH_REG << 8u) | CYBLE_SFLASH_BLESS_SY_BUM
 451              		.loc 1 359 0
 452 0064 174B     		ldr	r3, .L38+48
 453              	.LVL58:
 454 0066 1B78     		ldrb	r3, [r3]
 455 0068 1B02     		lsl	r3, r3, #8
 456 006a 174A     		ldr	r2, .L38+52
 457              	.LVL59:
 458 006c 1278     		ldrb	r2, [r2]
 459 006e 1343     		orr	r3, r2
 460              	.LVL60:
 360:.\Generated_Source\PSoC4/BLE_HAL_PVT.c **** 
 361:.\Generated_Source\PSoC4/BLE_HAL_PVT.c ****     if ((trimRegValue == CYBLE_SFLASH_BLERD_SY_BUMP1_REG_VAL1) || 
 461              		.loc 1 361 0
 462 0070 164A     		ldr	r2, .L38+56
 463 0072 9342     		cmp	r3, r2
 464 0074 05D0     		beq	.L35
 465              		.loc 1 361 0 is_stmt 0 discriminator 1
 466 0076 164A     		ldr	r2, .L38+60
 467 0078 9342     		cmp	r3, r2
 468 007a 04D0     		beq	.L36
 362:.\Generated_Source\PSoC4/BLE_HAL_PVT.c ****         (trimRegValue == CYBLE_SFLASH_BLERD_SY_BUMP1_REG_VAL2) ||  
 469              		.loc 1 362 0 is_stmt 1
 470 007c 052B     		cmp	r3, #5
 471 007e 05D1     		bne	.L30
 472 0080 03E0     		b	.L37
 473              	.L35:
 363:.\Generated_Source\PSoC4/BLE_HAL_PVT.c ****         (trimRegValue == CYBLE_SFLASH_BLERD_SY_BUMP1_REG_VAL3))
 364:.\Generated_Source\PSoC4/BLE_HAL_PVT.c ****     {
 365:.\Generated_Source\PSoC4/BLE_HAL_PVT.c ****         trimRegValue = CYBLE_BLERD_SY_BUMP1_REG_VAL_FINAL;
ARM GAS  C:\Users\danielpi\AppData\Local\Temp\ccFTAsT0.s 			page 16


 474              		.loc 1 365 0
 475 0082 144B     		ldr	r3, .L38+64
 476              	.LVL61:
 477 0084 02E0     		b	.L30
 478              	.LVL62:
 479              	.L36:
 480 0086 134B     		ldr	r3, .L38+64
 481              	.LVL63:
 482 0088 00E0     		b	.L30
 483              	.LVL64:
 484              	.L37:
 485 008a 124B     		ldr	r3, .L38+64
 486              	.LVL65:
 487              	.L30:
 366:.\Generated_Source\PSoC4/BLE_HAL_PVT.c ****     }
 367:.\Generated_Source\PSoC4/BLE_HAL_PVT.c ****     CYBLE_BLE_BLERD_SY_BUMP1_REG = trimRegValue;
 488              		.loc 1 367 0
 489 008c 124A     		ldr	r2, .L38+68
 490 008e 1360     		str	r3, [r2]
 368:.\Generated_Source\PSoC4/BLE_HAL_PVT.c ****       
 369:.\Generated_Source\PSoC4/BLE_HAL_PVT.c **** }
 491              		.loc 1 369 0
 492              		@ sp needed
 493 0090 7047     		bx	lr
 494              	.L39:
 495 0092 C046     		.align	2
 496              	.L38:
 497 0094 D9F0FF0F 		.word	268431577
 498 0098 D8F0FF0F 		.word	268431576
 499 009c DFF0FF0F 		.word	268431583
 500 00a0 DEF0FF0F 		.word	268431582
 501 00a4 580B0000 		.word	2904
 502 00a8 580D0000 		.word	3416
 503 00ac 6C002E40 		.word	1076756588
 504 00b0 74002E40 		.word	1076756596
 505 00b4 DBF0FF0F 		.word	268431579
 506 00b8 DAF0FF0F 		.word	268431578
 507 00bc 02200000 		.word	8194
 508 00c0 78002E40 		.word	1076756600
 509 00c4 DDF0FF0F 		.word	268431581
 510 00c8 DCF0FF0F 		.word	268431580
 511 00cc 0F0F0000 		.word	3855
 512 00d0 05050000 		.word	1285
 513 00d4 050F0000 		.word	3845
 514 00d8 80002E40 		.word	1076756608
 515              		.cfi_endproc
 516              	.LFE8:
 517              		.size	CyBLE_BlessDeviceConfig, .-CyBLE_BlessDeviceConfig
 518              		.section	.text.CyBleHal_DelayUs,"ax",%progbits
 519              		.align	2
 520              		.global	CyBleHal_DelayUs
 521              		.code	16
 522              		.thumb_func
 523              		.type	CyBleHal_DelayUs, %function
 524              	CyBleHal_DelayUs:
 525              	.LFB9:
 370:.\Generated_Source\PSoC4/BLE_HAL_PVT.c **** 
ARM GAS  C:\Users\danielpi\AppData\Local\Temp\ccFTAsT0.s 			page 17


 371:.\Generated_Source\PSoC4/BLE_HAL_PVT.c **** 
 372:.\Generated_Source\PSoC4/BLE_HAL_PVT.c **** void CyBleHal_DelayUs(uint16 delayVal)
 373:.\Generated_Source\PSoC4/BLE_HAL_PVT.c **** {
 526              		.loc 1 373 0
 527              		.cfi_startproc
 528              	.LVL66:
 529 0000 08B5     		push	{r3, lr}
 530              		.cfi_def_cfa_offset 8
 531              		.cfi_offset 3, -8
 532              		.cfi_offset 14, -4
 374:.\Generated_Source\PSoC4/BLE_HAL_PVT.c ****     CyDelayUs(delayVal);
 533              		.loc 1 374 0
 534 0002 FFF7FEFF 		bl	CyDelayUs
 535              	.LVL67:
 375:.\Generated_Source\PSoC4/BLE_HAL_PVT.c **** }
 536              		.loc 1 375 0
 537              		@ sp needed
 538 0006 08BD     		pop	{r3, pc}
 539              		.cfi_endproc
 540              	.LFE9:
 541              		.size	CyBleHal_DelayUs, .-CyBleHal_DelayUs
 542              		.section	.text.CyBleHal_DelayMs,"ax",%progbits
 543              		.align	2
 544              		.global	CyBleHal_DelayMs
 545              		.code	16
 546              		.thumb_func
 547              		.type	CyBleHal_DelayMs, %function
 548              	CyBleHal_DelayMs:
 549              	.LFB10:
 376:.\Generated_Source\PSoC4/BLE_HAL_PVT.c **** 
 377:.\Generated_Source\PSoC4/BLE_HAL_PVT.c **** void CyBleHal_DelayMs(uint32 delayVal)
 378:.\Generated_Source\PSoC4/BLE_HAL_PVT.c **** {
 550              		.loc 1 378 0
 551              		.cfi_startproc
 552              	.LVL68:
 553 0000 08B5     		push	{r3, lr}
 554              		.cfi_def_cfa_offset 8
 555              		.cfi_offset 3, -8
 556              		.cfi_offset 14, -4
 379:.\Generated_Source\PSoC4/BLE_HAL_PVT.c ****     CyDelay(delayVal);
 557              		.loc 1 379 0
 558 0002 FFF7FEFF 		bl	CyDelay
 559              	.LVL69:
 380:.\Generated_Source\PSoC4/BLE_HAL_PVT.c **** }
 560              		.loc 1 380 0
 561              		@ sp needed
 562 0006 08BD     		pop	{r3, pc}
 563              		.cfi_endproc
 564              	.LFE10:
 565              		.size	CyBleHal_DelayMs, .-CyBleHal_DelayMs
 566              		.section	.text.CyBleHal_EnableGlobalInterrupts,"ax",%progbits
 567              		.align	2
 568              		.global	CyBleHal_EnableGlobalInterrupts
 569              		.code	16
 570              		.thumb_func
 571              		.type	CyBleHal_EnableGlobalInterrupts, %function
 572              	CyBleHal_EnableGlobalInterrupts:
ARM GAS  C:\Users\danielpi\AppData\Local\Temp\ccFTAsT0.s 			page 18


 573              	.LFB11:
 381:.\Generated_Source\PSoC4/BLE_HAL_PVT.c **** 
 382:.\Generated_Source\PSoC4/BLE_HAL_PVT.c **** void CyBleHal_EnableGlobalInterrupts(void)
 383:.\Generated_Source\PSoC4/BLE_HAL_PVT.c **** {
 574              		.loc 1 383 0
 575              		.cfi_startproc
 576 0000 08B5     		push	{r3, lr}
 577              		.cfi_def_cfa_offset 8
 578              		.cfi_offset 3, -8
 579              		.cfi_offset 14, -4
 384:.\Generated_Source\PSoC4/BLE_HAL_PVT.c ****     BLE_bless_isr_Enable();
 580              		.loc 1 384 0
 581 0002 FFF7FEFF 		bl	BLE_bless_isr_Enable
 582              	.LVL70:
 385:.\Generated_Source\PSoC4/BLE_HAL_PVT.c **** }
 583              		.loc 1 385 0
 584              		@ sp needed
 585 0006 08BD     		pop	{r3, pc}
 586              		.cfi_endproc
 587              	.LFE11:
 588              		.size	CyBleHal_EnableGlobalInterrupts, .-CyBleHal_EnableGlobalInterrupts
 589              		.section	.text.CyBleHal_DisableGlobalInterrupts,"ax",%progbits
 590              		.align	2
 591              		.global	CyBleHal_DisableGlobalInterrupts
 592              		.code	16
 593              		.thumb_func
 594              		.type	CyBleHal_DisableGlobalInterrupts, %function
 595              	CyBleHal_DisableGlobalInterrupts:
 596              	.LFB12:
 386:.\Generated_Source\PSoC4/BLE_HAL_PVT.c **** 
 387:.\Generated_Source\PSoC4/BLE_HAL_PVT.c **** void CyBleHal_DisableGlobalInterrupts(void)
 388:.\Generated_Source\PSoC4/BLE_HAL_PVT.c **** {
 597              		.loc 1 388 0
 598              		.cfi_startproc
 599 0000 08B5     		push	{r3, lr}
 600              		.cfi_def_cfa_offset 8
 601              		.cfi_offset 3, -8
 602              		.cfi_offset 14, -4
 389:.\Generated_Source\PSoC4/BLE_HAL_PVT.c ****     BLE_bless_isr_Disable();
 603              		.loc 1 389 0
 604 0002 FFF7FEFF 		bl	BLE_bless_isr_Disable
 605              	.LVL71:
 390:.\Generated_Source\PSoC4/BLE_HAL_PVT.c **** }
 606              		.loc 1 390 0
 607              		@ sp needed
 608 0006 08BD     		pop	{r3, pc}
 609              		.cfi_endproc
 610              	.LFE12:
 611              		.size	CyBleHal_DisableGlobalInterrupts, .-CyBleHal_DisableGlobalInterrupts
 612              		.section	.text.CyBle_HalInit,"ax",%progbits
 613              		.align	2
 614              		.global	CyBle_HalInit
 615              		.code	16
 616              		.thumb_func
 617              		.type	CyBle_HalInit, %function
 618              	CyBle_HalInit:
 619              	.LFB13:
ARM GAS  C:\Users\danielpi\AppData\Local\Temp\ccFTAsT0.s 			page 19


 391:.\Generated_Source\PSoC4/BLE_HAL_PVT.c **** 
 392:.\Generated_Source\PSoC4/BLE_HAL_PVT.c **** void CyBle_HalInit(void)
 393:.\Generated_Source\PSoC4/BLE_HAL_PVT.c **** {
 620              		.loc 1 393 0
 621              		.cfi_startproc
 622 0000 08B5     		push	{r3, lr}
 623              		.cfi_def_cfa_offset 8
 624              		.cfi_offset 3, -8
 625              		.cfi_offset 14, -4
 394:.\Generated_Source\PSoC4/BLE_HAL_PVT.c ****     /* For all we know the interrupt is active. */
 395:.\Generated_Source\PSoC4/BLE_HAL_PVT.c ****     BLE_bless_isr_Disable();
 626              		.loc 1 395 0
 627 0002 FFF7FEFF 		bl	BLE_bless_isr_Disable
 628              	.LVL72:
 396:.\Generated_Source\PSoC4/BLE_HAL_PVT.c **** 
 397:.\Generated_Source\PSoC4/BLE_HAL_PVT.c ****     /* Set the ISR to point to the BLE_bless_isr Interrupt. */
 398:.\Generated_Source\PSoC4/BLE_HAL_PVT.c ****     BLE_bless_isr_SetVector(&CyBLE_Bless_Interrupt);
 629              		.loc 1 398 0
 630 0006 0348     		ldr	r0, .L45
 631 0008 FFF7FEFF 		bl	BLE_bless_isr_SetVector
 632              	.LVL73:
 399:.\Generated_Source\PSoC4/BLE_HAL_PVT.c **** 
 400:.\Generated_Source\PSoC4/BLE_HAL_PVT.c ****     /* Set the priority. */
 401:.\Generated_Source\PSoC4/BLE_HAL_PVT.c ****     BLE_bless_isr_SetPriority((uint8)BLE_bless_isr_INTC_PRIOR_NUMBER);
 633              		.loc 1 401 0
 634 000c 0320     		mov	r0, #3
 635 000e FFF7FEFF 		bl	BLE_bless_isr_SetPriority
 636              	.LVL74:
 402:.\Generated_Source\PSoC4/BLE_HAL_PVT.c **** }
 637              		.loc 1 402 0
 638              		@ sp needed
 639 0012 08BD     		pop	{r3, pc}
 640              	.L46:
 641              		.align	2
 642              	.L45:
 643 0014 00000000 		.word	CyBLE_Bless_Interrupt
 644              		.cfi_endproc
 645              	.LFE13:
 646              		.size	CyBle_HalInit, .-CyBle_HalInit
 647              		.section	.text.CYBLE_BlessStart,"ax",%progbits
 648              		.align	2
 649              		.global	CYBLE_BlessStart
 650              		.code	16
 651              		.thumb_func
 652              		.type	CYBLE_BlessStart, %function
 653              	CYBLE_BlessStart:
 654              	.LFB14:
 403:.\Generated_Source\PSoC4/BLE_HAL_PVT.c **** 
 404:.\Generated_Source\PSoC4/BLE_HAL_PVT.c **** /* Start Interrupt Controller API. */
 405:.\Generated_Source\PSoC4/BLE_HAL_PVT.c **** void CYBLE_BlessStart(void)
 406:.\Generated_Source\PSoC4/BLE_HAL_PVT.c **** {
 655              		.loc 1 406 0
 656              		.cfi_startproc
 657 0000 08B5     		push	{r3, lr}
 658              		.cfi_def_cfa_offset 8
 659              		.cfi_offset 3, -8
 660              		.cfi_offset 14, -4
ARM GAS  C:\Users\danielpi\AppData\Local\Temp\ccFTAsT0.s 			page 20


 407:.\Generated_Source\PSoC4/BLE_HAL_PVT.c ****     BLE_bless_isr_StartEx(&CyBLE_Bless_Interrupt);
 661              		.loc 1 407 0
 662 0002 0248     		ldr	r0, .L48
 663 0004 FFF7FEFF 		bl	BLE_bless_isr_StartEx
 664              	.LVL75:
 408:.\Generated_Source\PSoC4/BLE_HAL_PVT.c **** }
 665              		.loc 1 408 0
 666              		@ sp needed
 667 0008 08BD     		pop	{r3, pc}
 668              	.L49:
 669 000a C046     		.align	2
 670              	.L48:
 671 000c 00000000 		.word	CyBLE_Bless_Interrupt
 672              		.cfi_endproc
 673              	.LFE14:
 674              		.size	CYBLE_BlessStart, .-CYBLE_BlessStart
 675              		.text
 676              	.Letext0:
 677              		.file 2 ".\\Generated_Source\\PSoC4\\cytypes.h"
 678              		.file 3 ".\\Generated_Source\\PSoC4\\CyLib.h"
 679              		.file 4 ".\\Generated_Source\\PSoC4\\BLE_bless_isr.h"
 680              		.file 5 ".\\Generated_Source\\PSoC4\\CyFlash.h"