ARM GAS  C:\Users\danielpi\AppData\Local\Temp\ccmz4WAf.s 			page 1


   1              		.cpu cortex-m0
   2              		.fpu softvfp
   3              		.eabi_attribute 20, 1
   4              		.eabi_attribute 21, 1
   5              		.eabi_attribute 23, 3
   6              		.eabi_attribute 24, 1
   7              		.eabi_attribute 25, 1
   8              		.eabi_attribute 26, 1
   9              		.eabi_attribute 30, 1
  10              		.eabi_attribute 34, 0
  11              		.eabi_attribute 18, 4
  12              		.code	16
  13              		.file	"BLE_ias.c"
  14              		.text
  15              	.Ltext0:
  16              		.cfi_sections	.debug_frame
  17              		.section	.text.CyBle_IasInit,"ax",%progbits
  18              		.align	2
  19              		.global	CyBle_IasInit
  20              		.code	16
  21              		.thumb_func
  22              		.type	CyBle_IasInit, %function
  23              	CyBle_IasInit:
  24              	.LFB2:
  25              		.file 1 ".\\Generated_Source\\PSoC4\\BLE_ias.c"
   1:.\Generated_Source\PSoC4/BLE_ias.c **** /*******************************************************************************
   2:.\Generated_Source\PSoC4/BLE_ias.c **** File Name: CYBLE_ias.c
   3:.\Generated_Source\PSoC4/BLE_ias.c **** Version 2.0
   4:.\Generated_Source\PSoC4/BLE_ias.c **** 
   5:.\Generated_Source\PSoC4/BLE_ias.c **** Description:
   6:.\Generated_Source\PSoC4/BLE_ias.c ****  This file contains the source code for the Immediate Alert Service of the BLE
   7:.\Generated_Source\PSoC4/BLE_ias.c ****  Component.
   8:.\Generated_Source\PSoC4/BLE_ias.c **** 
   9:.\Generated_Source\PSoC4/BLE_ias.c **** ********************************************************************************
  10:.\Generated_Source\PSoC4/BLE_ias.c **** Copyright 2014-2015, Cypress Semiconductor Corporation.  All rights reserved.
  11:.\Generated_Source\PSoC4/BLE_ias.c **** You may use this file only in accordance with the license, terms, conditions,
  12:.\Generated_Source\PSoC4/BLE_ias.c **** disclaimers, and limitations in the end user license agreement accompanying
  13:.\Generated_Source\PSoC4/BLE_ias.c **** the software package with which this file was provided.
  14:.\Generated_Source\PSoC4/BLE_ias.c **** *******************************************************************************/
  15:.\Generated_Source\PSoC4/BLE_ias.c **** 
  16:.\Generated_Source\PSoC4/BLE_ias.c **** 
  17:.\Generated_Source\PSoC4/BLE_ias.c **** #include "BLE_eventHandler.h"
  18:.\Generated_Source\PSoC4/BLE_ias.c **** 
  19:.\Generated_Source\PSoC4/BLE_ias.c **** 
  20:.\Generated_Source\PSoC4/BLE_ias.c **** #ifdef CYBLE_IAS_SERVER
  21:.\Generated_Source\PSoC4/BLE_ias.c **** 
  22:.\Generated_Source\PSoC4/BLE_ias.c **** static CYBLE_CALLBACK_T CyBle_IasApplCallback = NULL;
  23:.\Generated_Source\PSoC4/BLE_ias.c **** 
  24:.\Generated_Source\PSoC4/BLE_ias.c **** #endif /* CYBLE_IAS_SERVER */
  25:.\Generated_Source\PSoC4/BLE_ias.c **** 
  26:.\Generated_Source\PSoC4/BLE_ias.c **** #ifdef CYBLE_IAS_SERVER
  27:.\Generated_Source\PSoC4/BLE_ias.c **** 
  28:.\Generated_Source\PSoC4/BLE_ias.c **** const CYBLE_IASS_T cyBle_iass =
  29:.\Generated_Source\PSoC4/BLE_ias.c **** {
  30:.\Generated_Source\PSoC4/BLE_ias.c ****     0x000Cu,    /* Handle of the IAS service */
  31:.\Generated_Source\PSoC4/BLE_ias.c ****     0x000Eu,    /* Handle of the Alert Level characteristic */
  32:.\Generated_Source\PSoC4/BLE_ias.c **** };
ARM GAS  C:\Users\danielpi\AppData\Local\Temp\ccmz4WAf.s 			page 2


  33:.\Generated_Source\PSoC4/BLE_ias.c **** 
  34:.\Generated_Source\PSoC4/BLE_ias.c **** #endif /* (CYBLE_IAS_SERVER) */
  35:.\Generated_Source\PSoC4/BLE_ias.c **** 
  36:.\Generated_Source\PSoC4/BLE_ias.c **** #ifdef CYBLE_IAS_CLIENT
  37:.\Generated_Source\PSoC4/BLE_ias.c **** 
  38:.\Generated_Source\PSoC4/BLE_ias.c **** CYBLE_IASC_T cyBle_iasc;
  39:.\Generated_Source\PSoC4/BLE_ias.c **** 
  40:.\Generated_Source\PSoC4/BLE_ias.c **** #endif /* (CYBLE_IAS_CLIENT) */
  41:.\Generated_Source\PSoC4/BLE_ias.c **** 
  42:.\Generated_Source\PSoC4/BLE_ias.c **** 
  43:.\Generated_Source\PSoC4/BLE_ias.c **** /****************************************************************************** 
  44:.\Generated_Source\PSoC4/BLE_ias.c **** ##Function Name: CyBle_IasInit
  45:.\Generated_Source\PSoC4/BLE_ias.c **** *******************************************************************************
  46:.\Generated_Source\PSoC4/BLE_ias.c **** 
  47:.\Generated_Source\PSoC4/BLE_ias.c **** Summary:
  48:.\Generated_Source\PSoC4/BLE_ias.c ****  This function initializes the Immediate Alert Service.
  49:.\Generated_Source\PSoC4/BLE_ias.c **** 
  50:.\Generated_Source\PSoC4/BLE_ias.c **** Parameters:
  51:.\Generated_Source\PSoC4/BLE_ias.c ****  None
  52:.\Generated_Source\PSoC4/BLE_ias.c **** 
  53:.\Generated_Source\PSoC4/BLE_ias.c **** Return:
  54:.\Generated_Source\PSoC4/BLE_ias.c ****  None
  55:.\Generated_Source\PSoC4/BLE_ias.c **** 
  56:.\Generated_Source\PSoC4/BLE_ias.c **** ******************************************************************************/
  57:.\Generated_Source\PSoC4/BLE_ias.c **** void CyBle_IasInit(void)
  58:.\Generated_Source\PSoC4/BLE_ias.c **** {
  26              		.loc 1 58 0
  27              		.cfi_startproc
  59:.\Generated_Source\PSoC4/BLE_ias.c **** #ifdef CYBLE_IAS_CLIENT
  60:.\Generated_Source\PSoC4/BLE_ias.c **** 
  61:.\Generated_Source\PSoC4/BLE_ias.c ****     cyBle_iasc.alertLevelChar.valueHandle = CYBLE_GATT_INVALID_ATTR_HANDLE_VALUE;
  62:.\Generated_Source\PSoC4/BLE_ias.c **** 
  63:.\Generated_Source\PSoC4/BLE_ias.c **** #endif /* (CYBLE_IAS_CLIENT) */
  64:.\Generated_Source\PSoC4/BLE_ias.c **** }
  28              		.loc 1 64 0
  29              		@ sp needed
  30 0000 7047     		bx	lr
  31              		.cfi_endproc
  32              	.LFE2:
  33              		.size	CyBle_IasInit, .-CyBle_IasInit
  34 0002 C046     		.section	.text.CyBle_IasRegisterAttrCallback,"ax",%progbits
  35              		.align	2
  36              		.global	CyBle_IasRegisterAttrCallback
  37              		.code	16
  38              		.thumb_func
  39              		.type	CyBle_IasRegisterAttrCallback, %function
  40              	CyBle_IasRegisterAttrCallback:
  41              	.LFB3:
  65:.\Generated_Source\PSoC4/BLE_ias.c **** 
  66:.\Generated_Source\PSoC4/BLE_ias.c **** 
  67:.\Generated_Source\PSoC4/BLE_ias.c **** #ifdef CYBLE_IAS_SERVER
  68:.\Generated_Source\PSoC4/BLE_ias.c **** 
  69:.\Generated_Source\PSoC4/BLE_ias.c **** /****************************************************************************** 
  70:.\Generated_Source\PSoC4/BLE_ias.c **** ##Function Name: CyBle_IasRegisterAttrCallback
  71:.\Generated_Source\PSoC4/BLE_ias.c **** *******************************************************************************
  72:.\Generated_Source\PSoC4/BLE_ias.c **** 
  73:.\Generated_Source\PSoC4/BLE_ias.c **** Summary:
ARM GAS  C:\Users\danielpi\AppData\Local\Temp\ccmz4WAf.s 			page 3


  74:.\Generated_Source\PSoC4/BLE_ias.c ****  Registers callback function for service specific attribute operations.
  75:.\Generated_Source\PSoC4/BLE_ias.c **** 
  76:.\Generated_Source\PSoC4/BLE_ias.c **** Parameters:
  77:.\Generated_Source\PSoC4/BLE_ias.c ****  callbackFunc: An application layer event callback function to receive 
  78:.\Generated_Source\PSoC4/BLE_ias.c ****                     events from the BLE Component. The definition of 
  79:.\Generated_Source\PSoC4/BLE_ias.c ****                     CYBLE_CALLBACK_T for IAS Service is,
  80:.\Generated_Source\PSoC4/BLE_ias.c ****             
  81:.\Generated_Source\PSoC4/BLE_ias.c ****                     typedef void (* CYBLE_CALLBACK_T) (uint32 eventCode, 
  82:.\Generated_Source\PSoC4/BLE_ias.c ****                                                        void *eventParam)
  83:.\Generated_Source\PSoC4/BLE_ias.c **** 
  84:.\Generated_Source\PSoC4/BLE_ias.c ****                     * eventCode indicates the event that triggered this 
  85:.\Generated_Source\PSoC4/BLE_ias.c ****                       callback (e.g. CYBLE_EVT_IASS_NOTIFICATION_ENABLED).
  86:.\Generated_Source\PSoC4/BLE_ias.c ****                     * eventParam contains the parameters corresponding to the 
  87:.\Generated_Source\PSoC4/BLE_ias.c ****                       current event. (e.g. pointer to CYBLE_IAS_CHAR_VALUE_T
  88:.\Generated_Source\PSoC4/BLE_ias.c ****                       structure that contains details of the characteristic 
  89:.\Generated_Source\PSoC4/BLE_ias.c ****                       for which notification enabled event was triggered).
  90:.\Generated_Source\PSoC4/BLE_ias.c **** Return:
  91:.\Generated_Source\PSoC4/BLE_ias.c ****  None
  92:.\Generated_Source\PSoC4/BLE_ias.c **** 
  93:.\Generated_Source\PSoC4/BLE_ias.c **** Side Effects:
  94:.\Generated_Source\PSoC4/BLE_ias.c ****  The *eventParams in the callback function should not be used by the
  95:.\Generated_Source\PSoC4/BLE_ias.c ****  application once the callback function execution is finished. Otherwise 
  96:.\Generated_Source\PSoC4/BLE_ias.c ****  this data may become corrupted.
  97:.\Generated_Source\PSoC4/BLE_ias.c **** Note:
  98:.\Generated_Source\PSoC4/BLE_ias.c ****  IAS only has events for the GATT server. There are no events for the GATT 
  99:.\Generated_Source\PSoC4/BLE_ias.c ****  client since the client sends data without waiting for response. Therefore 
 100:.\Generated_Source\PSoC4/BLE_ias.c ****  there is no need to register a callback through CyBle_IasRegisterAttrCallback
 101:.\Generated_Source\PSoC4/BLE_ias.c ****  for an IAS GATT client.
 102:.\Generated_Source\PSoC4/BLE_ias.c **** 
 103:.\Generated_Source\PSoC4/BLE_ias.c **** ******************************************************************************/
 104:.\Generated_Source\PSoC4/BLE_ias.c **** void CyBle_IasRegisterAttrCallback(CYBLE_CALLBACK_T callbackFunc)
 105:.\Generated_Source\PSoC4/BLE_ias.c **** {
  42              		.loc 1 105 0
  43              		.cfi_startproc
  44              	.LVL0:
 106:.\Generated_Source\PSoC4/BLE_ias.c ****     CyBle_IasApplCallback = callbackFunc;
  45              		.loc 1 106 0
  46 0000 014B     		ldr	r3, .L3
  47 0002 1860     		str	r0, [r3]
 107:.\Generated_Source\PSoC4/BLE_ias.c **** }
  48              		.loc 1 107 0
  49              		@ sp needed
  50 0004 7047     		bx	lr
  51              	.L4:
  52 0006 C046     		.align	2
  53              	.L3:
  54 0008 00000000 		.word	.LANCHOR0
  55              		.cfi_endproc
  56              	.LFE3:
  57              		.size	CyBle_IasRegisterAttrCallback, .-CyBle_IasRegisterAttrCallback
  58              		.section	.text.CyBle_IassDisconnectEventHandler,"ax",%progbits
  59              		.align	2
  60              		.global	CyBle_IassDisconnectEventHandler
  61              		.code	16
  62              		.thumb_func
  63              		.type	CyBle_IassDisconnectEventHandler, %function
  64              	CyBle_IassDisconnectEventHandler:
ARM GAS  C:\Users\danielpi\AppData\Local\Temp\ccmz4WAf.s 			page 4


  65              	.LFB4:
 108:.\Generated_Source\PSoC4/BLE_ias.c **** 
 109:.\Generated_Source\PSoC4/BLE_ias.c **** 
 110:.\Generated_Source\PSoC4/BLE_ias.c **** /****************************************************************************** 
 111:.\Generated_Source\PSoC4/BLE_ias.c **** ##Function Name: CyBle_IassDisconnectEventHandler
 112:.\Generated_Source\PSoC4/BLE_ias.c **** *******************************************************************************
 113:.\Generated_Source\PSoC4/BLE_ias.c **** 
 114:.\Generated_Source\PSoC4/BLE_ias.c **** Summary:
 115:.\Generated_Source\PSoC4/BLE_ias.c ****  Handles the Disconnection Indication Event for the Immediate Alert service.
 116:.\Generated_Source\PSoC4/BLE_ias.c **** 
 117:.\Generated_Source\PSoC4/BLE_ias.c **** Parameters:
 118:.\Generated_Source\PSoC4/BLE_ias.c ****  None
 119:.\Generated_Source\PSoC4/BLE_ias.c **** 
 120:.\Generated_Source\PSoC4/BLE_ias.c **** Return:
 121:.\Generated_Source\PSoC4/BLE_ias.c ****  None
 122:.\Generated_Source\PSoC4/BLE_ias.c **** 
 123:.\Generated_Source\PSoC4/BLE_ias.c **** ******************************************************************************/
 124:.\Generated_Source\PSoC4/BLE_ias.c **** void CyBle_IassDisconnectEventHandler(void)
 125:.\Generated_Source\PSoC4/BLE_ias.c **** {
  66              		.loc 1 125 0
  67              		.cfi_startproc
  68 0000 00B5     		push	{lr}
  69              		.cfi_def_cfa_offset 4
  70              		.cfi_offset 14, -4
  71 0002 85B0     		sub	sp, sp, #20
  72              		.cfi_def_cfa_offset 24
 126:.\Generated_Source\PSoC4/BLE_ias.c ****     uint8 tmpAlertLevel = CYBLE_NO_ALERT;
  73              		.loc 1 126 0
  74 0004 6B46     		mov	r3, sp
  75 0006 0022     		mov	r2, #0
  76 0008 DA73     		strb	r2, [r3, #15]
  77 000a 0F33     		add	r3, r3, #15
 127:.\Generated_Source\PSoC4/BLE_ias.c ****     CYBLE_GATT_HANDLE_VALUE_PAIR_T handleVal;
 128:.\Generated_Source\PSoC4/BLE_ias.c ****     
 129:.\Generated_Source\PSoC4/BLE_ias.c ****     handleVal.attrHandle = cyBle_iass.alertLevelCharHandle;
  78              		.loc 1 129 0
  79 000c 0E22     		mov	r2, #14
  80 000e 6946     		mov	r1, sp
  81 0010 0A81     		strh	r2, [r1, #8]
 130:.\Generated_Source\PSoC4/BLE_ias.c ****     handleVal.value.val = &tmpAlertLevel;
  82              		.loc 1 130 0
  83 0012 0093     		str	r3, [sp]
 131:.\Generated_Source\PSoC4/BLE_ias.c ****     handleVal.value.len = CYBLE_IAS_ALERT_LEVEL_SIZE;
  84              		.loc 1 131 0
  85 0014 0123     		mov	r3, #1
  86 0016 8B80     		strh	r3, [r1, #4]
 132:.\Generated_Source\PSoC4/BLE_ias.c ****     
 133:.\Generated_Source\PSoC4/BLE_ias.c ****     /* Set alert level to "No Alert" per IAS spec */
 134:.\Generated_Source\PSoC4/BLE_ias.c ****     (void) CyBle_GattsWriteAttributeValue(&handleVal, 0u, NULL, CYBLE_GATT_DB_LOCALLY_INITIATED);
  87              		.loc 1 134 0
  88 0018 6846     		mov	r0, sp
  89 001a 0021     		mov	r1, #0
  90 001c 0022     		mov	r2, #0
  91 001e 0023     		mov	r3, #0
  92 0020 FFF7FEFF 		bl	CyBle_GattsWriteAttributeValue
  93              	.LVL1:
 135:.\Generated_Source\PSoC4/BLE_ias.c **** }
ARM GAS  C:\Users\danielpi\AppData\Local\Temp\ccmz4WAf.s 			page 5


  94              		.loc 1 135 0
  95 0024 05B0     		add	sp, sp, #20
  96              		@ sp needed
  97 0026 00BD     		pop	{pc}
  98              		.cfi_endproc
  99              	.LFE4:
 100              		.size	CyBle_IassDisconnectEventHandler, .-CyBle_IassDisconnectEventHandler
 101              		.section	.text.CyBle_IassWriteCmdEventHandler,"ax",%progbits
 102              		.align	2
 103              		.global	CyBle_IassWriteCmdEventHandler
 104              		.code	16
 105              		.thumb_func
 106              		.type	CyBle_IassWriteCmdEventHandler, %function
 107              	CyBle_IassWriteCmdEventHandler:
 108              	.LFB5:
 136:.\Generated_Source\PSoC4/BLE_ias.c **** 
 137:.\Generated_Source\PSoC4/BLE_ias.c **** 
 138:.\Generated_Source\PSoC4/BLE_ias.c **** /****************************************************************************** 
 139:.\Generated_Source\PSoC4/BLE_ias.c **** ##Function Name: CyBle_IassWriteCmdEventHandler
 140:.\Generated_Source\PSoC4/BLE_ias.c **** *******************************************************************************
 141:.\Generated_Source\PSoC4/BLE_ias.c **** 
 142:.\Generated_Source\PSoC4/BLE_ias.c **** Summary:
 143:.\Generated_Source\PSoC4/BLE_ias.c ****  Handles the Write Without Response Request Event for the Immediate Alert 
 144:.\Generated_Source\PSoC4/BLE_ias.c ****  Service.
 145:.\Generated_Source\PSoC4/BLE_ias.c **** 
 146:.\Generated_Source\PSoC4/BLE_ias.c **** Parameters:
 147:.\Generated_Source\PSoC4/BLE_ias.c ****  CYBLE_GATTS_WRITE_CMD_REQ_PARAM_T * eventParam: The pointer to a data structure
 148:.\Generated_Source\PSoC4/BLE_ias.c ****                                                    specified by the event.
 149:.\Generated_Source\PSoC4/BLE_ias.c **** 
 150:.\Generated_Source\PSoC4/BLE_ias.c **** Return:
 151:.\Generated_Source\PSoC4/BLE_ias.c ****  None
 152:.\Generated_Source\PSoC4/BLE_ias.c **** 
 153:.\Generated_Source\PSoC4/BLE_ias.c **** ******************************************************************************/
 154:.\Generated_Source\PSoC4/BLE_ias.c **** void CyBle_IassWriteCmdEventHandler(CYBLE_GATTS_WRITE_CMD_REQ_PARAM_T *eventParam)
 155:.\Generated_Source\PSoC4/BLE_ias.c **** {
 109              		.loc 1 155 0
 110              		.cfi_startproc
 111              	.LVL2:
 112 0000 10B5     		push	{r4, lr}
 113              		.cfi_def_cfa_offset 8
 114              		.cfi_offset 4, -8
 115              		.cfi_offset 14, -4
 116 0002 82B0     		sub	sp, sp, #8
 117              		.cfi_def_cfa_offset 16
 118 0004 041C     		mov	r4, r0
 156:.\Generated_Source\PSoC4/BLE_ias.c ****     CYBLE_IAS_CHAR_VALUE_T wrCmdParam;
 157:.\Generated_Source\PSoC4/BLE_ias.c ****     
 158:.\Generated_Source\PSoC4/BLE_ias.c ****     if(NULL != CyBle_IasApplCallback)
 119              		.loc 1 158 0
 120 0006 154B     		ldr	r3, .L8
 121 0008 1B68     		ldr	r3, [r3]
 122 000a 002B     		cmp	r3, #0
 123 000c 23D0     		beq	.L6
 159:.\Generated_Source\PSoC4/BLE_ias.c ****     {
 160:.\Generated_Source\PSoC4/BLE_ias.c ****         /* Check if attribute handle is handle of Alert Level characteristic of
 161:.\Generated_Source\PSoC4/BLE_ias.c ****            Immediate Alert service. */
 162:.\Generated_Source\PSoC4/BLE_ias.c ****         if((cyBle_iass.alertLevelCharHandle == eventParam->handleValPair.attrHandle) &&
ARM GAS  C:\Users\danielpi\AppData\Local\Temp\ccmz4WAf.s 			page 6


 124              		.loc 1 162 0
 125 000e 8389     		ldrh	r3, [r0, #12]
 126 0010 0E2B     		cmp	r3, #14
 127 0012 20D1     		bne	.L6
 163:.\Generated_Source\PSoC4/BLE_ias.c ****             (CYBLE_IAS_ALERT_LEVEL_SIZE == eventParam->handleValPair.value.len) &&
 128              		.loc 1 163 0 discriminator 1
 129 0014 0389     		ldrh	r3, [r0, #8]
 162:.\Generated_Source\PSoC4/BLE_ias.c ****         if((cyBle_iass.alertLevelCharHandle == eventParam->handleValPair.attrHandle) &&
 130              		.loc 1 162 0 discriminator 1
 131 0016 012B     		cmp	r3, #1
 132 0018 1DD1     		bne	.L6
 164:.\Generated_Source\PSoC4/BLE_ias.c ****                 (CYBLE_HIGH_ALERT >= eventParam->handleValPair.value.val[0u]))
 133              		.loc 1 164 0
 134 001a 4268     		ldr	r2, [r0, #4]
 135 001c 1378     		ldrb	r3, [r2]
 163:.\Generated_Source\PSoC4/BLE_ias.c ****             (CYBLE_IAS_ALERT_LEVEL_SIZE == eventParam->handleValPair.value.len) &&
 136              		.loc 1 163 0
 137 001e 022B     		cmp	r3, #2
 138 0020 19D8     		bhi	.L6
 165:.\Generated_Source\PSoC4/BLE_ias.c ****         {   
 166:.\Generated_Source\PSoC4/BLE_ias.c ****             /* Input parameters validation passed, so save Alert Level */
 167:.\Generated_Source\PSoC4/BLE_ias.c ****             if(CYBLE_GATT_ERR_NONE ==
 168:.\Generated_Source\PSoC4/BLE_ias.c ****                 CyBle_GattsWriteAttributeValue(&eventParam->handleValPair, 
 139              		.loc 1 168 0
 140 0022 0430     		add	r0, r0, #4
 141              	.LVL3:
 142 0024 0021     		mov	r1, #0
 143 0026 221C     		mov	r2, r4
 144 0028 4023     		mov	r3, #64
 145 002a FFF7FEFF 		bl	CyBle_GattsWriteAttributeValue
 146              	.LVL4:
 167:.\Generated_Source\PSoC4/BLE_ias.c ****             if(CYBLE_GATT_ERR_NONE ==
 147              		.loc 1 167 0
 148 002e 0028     		cmp	r0, #0
 149 0030 11D1     		bne	.L6
 169:.\Generated_Source\PSoC4/BLE_ias.c ****                                                0u, 
 170:.\Generated_Source\PSoC4/BLE_ias.c ****                                                &eventParam->connHandle,
 171:.\Generated_Source\PSoC4/BLE_ias.c ****                                                CYBLE_GATT_DB_PEER_INITIATED))
 172:.\Generated_Source\PSoC4/BLE_ias.c ****             {
 173:.\Generated_Source\PSoC4/BLE_ias.c ****                 wrCmdParam.connHandle = eventParam->connHandle;
 150              		.loc 1 173 0
 151 0032 2388     		ldrh	r3, [r4]
 152 0034 6A46     		mov	r2, sp
 153 0036 1380     		strh	r3, [r2]
 174:.\Generated_Source\PSoC4/BLE_ias.c ****                 wrCmdParam.charIndex = CYBLE_IAS_ALERT_LEVEL;
 154              		.loc 1 174 0
 155 0038 0023     		mov	r3, #0
 156 003a 9370     		strb	r3, [r2, #2]
 175:.\Generated_Source\PSoC4/BLE_ias.c ****                 wrCmdParam.value = &eventParam->handleValPair.value;
 157              		.loc 1 175 0
 158 003c 0434     		add	r4, r4, #4
 159              	.LVL5:
 160 003e 0194     		str	r4, [sp, #4]
 176:.\Generated_Source\PSoC4/BLE_ias.c ****                 
 177:.\Generated_Source\PSoC4/BLE_ias.c ****                 /* Send callback to user if no error occurred while writing Alert Level */
 178:.\Generated_Source\PSoC4/BLE_ias.c ****                 CyBle_IasApplCallback((uint32) CYBLE_EVT_IASS_WRITE_CHAR_CMD, (void *) &wrCmdParam)
 161              		.loc 1 178 0
ARM GAS  C:\Users\danielpi\AppData\Local\Temp\ccmz4WAf.s 			page 7


 162 0040 064B     		ldr	r3, .L8
 163 0042 1B68     		ldr	r3, [r3]
 164 0044 A820     		mov	r0, #168
 165 0046 FF30     		add	r0, r0, #255
 166 0048 6946     		mov	r1, sp
 167 004a 9847     		blx	r3
 168              	.LVL6:
 179:.\Generated_Source\PSoC4/BLE_ias.c ****                 cyBle_eventHandlerFlag &= (uint8) (~CYBLE_CALLBACK);
 169              		.loc 1 179 0
 170 004c 044B     		ldr	r3, .L8+4
 171 004e 1A78     		ldrb	r2, [r3]
 172 0050 0121     		mov	r1, #1
 173 0052 8A43     		bic	r2, r1
 174 0054 1A70     		strb	r2, [r3]
 175              	.LVL7:
 176              	.L6:
 180:.\Generated_Source\PSoC4/BLE_ias.c ****             }
 181:.\Generated_Source\PSoC4/BLE_ias.c ****         }
 182:.\Generated_Source\PSoC4/BLE_ias.c ****         /* As this handler handles Write Without Response request the error response
 183:.\Generated_Source\PSoC4/BLE_ias.c ****           can't be sent for the Client. The erroneous value will be with
 184:.\Generated_Source\PSoC4/BLE_ias.c ****           CYBLE_EVT_GATTS_WRITE_CMD_REQ event. User will decide how to handle it. */
 185:.\Generated_Source\PSoC4/BLE_ias.c ****     }
 186:.\Generated_Source\PSoC4/BLE_ias.c **** }
 177              		.loc 1 186 0
 178 0056 02B0     		add	sp, sp, #8
 179              		@ sp needed
 180 0058 10BD     		pop	{r4, pc}
 181              	.L9:
 182 005a C046     		.align	2
 183              	.L8:
 184 005c 00000000 		.word	.LANCHOR0
 185 0060 00000000 		.word	cyBle_eventHandlerFlag
 186              		.cfi_endproc
 187              	.LFE5:
 188              		.size	CyBle_IassWriteCmdEventHandler, .-CyBle_IassWriteCmdEventHandler
 189              		.section	.text.CyBle_IassGetCharacteristicValue,"ax",%progbits
 190              		.align	2
 191              		.global	CyBle_IassGetCharacteristicValue
 192              		.code	16
 193              		.thumb_func
 194              		.type	CyBle_IassGetCharacteristicValue, %function
 195              	CyBle_IassGetCharacteristicValue:
 196              	.LFB6:
 187:.\Generated_Source\PSoC4/BLE_ias.c **** 
 188:.\Generated_Source\PSoC4/BLE_ias.c **** 
 189:.\Generated_Source\PSoC4/BLE_ias.c **** /****************************************************************************** 
 190:.\Generated_Source\PSoC4/BLE_ias.c **** ##Function Name: CyBle_IassGetCharacteristicValue
 191:.\Generated_Source\PSoC4/BLE_ias.c **** *******************************************************************************
 192:.\Generated_Source\PSoC4/BLE_ias.c **** 
 193:.\Generated_Source\PSoC4/BLE_ias.c **** Summary:
 194:.\Generated_Source\PSoC4/BLE_ias.c ****  Gets the Alert Level characteristic value of the service, which is identified
 195:.\Generated_Source\PSoC4/BLE_ias.c ****  by charIndex.
 196:.\Generated_Source\PSoC4/BLE_ias.c **** 
 197:.\Generated_Source\PSoC4/BLE_ias.c **** Parameters:
 198:.\Generated_Source\PSoC4/BLE_ias.c ****  charIndex: The index of the Alert Level characteristic.
 199:.\Generated_Source\PSoC4/BLE_ias.c ****  attrSize: The size of the Alert Level characteristic value attribute.
 200:.\Generated_Source\PSoC4/BLE_ias.c ****  *attrValue: The pointer to the location where the Alert Level characteristic
ARM GAS  C:\Users\danielpi\AppData\Local\Temp\ccmz4WAf.s 			page 8


 201:.\Generated_Source\PSoC4/BLE_ias.c ****               value data should b stored.
 202:.\Generated_Source\PSoC4/BLE_ias.c **** 
 203:.\Generated_Source\PSoC4/BLE_ias.c **** Return:
 204:.\Generated_Source\PSoC4/BLE_ias.c ****  Return value is of type CYBLE_API_RESULT_T.
 205:.\Generated_Source\PSoC4/BLE_ias.c ****   * CYBLE_ERROR_OK - The characteristic value was read successfully
 206:.\Generated_Source\PSoC4/BLE_ias.c ****   * CYBLE_ERROR_INVALID_PARAMETER - Validation of the input parameters failed
 207:.\Generated_Source\PSoC4/BLE_ias.c **** 
 208:.\Generated_Source\PSoC4/BLE_ias.c **** ******************************************************************************/
 209:.\Generated_Source\PSoC4/BLE_ias.c **** CYBLE_API_RESULT_T CyBle_IassGetCharacteristicValue(CYBLE_IAS_CHAR_INDEX_T charIndex, uint8 attrSiz
 210:.\Generated_Source\PSoC4/BLE_ias.c **** {
 197              		.loc 1 210 0
 198              		.cfi_startproc
 199              	.LVL8:
 200 0000 00B5     		push	{lr}
 201              		.cfi_def_cfa_offset 4
 202              		.cfi_offset 14, -4
 203 0002 85B0     		sub	sp, sp, #20
 204              		.cfi_def_cfa_offset 24
 205              	.LVL9:
 211:.\Generated_Source\PSoC4/BLE_ias.c ****     CYBLE_GATT_HANDLE_VALUE_PAIR_T iasHandleValuePair;
 212:.\Generated_Source\PSoC4/BLE_ias.c ****     CYBLE_API_RESULT_T apiResult = CYBLE_ERROR_INVALID_PARAMETER;
 213:.\Generated_Source\PSoC4/BLE_ias.c **** 
 214:.\Generated_Source\PSoC4/BLE_ias.c ****     if((NULL != attrValue) && (CYBLE_IAS_ALERT_LEVEL == charIndex) && (CYBLE_IAS_ALERT_LEVEL_SIZE =
 206              		.loc 1 214 0
 207 0004 002A     		cmp	r2, #0
 208 0006 10D0     		beq	.L12
 209              		.loc 1 214 0 is_stmt 0 discriminator 1
 210 0008 0028     		cmp	r0, #0
 211 000a 10D1     		bne	.L13
 212 000c 0129     		cmp	r1, #1
 213 000e 10D1     		bne	.L14
 215:.\Generated_Source\PSoC4/BLE_ias.c ****     {
 216:.\Generated_Source\PSoC4/BLE_ias.c ****         iasHandleValuePair.attrHandle = cyBle_iass.alertLevelCharHandle;
 214              		.loc 1 216 0 is_stmt 1
 215 0010 01A8     		add	r0, sp, #4
 216              	.LVL10:
 217 0012 0E23     		mov	r3, #14
 218 0014 0381     		strh	r3, [r0, #8]
 217:.\Generated_Source\PSoC4/BLE_ias.c ****         iasHandleValuePair.value.len = attrSize;
 219              		.loc 1 217 0
 220 0016 8180     		strh	r1, [r0, #4]
 218:.\Generated_Source\PSoC4/BLE_ias.c ****         iasHandleValuePair.value.val = attrValue;
 221              		.loc 1 218 0
 222 0018 0192     		str	r2, [sp, #4]
 219:.\Generated_Source\PSoC4/BLE_ias.c ****         
 220:.\Generated_Source\PSoC4/BLE_ias.c ****         /* Get Alert Level characteristic value from GATT database */
 221:.\Generated_Source\PSoC4/BLE_ias.c ****         if(CYBLE_GATT_ERR_NONE == 
 222:.\Generated_Source\PSoC4/BLE_ias.c ****             CyBle_GattsReadAttributeValue(&iasHandleValuePair, NULL, CYBLE_GATT_DB_LOCALLY_INITIATE
 223              		.loc 1 222 0
 224 001a 0021     		mov	r1, #0
 225              	.LVL11:
 226 001c 0022     		mov	r2, #0
 227              	.LVL12:
 228 001e FFF7FEFF 		bl	CyBle_GattsReadAttributeValue
 229              	.LVL13:
 221:.\Generated_Source\PSoC4/BLE_ias.c ****         if(CYBLE_GATT_ERR_NONE == 
 230              		.loc 1 221 0
ARM GAS  C:\Users\danielpi\AppData\Local\Temp\ccmz4WAf.s 			page 9


 231 0022 0028     		cmp	r0, #0
 232 0024 07D0     		beq	.L15
 212:.\Generated_Source\PSoC4/BLE_ias.c ****     CYBLE_API_RESULT_T apiResult = CYBLE_ERROR_INVALID_PARAMETER;
 233              		.loc 1 212 0
 234 0026 0120     		mov	r0, #1
 235 0028 06E0     		b	.L11
 236              	.LVL14:
 237              	.L12:
 238 002a 0120     		mov	r0, #1
 239              	.LVL15:
 240 002c 04E0     		b	.L11
 241              	.LVL16:
 242              	.L13:
 243 002e 0120     		mov	r0, #1
 244              	.LVL17:
 245 0030 02E0     		b	.L11
 246              	.LVL18:
 247              	.L14:
 248 0032 0120     		mov	r0, #1
 249              	.LVL19:
 250 0034 00E0     		b	.L11
 251              	.LVL20:
 252              	.L15:
 223:.\Generated_Source\PSoC4/BLE_ias.c ****         {
 224:.\Generated_Source\PSoC4/BLE_ias.c ****             /* Indicate success */
 225:.\Generated_Source\PSoC4/BLE_ias.c ****             apiResult = CYBLE_ERROR_OK;
 253              		.loc 1 225 0
 254 0036 0020     		mov	r0, #0
 255              	.L11:
 256              	.LVL21:
 226:.\Generated_Source\PSoC4/BLE_ias.c ****         }
 227:.\Generated_Source\PSoC4/BLE_ias.c ****     }
 228:.\Generated_Source\PSoC4/BLE_ias.c **** 
 229:.\Generated_Source\PSoC4/BLE_ias.c ****     /* Return status */
 230:.\Generated_Source\PSoC4/BLE_ias.c ****     return(apiResult);
 231:.\Generated_Source\PSoC4/BLE_ias.c **** }
 257              		.loc 1 231 0
 258 0038 05B0     		add	sp, sp, #20
 259              		@ sp needed
 260 003a 00BD     		pop	{pc}
 261              		.cfi_endproc
 262              	.LFE6:
 263              		.size	CyBle_IassGetCharacteristicValue, .-CyBle_IassGetCharacteristicValue
 264              		.global	cyBle_iass
 265              		.section	.rodata
 266              		.align	2
 267              		.type	cyBle_iass, %object
 268              		.size	cyBle_iass, 4
 269              	cyBle_iass:
 270 0000 0C00     		.short	12
 271 0002 0E00     		.short	14
 272              		.bss
 273              		.align	2
 274              		.set	.LANCHOR0,. + 0
 275              		.type	CyBle_IasApplCallback, %object
 276              		.size	CyBle_IasApplCallback, 4
 277              	CyBle_IasApplCallback:
ARM GAS  C:\Users\danielpi\AppData\Local\Temp\ccmz4WAf.s 			page 10


 278 0000 00000000 		.space	4
 279              		.text
 280              	.Letext0:
 281              		.file 2 ".\\Generated_Source\\PSoC4\\cytypes.h"
 282              		.file 3 ".\\Generated_Source\\PSoC4\\BLE_Stack.h"
 283              		.file 4 ".\\Generated_Source\\PSoC4\\BLE_StackGatt.h"
 284              		.file 5 ".\\Generated_Source\\PSoC4\\BLE_StackGattServer.h"
 285              		.file 6 ".\\Generated_Source\\PSoC4\\BLE.h"
 286              		.file 7 ".\\Generated_Source\\PSoC4\\BLE_ias.h"
 287              		.file 8 ".\\Generated_Source\\PSoC4\\BLE_eventHandler.h"
 288              		.file 9 ".\\Generated_Source\\PSoC4\\BLE_StackGattDb.h"