ARM GAS  C:\Users\danielpi\AppData\Local\Temp\ccJzbaNb.s 			page 1


   1              		.cpu cortex-m0
   2              		.fpu softvfp
   3              		.eabi_attribute 20, 1
   4              		.eabi_attribute 21, 1
   5              		.eabi_attribute 23, 3
   6              		.eabi_attribute 24, 1
   7              		.eabi_attribute 25, 1
   8              		.eabi_attribute 26, 1
   9              		.eabi_attribute 30, 1
  10              		.eabi_attribute 34, 0
  11              		.eabi_attribute 18, 4
  12              		.code	16
  13              		.file	"main.c"
  14              		.text
  15              	.Ltext0:
  16              		.cfi_sections	.debug_frame
  17              		.section	.text.StackEventHandler,"ax",%progbits
  18              		.align	2
  19              		.global	StackEventHandler
  20              		.code	16
  21              		.thumb_func
  22              		.type	StackEventHandler, %function
  23              	StackEventHandler:
  24              	.LFB36:
  25              		.file 1 ".\\main.c"
   1:.\main.c      **** /* ========================================
   2:.\main.c      ****  *
   3:.\main.c      ****  * Copyright Electronic Innovations, 2015
   4:.\main.c      ****  * All Rights Reserved
   5:.\main.c      ****  * UNPUBLISHED, LICENSED SOFTWARE.
   6:.\main.c      ****  *
   7:.\main.c      ****  * CONFIDENTIAL AND PROPRIETARY INFORMATION
   8:.\main.c      ****  * WHICH IS THE PROPERTY OF your company.
   9:.\main.c      ****  *
  10:.\main.c      ****  * ========================================
  11:.\main.c      **** */
  12:.\main.c      **** #include <project.h>
  13:.\main.c      **** //#include "ias.h"
  14:.\main.c      **** //#include "common.h"
  15:.\main.c      **** 
  16:.\main.c      **** #define NO_ALERT           (0u)
  17:.\main.c      **** #define MILD_ALERT         (1u)
  18:.\main.c      **** #define HIGH_ALERT         (2u)
  19:.\main.c      **** 
  20:.\main.c      **** #define NO_ALERT_COMPARE   (0u)
  21:.\main.c      **** #define MILD_ALERT_COMPARE (250u)
  22:.\main.c      **** #define HIGH_ALERT_COMPARE (500u)
  23:.\main.c      **** 
  24:.\main.c      **** // Function Prototypes
  25:.\main.c      **** void StackEventHandler(uint32 eventCode, void *eventParam);
  26:.\main.c      **** void IasEventHandler(uint32 eventCode, void *eventParam);
  27:.\main.c      **** void HandleAlertLEDs(uint8 status);
  28:.\main.c      **** 
  29:.\main.c      **** 
  30:.\main.c      **** int main()
  31:.\main.c      **** {
  32:.\main.c      ****     CyGlobalIntEnable;   /* Enable global interrupts */
ARM GAS  C:\Users\danielpi\AppData\Local\Temp\ccJzbaNb.s 			page 2


  33:.\main.c      ****     
  34:.\main.c      ****     /* Place your initialization/startup code here (e.g. MyInst_Start()) */
  35:.\main.c      ****     
  36:.\main.c      **** 
  37:.\main.c      ****     CyBle_Start( StackEventHandler );
  38:.\main.c      ****     PWM_1_Start();
  39:.\main.c      ****     PWM_2_Start();
  40:.\main.c      ****     PWM_3_Start();
  41:.\main.c      ****     CyBle_IasRegisterAttrCallback(IasEventHandler);
  42:.\main.c      ****     
  43:.\main.c      ****     while(1)
  44:.\main.c      ****     {
  45:.\main.c      ****         /* Place your application code here */
  46:.\main.c      ****         CyBle_ProcessEvents();
  47:.\main.c      ****     }
  48:.\main.c      **** }
  49:.\main.c      **** 
  50:.\main.c      **** void StackEventHandler( uint32 eventCode, void *eventParam )
  51:.\main.c      **** {
  26              		.loc 1 51 0
  27              		.cfi_startproc
  28              	.LVL0:
  29 0000 08B5     		push	{r3, lr}
  30              		.cfi_def_cfa_offset 8
  31              		.cfi_offset 3, -8
  32              		.cfi_offset 14, -4
  52:.\main.c      ****     switch( eventCode )
  33              		.loc 1 52 0
  34 0002 0128     		cmp	r0, #1
  35 0004 01D0     		beq	.L3
  36 0006 2828     		cmp	r0, #40
  37 0008 02D1     		bne	.L1
  38              	.L3:
  53:.\main.c      ****     {
  54:.\main.c      ****         case CYBLE_EVT_STACK_ON:
  55:.\main.c      ****         case CYBLE_EVT_GAP_DEVICE_DISCONNECTED:
  56:.\main.c      ****             CyBle_GappStartAdvertisement( CYBLE_ADVERTISING_FAST );
  39              		.loc 1 56 0
  40 000a 0020     		mov	r0, #0
  41              	.LVL1:
  42 000c FFF7FEFF 		bl	CyBle_GappStartAdvertisement
  43              	.LVL2:
  44              	.L1:
  57:.\main.c      ****             break;
  58:.\main.c      **** 
  59:.\main.c      ****         default:
  60:.\main.c      ****             break;
  61:.\main.c      ****     }
  62:.\main.c      **** }
  45              		.loc 1 62 0
  46              		@ sp needed
  47 0010 08BD     		pop	{r3, pc}
  48              		.cfi_endproc
  49              	.LFE36:
  50              		.size	StackEventHandler, .-StackEventHandler
  51 0012 C046     		.section	.text.main,"ax",%progbits
  52              		.align	2
ARM GAS  C:\Users\danielpi\AppData\Local\Temp\ccJzbaNb.s 			page 3


  53              		.global	main
  54              		.code	16
  55              		.thumb_func
  56              		.type	main, %function
  57              	main:
  58              	.LFB35:
  31:.\main.c      **** {
  59              		.loc 1 31 0
  60              		.cfi_startproc
  61 0000 08B5     		push	{r3, lr}
  62              		.cfi_def_cfa_offset 8
  63              		.cfi_offset 3, -8
  64              		.cfi_offset 14, -4
  32:.\main.c      ****     CyGlobalIntEnable;   /* Enable global interrupts */
  65              		.loc 1 32 0
  66              	@ 32 ".\main.c" 1
  67 0002 62B6     		CPSIE   i
  68              	@ 0 "" 2
  37:.\main.c      ****     CyBle_Start( StackEventHandler );
  69              		.loc 1 37 0
  70              		.code	16
  71 0004 0748     		ldr	r0, .L6
  72 0006 FFF7FEFF 		bl	CyBle_Start
  73              	.LVL3:
  38:.\main.c      ****     PWM_1_Start();
  74              		.loc 1 38 0
  75 000a FFF7FEFF 		bl	PWM_1_Start
  76              	.LVL4:
  39:.\main.c      ****     PWM_2_Start();
  77              		.loc 1 39 0
  78 000e FFF7FEFF 		bl	PWM_2_Start
  79              	.LVL5:
  40:.\main.c      ****     PWM_3_Start();
  80              		.loc 1 40 0
  81 0012 FFF7FEFF 		bl	PWM_3_Start
  82              	.LVL6:
  41:.\main.c      ****     CyBle_IasRegisterAttrCallback(IasEventHandler);
  83              		.loc 1 41 0
  84 0016 0448     		ldr	r0, .L6+4
  85 0018 FFF7FEFF 		bl	CyBle_IasRegisterAttrCallback
  86              	.LVL7:
  87              	.L5:
  46:.\main.c      ****         CyBle_ProcessEvents();
  88              		.loc 1 46 0 discriminator 1
  89 001c FFF7FEFF 		bl	CyBle_ProcessEvents
  90              	.LVL8:
  91 0020 FCE7     		b	.L5
  92              	.L7:
  93 0022 C046     		.align	2
  94              	.L6:
  95 0024 00000000 		.word	StackEventHandler
  96 0028 00000000 		.word	IasEventHandler
  97              		.cfi_endproc
  98              	.LFE35:
  99              		.size	main, .-main
 100              		.section	.text.HandleAlertLEDs,"ax",%progbits
 101              		.align	2
ARM GAS  C:\Users\danielpi\AppData\Local\Temp\ccJzbaNb.s 			page 4


 102              		.global	HandleAlertLEDs
 103              		.code	16
 104              		.thumb_func
 105              		.type	HandleAlertLEDs, %function
 106              	HandleAlertLEDs:
 107              	.LFB38:
  63:.\main.c      **** 
  64:.\main.c      **** void IasEventHandler(uint32 eventCode, void *eventParam)
  65:.\main.c      **** {
  66:.\main.c      ****     uint8 alertLevel;
  67:.\main.c      ****     
  68:.\main.c      ****     switch(eventCode) {
  69:.\main.c      ****         case CYBLE_EVT_IASS_WRITE_CHAR_CMD:
  70:.\main.c      ****             // Extract the alert level
  71:.\main.c      ****             CyBle_IassGetCharacteristicValue(CYBLE_IAS_ALERT_LEVEL, sizeof(alertLevel), &alertLevel
  72:.\main.c      ****             HandleAlertLEDs(alertLevel);
  73:.\main.c      ****             break;
  74:.\main.c      ****         default:
  75:.\main.c      ****             break;
  76:.\main.c      ****     }
  77:.\main.c      **** }
  78:.\main.c      **** 
  79:.\main.c      **** void HandleAlertLEDs(uint8 status) {
 108              		.loc 1 79 0
 109              		.cfi_startproc
 110              	.LVL9:
 111 0000 08B5     		push	{r3, lr}
 112              		.cfi_def_cfa_offset 8
 113              		.cfi_offset 3, -8
 114              		.cfi_offset 14, -4
  80:.\main.c      ****     switch(status) 
 115              		.loc 1 80 0
 116 0002 0128     		cmp	r0, #1
 117 0004 0ED0     		beq	.L10
 118 0006 0028     		cmp	r0, #0
 119 0008 02D0     		beq	.L11
 120 000a 0228     		cmp	r0, #2
 121 000c 14D0     		beq	.L12
 122 000e 1CE0     		b	.L8
 123              	.L11:
  81:.\main.c      ****     {
  82:.\main.c      ****         case NO_ALERT:
  83:.\main.c      ****             PWM_1_WriteCompare(NO_ALERT_COMPARE);
 124              		.loc 1 83 0
 125 0010 0020     		mov	r0, #0
 126              	.LVL10:
 127 0012 FFF7FEFF 		bl	PWM_1_WriteCompare
 128              	.LVL11:
  84:.\main.c      ****             PWM_2_WriteCompare(NO_ALERT_COMPARE);
 129              		.loc 1 84 0
 130 0016 0020     		mov	r0, #0
 131 0018 FFF7FEFF 		bl	PWM_2_WriteCompare
 132              	.LVL12:
  85:.\main.c      ****             PWM_3_WriteCompare(NO_ALERT_COMPARE);
 133              		.loc 1 85 0
 134 001c 0020     		mov	r0, #0
 135 001e FFF7FEFF 		bl	PWM_3_WriteCompare
ARM GAS  C:\Users\danielpi\AppData\Local\Temp\ccJzbaNb.s 			page 5


 136              	.LVL13:
  86:.\main.c      ****             break;
 137              		.loc 1 86 0
 138 0022 12E0     		b	.L8
 139              	.LVL14:
 140              	.L10:
  87:.\main.c      ****             
  88:.\main.c      ****         case MILD_ALERT:
  89:.\main.c      ****             PWM_1_WriteCompare(203);
 141              		.loc 1 89 0
 142 0024 CB20     		mov	r0, #203
 143              	.LVL15:
 144 0026 FFF7FEFF 		bl	PWM_1_WriteCompare
 145              	.LVL16:
  90:.\main.c      ****             PWM_2_WriteCompare(192u);
 146              		.loc 1 90 0
 147 002a C020     		mov	r0, #192
 148 002c FFF7FEFF 		bl	PWM_2_WriteCompare
 149              	.LVL17:
  91:.\main.c      ****             PWM_3_WriteCompare(255u);
 150              		.loc 1 91 0
 151 0030 FF20     		mov	r0, #255
 152 0032 FFF7FEFF 		bl	PWM_3_WriteCompare
 153              	.LVL18:
  92:.\main.c      ****             break;
 154              		.loc 1 92 0
 155 0036 08E0     		b	.L8
 156              	.LVL19:
 157              	.L12:
  93:.\main.c      ****             
  94:.\main.c      ****         case HIGH_ALERT:
  95:.\main.c      ****             PWM_1_WriteCompare(60u);
 158              		.loc 1 95 0
 159 0038 3C20     		mov	r0, #60
 160              	.LVL20:
 161 003a FFF7FEFF 		bl	PWM_1_WriteCompare
 162              	.LVL21:
  96:.\main.c      ****             PWM_2_WriteCompare(20u);
 163              		.loc 1 96 0
 164 003e 1420     		mov	r0, #20
 165 0040 FFF7FEFF 		bl	PWM_2_WriteCompare
 166              	.LVL22:
  97:.\main.c      ****             PWM_3_WriteCompare(220u);
 167              		.loc 1 97 0
 168 0044 DC20     		mov	r0, #220
 169 0046 FFF7FEFF 		bl	PWM_3_WriteCompare
 170              	.LVL23:
 171              	.L8:
  98:.\main.c      ****             break;                
  99:.\main.c      ****     }
 100:.\main.c      ****         
 101:.\main.c      **** }...
 172              		.loc 1 101 0
 173              		@ sp needed
 174 004a 08BD     		pop	{r3, pc}
 175              		.cfi_endproc
 176              	.LFE38:
ARM GAS  C:\Users\danielpi\AppData\Local\Temp\ccJzbaNb.s 			page 6


 177              		.size	HandleAlertLEDs, .-HandleAlertLEDs
 178              		.section	.text.IasEventHandler,"ax",%progbits
 179              		.align	2
 180              		.global	IasEventHandler
 181              		.code	16
 182              		.thumb_func
 183              		.type	IasEventHandler, %function
 184              	IasEventHandler:
 185              	.LFB37:
  65:.\main.c      **** {
 186              		.loc 1 65 0
 187              		.cfi_startproc
 188              	.LVL24:
 189 0000 10B5     		push	{r4, lr}
 190              		.cfi_def_cfa_offset 8
 191              		.cfi_offset 4, -8
 192              		.cfi_offset 14, -4
 193 0002 82B0     		sub	sp, sp, #8
 194              		.cfi_def_cfa_offset 16
  68:.\main.c      ****     switch(eventCode) {
 195              		.loc 1 68 0
 196 0004 A823     		mov	r3, #168
 197 0006 FF33     		add	r3, r3, #255
 198 0008 9842     		cmp	r0, r3
 199 000a 09D1     		bne	.L13
  71:.\main.c      ****             CyBle_IassGetCharacteristicValue(CYBLE_IAS_ALERT_LEVEL, sizeof(alertLevel), &alertLevel
 200              		.loc 1 71 0
 201 000c 6C46     		mov	r4, sp
 202 000e 0734     		add	r4, r4, #7
 203 0010 0020     		mov	r0, #0
 204              	.LVL25:
 205 0012 0121     		mov	r1, #1
 206              	.LVL26:
 207 0014 221C     		mov	r2, r4
 208 0016 FFF7FEFF 		bl	CyBle_IassGetCharacteristicValue
 209              	.LVL27:
  72:.\main.c      ****             HandleAlertLEDs(alertLevel);
 210              		.loc 1 72 0
 211 001a 2078     		ldrb	r0, [r4]
 212 001c FFF7FEFF 		bl	HandleAlertLEDs
 213              	.LVL28:
 214              	.L13:
  77:.\main.c      **** }
 215              		.loc 1 77 0
 216 0020 02B0     		add	sp, sp, #8
 217              		@ sp needed
 218 0022 10BD     		pop	{r4, pc}
 219              		.cfi_endproc
 220              	.LFE37:
 221              		.size	IasEventHandler, .-IasEventHandler
 222              		.text
 223              	.Letext0:
 224              		.file 2 "Generated_Source\\PSoC4/cytypes.h"
 225              		.file 3 "Generated_Source\\PSoC4/BLE_Stack.h"
 226              		.file 4 "Generated_Source\\PSoC4/BLE.h"
 227              		.file 5 "Generated_Source\\PSoC4/BLE_ias.h"
 228              		.file 6 "Generated_Source\\PSoC4/BLE_eventHandler.h"
ARM GAS  C:\Users\danielpi\AppData\Local\Temp\ccJzbaNb.s 			page 7


 229              		.file 7 "Generated_Source\\PSoC4/PWM_1.h"
 230              		.file 8 "Generated_Source\\PSoC4/PWM_2.h"
 231              		.file 9 "Generated_Source\\PSoC4/PWM_3.h"